
gprof.elf:     file format elf32-littlearm


Disassembly of section .text:

00008000 <__code_start__>:
    8000:	e3a00013 	mov	r0, #19, 0
    8004:	e3800080 	orr	r0, r0, #128, 0	; 0x80
    8008:	e129f000 	msr	CPSR_fc, r0
    800c:	e3a01000 	mov	r1, #0, 0
    8010:	ee071f95 	mcr	15, 0, r1, cr7, cr5, {4}
    8014:	e3a0d302 	mov	sp, #134217728	; 0x8000000
    8018:	e3a0b000 	mov	fp, #0, 0
    801c:	eb000312 	bl	8c6c <_cstart>
    8020:	eb000329 	bl	8ccc <rpi_reboot>

00008024 <PUT32>:
    8024:	e5801000 	str	r1, [r0]
    8028:	e12fff1e 	bx	lr

0000802c <GET32>:
    802c:	e5900000 	ldr	r0, [r0]
    8030:	e12fff1e 	bx	lr

00008034 <gprof_inc>:
    8034:	e59f301c 	ldr	r3, [pc, #28]	; 8058 <gprof_inc+0x24>
    8038:	e5932000 	ldr	r2, [r3]
    803c:	e0400002 	sub	r0, r0, r2
    8040:	e3c00003 	bic	r0, r0, #3, 0
    8044:	e5932004 	ldr	r2, [r3, #4]
    8048:	e7923000 	ldr	r3, [r2, r0]
    804c:	e2833001 	add	r3, r3, #1, 0
    8050:	e7823000 	str	r3, [r2, r0]
    8054:	e12fff1e 	bx	lr
    8058:	00009aac 	andeq	r9, r0, ip, lsr #21

0000805c <gprof_dump>:
    805c:	e92d4070 	push	{r4, r5, r6, lr}
    8060:	e1a05000 	mov	r5, r0
    8064:	e3a04000 	mov	r4, #0, 0
    8068:	ea000006 	b	8088 <gprof_dump+0x2c>
    806c:	e7932104 	ldr	r2, [r3, r4, lsl #2]
    8070:	e59f303c 	ldr	r3, [pc, #60]	; 80b4 <gprof_dump+0x58>
    8074:	e5933000 	ldr	r3, [r3]
    8078:	e0811003 	add	r1, r1, r3
    807c:	e59f0034 	ldr	r0, [pc, #52]	; 80b8 <gprof_dump+0x5c>
    8080:	eb000140 	bl	8588 <printk>
    8084:	e2844001 	add	r4, r4, #1, 0
    8088:	e59f3024 	ldr	r3, [pc, #36]	; 80b4 <gprof_dump+0x58>
    808c:	e5933008 	ldr	r3, [r3, #8]
    8090:	e1540003 	cmp	r4, r3
    8094:	28bd8070 	popcs	{r4, r5, r6, pc}
    8098:	e1a01104 	lsl	r1, r4, #2
    809c:	e59f3010 	ldr	r3, [pc, #16]	; 80b4 <gprof_dump+0x58>
    80a0:	e5933004 	ldr	r3, [r3, #4]
    80a4:	e7932104 	ldr	r2, [r3, r4, lsl #2]
    80a8:	e1520005 	cmp	r2, r5
    80ac:	9afffff4 	bls	8084 <gprof_dump+0x28>
    80b0:	eaffffed 	b	806c <gprof_dump+0x10>
    80b4:	00009aac 	andeq	r9, r0, ip, lsr #21
    80b8:	000094d0 	ldrdeq	r9, [r0], -r0

000080bc <gprof_init>:
    80bc:	e92d4010 	push	{r4, lr}
    80c0:	e59f1074 	ldr	r1, [pc, #116]	; 813c <gprof_init+0x80>
    80c4:	e59f4074 	ldr	r4, [pc, #116]	; 8140 <gprof_init+0x84>
    80c8:	e5841000 	str	r1, [r4]
    80cc:	e59f2070 	ldr	r2, [pc, #112]	; 8144 <gprof_init+0x88>
    80d0:	e0422001 	sub	r2, r2, r1
    80d4:	e2823003 	add	r3, r2, #3, 0
    80d8:	e3520000 	cmp	r2, #0, 0
    80dc:	b1a02003 	movlt	r2, r3
    80e0:	e1a02142 	asr	r2, r2, #2
    80e4:	e5842008 	str	r2, [r4, #8]
    80e8:	e59f0058 	ldr	r0, [pc, #88]	; 8148 <gprof_init+0x8c>
    80ec:	eb000125 	bl	8588 <printk>
    80f0:	e5940008 	ldr	r0, [r4, #8]
    80f4:	eb000422 	bl	9184 <kmalloc>
    80f8:	e1a01000 	mov	r1, r0
    80fc:	e5840004 	str	r0, [r4, #4]
    8100:	e59f0044 	ldr	r0, [pc, #68]	; 814c <gprof_init+0x90>
    8104:	eb00011f 	bl	8588 <printk>
    8108:	e3a03000 	mov	r3, #0, 0
    810c:	e59f202c 	ldr	r2, [pc, #44]	; 8140 <gprof_init+0x84>
    8110:	e5922008 	ldr	r2, [r2, #8]
    8114:	e1530002 	cmp	r3, r2
    8118:	2a000005 	bcs	8134 <gprof_init+0x78>
    811c:	e59f201c 	ldr	r2, [pc, #28]	; 8140 <gprof_init+0x84>
    8120:	e5922004 	ldr	r2, [r2, #4]
    8124:	e3a01000 	mov	r1, #0, 0
    8128:	e7821103 	str	r1, [r2, r3, lsl #2]
    812c:	e2833001 	add	r3, r3, #1, 0
    8130:	eafffff5 	b	810c <gprof_init+0x50>
    8134:	e3a00000 	mov	r0, #0, 0
    8138:	e8bd8010 	pop	{r4, pc}
    813c:	00008000 	andeq	r8, r0, r0
    8140:	00009aac 	andeq	r9, r0, ip, lsr #21
    8144:	000094d0 	ldrdeq	r9, [r0], -r0
    8148:	000094d8 	ldrdeq	r9, [r0], -r8
    814c:	000094f0 	strdeq	r9, [r0], -r0

00008150 <interrupt_vector>:
    8150:	e92d4070 	push	{r4, r5, r6, lr}
    8154:	e1a04000 	mov	r4, r0
    8158:	eb000316 	bl	8db8 <dev_barrier>
    815c:	e59f004c 	ldr	r0, [pc, #76]	; 81b0 <interrupt_vector+0x60>
    8160:	ebffffb1 	bl	802c <GET32>
    8164:	e3100001 	tst	r0, #1, 0
    8168:	08bd8070 	popeq	{r4, r5, r6, pc}
    816c:	e3a01001 	mov	r1, #1, 0
    8170:	e59f003c 	ldr	r0, [pc, #60]	; 81b4 <interrupt_vector+0x64>
    8174:	ebffffaa 	bl	8024 <PUT32>
    8178:	e59f5038 	ldr	r5, [pc, #56]	; 81b8 <interrupt_vector+0x68>
    817c:	e595300c 	ldr	r3, [r5, #12]
    8180:	e2833001 	add	r3, r3, #1, 0
    8184:	e585300c 	str	r3, [r5, #12]
    8188:	e1a00004 	mov	r0, r4
    818c:	ebffffa8 	bl	8034 <gprof_inc>
    8190:	eb0002ec 	bl	8d48 <timer_get_usec>
    8194:	e5953010 	ldr	r3, [r5, #16]
    8198:	e3530000 	cmp	r3, #0, 0
    819c:	10403003 	subne	r3, r0, r3
    81a0:	e59f2010 	ldr	r2, [pc, #16]	; 81b8 <interrupt_vector+0x68>
    81a4:	e5823014 	str	r3, [r2, #20]
    81a8:	e5820010 	str	r0, [r2, #16]
    81ac:	e8bd8070 	pop	{r4, r5, r6, pc}
    81b0:	2000b200 	andcs	fp, r0, r0, lsl #4
    81b4:	2000b40c 	andcs	fp, r0, ip, lsl #8
    81b8:	00009aac 	andeq	r9, r0, ip, lsr #21

000081bc <notmain>:
    81bc:	e92d4010 	push	{r4, lr}
    81c0:	e24dd008 	sub	sp, sp, #8, 0
    81c4:	eb00030e 	bl	8e04 <uart_init>
    81c8:	e59f00a4 	ldr	r0, [pc, #164]	; 8274 <notmain+0xb8>
    81cc:	eb0000ed 	bl	8588 <printk>
    81d0:	eb000062 	bl	8360 <int_init>
    81d4:	e59f009c 	ldr	r0, [pc, #156]	; 8278 <notmain+0xbc>
    81d8:	eb0000ea 	bl	8588 <printk>
    81dc:	e3a00010 	mov	r0, #16, 0
    81e0:	eb0000d8 	bl	8548 <timer_interrupt_init>
    81e4:	e59f4090 	ldr	r4, [pc, #144]	; 827c <notmain+0xc0>
    81e8:	e1a00004 	mov	r0, r4
    81ec:	eb0000e5 	bl	8588 <printk>
    81f0:	eb00047c 	bl	93e8 <kmalloc_init>
    81f4:	ebffffb0 	bl	80bc <gprof_init>
    81f8:	e1a00004 	mov	r0, r4
    81fc:	eb0000e1 	bl	8588 <printk>
    8200:	eb000022 	bl	8290 <system_enable_interrupts>
    8204:	e59f0074 	ldr	r0, [pc, #116]	; 8280 <notmain+0xc4>
    8208:	eb0000de 	bl	8588 <printk>
    820c:	e3a04000 	mov	r4, #0, 0
    8210:	ea000001 	b	821c <notmain+0x60>
    8214:	e3a00002 	mov	r0, #2, 0
    8218:	ebffff8f 	bl	805c <gprof_dump>
    821c:	e59f3060 	ldr	r3, [pc, #96]	; 8284 <notmain+0xc8>
    8220:	e593300c 	ldr	r3, [r3, #12]
    8224:	e35300c7 	cmp	r3, #199, 0	; 0xc7
    8228:	8a000010 	bhi	8270 <notmain+0xb4>
    822c:	e59f1050 	ldr	r1, [pc, #80]	; 8284 <notmain+0xc8>
    8230:	e591200c 	ldr	r2, [r1, #12]
    8234:	e5913014 	ldr	r3, [r1, #20]
    8238:	e5911014 	ldr	r1, [r1, #20]
    823c:	e58d1000 	str	r1, [sp]
    8240:	e1a01004 	mov	r1, r4
    8244:	e59f003c 	ldr	r0, [pc, #60]	; 8288 <notmain+0xcc>
    8248:	eb0000ce 	bl	8588 <printk>
    824c:	e2844001 	add	r4, r4, #1, 0
    8250:	e59f3034 	ldr	r3, [pc, #52]	; 828c <notmain+0xd0>
    8254:	e0832493 	umull	r2, r3, r3, r4
    8258:	e1a031a3 	lsr	r3, r3, #3
    825c:	e0833103 	add	r3, r3, r3, lsl #2
    8260:	e1a02083 	lsl	r2, r3, #1
    8264:	e1540002 	cmp	r4, r2
    8268:	1affffeb 	bne	821c <notmain+0x60>
    826c:	eaffffe8 	b	8214 <notmain+0x58>
    8270:	eb000272 	bl	8c40 <clean_reboot>
    8274:	00009500 	andeq	r9, r0, r0, lsl #10
    8278:	0000951c 	andeq	r9, r0, ip, lsl r5
    827c:	0000953c 	andeq	r9, r0, ip, lsr r5
    8280:	0000955c 	andeq	r9, r0, ip, asr r5
    8284:	00009aac 	andeq	r9, r0, ip, lsr #21
    8288:	00009568 	andeq	r9, r0, r8, ror #10
    828c:	cccccccd 	stclgt	12, cr12, [ip], {205}	; 0xcd

00008290 <system_enable_interrupts>:
    8290:	e10f0000 	mrs	r0, CPSR
    8294:	e3c00080 	bic	r0, r0, #128, 0	; 0x80
    8298:	e121f000 	msr	CPSR_c, r0
    829c:	e12fff1e 	bx	lr

000082a0 <system_disable_interrupts>:
    82a0:	e10f0000 	mrs	r0, CPSR
    82a4:	e3800080 	orr	r0, r0, #128, 0	; 0x80
    82a8:	e121f000 	msr	CPSR_c, r0
    82ac:	e12fff1e 	bx	lr

000082b0 <_interrupt_table>:
    82b0:	e59ff030 	ldr	pc, [pc, #48]	; 82e8 <_reset_asm>
    82b4:	e59ff030 	ldr	pc, [pc, #48]	; 82ec <_undefined_instruction_asm>
    82b8:	e59ff030 	ldr	pc, [pc, #48]	; 82f0 <_software_interrupt_asm>
    82bc:	e59ff030 	ldr	pc, [pc, #48]	; 82f4 <_prefetch_abort_asm>
    82c0:	e59ff030 	ldr	pc, [pc, #48]	; 82f8 <_data_abort_asm>
    82c4:	e59ff01c 	ldr	pc, [pc, #28]	; 82e8 <_reset_asm>
    82c8:	e59ff02c 	ldr	pc, [pc, #44]	; 82fc <_interrupt_asm>

000082cc <fast_interrupt_asm>:
    82cc:	e24ee004 	sub	lr, lr, #4, 0
    82d0:	e52de004 	push	{lr}		; (str lr, [sp, #-4]!)
    82d4:	e92d1fff 	push	{r0, r1, r2, r3, r4, r5, r6, r7, r8, r9, sl, fp, ip}
    82d8:	e1a0000e 	mov	r0, lr
    82dc:	eb000038 	bl	83c4 <fast_interrupt_vector>
    82e0:	e8bd1fff 	pop	{r0, r1, r2, r3, r4, r5, r6, r7, r8, r9, sl, fp, ip}
    82e4:	e8fd8000 	ldm	sp!, {pc}^

000082e8 <_reset_asm>:
    82e8:	0000831c 	andeq	r8, r0, ip, lsl r3

000082ec <_undefined_instruction_asm>:
    82ec:	00008324 	andeq	r8, r0, r4, lsr #6

000082f0 <_software_interrupt_asm>:
    82f0:	0000832c 	andeq	r8, r0, ip, lsr #6

000082f4 <_prefetch_abort_asm>:
    82f4:	00008334 	andeq	r8, r0, r4, lsr r3

000082f8 <_data_abort_asm>:
    82f8:	0000833c 	andeq	r8, r0, ip, lsr r3

000082fc <_interrupt_asm>:
    82fc:	00008300 	andeq	r8, r0, r0, lsl #6

00008300 <_interrupt_table_end>:
    8300:	e3a0d409 	mov	sp, #150994944	; 0x9000000
    8304:	e24ee004 	sub	lr, lr, #4, 0
    8308:	e92d5fff 	push	{r0, r1, r2, r3, r4, r5, r6, r7, r8, r9, sl, fp, ip, lr}
    830c:	e1a0000e 	mov	r0, lr
    8310:	ebffff8e 	bl	8150 <interrupt_vector>
    8314:	e8bd5fff 	pop	{r0, r1, r2, r3, r4, r5, r6, r7, r8, r9, sl, fp, ip, lr}
    8318:	e1b0f00e 	movs	pc, lr

0000831c <reset_asm>:
    831c:	e24ee004 	sub	lr, lr, #4, 0
    8320:	eb000045 	bl	843c <reset_vector>

00008324 <undefined_instruction_asm>:
    8324:	e24ee004 	sub	lr, lr, #4, 0
    8328:	eb000052 	bl	8478 <undefined_instruction_vector>

0000832c <software_interrupt_asm>:
    832c:	e24ee004 	sub	lr, lr, #4, 0
    8330:	eb000032 	bl	8400 <software_interrupt_vector>

00008334 <prefetch_abort_asm>:
    8334:	e24ee004 	sub	lr, lr, #4, 0
    8338:	eb00005d 	bl	84b4 <prefetch_abort_vector>

0000833c <data_abort_asm>:
    833c:	e24ee004 	sub	lr, lr, #4, 0
    8340:	eb00006a 	bl	84f0 <data_abort_vector>

00008344 <store_shadow_lr>:
    8344:	e8c04000 	stmia	r0, {lr}^
    8348:	e12fff1e 	bx	lr

0000834c <get_shadow_lr>:
    834c:	e10f1000 	mrs	r1, CPSR
    8350:	e321f013 	msr	CPSR_c, #19, 0
    8354:	e1a0000e 	mov	r0, lr
    8358:	e121f001 	msr	CPSR_c, r1
    835c:	e12fff1e 	bx	lr

00008360 <int_init>:
    8360:	e92d4010 	push	{r4, lr}
    8364:	e3e01000 	mvn	r1, #0, 0
    8368:	e59f0044 	ldr	r0, [pc, #68]	; 83b4 <int_init+0x54>
    836c:	ebffff2c 	bl	8024 <PUT32>
    8370:	e3e01000 	mvn	r1, #0, 0
    8374:	e59f003c 	ldr	r0, [pc, #60]	; 83b8 <int_init+0x58>
    8378:	ebffff29 	bl	8024 <PUT32>
    837c:	eb00028d 	bl	8db8 <dev_barrier>
    8380:	e59f0034 	ldr	r0, [pc, #52]	; 83bc <int_init+0x5c>
    8384:	e59f3034 	ldr	r3, [pc, #52]	; 83c0 <int_init+0x60>
    8388:	e0400003 	sub	r0, r0, r3
    838c:	e1a00140 	asr	r0, r0, #2
    8390:	e3a03000 	mov	r3, #0, 0
    8394:	e1530000 	cmp	r3, r0
    8398:	28bd8010 	popcs	{r4, pc}
    839c:	e1a02103 	lsl	r2, r3, #2
    83a0:	e59f1018 	ldr	r1, [pc, #24]	; 83c0 <int_init+0x60>
    83a4:	e7911103 	ldr	r1, [r1, r3, lsl #2]
    83a8:	e5821000 	str	r1, [r2]
    83ac:	e2833001 	add	r3, r3, #1, 0
    83b0:	eafffff7 	b	8394 <int_init+0x34>
    83b4:	2000b21c 	andcs	fp, r0, ip, lsl r2
    83b8:	2000b220 	andcs	fp, r0, r0, lsr #4
    83bc:	00008300 	andeq	r8, r0, r0, lsl #6
    83c0:	000082b0 			; <UNDEFINED> instruction: 0x000082b0

000083c4 <fast_interrupt_vector>:
    83c4:	e52de004 	push	{lr}		; (str lr, [sp, #-4]!)
    83c8:	e24dd00c 	sub	sp, sp, #12, 0
    83cc:	e58d0004 	str	r0, [sp, #4]
    83d0:	e59f3018 	ldr	r3, [pc, #24]	; 83f0 <fast_interrupt_vector+0x2c>
    83d4:	e58d3000 	str	r3, [sp]
    83d8:	e3a03021 	mov	r3, #33, 0	; 0x21
    83dc:	e59f2010 	ldr	r2, [pc, #16]	; 83f4 <fast_interrupt_vector+0x30>
    83e0:	e59f1010 	ldr	r1, [pc, #16]	; 83f8 <fast_interrupt_vector+0x34>
    83e4:	e59f0010 	ldr	r0, [pc, #16]	; 83fc <fast_interrupt_vector+0x38>
    83e8:	eb000066 	bl	8588 <printk>
    83ec:	eb000213 	bl	8c40 <clean_reboot>
    83f0:	000095dc 	ldrdeq	r9, [r0], -ip
    83f4:	00009638 	andeq	r9, r0, r8, lsr r6
    83f8:	00009590 	muleq	r0, r0, r5
    83fc:	000095a0 	andeq	r9, r0, r0, lsr #11

00008400 <software_interrupt_vector>:
    8400:	e52de004 	push	{lr}		; (str lr, [sp, #-4]!)
    8404:	e24dd00c 	sub	sp, sp, #12, 0
    8408:	e58d0004 	str	r0, [sp, #4]
    840c:	e59f3018 	ldr	r3, [pc, #24]	; 842c <software_interrupt_vector+0x2c>
    8410:	e58d3000 	str	r3, [sp]
    8414:	e3a03029 	mov	r3, #41, 0	; 0x29
    8418:	e59f2010 	ldr	r2, [pc, #16]	; 8430 <software_interrupt_vector+0x30>
    841c:	e59f1010 	ldr	r1, [pc, #16]	; 8434 <software_interrupt_vector+0x34>
    8420:	e59f0010 	ldr	r0, [pc, #16]	; 8438 <software_interrupt_vector+0x38>
    8424:	eb000057 	bl	8588 <printk>
    8428:	eb000204 	bl	8c40 <clean_reboot>
    842c:	000095e4 	andeq	r9, r0, r4, ror #11
    8430:	00009650 	andeq	r9, r0, r0, asr r6
    8434:	00009590 	muleq	r0, r0, r5
    8438:	000095a0 	andeq	r9, r0, r0, lsr #11

0000843c <reset_vector>:
    843c:	e52de004 	push	{lr}		; (str lr, [sp, #-4]!)
    8440:	e24dd00c 	sub	sp, sp, #12, 0
    8444:	e58d0004 	str	r0, [sp, #4]
    8448:	e59f3018 	ldr	r3, [pc, #24]	; 8468 <reset_vector+0x2c>
    844c:	e58d3000 	str	r3, [sp]
    8450:	e3a0302c 	mov	r3, #44, 0	; 0x2c
    8454:	e59f2010 	ldr	r2, [pc, #16]	; 846c <reset_vector+0x30>
    8458:	e59f1010 	ldr	r1, [pc, #16]	; 8470 <reset_vector+0x34>
    845c:	e59f0010 	ldr	r0, [pc, #16]	; 8474 <reset_vector+0x38>
    8460:	eb000048 	bl	8588 <printk>
    8464:	eb0001f5 	bl	8c40 <clean_reboot>
    8468:	000095f4 	strdeq	r9, [r0], -r4
    846c:	0000966c 	andeq	r9, r0, ip, ror #12
    8470:	00009590 	muleq	r0, r0, r5
    8474:	000095a0 	andeq	r9, r0, r0, lsr #11

00008478 <undefined_instruction_vector>:
    8478:	e52de004 	push	{lr}		; (str lr, [sp, #-4]!)
    847c:	e24dd00c 	sub	sp, sp, #12, 0
    8480:	e58d0004 	str	r0, [sp, #4]
    8484:	e59f3018 	ldr	r3, [pc, #24]	; 84a4 <undefined_instruction_vector+0x2c>
    8488:	e58d3000 	str	r3, [sp]
    848c:	e3a0302f 	mov	r3, #47, 0	; 0x2f
    8490:	e59f2010 	ldr	r2, [pc, #16]	; 84a8 <undefined_instruction_vector+0x30>
    8494:	e59f1010 	ldr	r1, [pc, #16]	; 84ac <undefined_instruction_vector+0x34>
    8498:	e59f0010 	ldr	r0, [pc, #16]	; 84b0 <undefined_instruction_vector+0x38>
    849c:	eb000039 	bl	8588 <printk>
    84a0:	eb0001e6 	bl	8c40 <clean_reboot>
    84a4:	00009604 	andeq	r9, r0, r4, lsl #12
    84a8:	0000967c 	andeq	r9, r0, ip, ror r6
    84ac:	00009590 	muleq	r0, r0, r5
    84b0:	000095a0 	andeq	r9, r0, r0, lsr #11

000084b4 <prefetch_abort_vector>:
    84b4:	e52de004 	push	{lr}		; (str lr, [sp, #-4]!)
    84b8:	e24dd00c 	sub	sp, sp, #12, 0
    84bc:	e58d0004 	str	r0, [sp, #4]
    84c0:	e59f3018 	ldr	r3, [pc, #24]	; 84e0 <prefetch_abort_vector+0x2c>
    84c4:	e58d3000 	str	r3, [sp]
    84c8:	e3a03032 	mov	r3, #50, 0	; 0x32
    84cc:	e59f2010 	ldr	r2, [pc, #16]	; 84e4 <prefetch_abort_vector+0x30>
    84d0:	e59f1010 	ldr	r1, [pc, #16]	; 84e8 <prefetch_abort_vector+0x34>
    84d4:	e59f0010 	ldr	r0, [pc, #16]	; 84ec <prefetch_abort_vector+0x38>
    84d8:	eb00002a 	bl	8588 <printk>
    84dc:	eb0001d7 	bl	8c40 <clean_reboot>
    84e0:	0000961c 	andeq	r9, r0, ip, lsl r6
    84e4:	0000969c 	muleq	r0, ip, r6
    84e8:	00009590 	muleq	r0, r0, r5
    84ec:	000095a0 	andeq	r9, r0, r0, lsr #11

000084f0 <data_abort_vector>:
    84f0:	e52de004 	push	{lr}		; (str lr, [sp, #-4]!)
    84f4:	e24dd00c 	sub	sp, sp, #12, 0
    84f8:	e58d0004 	str	r0, [sp, #4]
    84fc:	e59f3018 	ldr	r3, [pc, #24]	; 851c <data_abort_vector+0x2c>
    8500:	e58d3000 	str	r3, [sp]
    8504:	e3a03035 	mov	r3, #53, 0	; 0x35
    8508:	e59f2010 	ldr	r2, [pc, #16]	; 8520 <data_abort_vector+0x30>
    850c:	e59f1010 	ldr	r1, [pc, #16]	; 8524 <data_abort_vector+0x34>
    8510:	e59f0010 	ldr	r0, [pc, #16]	; 8528 <data_abort_vector+0x38>
    8514:	eb00001b 	bl	8588 <printk>
    8518:	eb0001c8 	bl	8c40 <clean_reboot>
    851c:	0000962c 	andeq	r9, r0, ip, lsr #12
    8520:	000096b4 			; <UNDEFINED> instruction: 0x000096b4
    8524:	00009590 	muleq	r0, r0, r5
    8528:	000095a0 	andeq	r9, r0, r0, lsr #11

0000852c <timer_check_offsets>:
    852c:	e52de004 	push	{lr}		; (str lr, [sp, #-4]!)
    8530:	e24dd01c 	sub	sp, sp, #28, 0
    8534:	e59f0008 	ldr	r0, [pc, #8]	; 8544 <timer_check_offsets+0x18>
    8538:	eb000012 	bl	8588 <printk>
    853c:	e28dd01c 	add	sp, sp, #28, 0
    8540:	e49df004 	pop	{pc}		; (ldr pc, [sp], #4)
    8544:	000097bc 			; <UNDEFINED> instruction: 0x000097bc

00008548 <timer_interrupt_init>:
    8548:	e92d4010 	push	{r4, lr}
    854c:	e1a04000 	mov	r4, r0
    8550:	ebfffff5 	bl	852c <timer_check_offsets>
    8554:	e3a01001 	mov	r1, #1, 0
    8558:	e59f001c 	ldr	r0, [pc, #28]	; 857c <timer_interrupt_init+0x34>
    855c:	ebfffeb0 	bl	8024 <PUT32>
    8560:	e1a01004 	mov	r1, r4
    8564:	e59f0014 	ldr	r0, [pc, #20]	; 8580 <timer_interrupt_init+0x38>
    8568:	ebfffead 	bl	8024 <PUT32>
    856c:	e3a010aa 	mov	r1, #170, 0	; 0xaa
    8570:	e59f000c 	ldr	r0, [pc, #12]	; 8584 <timer_interrupt_init+0x3c>
    8574:	ebfffeaa 	bl	8024 <PUT32>
    8578:	e8bd8010 	pop	{r4, pc}
    857c:	2000b218 	andcs	fp, r0, r8, lsl r2
    8580:	2000b400 	andcs	fp, r0, r0, lsl #8
    8584:	2000b408 	andcs	fp, r0, r8, lsl #8

00008588 <printk>:
    8588:	e92d000f 	push	{r0, r1, r2, r3}
    858c:	e92d4030 	push	{r4, r5, lr}
    8590:	e24dd00c 	sub	sp, sp, #12, 0
    8594:	e28d301c 	add	r3, sp, #28, 0
    8598:	e58d3004 	str	r3, [sp, #4]
    859c:	e59f5034 	ldr	r5, [pc, #52]	; 85d8 <printk+0x50>
    85a0:	e59d2018 	ldr	r2, [sp, #24]
    85a4:	e3a01b01 	mov	r1, #1024	; 0x400
    85a8:	e1a00005 	mov	r0, r5
    85ac:	eb0000ba 	bl	889c <va_printk>
    85b0:	e1a04000 	mov	r4, r0
    85b4:	e59f3020 	ldr	r3, [pc, #32]	; 85dc <printk+0x54>
    85b8:	e5933000 	ldr	r3, [r3]
    85bc:	e1a00005 	mov	r0, r5
    85c0:	e12fff33 	blx	r3
    85c4:	e1a00004 	mov	r0, r4
    85c8:	e28dd00c 	add	sp, sp, #12, 0
    85cc:	e8bd4030 	pop	{r4, r5, lr}
    85d0:	e28dd010 	add	sp, sp, #16, 0
    85d4:	e12fff1e 	bx	lr
    85d8:	00009ac4 	andeq	r9, r0, r4, asr #21
    85dc:	00009aa4 	andeq	r9, r0, r4, lsr #21

000085e0 <internal_putk>:
    85e0:	e92d4010 	push	{r4, lr}
    85e4:	e1a04000 	mov	r4, r0
    85e8:	e5d40000 	ldrb	r0, [r4]
    85ec:	e3500000 	cmp	r0, #0, 0
    85f0:	0a000004 	beq	8608 <internal_putk+0x28>
    85f4:	e59f3014 	ldr	r3, [pc, #20]	; 8610 <internal_putk+0x30>
    85f8:	e5933000 	ldr	r3, [r3]
    85fc:	e12fff33 	blx	r3
    8600:	e2844001 	add	r4, r4, #1, 0
    8604:	eafffff7 	b	85e8 <internal_putk+0x8>
    8608:	e3a00001 	mov	r0, #1, 0
    860c:	e8bd8010 	pop	{r4, pc}
    8610:	00009aa8 	andeq	r9, r0, r8, lsr #21

00008614 <isdigit>:
    8614:	e2400030 	sub	r0, r0, #48, 0	; 0x30
    8618:	e3500009 	cmp	r0, #9, 0
    861c:	83a00000 	movhi	r0, #0, 0
    8620:	93a00001 	movls	r0, #1, 0
    8624:	e12fff1e 	bx	lr

00008628 <pad>:
    8628:	e0401001 	sub	r1, r0, r1
    862c:	e1510002 	cmp	r1, r2
    8630:	b3a03020 	movlt	r3, #32, 0
    8634:	b4c03001 	strblt	r3, [r0], #1
    8638:	b2811001 	addlt	r1, r1, #1, 0
    863c:	bafffffa 	blt	862c <pad+0x4>
    8640:	e3a03000 	mov	r3, #0, 0
    8644:	e5c03000 	strb	r3, [r0]
    8648:	e12fff1e 	bx	lr

0000864c <reverse>:
    864c:	e042c003 	sub	ip, r2, r3
    8650:	e28cc001 	add	ip, ip, #1, 0
    8654:	e15c0001 	cmp	ip, r1
    8658:	c04cc001 	subgt	ip, ip, r1
    865c:	c083300c 	addgt	r3, r3, ip
    8660:	e2421001 	sub	r1, r2, #1, 0
    8664:	e1a02000 	mov	r2, r0
    8668:	e1510003 	cmp	r1, r3
    866c:	2451c001 	ldrbcs	ip, [r1], #-1
    8670:	24c2c001 	strbcs	ip, [r2], #1
    8674:	2afffffb 	bcs	8668 <reverse+0x1c>
    8678:	e3a03000 	mov	r3, #0, 0
    867c:	e5c23000 	strb	r3, [r2]
    8680:	e12fff1e 	bx	lr

00008684 <emit>:
    8684:	e92d40f0 	push	{r4, r5, r6, r7, lr}
    8688:	e24dd04c 	sub	sp, sp, #76, 0	; 0x4c
    868c:	e1a05001 	mov	r5, r1
    8690:	e1a04002 	mov	r4, r2
    8694:	e59d2060 	ldr	r2, [sp, #96]	; 0x60
    8698:	e1520004 	cmp	r2, r4
    869c:	c2442001 	subgt	r2, r4, #1, 0
    86a0:	e1a0c003 	mov	ip, r3
    86a4:	e2400002 	sub	r0, r0, #2, 0
    86a8:	e350000e 	cmp	r0, #14, 0
    86ac:	979ff100 	ldrls	pc, [pc, r0, lsl #2]
    86b0:	ea000050 	b	87f8 <emit+0x174>
    86b4:	000087d0 	ldrdeq	r8, [r0], -r0
    86b8:	000087f8 	strdeq	r8, [r0], -r8	; <UNPREDICTABLE>
    86bc:	000087f8 	strdeq	r8, [r0], -r8	; <UNPREDICTABLE>
    86c0:	000087f8 	strdeq	r8, [r0], -r8	; <UNPREDICTABLE>
    86c4:	000087f8 	strdeq	r8, [r0], -r8	; <UNPREDICTABLE>
    86c8:	000087f8 	strdeq	r8, [r0], -r8	; <UNPREDICTABLE>
    86cc:	000087c4 	andeq	r8, r0, r4, asr #15
    86d0:	000087f8 	strdeq	r8, [r0], -r8	; <UNPREDICTABLE>
    86d4:	000086f0 	strdeq	r8, [r0], -r0
    86d8:	000087f8 	strdeq	r8, [r0], -r8	; <UNPREDICTABLE>
    86dc:	000087f8 	strdeq	r8, [r0], -r8	; <UNPREDICTABLE>
    86e0:	000087f8 	strdeq	r8, [r0], -r8	; <UNPREDICTABLE>
    86e4:	000087f8 	strdeq	r8, [r0], -r8	; <UNPREDICTABLE>
    86e8:	000087f8 	strdeq	r8, [r0], -r8	; <UNPREDICTABLE>
    86ec:	00008768 	andeq	r8, r0, r8, ror #14
    86f0:	e59d1064 	ldr	r1, [sp, #100]	; 0x64
    86f4:	e2511000 	subs	r1, r1, #0, 0
    86f8:	13a01001 	movne	r1, #1, 0
    86fc:	e0111fa3 	ands	r1, r1, r3, lsr #31
    8700:	0a000016 	beq	8760 <emit+0xdc>
    8704:	e263c000 	rsb	ip, r3, #0, 0
    8708:	e3a06001 	mov	r6, #1, 0
    870c:	e28d0008 	add	r0, sp, #8, 0
    8710:	e59f3100 	ldr	r3, [pc, #256]	; 8818 <emit+0x194>
    8714:	e0831c93 	umull	r1, r3, r3, ip
    8718:	e1a031a3 	lsr	r3, r3, #3
    871c:	e1a0e003 	mov	lr, r3
    8720:	e0833103 	add	r3, r3, r3, lsl #2
    8724:	e04c3083 	sub	r3, ip, r3, lsl #1
    8728:	e1a01000 	mov	r1, r0
    872c:	e2800001 	add	r0, r0, #1, 0
    8730:	e59f70e4 	ldr	r7, [pc, #228]	; 881c <emit+0x198>
    8734:	e7d73003 	ldrb	r3, [r7, r3]
    8738:	e5c13000 	strb	r3, [r1]
    873c:	e1a0300c 	mov	r3, ip
    8740:	e1a0c00e 	mov	ip, lr
    8744:	e3530009 	cmp	r3, #9, 0
    8748:	8afffff0 	bhi	8710 <emit+0x8c>
    874c:	e3560000 	cmp	r6, #0, 0
    8750:	13a0302d 	movne	r3, #45, 0	; 0x2d
    8754:	15c03000 	strbne	r3, [r0]
    8758:	12810002 	addne	r0, r1, #2, 0
    875c:	ea00000f 	b	87a0 <emit+0x11c>
    8760:	e3a06000 	mov	r6, #0, 0
    8764:	eaffffe8 	b	870c <emit+0x88>
    8768:	e28d1008 	add	r1, sp, #8, 0
    876c:	e20c000f 	and	r0, ip, #15, 0
    8770:	e59fe0a8 	ldr	lr, [pc, #168]	; 8820 <emit+0x19c>
    8774:	e7de0000 	ldrb	r0, [lr, r0]
    8778:	e5c10000 	strb	r0, [r1]
    877c:	e2811001 	add	r1, r1, #1, 0
    8780:	e35c000f 	cmp	ip, #15, 0
    8784:	e1a0c22c 	lsr	ip, ip, #4
    8788:	8afffff7 	bhi	876c <emit+0xe8>
    878c:	e1a00001 	mov	r0, r1
    8790:	e3a03078 	mov	r3, #120, 0	; 0x78
    8794:	e4c03002 	strb	r3, [r0], #2
    8798:	e3a03030 	mov	r3, #48, 0	; 0x30
    879c:	e5c13001 	strb	r3, [r1, #1]
    87a0:	e28d1008 	add	r1, sp, #8, 0
    87a4:	ebffff9f 	bl	8628 <pad>
    87a8:	e1a02000 	mov	r2, r0
    87ac:	e28d3008 	add	r3, sp, #8, 0
    87b0:	e1a01004 	mov	r1, r4
    87b4:	e1a00005 	mov	r0, r5
    87b8:	ebffffa3 	bl	864c <reverse>
    87bc:	e28dd04c 	add	sp, sp, #76, 0	; 0x4c
    87c0:	e8bd80f0 	pop	{r4, r5, r6, r7, pc}
    87c4:	e5cd3008 	strb	r3, [sp, #8]
    87c8:	e28d0009 	add	r0, sp, #9, 0
    87cc:	eafffff3 	b	87a0 <emit+0x11c>
    87d0:	e28d0008 	add	r0, sp, #8, 0
    87d4:	e20c1001 	and	r1, ip, #1, 0
    87d8:	e59fe044 	ldr	lr, [pc, #68]	; 8824 <emit+0x1a0>
    87dc:	e7de1001 	ldrb	r1, [lr, r1]
    87e0:	e5c01000 	strb	r1, [r0]
    87e4:	e2800001 	add	r0, r0, #1, 0
    87e8:	e35c0001 	cmp	ip, #1, 0
    87ec:	e1a0c0ac 	lsr	ip, ip, #1
    87f0:	8afffff7 	bhi	87d4 <emit+0x150>
    87f4:	eaffffe9 	b	87a0 <emit+0x11c>
    87f8:	e59f3028 	ldr	r3, [pc, #40]	; 8828 <emit+0x1a4>
    87fc:	e58d3000 	str	r3, [sp]
    8800:	e3a03079 	mov	r3, #121, 0	; 0x79
    8804:	e59f2020 	ldr	r2, [pc, #32]	; 882c <emit+0x1a8>
    8808:	e59f1020 	ldr	r1, [pc, #32]	; 8830 <emit+0x1ac>
    880c:	e59f0020 	ldr	r0, [pc, #32]	; 8834 <emit+0x1b0>
    8810:	ebffff5c 	bl	8588 <printk>
    8814:	eb000109 	bl	8c40 <clean_reboot>
    8818:	cccccccd 	stclgt	12, cr12, [ip], {205}	; 0xcd
    881c:	00009814 	andeq	r9, r0, r4, lsl r8
    8820:	00009820 	andeq	r9, r0, r0, lsr #16
    8824:	00009834 	andeq	r9, r0, r4, lsr r8
    8828:	00009810 	andeq	r9, r0, r0, lsl r8
    882c:	000098e4 	andeq	r9, r0, r4, ror #17
    8830:	000097e8 	andeq	r9, r0, r8, ror #15
    8834:	000097fc 	strdeq	r9, [r0], -ip

00008838 <rpi_set_output>:
    8838:	e3500000 	cmp	r0, #0, 0
    883c:	0a000006 	beq	885c <rpi_set_output+0x24>
    8840:	e59f303c 	ldr	r3, [pc, #60]	; 8884 <rpi_set_output+0x4c>
    8844:	e5830000 	str	r0, [r3]
    8848:	e3510000 	cmp	r1, #0, 0
    884c:	012fff1e 	bxeq	lr
    8850:	e59f3030 	ldr	r3, [pc, #48]	; 8888 <rpi_set_output+0x50>
    8854:	e5831000 	str	r1, [r3]
    8858:	e12fff1e 	bx	lr
    885c:	e52de004 	push	{lr}		; (str lr, [sp, #-4]!)
    8860:	e24dd00c 	sub	sp, sp, #12, 0
    8864:	e59f3020 	ldr	r3, [pc, #32]	; 888c <rpi_set_output+0x54>
    8868:	e58d3000 	str	r3, [sp]
    886c:	e3a03020 	mov	r3, #32, 0
    8870:	e59f2018 	ldr	r2, [pc, #24]	; 8890 <rpi_set_output+0x58>
    8874:	e59f1018 	ldr	r1, [pc, #24]	; 8894 <rpi_set_output+0x5c>
    8878:	e59f0018 	ldr	r0, [pc, #24]	; 8898 <rpi_set_output+0x60>
    887c:	ebffff41 	bl	8588 <printk>
    8880:	eb0000ee 	bl	8c40 <clean_reboot>
    8884:	00009aa8 	andeq	r9, r0, r8, lsr #21
    8888:	00009aa4 	andeq	r9, r0, r4, lsr #21
    888c:	00009838 	andeq	r9, r0, r8, lsr r8
    8890:	000098ec 	andeq	r9, r0, ip, ror #17
    8894:	000097e8 	andeq	r9, r0, r8, ror #15
    8898:	000097fc 	strdeq	r9, [r0], -ip

0000889c <va_printk>:
    889c:	e92d4ff0 	push	{r4, r5, r6, r7, r8, r9, sl, fp, lr}
    88a0:	e24ddf45 	sub	sp, sp, #276	; 0x114
    88a4:	e1a09000 	mov	r9, r0
    88a8:	e58d2008 	str	r2, [sp, #8]
    88ac:	e58d300c 	str	r3, [sp, #12]
    88b0:	e2411001 	sub	r1, r1, #1, 0
    88b4:	e0808001 	add	r8, r0, r1
    88b8:	e3a03000 	mov	r3, #0, 0
    88bc:	e5c03000 	strb	r3, [r0]
    88c0:	e1a04000 	mov	r4, r0
    88c4:	e1a06002 	mov	r6, r2
    88c8:	ea000001 	b	88d4 <va_printk+0x38>
    88cc:	e2866001 	add	r6, r6, #1, 0
    88d0:	e4c43001 	strb	r3, [r4], #1
    88d4:	e5d63000 	ldrb	r3, [r6]
    88d8:	e3530000 	cmp	r3, #0, 0
    88dc:	0a0000c8 	beq	8c04 <va_printk+0x368>
    88e0:	e1540008 	cmp	r4, r8
    88e4:	2a0000c6 	bcs	8c04 <va_printk+0x368>
    88e8:	e3530025 	cmp	r3, #37, 0	; 0x25
    88ec:	1afffff6 	bne	88cc <va_printk+0x30>
    88f0:	e5d62001 	ldrb	r2, [r6, #1]
    88f4:	e3520025 	cmp	r2, #37, 0	; 0x25
    88f8:	04c43001 	strbeq	r3, [r4], #1
    88fc:	02866002 	addeq	r6, r6, #2, 0
    8900:	0afffff3 	beq	88d4 <va_printk+0x38>
    8904:	e2866001 	add	r6, r6, #1, 0
    8908:	e3a05000 	mov	r5, #0, 0
    890c:	e5d67000 	ldrb	r7, [r6]
    8910:	e1a0a007 	mov	sl, r7
    8914:	e1a00007 	mov	r0, r7
    8918:	ebffff3d 	bl	8614 <isdigit>
    891c:	e3500000 	cmp	r0, #0, 0
    8920:	0a000004 	beq	8938 <va_printk+0x9c>
    8924:	e0855105 	add	r5, r5, r5, lsl #2
    8928:	e0875085 	add	r5, r7, r5, lsl #1
    892c:	e2455030 	sub	r5, r5, #48, 0	; 0x30
    8930:	e2866001 	add	r6, r6, #1, 0
    8934:	eafffff4 	b	890c <va_printk+0x70>
    8938:	e355001f 	cmp	r5, #31, 0
    893c:	8a00001a 	bhi	89ac <va_printk+0x110>
    8940:	e2477062 	sub	r7, r7, #98, 0	; 0x62
    8944:	e3570016 	cmp	r7, #22, 0
    8948:	979ff107 	ldrls	pc, [pc, r7, lsl #2]
    894c:	ea000094 	b	8ba4 <va_printk+0x308>
    8950:	00008b28 	andeq	r8, r0, r8, lsr #22
    8954:	00008b70 	andeq	r8, r0, r0, ror fp
    8958:	00008a88 	andeq	r8, r0, r8, lsl #21
    895c:	00008ba4 	andeq	r8, r0, r4, lsr #23
    8960:	00008a70 	andeq	r8, r0, r0, ror sl
    8964:	00008ba4 	andeq	r8, r0, r4, lsr #23
    8968:	00008ba4 	andeq	r8, r0, r4, lsr #23
    896c:	00008ba4 	andeq	r8, r0, r4, lsr #23
    8970:	00008ba4 	andeq	r8, r0, r4, lsr #23
    8974:	00008ba4 	andeq	r8, r0, r4, lsr #23
    8978:	000089cc 	andeq	r8, r0, ip, asr #19
    897c:	00008ba4 	andeq	r8, r0, r4, lsr #23
    8980:	00008ba4 	andeq	r8, r0, r4, lsr #23
    8984:	00008ba4 	andeq	r8, r0, r4, lsr #23
    8988:	00008af4 	strdeq	r8, [r0], -r4
    898c:	00008ba4 	andeq	r8, r0, r4, lsr #23
    8990:	00008ba4 	andeq	r8, r0, r4, lsr #23
    8994:	00008b5c 	andeq	r8, r0, ip, asr fp
    8998:	00008ba4 	andeq	r8, r0, r4, lsr #23
    899c:	00008ac0 	andeq	r8, r0, r0, asr #21
    89a0:	00008ba4 	andeq	r8, r0, r4, lsr #23
    89a4:	00008ba4 	andeq	r8, r0, r4, lsr #23
    89a8:	00008af4 	strdeq	r8, [r0], -r4
    89ac:	e59f3264 	ldr	r3, [pc, #612]	; 8c18 <va_printk+0x37c>
    89b0:	e58d3000 	str	r3, [sp]
    89b4:	e3a03098 	mov	r3, #152, 0	; 0x98
    89b8:	e59f225c 	ldr	r2, [pc, #604]	; 8c1c <va_printk+0x380>
    89bc:	e59f125c 	ldr	r1, [pc, #604]	; 8c20 <va_printk+0x384>
    89c0:	e59f025c 	ldr	r0, [pc, #604]	; 8c24 <va_printk+0x388>
    89c4:	ebfffeef 	bl	8588 <printk>
    89c8:	eb00009c 	bl	8c40 <clean_reboot>
    89cc:	e3a02003 	mov	r2, #3, 0
    89d0:	e59f1250 	ldr	r1, [pc, #592]	; 8c28 <va_printk+0x38c>
    89d4:	e1a00006 	mov	r0, r6
    89d8:	eb0002b1 	bl	94a4 <strncmp>
    89dc:	e3500000 	cmp	r0, #0, 0
    89e0:	1a00001a 	bne	8a50 <va_printk+0x1b4>
    89e4:	e2866002 	add	r6, r6, #2, 0
    89e8:	e59d300c 	ldr	r3, [sp, #12]
    89ec:	e2833007 	add	r3, r3, #7, 0
    89f0:	e3c33007 	bic	r3, r3, #7, 0
    89f4:	e2832008 	add	r2, r3, #8, 0
    89f8:	e58d200c 	str	r2, [sp, #12]
    89fc:	e593b000 	ldr	fp, [r3]
    8a00:	e5933004 	ldr	r3, [r3, #4]
    8a04:	e3a0a000 	mov	sl, #0, 0
    8a08:	e58da004 	str	sl, [sp, #4]
    8a0c:	e58d5000 	str	r5, [sp]
    8a10:	e3a02080 	mov	r2, #128, 0	; 0x80
    8a14:	e28d1010 	add	r1, sp, #16, 0
    8a18:	e3a00010 	mov	r0, #16, 0
    8a1c:	ebffff18 	bl	8684 <emit>
    8a20:	e1a07000 	mov	r7, r0
    8a24:	e58da004 	str	sl, [sp, #4]
    8a28:	e58d5000 	str	r5, [sp]
    8a2c:	e1a0300b 	mov	r3, fp
    8a30:	e3a02080 	mov	r2, #128, 0	; 0x80
    8a34:	e28d1090 	add	r1, sp, #144, 0	; 0x90
    8a38:	e3a00010 	mov	r0, #16, 0
    8a3c:	ebffff10 	bl	8684 <emit>
    8a40:	e28d1092 	add	r1, sp, #146, 0	; 0x92
    8a44:	e28d0010 	add	r0, sp, #16, 0
    8a48:	eb000288 	bl	9470 <strcat>
    8a4c:	ea000019 	b	8ab8 <va_printk+0x21c>
    8a50:	e59f31d4 	ldr	r3, [pc, #468]	; 8c2c <va_printk+0x390>
    8a54:	e58d3000 	str	r3, [sp]
    8a58:	e3a0309d 	mov	r3, #157, 0	; 0x9d
    8a5c:	e59f21b8 	ldr	r2, [pc, #440]	; 8c1c <va_printk+0x380>
    8a60:	e59f11b8 	ldr	r1, [pc, #440]	; 8c20 <va_printk+0x384>
    8a64:	e59f01b8 	ldr	r0, [pc, #440]	; 8c24 <va_printk+0x388>
    8a68:	ebfffec6 	bl	8588 <printk>
    8a6c:	eb000073 	bl	8c40 <clean_reboot>
    8a70:	e3a030af 	mov	r3, #175, 0	; 0xaf
    8a74:	e59f21a0 	ldr	r2, [pc, #416]	; 8c1c <va_printk+0x380>
    8a78:	e59f11a0 	ldr	r1, [pc, #416]	; 8c20 <va_printk+0x384>
    8a7c:	e59f01ac 	ldr	r0, [pc, #428]	; 8c30 <va_printk+0x394>
    8a80:	ebfffec0 	bl	8588 <printk>
    8a84:	eb00006d 	bl	8c40 <clean_reboot>
    8a88:	e59d300c 	ldr	r3, [sp, #12]
    8a8c:	e2832004 	add	r2, r3, #4, 0
    8a90:	e58d200c 	str	r2, [sp, #12]
    8a94:	e5933000 	ldr	r3, [r3]
    8a98:	e3a02001 	mov	r2, #1, 0
    8a9c:	e58d2004 	str	r2, [sp, #4]
    8aa0:	e58d5000 	str	r5, [sp]
    8aa4:	e3a02080 	mov	r2, #128, 0	; 0x80
    8aa8:	e28d1010 	add	r1, sp, #16, 0
    8aac:	e3a0000a 	mov	r0, #10, 0
    8ab0:	ebfffef3 	bl	8684 <emit>
    8ab4:	e1a07000 	mov	r7, r0
    8ab8:	e2866001 	add	r6, r6, #1, 0
    8abc:	ea00004a 	b	8bec <va_printk+0x350>
    8ac0:	e59d300c 	ldr	r3, [sp, #12]
    8ac4:	e2832004 	add	r2, r3, #4, 0
    8ac8:	e58d200c 	str	r2, [sp, #12]
    8acc:	e5933000 	ldr	r3, [r3]
    8ad0:	e3a02000 	mov	r2, #0, 0
    8ad4:	e58d2004 	str	r2, [sp, #4]
    8ad8:	e58d5000 	str	r5, [sp]
    8adc:	e3a02080 	mov	r2, #128, 0	; 0x80
    8ae0:	e28d1010 	add	r1, sp, #16, 0
    8ae4:	e3a0000a 	mov	r0, #10, 0
    8ae8:	ebfffee5 	bl	8684 <emit>
    8aec:	e1a07000 	mov	r7, r0
    8af0:	eafffff0 	b	8ab8 <va_printk+0x21c>
    8af4:	e59d300c 	ldr	r3, [sp, #12]
    8af8:	e2832004 	add	r2, r3, #4, 0
    8afc:	e58d200c 	str	r2, [sp, #12]
    8b00:	e5933000 	ldr	r3, [r3]
    8b04:	e3a02000 	mov	r2, #0, 0
    8b08:	e58d2004 	str	r2, [sp, #4]
    8b0c:	e58d5000 	str	r5, [sp]
    8b10:	e3a02080 	mov	r2, #128, 0	; 0x80
    8b14:	e28d1010 	add	r1, sp, #16, 0
    8b18:	e3a00010 	mov	r0, #16, 0
    8b1c:	ebfffed8 	bl	8684 <emit>
    8b20:	e1a07000 	mov	r7, r0
    8b24:	eaffffe3 	b	8ab8 <va_printk+0x21c>
    8b28:	e59d300c 	ldr	r3, [sp, #12]
    8b2c:	e2832004 	add	r2, r3, #4, 0
    8b30:	e58d200c 	str	r2, [sp, #12]
    8b34:	e5933000 	ldr	r3, [r3]
    8b38:	e3a02000 	mov	r2, #0, 0
    8b3c:	e58d2004 	str	r2, [sp, #4]
    8b40:	e58d5000 	str	r5, [sp]
    8b44:	e3a02080 	mov	r2, #128, 0	; 0x80
    8b48:	e28d1010 	add	r1, sp, #16, 0
    8b4c:	e3a00002 	mov	r0, #2, 0
    8b50:	ebfffecb 	bl	8684 <emit>
    8b54:	e1a07000 	mov	r7, r0
    8b58:	eaffffd6 	b	8ab8 <va_printk+0x21c>
    8b5c:	e59d300c 	ldr	r3, [sp, #12]
    8b60:	e2832004 	add	r2, r3, #4, 0
    8b64:	e58d200c 	str	r2, [sp, #12]
    8b68:	e5937000 	ldr	r7, [r3]
    8b6c:	eaffffd1 	b	8ab8 <va_printk+0x21c>
    8b70:	e59d300c 	ldr	r3, [sp, #12]
    8b74:	e2832004 	add	r2, r3, #4, 0
    8b78:	e58d200c 	str	r2, [sp, #12]
    8b7c:	e5933000 	ldr	r3, [r3]
    8b80:	e3a02000 	mov	r2, #0, 0
    8b84:	e58d2004 	str	r2, [sp, #4]
    8b88:	e58d5000 	str	r5, [sp]
    8b8c:	e3a02080 	mov	r2, #128, 0	; 0x80
    8b90:	e28d1010 	add	r1, sp, #16, 0
    8b94:	e3a00008 	mov	r0, #8, 0
    8b98:	ebfffeb9 	bl	8684 <emit>
    8b9c:	e1a07000 	mov	r7, r0
    8ba0:	eaffffc4 	b	8ab8 <va_printk+0x21c>
    8ba4:	e3a03000 	mov	r3, #0, 0
    8ba8:	e5c63001 	strb	r3, [r6, #1]
    8bac:	e1a0200a 	mov	r2, sl
    8bb0:	e1a0100a 	mov	r1, sl
    8bb4:	e59f0078 	ldr	r0, [pc, #120]	; 8c34 <va_printk+0x398>
    8bb8:	ebfffe72 	bl	8588 <printk>
    8bbc:	e59f3074 	ldr	r3, [pc, #116]	; 8c38 <va_printk+0x39c>
    8bc0:	e5933000 	ldr	r3, [r3]
    8bc4:	e59d0008 	ldr	r0, [sp, #8]
    8bc8:	e12fff33 	blx	r3
    8bcc:	e3a030d3 	mov	r3, #211, 0	; 0xd3
    8bd0:	e59f2044 	ldr	r2, [pc, #68]	; 8c1c <va_printk+0x380>
    8bd4:	e59f1044 	ldr	r1, [pc, #68]	; 8c20 <va_printk+0x384>
    8bd8:	e59f005c 	ldr	r0, [pc, #92]	; 8c3c <va_printk+0x3a0>
    8bdc:	ebfffe69 	bl	8588 <printk>
    8be0:	eb000016 	bl	8c40 <clean_reboot>
    8be4:	e2877001 	add	r7, r7, #1, 0
    8be8:	e4c43001 	strb	r3, [r4], #1
    8bec:	e1540008 	cmp	r4, r8
    8bf0:	2affff37 	bcs	88d4 <va_printk+0x38>
    8bf4:	e5d73000 	ldrb	r3, [r7]
    8bf8:	e3530000 	cmp	r3, #0, 0
    8bfc:	1afffff8 	bne	8be4 <va_printk+0x348>
    8c00:	eaffff33 	b	88d4 <va_printk+0x38>
    8c04:	e3a03000 	mov	r3, #0, 0
    8c08:	e4c43001 	strb	r3, [r4], #1
    8c0c:	e0440009 	sub	r0, r4, r9
    8c10:	e28ddf45 	add	sp, sp, #276	; 0x114
    8c14:	e8bd8ff0 	pop	{r4, r5, r6, r7, r8, r9, sl, fp, pc}
    8c18:	00009840 	andeq	r9, r0, r0, asr #16
    8c1c:	000098fc 	strdeq	r9, [r0], -ip
    8c20:	000097e8 	andeq	r9, r0, r8, ror #15
    8c24:	000097fc 	strdeq	r9, [r0], -ip
    8c28:	0000984c 	andeq	r9, r0, ip, asr #16
    8c2c:	00009850 	andeq	r9, r0, r0, asr r8
    8c30:	0000986c 	andeq	r9, r0, ip, ror #16
    8c34:	00009894 	muleq	r0, r4, r8
    8c38:	00009aa4 	andeq	r9, r0, r4, lsr #21
    8c3c:	000098c4 	andeq	r9, r0, r4, asr #17

00008c40 <clean_reboot>:
    8c40:	e92d4010 	push	{r4, lr}
    8c44:	e59f3018 	ldr	r3, [pc, #24]	; 8c64 <clean_reboot+0x24>
    8c48:	e5933000 	ldr	r3, [r3]
    8c4c:	e59f0014 	ldr	r0, [pc, #20]	; 8c68 <clean_reboot+0x28>
    8c50:	e12fff33 	blx	r3
    8c54:	eb00010b 	bl	9088 <uart_flush_tx>
    8c58:	e3a0000a 	mov	r0, #10, 0
    8c5c:	eb000049 	bl	8d88 <delay_ms>
    8c60:	eb000019 	bl	8ccc <rpi_reboot>
    8c64:	00009aa4 	andeq	r9, r0, r4, lsr #21
    8c68:	00009908 	andeq	r9, r0, r8, lsl #18

00008c6c <_cstart>:
    8c6c:	e92d4010 	push	{r4, lr}
    8c70:	eb000009 	bl	8c9c <custom_loader>
    8c74:	e59f3018 	ldr	r3, [pc, #24]	; 8c94 <_cstart+0x28>
    8c78:	e59f2018 	ldr	r2, [pc, #24]	; 8c98 <_cstart+0x2c>
    8c7c:	e1530002 	cmp	r3, r2
    8c80:	33a02000 	movcc	r2, #0, 0
    8c84:	34832004 	strcc	r2, [r3], #4
    8c88:	3afffffa 	bcc	8c78 <_cstart+0xc>
    8c8c:	ebfffd4a 	bl	81bc <notmain>
    8c90:	ebffffea 	bl	8c40 <clean_reboot>
    8c94:	00009aac 	andeq	r9, r0, ip, lsr #21
    8c98:	00009ed8 	ldrdeq	r9, [r0], -r8

00008c9c <custom_loader>:
    8c9c:	e12fff1e 	bx	lr

00008ca0 <at_user_level>:
    8ca0:	e10f0000 	mrs	r0, CPSR
    8ca4:	e200001f 	and	r0, r0, #31, 0
    8ca8:	e3500010 	cmp	r0, #16, 0
    8cac:	13a00000 	movne	r0, #0, 0
    8cb0:	03a00001 	moveq	r0, #1, 0
    8cb4:	e12fff1e 	bx	lr

00008cb8 <set_user_level>:
    8cb8:	e10f3000 	mrs	r3, CPSR
    8cbc:	e3c3301f 	bic	r3, r3, #31, 0
    8cc0:	e3833010 	orr	r3, r3, #16, 0
    8cc4:	e129f003 	msr	CPSR_fc, r3
    8cc8:	e12fff1e 	bx	lr

00008ccc <rpi_reboot>:
    8ccc:	e92d4010 	push	{r4, lr}
    8cd0:	ebfffff2 	bl	8ca0 <at_user_level>
    8cd4:	e3500000 	cmp	r0, #0, 0
    8cd8:	1a000009 	bne	8d04 <rpi_reboot+0x38>
    8cdc:	eb0000e9 	bl	9088 <uart_flush_tx>
    8ce0:	e3a0000a 	mov	r0, #10, 0
    8ce4:	eb000027 	bl	8d88 <delay_ms>
    8ce8:	e59f101c 	ldr	r1, [pc, #28]	; 8d0c <rpi_reboot+0x40>
    8cec:	e59f001c 	ldr	r0, [pc, #28]	; 8d10 <rpi_reboot+0x44>
    8cf0:	ebfffccb 	bl	8024 <PUT32>
    8cf4:	e59f1018 	ldr	r1, [pc, #24]	; 8d14 <rpi_reboot+0x48>
    8cf8:	e59f0018 	ldr	r0, [pc, #24]	; 8d18 <rpi_reboot+0x4c>
    8cfc:	ebfffcc8 	bl	8024 <PUT32>
    8d00:	eafffffe 	b	8d00 <rpi_reboot+0x34>
    8d04:	ebffffeb 	bl	8cb8 <set_user_level>
    8d08:	eafffff3 	b	8cdc <rpi_reboot+0x10>
    8d0c:	5a000001 	bpl	8d18 <rpi_reboot+0x4c>
    8d10:	20100024 	andscs	r0, r0, r4, lsr #32
    8d14:	5a000020 	bpl	8d9c <delay_ms+0x14>
    8d18:	2010001c 	andscs	r0, r0, ip, lsl r0

00008d1c <delay_cycles>:
    8d1c:	e2403001 	sub	r3, r0, #1, 0
    8d20:	e3500000 	cmp	r0, #0, 0
    8d24:	012fff1e 	bxeq	lr
    8d28:	e2811000 	add	r1, r1, #0, 0
    8d2c:	e1a00003 	mov	r0, r3
    8d30:	eafffff9 	b	8d1c <delay_cycles>

00008d34 <timer_get_usec_raw>:
    8d34:	e92d4010 	push	{r4, lr}
    8d38:	e59f0004 	ldr	r0, [pc, #4]	; 8d44 <timer_get_usec_raw+0x10>
    8d3c:	ebfffcba 	bl	802c <GET32>
    8d40:	e8bd8010 	pop	{r4, pc}
    8d44:	20003004 	andcs	r3, r0, r4

00008d48 <timer_get_usec>:
    8d48:	e92d4010 	push	{r4, lr}
    8d4c:	eb000019 	bl	8db8 <dev_barrier>
    8d50:	ebfffff7 	bl	8d34 <timer_get_usec_raw>
    8d54:	e1a04000 	mov	r4, r0
    8d58:	eb000016 	bl	8db8 <dev_barrier>
    8d5c:	e1a00004 	mov	r0, r4
    8d60:	e8bd8010 	pop	{r4, pc}

00008d64 <delay_us>:
    8d64:	e92d4070 	push	{r4, r5, r6, lr}
    8d68:	e1a05000 	mov	r5, r0
    8d6c:	ebfffff5 	bl	8d48 <timer_get_usec>
    8d70:	e1a04000 	mov	r4, r0
    8d74:	ebfffff3 	bl	8d48 <timer_get_usec>
    8d78:	e0400004 	sub	r0, r0, r4
    8d7c:	e1500005 	cmp	r0, r5
    8d80:	3afffffb 	bcc	8d74 <delay_us+0x10>
    8d84:	e8bd8070 	pop	{r4, r5, r6, pc}

00008d88 <delay_ms>:
    8d88:	e92d4010 	push	{r4, lr}
    8d8c:	e0603280 	rsb	r3, r0, r0, lsl #5
    8d90:	e0800103 	add	r0, r0, r3, lsl #2
    8d94:	e1a00180 	lsl	r0, r0, #3
    8d98:	ebfffff1 	bl	8d64 <delay_us>
    8d9c:	e8bd8010 	pop	{r4, pc}

00008da0 <delay_sec>:
    8da0:	e92d4010 	push	{r4, lr}
    8da4:	e0603280 	rsb	r3, r0, r0, lsl #5
    8da8:	e0800103 	add	r0, r0, r3, lsl #2
    8dac:	e1a00180 	lsl	r0, r0, #3
    8db0:	ebfffff4 	bl	8d88 <delay_ms>
    8db4:	e8bd8010 	pop	{r4, pc}

00008db8 <dev_barrier>:
    8db8:	ea000002 	b	8dc8 <dsb>

00008dbc <dmb>:
    8dbc:	e3a00000 	mov	r0, #0, 0
    8dc0:	ee070fba 	mcr	15, 0, r0, cr7, cr10, {5}
    8dc4:	e12fff1e 	bx	lr

00008dc8 <dsb>:
    8dc8:	ee070f9a 	mcr	15, 0, r0, cr7, cr10, {4}
    8dcc:	e12fff1e 	bx	lr

00008dd0 <uart_can_getc>:
    8dd0:	e52de004 	push	{lr}		; (str lr, [sp, #-4]!)
    8dd4:	e24dd00c 	sub	sp, sp, #12, 0
    8dd8:	e59f3018 	ldr	r3, [pc, #24]	; 8df8 <uart_can_getc+0x28>
    8ddc:	e59f2018 	ldr	r2, [pc, #24]	; 8dfc <uart_can_getc+0x2c>
    8de0:	e5832000 	str	r2, [r3]
    8de4:	e59f0014 	ldr	r0, [pc, #20]	; 8e00 <uart_can_getc+0x30>
    8de8:	ebfffc8f 	bl	802c <GET32>
    8dec:	e2000001 	and	r0, r0, #1, 0
    8df0:	e28dd00c 	add	sp, sp, #12, 0
    8df4:	e49df004 	pop	{pc}		; (ldr pc, [sp], #4)
    8df8:	00009ec4 	andeq	r9, r0, r4, asr #29
    8dfc:	20215000 	eorcs	r5, r1, r0
    8e00:	20215054 	eorcs	r5, r1, r4, asr r0

00008e04 <uart_init>:
    8e04:	e92d4070 	push	{r4, r5, r6, lr}
    8e08:	e59f4150 	ldr	r4, [pc, #336]	; 8f60 <uart_init+0x15c>
    8e0c:	e59f3150 	ldr	r3, [pc, #336]	; 8f64 <uart_init+0x160>
    8e10:	e5843000 	str	r3, [r4]
    8e14:	e3a01002 	mov	r1, #2, 0
    8e18:	e3a0000e 	mov	r0, #14, 0
    8e1c:	eb00009e 	bl	909c <gpio_set_function>
    8e20:	e3a01002 	mov	r1, #2, 0
    8e24:	e3a0000f 	mov	r0, #15, 0
    8e28:	eb00009b 	bl	909c <gpio_set_function>
    8e2c:	e5945000 	ldr	r5, [r4]
    8e30:	e2850004 	add	r0, r5, #4, 0
    8e34:	ebfffc7c 	bl	802c <GET32>
    8e38:	e5850004 	str	r0, [r5, #4]
    8e3c:	e5943000 	ldr	r3, [r4]
    8e40:	e5d32004 	ldrb	r2, [r3, #4]
    8e44:	e3822001 	orr	r2, r2, #1, 0
    8e48:	e1a00003 	mov	r0, r3
    8e4c:	e5e02004 	strb	r2, [r0, #4]!
    8e50:	e5931004 	ldr	r1, [r3, #4]
    8e54:	ebfffc72 	bl	8024 <PUT32>
    8e58:	e5945000 	ldr	r5, [r4]
    8e5c:	e2850060 	add	r0, r5, #96, 0	; 0x60
    8e60:	ebfffc71 	bl	802c <GET32>
    8e64:	e5850060 	str	r0, [r5, #96]	; 0x60
    8e68:	e5943000 	ldr	r3, [r4]
    8e6c:	e5d32060 	ldrb	r2, [r3, #96]	; 0x60
    8e70:	e20220fc 	and	r2, r2, #252, 0	; 0xfc
    8e74:	e1a00003 	mov	r0, r3
    8e78:	e5e02060 	strb	r2, [r0, #96]!	; 0x60
    8e7c:	e5931060 	ldr	r1, [r3, #96]	; 0x60
    8e80:	ebfffc67 	bl	8024 <PUT32>
    8e84:	e5945000 	ldr	r5, [r4]
    8e88:	e2850044 	add	r0, r5, #68, 0	; 0x44
    8e8c:	ebfffc66 	bl	802c <GET32>
    8e90:	e5850044 	str	r0, [r5, #68]	; 0x44
    8e94:	e5943000 	ldr	r3, [r4]
    8e98:	e5d32044 	ldrb	r2, [r3, #68]	; 0x44
    8e9c:	e20220fc 	and	r2, r2, #252, 0	; 0xfc
    8ea0:	e1a00003 	mov	r0, r3
    8ea4:	e5e02044 	strb	r2, [r0, #68]!	; 0x44
    8ea8:	e5931044 	ldr	r1, [r3, #68]	; 0x44
    8eac:	ebfffc5c 	bl	8024 <PUT32>
    8eb0:	e5945000 	ldr	r5, [r4]
    8eb4:	e2850048 	add	r0, r5, #72, 0	; 0x48
    8eb8:	ebfffc5b 	bl	802c <GET32>
    8ebc:	e5850048 	str	r0, [r5, #72]	; 0x48
    8ec0:	e5943000 	ldr	r3, [r4]
    8ec4:	e5d32048 	ldrb	r2, [r3, #72]	; 0x48
    8ec8:	e3822006 	orr	r2, r2, #6, 0
    8ecc:	e1a00003 	mov	r0, r3
    8ed0:	e5e02048 	strb	r2, [r0, #72]!	; 0x48
    8ed4:	e5931048 	ldr	r1, [r3, #72]	; 0x48
    8ed8:	ebfffc51 	bl	8024 <PUT32>
    8edc:	e5945000 	ldr	r5, [r4]
    8ee0:	e2850068 	add	r0, r5, #104, 0	; 0x68
    8ee4:	ebfffc50 	bl	802c <GET32>
    8ee8:	e5850068 	str	r0, [r5, #104]	; 0x68
    8eec:	e5943000 	ldr	r3, [r4]
    8ef0:	e1a00003 	mov	r0, r3
    8ef4:	e59f206c 	ldr	r2, [pc, #108]	; 8f68 <uart_init+0x164>
    8ef8:	e1e026b8 	strh	r2, [r0, #104]!	; 0x68
    8efc:	e5931068 	ldr	r1, [r3, #104]	; 0x68
    8f00:	ebfffc47 	bl	8024 <PUT32>
    8f04:	e5945000 	ldr	r5, [r4]
    8f08:	e285004c 	add	r0, r5, #76, 0	; 0x4c
    8f0c:	ebfffc46 	bl	802c <GET32>
    8f10:	e585004c 	str	r0, [r5, #76]	; 0x4c
    8f14:	e5943000 	ldr	r3, [r4]
    8f18:	e5d3204c 	ldrb	r2, [r3, #76]	; 0x4c
    8f1c:	e3822001 	orr	r2, r2, #1, 0
    8f20:	e1a00003 	mov	r0, r3
    8f24:	e5e0204c 	strb	r2, [r0, #76]!	; 0x4c
    8f28:	e593104c 	ldr	r1, [r3, #76]	; 0x4c
    8f2c:	ebfffc3c 	bl	8024 <PUT32>
    8f30:	e5945000 	ldr	r5, [r4]
    8f34:	e2850060 	add	r0, r5, #96, 0	; 0x60
    8f38:	ebfffc3b 	bl	802c <GET32>
    8f3c:	e5850060 	str	r0, [r5, #96]	; 0x60
    8f40:	e5943000 	ldr	r3, [r4]
    8f44:	e5d32060 	ldrb	r2, [r3, #96]	; 0x60
    8f48:	e3822003 	orr	r2, r2, #3, 0
    8f4c:	e1a00003 	mov	r0, r3
    8f50:	e5e02060 	strb	r2, [r0, #96]!	; 0x60
    8f54:	e5931060 	ldr	r1, [r3, #96]	; 0x60
    8f58:	ebfffc31 	bl	8024 <PUT32>
    8f5c:	e8bd8070 	pop	{r4, r5, r6, pc}
    8f60:	00009ec4 	andeq	r9, r0, r4, asr #29
    8f64:	20215000 	eorcs	r5, r1, r0
    8f68:	0000010e 	andeq	r0, r0, lr, lsl #2

00008f6c <uart_getc>:
    8f6c:	e92d4010 	push	{r4, lr}
    8f70:	e59f3028 	ldr	r3, [pc, #40]	; 8fa0 <uart_getc+0x34>
    8f74:	e59f2028 	ldr	r2, [pc, #40]	; 8fa4 <uart_getc+0x38>
    8f78:	e5832000 	str	r2, [r3]
    8f7c:	ebffff93 	bl	8dd0 <uart_can_getc>
    8f80:	e3500000 	cmp	r0, #0, 0
    8f84:	0afffffc 	beq	8f7c <uart_getc+0x10>
    8f88:	e59f3010 	ldr	r3, [pc, #16]	; 8fa0 <uart_getc+0x34>
    8f8c:	e5930000 	ldr	r0, [r3]
    8f90:	e2800040 	add	r0, r0, #64, 0	; 0x40
    8f94:	ebfffc24 	bl	802c <GET32>
    8f98:	e6ef0070 	uxtb	r0, r0
    8f9c:	e8bd8010 	pop	{r4, pc}
    8fa0:	00009ec4 	andeq	r9, r0, r4, asr #29
    8fa4:	20215000 	eorcs	r5, r1, r0

00008fa8 <uart_can_putc>:
    8fa8:	e52de004 	push	{lr}		; (str lr, [sp, #-4]!)
    8fac:	e24dd00c 	sub	sp, sp, #12, 0
    8fb0:	e59f3020 	ldr	r3, [pc, #32]	; 8fd8 <uart_can_putc+0x30>
    8fb4:	e59f2020 	ldr	r2, [pc, #32]	; 8fdc <uart_can_putc+0x34>
    8fb8:	e5832000 	str	r2, [r3]
    8fbc:	e59f001c 	ldr	r0, [pc, #28]	; 8fe0 <uart_can_putc+0x38>
    8fc0:	ebfffc19 	bl	802c <GET32>
    8fc4:	e6ef0070 	uxtb	r0, r0
    8fc8:	e1a002a0 	lsr	r0, r0, #5
    8fcc:	e2000001 	and	r0, r0, #1, 0
    8fd0:	e28dd00c 	add	sp, sp, #12, 0
    8fd4:	e49df004 	pop	{pc}		; (ldr pc, [sp], #4)
    8fd8:	00009ec4 	andeq	r9, r0, r4, asr #29
    8fdc:	20215000 	eorcs	r5, r1, r0
    8fe0:	20215054 	eorcs	r5, r1, r4, asr r0

00008fe4 <uart_putc>:
    8fe4:	e92d4010 	push	{r4, lr}
    8fe8:	e1a04000 	mov	r4, r0
    8fec:	e59f3028 	ldr	r3, [pc, #40]	; 901c <uart_putc+0x38>
    8ff0:	e59f2028 	ldr	r2, [pc, #40]	; 9020 <uart_putc+0x3c>
    8ff4:	e5832000 	str	r2, [r3]
    8ff8:	ebffffea 	bl	8fa8 <uart_can_putc>
    8ffc:	e3500000 	cmp	r0, #0, 0
    9000:	0afffffc 	beq	8ff8 <uart_putc+0x14>
    9004:	e59f3010 	ldr	r3, [pc, #16]	; 901c <uart_putc+0x38>
    9008:	e5930000 	ldr	r0, [r3]
    900c:	e1a01004 	mov	r1, r4
    9010:	e2800040 	add	r0, r0, #64, 0	; 0x40
    9014:	ebfffc02 	bl	8024 <PUT32>
    9018:	e8bd8010 	pop	{r4, pc}
    901c:	00009ec4 	andeq	r9, r0, r4, asr #29
    9020:	20215000 	eorcs	r5, r1, r0

00009024 <uart_has_data>:
    9024:	e92d4010 	push	{r4, lr}
    9028:	ebffff68 	bl	8dd0 <uart_can_getc>
    902c:	e8bd8010 	pop	{r4, pc}

00009030 <uart_getc_async>:
    9030:	e92d4010 	push	{r4, lr}
    9034:	ebfffffa 	bl	9024 <uart_has_data>
    9038:	e3500000 	cmp	r0, #0, 0
    903c:	0a000001 	beq	9048 <uart_getc_async+0x18>
    9040:	ebffffc9 	bl	8f6c <uart_getc>
    9044:	e8bd8010 	pop	{r4, pc}
    9048:	e3e00000 	mvn	r0, #0, 0
    904c:	e8bd8010 	pop	{r4, pc}

00009050 <uart_tx_is_empty>:
    9050:	e52de004 	push	{lr}		; (str lr, [sp, #-4]!)
    9054:	e24dd00c 	sub	sp, sp, #12, 0
    9058:	e59f301c 	ldr	r3, [pc, #28]	; 907c <uart_tx_is_empty+0x2c>
    905c:	e59f201c 	ldr	r2, [pc, #28]	; 9080 <uart_tx_is_empty+0x30>
    9060:	e5832000 	str	r2, [r3]
    9064:	e59f0018 	ldr	r0, [pc, #24]	; 9084 <uart_tx_is_empty+0x34>
    9068:	ebfffbef 	bl	802c <GET32>
    906c:	e1a00420 	lsr	r0, r0, #8
    9070:	e2000001 	and	r0, r0, #1, 0
    9074:	e28dd00c 	add	sp, sp, #12, 0
    9078:	e49df004 	pop	{pc}		; (ldr pc, [sp], #4)
    907c:	00009ec4 	andeq	r9, r0, r4, asr #29
    9080:	20215000 	eorcs	r5, r1, r0
    9084:	20215064 	eorcs	r5, r1, r4, rrx

00009088 <uart_flush_tx>:
    9088:	e92d4010 	push	{r4, lr}
    908c:	ebffffef 	bl	9050 <uart_tx_is_empty>
    9090:	e3500000 	cmp	r0, #0, 0
    9094:	0afffffc 	beq	908c <uart_flush_tx+0x4>
    9098:	e8bd8010 	pop	{r4, pc}

0000909c <gpio_set_function>:
    909c:	e92d41f0 	push	{r4, r5, r6, r7, r8, lr}
    90a0:	e1a04000 	mov	r4, r0
    90a4:	e1a06001 	mov	r6, r1
    90a8:	e59f503c 	ldr	r5, [pc, #60]	; 90ec <gpio_set_function+0x50>
    90ac:	e0853095 	umull	r3, r5, r5, r0
    90b0:	e1a051a5 	lsr	r5, r5, #3
    90b4:	e2857302 	add	r7, r5, #134217728	; 0x8000000
    90b8:	e2877702 	add	r7, r7, #524288	; 0x80000
    90bc:	e1a07107 	lsl	r7, r7, #2
    90c0:	e1a00007 	mov	r0, r7
    90c4:	ebfffbd8 	bl	802c <GET32>
    90c8:	e0855105 	add	r5, r5, r5, lsl #2
    90cc:	e0445085 	sub	r5, r4, r5, lsl #1
    90d0:	e0855085 	add	r5, r5, r5, lsl #1
    90d4:	e3a01007 	mov	r1, #7, 0
    90d8:	e1c01511 	bic	r1, r0, r1, lsl r5
    90dc:	e1811516 	orr	r1, r1, r6, lsl r5
    90e0:	e1a00007 	mov	r0, r7
    90e4:	ebfffbce 	bl	8024 <PUT32>
    90e8:	e8bd81f0 	pop	{r4, r5, r6, r7, r8, pc}
    90ec:	cccccccd 	stclgt	12, cr12, [ip], {205}	; 0xcd

000090f0 <gpio_set_output>:
    90f0:	e92d4010 	push	{r4, lr}
    90f4:	e3a01001 	mov	r1, #1, 0
    90f8:	ebffffe7 	bl	909c <gpio_set_function>
    90fc:	e8bd8010 	pop	{r4, pc}

00009100 <gpio_set_on>:
    9100:	e92d4010 	push	{r4, lr}
    9104:	e3a01001 	mov	r1, #1, 0
    9108:	e1a01011 	lsl	r1, r1, r0
    910c:	e59f0004 	ldr	r0, [pc, #4]	; 9118 <gpio_set_on+0x18>
    9110:	ebfffbc3 	bl	8024 <PUT32>
    9114:	e8bd8010 	pop	{r4, pc}
    9118:	2020001c 	eorcs	r0, r0, ip, lsl r0

0000911c <gpio_set_off>:
    911c:	e92d4010 	push	{r4, lr}
    9120:	e3a01001 	mov	r1, #1, 0
    9124:	e1a01011 	lsl	r1, r1, r0
    9128:	e59f0004 	ldr	r0, [pc, #4]	; 9134 <gpio_set_off+0x18>
    912c:	ebfffbbc 	bl	8024 <PUT32>
    9130:	e8bd8010 	pop	{r4, pc}
    9134:	20200028 	eorcs	r0, r0, r8, lsr #32

00009138 <gpio_write>:
    9138:	e92d4010 	push	{r4, lr}
    913c:	e3510000 	cmp	r1, #0, 0
    9140:	0a000001 	beq	914c <gpio_write+0x14>
    9144:	ebffffed 	bl	9100 <gpio_set_on>
    9148:	e8bd8010 	pop	{r4, pc}
    914c:	ebfffff2 	bl	911c <gpio_set_off>
    9150:	e8bd8010 	pop	{r4, pc}

00009154 <gpio_set_input>:
    9154:	e92d4010 	push	{r4, lr}
    9158:	e3a01000 	mov	r1, #0, 0
    915c:	ebffffce 	bl	909c <gpio_set_function>
    9160:	e8bd8010 	pop	{r4, pc}

00009164 <gpio_read>:
    9164:	e92d4010 	push	{r4, lr}
    9168:	e1a04000 	mov	r4, r0
    916c:	e59f000c 	ldr	r0, [pc, #12]	; 9180 <gpio_read+0x1c>
    9170:	ebfffbad 	bl	802c <GET32>
    9174:	e3a03001 	mov	r3, #1, 0
    9178:	e0000413 	and	r0, r0, r3, lsl r4
    917c:	e8bd8010 	pop	{r4, pc}
    9180:	20200034 	eorcs	r0, r0, r4, lsr r0

00009184 <kmalloc>:
    9184:	e52de004 	push	{lr}		; (str lr, [sp, #-4]!)
    9188:	e24dd00c 	sub	sp, sp, #12, 0
    918c:	e2503000 	subs	r3, r0, #0, 0
    9190:	0a00000b 	beq	91c4 <kmalloc+0x40>
    9194:	e59f206c 	ldr	r2, [pc, #108]	; 9208 <kmalloc+0x84>
    9198:	e5922000 	ldr	r2, [r2]
    919c:	e3520000 	cmp	r2, #0, 0
    91a0:	0a00000f 	beq	91e4 <kmalloc+0x60>
    91a4:	e59f205c 	ldr	r2, [pc, #92]	; 9208 <kmalloc+0x84>
    91a8:	e5920004 	ldr	r0, [r2, #4]
    91ac:	e2833003 	add	r3, r3, #3, 0
    91b0:	e3c33003 	bic	r3, r3, #3, 0
    91b4:	e0803003 	add	r3, r0, r3
    91b8:	e5823004 	str	r3, [r2, #4]
    91bc:	e28dd00c 	add	sp, sp, #12, 0
    91c0:	e49df004 	pop	{pc}		; (ldr pc, [sp], #4)
    91c4:	e59f3040 	ldr	r3, [pc, #64]	; 920c <kmalloc+0x88>
    91c8:	e58d3000 	str	r3, [sp]
    91cc:	e3a03037 	mov	r3, #55, 0	; 0x37
    91d0:	e59f2038 	ldr	r2, [pc, #56]	; 9210 <kmalloc+0x8c>
    91d4:	e59f1038 	ldr	r1, [pc, #56]	; 9214 <kmalloc+0x90>
    91d8:	e59f0038 	ldr	r0, [pc, #56]	; 9218 <kmalloc+0x94>
    91dc:	ebfffce9 	bl	8588 <printk>
    91e0:	ebfffe96 	bl	8c40 <clean_reboot>
    91e4:	eb000097 	bl	9448 <rpi_reset_putc>
    91e8:	e59f302c 	ldr	r3, [pc, #44]	; 921c <kmalloc+0x98>
    91ec:	e58d3000 	str	r3, [sp]
    91f0:	e3a03038 	mov	r3, #56, 0	; 0x38
    91f4:	e59f2014 	ldr	r2, [pc, #20]	; 9210 <kmalloc+0x8c>
    91f8:	e59f1014 	ldr	r1, [pc, #20]	; 9214 <kmalloc+0x90>
    91fc:	e59f001c 	ldr	r0, [pc, #28]	; 9220 <kmalloc+0x9c>
    9200:	ebfffce0 	bl	8588 <printk>
    9204:	ebfffe8d 	bl	8c40 <clean_reboot>
    9208:	00009ec8 	andeq	r9, r0, r8, asr #29
    920c:	00009924 	andeq	r9, r0, r4, lsr #18
    9210:	00009a6c 	andeq	r9, r0, ip, ror #20
    9214:	00009914 	andeq	r9, r0, r4, lsl r9
    9218:	000097fc 	strdeq	r9, [r0], -ip
    921c:	00009968 	andeq	r9, r0, r8, ror #18
    9220:	0000992c 	andeq	r9, r0, ip, lsr #18

00009224 <kmalloc_aligned>:
    9224:	e52de004 	push	{lr}		; (str lr, [sp, #-4]!)
    9228:	e24dd00c 	sub	sp, sp, #12, 0
    922c:	e3500000 	cmp	r0, #0, 0
    9230:	0a000015 	beq	928c <kmalloc_aligned+0x68>
    9234:	e59f30e0 	ldr	r3, [pc, #224]	; 931c <kmalloc_aligned+0xf8>
    9238:	e5933000 	ldr	r3, [r3]
    923c:	e3530000 	cmp	r3, #0, 0
    9240:	0a000019 	beq	92ac <kmalloc_aligned+0x88>
    9244:	e2613000 	rsb	r3, r1, #0, 0
    9248:	e1d13003 	bics	r3, r1, r3
    924c:	1a00001f 	bne	92d0 <kmalloc_aligned+0xac>
    9250:	e3510004 	cmp	r1, #4, 0
    9254:	9a000026 	bls	92f4 <kmalloc_aligned+0xd0>
    9258:	e59f30bc 	ldr	r3, [pc, #188]	; 931c <kmalloc_aligned+0xf8>
    925c:	e5933004 	ldr	r3, [r3, #4]
    9260:	e2612000 	rsb	r2, r1, #0, 0
    9264:	e1d1c002 	bics	ip, r1, r2
    9268:	1a000023 	bne	92fc <kmalloc_aligned+0xd8>
    926c:	e0831001 	add	r1, r3, r1
    9270:	e2411001 	sub	r1, r1, #1, 0
    9274:	e0011002 	and	r1, r1, r2
    9278:	e59f309c 	ldr	r3, [pc, #156]	; 931c <kmalloc_aligned+0xf8>
    927c:	e5831004 	str	r1, [r3, #4]
    9280:	ebffffbf 	bl	9184 <kmalloc>
    9284:	e28dd00c 	add	sp, sp, #12, 0
    9288:	e49df004 	pop	{pc}		; (ldr pc, [sp], #4)
    928c:	e59f308c 	ldr	r3, [pc, #140]	; 9320 <kmalloc_aligned+0xfc>
    9290:	e58d3000 	str	r3, [sp]
    9294:	e3a03043 	mov	r3, #67, 0	; 0x43
    9298:	e59f2084 	ldr	r2, [pc, #132]	; 9324 <kmalloc_aligned+0x100>
    929c:	e59f1084 	ldr	r1, [pc, #132]	; 9328 <kmalloc_aligned+0x104>
    92a0:	e59f0084 	ldr	r0, [pc, #132]	; 932c <kmalloc_aligned+0x108>
    92a4:	ebfffcb7 	bl	8588 <printk>
    92a8:	ebfffe64 	bl	8c40 <clean_reboot>
    92ac:	eb000065 	bl	9448 <rpi_reset_putc>
    92b0:	e59f3078 	ldr	r3, [pc, #120]	; 9330 <kmalloc_aligned+0x10c>
    92b4:	e58d3000 	str	r3, [sp]
    92b8:	e3a03044 	mov	r3, #68, 0	; 0x44
    92bc:	e59f2060 	ldr	r2, [pc, #96]	; 9324 <kmalloc_aligned+0x100>
    92c0:	e59f1060 	ldr	r1, [pc, #96]	; 9328 <kmalloc_aligned+0x104>
    92c4:	e59f0068 	ldr	r0, [pc, #104]	; 9334 <kmalloc_aligned+0x110>
    92c8:	ebfffcae 	bl	8588 <printk>
    92cc:	ebfffe5b 	bl	8c40 <clean_reboot>
    92d0:	eb00005c 	bl	9448 <rpi_reset_putc>
    92d4:	e59f305c 	ldr	r3, [pc, #92]	; 9338 <kmalloc_aligned+0x114>
    92d8:	e58d3000 	str	r3, [sp]
    92dc:	e3a03045 	mov	r3, #69, 0	; 0x45
    92e0:	e59f203c 	ldr	r2, [pc, #60]	; 9324 <kmalloc_aligned+0x100>
    92e4:	e59f103c 	ldr	r1, [pc, #60]	; 9328 <kmalloc_aligned+0x104>
    92e8:	e59f004c 	ldr	r0, [pc, #76]	; 933c <kmalloc_aligned+0x118>
    92ec:	ebfffca5 	bl	8588 <printk>
    92f0:	ebfffe52 	bl	8c40 <clean_reboot>
    92f4:	ebffffa2 	bl	9184 <kmalloc>
    92f8:	eaffffe1 	b	9284 <kmalloc_aligned+0x60>
    92fc:	e59f303c 	ldr	r3, [pc, #60]	; 9340 <kmalloc_aligned+0x11c>
    9300:	e58d3000 	str	r3, [sp]
    9304:	e3a03025 	mov	r3, #37, 0	; 0x25
    9308:	e59f2034 	ldr	r2, [pc, #52]	; 9344 <kmalloc_aligned+0x120>
    930c:	e59f1014 	ldr	r1, [pc, #20]	; 9328 <kmalloc_aligned+0x104>
    9310:	e59f0014 	ldr	r0, [pc, #20]	; 932c <kmalloc_aligned+0x108>
    9314:	ebfffc9b 	bl	8588 <printk>
    9318:	ebfffe48 	bl	8c40 <clean_reboot>
    931c:	00009ec8 	andeq	r9, r0, r8, asr #29
    9320:	00009924 	andeq	r9, r0, r4, lsr #18
    9324:	00009a74 	andeq	r9, r0, r4, ror sl
    9328:	00009914 	andeq	r9, r0, r4, lsl r9
    932c:	000097fc 	strdeq	r9, [r0], -ip
    9330:	00009968 	andeq	r9, r0, r8, ror #18
    9334:	0000992c 	andeq	r9, r0, ip, lsr #18
    9338:	000099a4 	andeq	r9, r0, r4, lsr #19
    933c:	00009970 	andeq	r9, r0, r0, ror r9
    9340:	000099b8 			; <UNDEFINED> instruction: 0x000099b8
    9344:	00009a84 	andeq	r9, r0, r4, lsl #21

00009348 <kmalloc_init_set_start>:
    9348:	e52de004 	push	{lr}		; (str lr, [sp, #-4]!)
    934c:	e24dd00c 	sub	sp, sp, #12, 0
    9350:	e59f3074 	ldr	r3, [pc, #116]	; 93cc <kmalloc_init_set_start+0x84>
    9354:	e5933000 	ldr	r3, [r3]
    9358:	e3530000 	cmp	r3, #0, 0
    935c:	1a000008 	bne	9384 <kmalloc_init_set_start+0x3c>
    9360:	e59f3064 	ldr	r3, [pc, #100]	; 93cc <kmalloc_init_set_start+0x84>
    9364:	e3a02001 	mov	r2, #1, 0
    9368:	e5832000 	str	r2, [r3]
    936c:	e5830008 	str	r0, [r3, #8]
    9370:	e5830004 	str	r0, [r3, #4]
    9374:	e3100007 	tst	r0, #7, 0
    9378:	1a00000a 	bne	93a8 <kmalloc_init_set_start+0x60>
    937c:	e28dd00c 	add	sp, sp, #12, 0
    9380:	e49df004 	pop	{pc}		; (ldr pc, [sp], #4)
    9384:	eb00002f 	bl	9448 <rpi_reset_putc>
    9388:	e59f3040 	ldr	r3, [pc, #64]	; 93d0 <kmalloc_init_set_start+0x88>
    938c:	e58d3000 	str	r3, [sp]
    9390:	e3a03062 	mov	r3, #98, 0	; 0x62
    9394:	e59f2038 	ldr	r2, [pc, #56]	; 93d4 <kmalloc_init_set_start+0x8c>
    9398:	e59f1038 	ldr	r1, [pc, #56]	; 93d8 <kmalloc_init_set_start+0x90>
    939c:	e59f0038 	ldr	r0, [pc, #56]	; 93dc <kmalloc_init_set_start+0x94>
    93a0:	ebfffc78 	bl	8588 <printk>
    93a4:	ebfffe25 	bl	8c40 <clean_reboot>
    93a8:	eb000026 	bl	9448 <rpi_reset_putc>
    93ac:	e59f302c 	ldr	r3, [pc, #44]	; 93e0 <kmalloc_init_set_start+0x98>
    93b0:	e58d3000 	str	r3, [sp]
    93b4:	e3a03066 	mov	r3, #102, 0	; 0x66
    93b8:	e59f2014 	ldr	r2, [pc, #20]	; 93d4 <kmalloc_init_set_start+0x8c>
    93bc:	e59f1014 	ldr	r1, [pc, #20]	; 93d8 <kmalloc_init_set_start+0x90>
    93c0:	e59f001c 	ldr	r0, [pc, #28]	; 93e4 <kmalloc_init_set_start+0x9c>
    93c4:	ebfffc6f 	bl	8588 <printk>
    93c8:	ebfffe1c 	bl	8c40 <clean_reboot>
    93cc:	00009ec8 	andeq	r9, r0, r8, asr #29
    93d0:	000099f8 	strdeq	r9, [r0], -r8
    93d4:	00009a8c 	andeq	r9, r0, ip, lsl #21
    93d8:	00009914 	andeq	r9, r0, r4, lsl r9
    93dc:	000099c4 	andeq	r9, r0, r4, asr #19
    93e0:	00009a3c 	andeq	r9, r0, ip, lsr sl
    93e4:	00009a00 	andeq	r9, r0, r0, lsl #20

000093e8 <kmalloc_init>:
    93e8:	e59f3018 	ldr	r3, [pc, #24]	; 9408 <kmalloc_init+0x20>
    93ec:	e5933000 	ldr	r3, [r3]
    93f0:	e3530000 	cmp	r3, #0, 0
    93f4:	112fff1e 	bxne	lr
    93f8:	e92d4010 	push	{r4, lr}
    93fc:	e59f0008 	ldr	r0, [pc, #8]	; 940c <kmalloc_init+0x24>
    9400:	ebffffd0 	bl	9348 <kmalloc_init_set_start>
    9404:	e8bd8010 	pop	{r4, pc}
    9408:	00009ec8 	andeq	r9, r0, r8, asr #29
    940c:	00009ed8 	ldrdeq	r9, [r0], -r8

00009410 <kfree_all>:
    9410:	e59f3008 	ldr	r3, [pc, #8]	; 9420 <kfree_all+0x10>
    9414:	e5932008 	ldr	r2, [r3, #8]
    9418:	e5832004 	str	r2, [r3, #4]
    941c:	e12fff1e 	bx	lr
    9420:	00009ec8 	andeq	r9, r0, r8, asr #29

00009424 <kmalloc_heap_ptr>:
    9424:	e59f3004 	ldr	r3, [pc, #4]	; 9430 <kmalloc_heap_ptr+0xc>
    9428:	e5930008 	ldr	r0, [r3, #8]
    942c:	e12fff1e 	bx	lr
    9430:	00009ec8 	andeq	r9, r0, r8, asr #29

00009434 <internal_putchar>:
    9434:	e92d4010 	push	{r4, lr}
    9438:	e1a04000 	mov	r4, r0
    943c:	ebfffee8 	bl	8fe4 <uart_putc>
    9440:	e1a00004 	mov	r0, r4
    9444:	e8bd8010 	pop	{r4, pc}

00009448 <rpi_reset_putc>:
    9448:	e59f3008 	ldr	r3, [pc, #8]	; 9458 <rpi_reset_putc+0x10>
    944c:	e59f2008 	ldr	r2, [pc, #8]	; 945c <rpi_reset_putc+0x14>
    9450:	e5832000 	str	r2, [r3]
    9454:	e12fff1e 	bx	lr
    9458:	00009aa8 	andeq	r9, r0, r8, lsr #21
    945c:	00009434 	andeq	r9, r0, r4, lsr r4

00009460 <rpi_set_putc>:
    9460:	e59f3004 	ldr	r3, [pc, #4]	; 946c <rpi_set_putc+0xc>
    9464:	e5830000 	str	r0, [r3]
    9468:	e12fff1e 	bx	lr
    946c:	00009aa8 	andeq	r9, r0, r8, lsr #21

00009470 <strcat>:
    9470:	e1a02000 	mov	r2, r0
    9474:	e1a03002 	mov	r3, r2
    9478:	e2822001 	add	r2, r2, #1, 0
    947c:	e5d3c000 	ldrb	ip, [r3]
    9480:	e35c0000 	cmp	ip, #0, 0
    9484:	1afffffa 	bne	9474 <strcat+0x4>
    9488:	e2433001 	sub	r3, r3, #1, 0
    948c:	e5d12000 	ldrb	r2, [r1]
    9490:	e2811001 	add	r1, r1, #1, 0
    9494:	e5e32001 	strb	r2, [r3, #1]!
    9498:	e3520000 	cmp	r2, #0, 0
    949c:	1afffffa 	bne	948c <strcat+0x1c>
    94a0:	e12fff1e 	bx	lr

000094a4 <strncmp>:
    94a4:	e3520000 	cmp	r2, #0, 0
    94a8:	e2422001 	sub	r2, r2, #1, 0
    94ac:	0a000005 	beq	94c8 <strncmp+0x24>
    94b0:	e4d03001 	ldrb	r3, [r0], #1
    94b4:	e4d1c001 	ldrb	ip, [r1], #1
    94b8:	e153000c 	cmp	r3, ip
    94bc:	0afffff8 	beq	94a4 <strncmp>
    94c0:	e043000c 	sub	r0, r3, ip
    94c4:	e12fff1e 	bx	lr
    94c8:	e3a00000 	mov	r0, #0, 0
    94cc:	e12fff1e 	bx	lr

Disassembly of section .rodata:

000094d0 <__FUNCTION__.3965-0x168>:
    94d0:	203a7825 	eorscs	r7, sl, r5, lsr #16
    94d4:	000a6425 	andeq	r6, sl, r5, lsr #8
    94d8:	72617473 	rsbvc	r7, r1, #1929379840	; 0x73000000
    94dc:	203d2074 	eorscs	r2, sp, r4, ror r0
    94e0:	6c207825 	stcvs	8, cr7, [r0], #-148	; 0xffffff6c
    94e4:	3d206e65 	stccc	14, cr6, [r0, #-404]!	; 0xfffffe6c
    94e8:	0a642520 	beq	1912970 <__bss_end__+0x1908a98>
    94ec:	00000000 	andeq	r0, r0, r0
    94f0:	706d6173 	rsbvc	r6, sp, r3, ror r1
    94f4:	2073656c 	rsbscs	r6, r3, ip, ror #10
    94f8:	7825203d 	stmdavc	r5!, {r0, r2, r3, r4, r5, sp}
    94fc:	0000000a 	andeq	r0, r0, sl
    9500:	756f6261 	strbvc	r6, [pc, #-609]!	; 92a7 <kmalloc_aligned+0x83>
    9504:	6f742074 	svcvs	0x00742074
    9508:	736e6920 	cmnvc	lr, #32, 18	; 0x80000
    950c:	6c6c6174 	stfvse	f6, [ip], #-464	; 0xfffffe30
    9510:	6e616820 	cdpvs	8, 6, cr6, cr1, cr0, {1}
    9514:	72656c64 	rsbvc	r6, r5, #100, 24	; 0x6400
    9518:	00000a73 	andeq	r0, r0, r3, ror sl
    951c:	74746573 	ldrbtvc	r6, [r4], #-1395	; 0xfffffa8d
    9520:	20676e69 	rsbcs	r6, r7, r9, ror #28
    9524:	74207075 	strtvc	r7, [r0], #-117	; 0xffffff8b
    9528:	72656d69 	rsbvc	r6, r5, #6720	; 0x1a40
    952c:	746e6920 	strbtvc	r6, [lr], #-2336	; 0xfffff6e0
    9530:	75727265 	ldrbvc	r7, [r2, #-613]!	; 0xfffffd9b
    9534:	0a737470 	beq	1ce66fc <__bss_end__+0x1cdc824>
    9538:	00000000 	andeq	r0, r0, r0
    953c:	6e6e6f67 	cdpvs	15, 6, cr6, cr14, cr7, {3}
    9540:	6e652061 	cdpvs	0, 6, cr2, cr5, cr1, {3}
    9544:	656c6261 	strbvs	r6, [ip, #-609]!	; 0xfffffd9f
    9548:	746e6920 	strbtvc	r6, [lr], #-2336	; 0xfffff6e0
    954c:	6c672073 	stclvs	0, cr2, [r7], #-460	; 0xfffffe34
    9550:	6c61626f 	sfmvs	f6, 2, [r1], #-444	; 0xfffffe44
    9554:	0a21796c 	beq	867b0c <__bss_end__+0x85dc34>
    9558:	00000000 	andeq	r0, r0, r0
    955c:	62616e65 	rsbvs	r6, r1, #1616	; 0x650
    9560:	2164656c 	cmncs	r4, ip, ror #10
    9564:	0000000a 	andeq	r0, r0, sl
    9568:	72657469 	rsbvc	r7, r5, #1761607680	; 0x69000000
    956c:	3a64253d 	bcc	1912a68 <__bss_end__+0x1908b90>
    9570:	746e6320 	strbtvc	r6, [lr], #-800	; 0xfffffce0
    9574:	25203d20 	strcs	r3, [r0, #-3360]!	; 0xfffff2e0
    9578:	70202c64 	eorvc	r2, r0, r4, ror #24
    957c:	6f697265 	svcvs	0x00697265
    9580:	203d2064 	eorscs	r2, sp, r4, rrx
    9584:	73756425 	cmnvc	r5, #620756992	; 0x25000000
    9588:	202c6365 	eorcs	r6, ip, r5, ror #6
    958c:	000a7825 	andeq	r7, sl, r5, lsr #16
    9590:	65746e69 	ldrbvs	r6, [r4, #-3689]!	; 0xfffff197
    9594:	70757272 	rsbsvc	r7, r5, r2, ror r2
    9598:	632d7374 			; <UNDEFINED> instruction: 0x632d7374
    959c:	0000632e 	andeq	r6, r0, lr, lsr #6
    95a0:	494e4150 	stmdbmi	lr, {r4, r6, r8, lr}^
    95a4:	73253a43 			; <UNDEFINED> instruction: 0x73253a43
    95a8:	3a73253a 	bcc	1cd2a98 <__bss_end__+0x1cc8bc0>
    95ac:	453a6425 	ldrmi	r6, [sl, #-1061]!	; 0xfffffbdb
    95b0:	524f5252 	subpl	r5, pc, #536870917	; 0x20000005
    95b4:	6e75203a 	mrcvs	0, 3, r2, cr5, cr10, {1}
    95b8:	646e6168 	strbtvs	r6, [lr], #-360	; 0xfffffe98
    95bc:	2064656c 	rsbcs	r6, r4, ip, ror #10
    95c0:	65637865 	strbvs	r7, [r3, #-2149]!	; 0xfffff79b
    95c4:	6f697470 	svcvs	0x00697470
    95c8:	253c206e 	ldrcs	r2, [ip, #-110]!	; 0xffffff92
    95cc:	61203e73 			; <UNDEFINED> instruction: 0x61203e73
    95d0:	43502074 	cmpmi	r0, #116, 0	; 0x74
    95d4:	0a78253d 	beq	1e12ad0 <__bss_end__+0x1e08bf8>
    95d8:	0000000a 	andeq	r0, r0, sl
    95dc:	74736166 	ldrbtvc	r6, [r3], #-358	; 0xfffffe9a
    95e0:	00000000 	andeq	r0, r0, r0
    95e4:	74666f73 	strbtvc	r6, [r6], #-3955	; 0xfffff08d
    95e8:	746e6920 	strbtvc	r6, [lr], #-2336	; 0xfffff6e0
    95ec:	75727265 	ldrbvc	r7, [r2, #-613]!	; 0xfffffd9b
    95f0:	00007470 	andeq	r7, r0, r0, ror r4
    95f4:	65736572 	ldrbvs	r6, [r3, #-1394]!	; 0xfffffa8e
    95f8:	65762074 	ldrbvs	r2, [r6, #-116]!	; 0xffffff8c
    95fc:	726f7463 	rsbvc	r7, pc, #1660944384	; 0x63000000
    9600:	00000000 	andeq	r0, r0, r0
    9604:	65646e75 	strbvs	r6, [r4, #-3701]!	; 0xfffff18b
    9608:	656e6966 	strbvs	r6, [lr, #-2406]!	; 0xfffff69a
    960c:	6e692064 	cdpvs	0, 6, cr2, cr9, cr4, {3}
    9610:	75727473 	ldrbvc	r7, [r2, #-1139]!	; 0xfffffb8d
    9614:	6f697463 	svcvs	0x00697463
    9618:	0000006e 	andeq	r0, r0, lr, rrx
    961c:	66657270 			; <UNDEFINED> instruction: 0x66657270
    9620:	68637465 	stmdavs	r3!, {r0, r2, r5, r6, sl, ip, sp, lr}^
    9624:	6f626120 	svcvs	0x00626120
    9628:	00007472 	andeq	r7, r0, r2, ror r4
    962c:	61746164 	cmnvs	r4, r4, ror #2
    9630:	6f626120 	svcvs	0x00626120
    9634:	00007472 	andeq	r7, r0, r2, ror r4

00009638 <__FUNCTION__.3965>:
    9638:	74736166 	ldrbtvc	r6, [r3], #-358	; 0xfffffe9a
    963c:	746e695f 	strbtvc	r6, [lr], #-2399	; 0xfffff6a1
    9640:	75727265 	ldrbvc	r7, [r2, #-613]!	; 0xfffffd9b
    9644:	765f7470 			; <UNDEFINED> instruction: 0x765f7470
    9648:	6f746365 	svcvs	0x00746365
    964c:	00000072 	andeq	r0, r0, r2, ror r0

00009650 <__FUNCTION__.3969>:
    9650:	74666f73 	strbtvc	r6, [r6], #-3955	; 0xfffff08d
    9654:	65726177 	ldrbvs	r6, [r2, #-375]!	; 0xfffffe89
    9658:	746e695f 	strbtvc	r6, [lr], #-2399	; 0xfffff6a1
    965c:	75727265 	ldrbvc	r7, [r2, #-613]!	; 0xfffffd9b
    9660:	765f7470 			; <UNDEFINED> instruction: 0x765f7470
    9664:	6f746365 	svcvs	0x00746365
    9668:	00000072 	andeq	r0, r0, r2, ror r0

0000966c <__FUNCTION__.3973>:
    966c:	65736572 	ldrbvs	r6, [r3, #-1394]!	; 0xfffffa8e
    9670:	65765f74 	ldrbvs	r5, [r6, #-3956]!	; 0xfffff08c
    9674:	726f7463 	rsbvc	r7, pc, #1660944384	; 0x63000000
    9678:	00000000 	andeq	r0, r0, r0

0000967c <__FUNCTION__.3977>:
    967c:	65646e75 	strbvs	r6, [r4, #-3701]!	; 0xfffff18b
    9680:	656e6966 	strbvs	r6, [lr, #-2406]!	; 0xfffff69a
    9684:	6e695f64 	cdpvs	15, 6, cr5, cr9, cr4, {3}
    9688:	75727473 	ldrbvc	r7, [r2, #-1139]!	; 0xfffffb8d
    968c:	6f697463 	svcvs	0x00697463
    9690:	65765f6e 	ldrbvs	r5, [r6, #-3950]!	; 0xfffff092
    9694:	726f7463 	rsbvc	r7, pc, #1660944384	; 0x63000000
    9698:	00000000 	andeq	r0, r0, r0

0000969c <__FUNCTION__.3981>:
    969c:	66657270 			; <UNDEFINED> instruction: 0x66657270
    96a0:	68637465 	stmdavs	r3!, {r0, r2, r5, r6, sl, ip, sp, lr}^
    96a4:	6f62615f 	svcvs	0x0062615f
    96a8:	765f7472 			; <UNDEFINED> instruction: 0x765f7472
    96ac:	6f746365 	svcvs	0x00746365
    96b0:	00000072 	andeq	r0, r0, r2, ror r0

000096b4 <__FUNCTION__.3985>:
    96b4:	61746164 	cmnvs	r4, r4, ror #2
    96b8:	6f62615f 	svcvs	0x0062615f
    96bc:	765f7472 			; <UNDEFINED> instruction: 0x765f7472
    96c0:	6f746365 	svcvs	0x00746365
    96c4:	00000072 	andeq	r0, r0, r2, ror r0
    96c8:	656d6974 	strbvs	r6, [sp, #-2420]!	; 0xfffff68c
    96cc:	6e692d72 	mcrvs	13, 3, r2, cr9, cr2, {3}
    96d0:	72726574 	rsbsvc	r6, r2, #116, 10	; 0x1d000000
    96d4:	2e747075 	mrccs	0, 3, r7, cr4, cr5, {3}
    96d8:	00000063 	andeq	r0, r0, r3, rrx
    96dc:	494e4150 	stmdbmi	lr, {r4, r6, r8, lr}^
    96e0:	73253a43 			; <UNDEFINED> instruction: 0x73253a43
    96e4:	3a73253a 	bcc	1cd2bd4 <__bss_end__+0x1cc8cfc>
    96e8:	6f3a6425 	svcvs	0x003a6425
    96ec:	65736666 	ldrbvs	r6, [r3, #-1638]!	; 0xfffff99a
    96f0:	72772074 	rsbsvc	r2, r7, #116, 0	; 0x74
    96f4:	3a676e6f 	bcc	19e50b8 <__bss_end__+0x19db1e0>
    96f8:	70786520 	rsbsvc	r6, r8, r0, lsr #10
    96fc:	20746365 	rsbscs	r6, r4, r5, ror #6
    9700:	67207825 	strvs	r7, [r0, -r5, lsr #16]!
    9704:	2520746f 	strcs	r7, [r0, #-1135]!	; 0xfffffb91
    9708:	73252078 			; <UNDEFINED> instruction: 0x73252078
    970c:	666f5b20 	strbtvs	r5, [pc], -r0, lsr #22
    9710:	64253d66 	strtvs	r3, [r5], #-3430	; 0xfffff29a
    9714:	69626e2c 	stmdbvs	r2!, {r2, r3, r5, r9, sl, fp, sp, lr}^
    9718:	253d7374 	ldrcs	r7, [sp, #-884]!	; 0xfffffc8c
    971c:	0a0a5d64 	beq	2a0cb4 <__bss_end__+0x296ddc>
    9720:	00000000 	andeq	r0, r0, r0
    9724:	5f657375 	svcpl	0x00657375
    9728:	69623233 	stmdbvs	r2!, {r0, r1, r4, r5, r9, ip, sp}^
    972c:	6f635f74 	svcvs	0x00635f74
    9730:	65746e75 	ldrbvs	r6, [r4, #-3701]!	; 0xfffff18b
    9734:	00000072 	andeq	r0, r0, r2, ror r0
    9738:	494e4150 	stmdbmi	lr, {r4, r6, r8, lr}^
    973c:	73253a43 			; <UNDEFINED> instruction: 0x73253a43
    9740:	3a73253a 	bcc	1cd2c30 <__bss_end__+0x1cc8d58>
    9744:	773a6425 	ldrvc	r6, [sl, -r5, lsr #8]!
    9748:	68746469 	ldmdavs	r4!, {r0, r3, r5, r6, sl, sp, lr}^
    974c:	6f727720 	svcvs	0x00727720
    9750:	203a676e 	eorscs	r6, sl, lr, ror #14
    9754:	65707865 	ldrbvs	r7, [r0, #-2149]!	; 0xfffff79b
    9758:	25207463 	strcs	r7, [r0, #-1123]!	; 0xfffffb9d
    975c:	6f672078 	svcvs	0x00672078
    9760:	78252074 	stmdavc	r5!, {r2, r4, r5, r6, sp}
    9764:	20732520 	rsbscs	r2, r3, r0, lsr #10
    9768:	66666f5b 	uqsaxvs	r6, r6, fp
    976c:	2c64253d 	cfstr64cs	mvdx2, [r4], #-244	; 0xffffff0c
    9770:	7469626e 	strbtvc	r6, [r9], #-622	; 0xfffffd92
    9774:	64253d73 	strtvs	r3, [r5], #-3443	; 0xfffff28d
    9778:	000a0a5d 	andeq	r0, sl, sp, asr sl
    977c:	5f746e69 	svcpl	0x00746e69
    9780:	62616e65 	rsbvs	r6, r1, #1616	; 0x650
    9784:	0064656c 	rsbeq	r6, r4, ip, ror #10
    9788:	656d6974 	strbvs	r6, [sp, #-2420]!	; 0xfffff68c
    978c:	6e655f72 	mcrvs	15, 3, r5, cr5, cr2, {3}
    9790:	656c6261 	strbvs	r6, [ip, #-609]!	; 0xfffffd9f
    9794:	00000064 	andeq	r0, r0, r4, rrx
    9798:	6e756f63 	cdpvs	15, 7, cr6, cr5, cr3, {3}
    979c:	5f726574 	svcpl	0x00726574
    97a0:	62616e65 	rsbvs	r6, r1, #1616	; 0x650
    97a4:	0064656c 	rsbeq	r6, r4, ip, ror #10
    97a8:	6e756f63 	cdpvs	15, 7, cr6, cr5, cr3, {3}
    97ac:	5f726574 	svcpl	0x00726574
    97b0:	73657270 	cmnvc	r5, #112, 4
    97b4:	656c6163 	strbvs	r6, [ip, #-355]!	; 0xfffffe9d
    97b8:	00000072 	andeq	r0, r0, r2, ror r0
    97bc:	7366666f 	cmnvc	r6, #116391936	; 0x6f00000
    97c0:	20737465 	rsbscs	r7, r3, r5, ror #8
    97c4:	63656863 	cmnvs	r5, #6488064	; 0x630000
    97c8:	2064656b 	rsbcs	r6, r4, fp, ror #10
    97cc:	2174756f 	cmncs	r4, pc, ror #10
    97d0:	0000000a 	andeq	r0, r0, sl

000097d4 <__FUNCTION__.3993>:
    97d4:	656d6974 	strbvs	r6, [sp, #-2420]!	; 0xfffff68c
    97d8:	68635f72 	stmdavs	r3!, {r1, r4, r5, r6, r8, r9, sl, fp, ip, lr}^
    97dc:	5f6b6365 	svcpl	0x006b6365
    97e0:	7366666f 	cmnvc	r6, #116391936	; 0x6f00000
    97e4:	00737465 	rsbseq	r7, r3, r5, ror #8
    97e8:	6362696c 	cmnvs	r2, #108, 18	; 0x1b0000
    97ec:	2d61762f 	stclcs	6, cr7, [r1, #-188]!	; 0xffffff44
    97f0:	6e697270 	mcrvs	2, 3, r7, cr9, cr0, {3}
    97f4:	632e6b74 			; <UNDEFINED> instruction: 0x632e6b74
    97f8:	00000000 	andeq	r0, r0, r0
    97fc:	494e4150 	stmdbmi	lr, {r4, r6, r8, lr}^
    9800:	73253a43 			; <UNDEFINED> instruction: 0x73253a43
    9804:	3a73253a 	bcc	1cd2cf4 <__bss_end__+0x1cc8e1c>
    9808:	253a6425 	ldrcs	r6, [sl, #-1061]!	; 0xfffffbdb
    980c:	00000a73 	andeq	r0, r0, r3, ror sl
    9810:	00000030 	andeq	r0, r0, r0, lsr r0
    9814:	33323130 	teqcc	r2, #12
    9818:	37363534 			; <UNDEFINED> instruction: 0x37363534
    981c:	00003938 	andeq	r3, r0, r8, lsr r9
    9820:	33323130 	teqcc	r2, #12
    9824:	37363534 			; <UNDEFINED> instruction: 0x37363534
    9828:	62613938 	rsbvs	r3, r1, #56, 18	; 0xe0000
    982c:	66656463 	strbtvs	r6, [r5], -r3, ror #8
    9830:	00000000 	andeq	r0, r0, r0
    9834:	00003130 	andeq	r3, r0, r0, lsr r1
    9838:	63747570 	cmnvs	r4, #112, 10	; 0x1c000000
    983c:	0070665f 	rsbseq	r6, r0, pc, asr r6
    9840:	74646977 	strbtvc	r6, [r4], #-2423	; 0xfffff689
    9844:	203c2068 	eorscs	r2, ip, r8, rrx
    9848:	00003233 	andeq	r3, r0, r3, lsr r2
    984c:	00786c6c 	rsbseq	r6, r8, ip, ror #24
    9850:	6e727473 	mrcvs	4, 3, r7, cr2, cr3, {3}
    9854:	28706d63 	ldmdacs	r0!, {r0, r1, r5, r6, r8, sl, fp, sp, lr}^
    9858:	2c746d66 	ldclcs	13, cr6, [r4], #-408	; 0xfffffe68
    985c:	6c6c2220 	sfmvs	f2, 2, [ip], #-128	; 0xffffff80
    9860:	202c2278 	eorcs	r2, ip, r8, ror r2
    9864:	3d202933 			; <UNDEFINED> instruction: 0x3d202933
    9868:	0030203d 	eorseq	r2, r0, sp, lsr r0
    986c:	494e4150 	stmdbmi	lr, {r4, r6, r8, lr}^
    9870:	73253a43 			; <UNDEFINED> instruction: 0x73253a43
    9874:	3a73253a 	bcc	1cd2d64 <__bss_end__+0x1cc8e8c>
    9878:	663a6425 	ldrtvs	r6, [sl], -r5, lsr #8
    987c:	74616f6c 	strbtvc	r6, [r1], #-3948	; 0xfffff094
    9880:	746f6e20 	strbtvc	r6, [pc], #-3616	; 9888 <__FUNCTION__.3993+0xb4>
    9884:	616e6520 	cmnvs	lr, r0, lsr #10
    9888:	64656c62 	strbtvs	r6, [r5], #-3170	; 0xfffff39e
    988c:	0a212121 	beq	851d18 <__bss_end__+0x847e40>
    9890:	00000000 	andeq	r0, r0, r0
    9894:	6e697270 	mcrvs	2, 3, r7, cr9, cr0, {3}
    9898:	203a6b74 	eorscs	r6, sl, r4, ror fp
    989c:	20746f6e 	rsbscs	r6, r4, lr, ror #30
    98a0:	646e6168 	strbtvs	r6, [lr], #-360	; 0xfffffe98
    98a4:	676e696c 	strbvs	r6, [lr, -ip, ror #18]!
    98a8:	65707320 	ldrbvs	r7, [r0, #-800]!	; 0xfffffce0
    98ac:	69666963 	stmdbvs	r6!, {r0, r1, r5, r6, r8, fp, sp, lr}^
    98b0:	27207265 	strcs	r7, [r0, -r5, ror #4]!
    98b4:	20276325 	eorcs	r6, r7, r5, lsr #6
    98b8:	63736128 	cmnvs	r3, #10
    98bc:	253d6969 	ldrcs	r6, [sp, #-2409]!	; 0xfffff697
    98c0:	000a2964 	andeq	r2, sl, r4, ror #18
    98c4:	494e4150 	stmdbmi	lr, {r4, r6, r8, lr}^
    98c8:	73253a43 			; <UNDEFINED> instruction: 0x73253a43
    98cc:	3a73253a 	bcc	1cd2dbc <__bss_end__+0x1cc8ee4>
    98d0:	703a6425 	eorsvc	r6, sl, r5, lsr #8
    98d4:	746e6972 	strbtvc	r6, [lr], #-2418	; 0xfffff68e
    98d8:	7265206b 	rsbvc	r2, r5, #107, 0	; 0x6b
    98dc:	0a726f72 	beq	1ca56ac <__bss_end__+0x1c9b7d4>
    98e0:	0000000a 	andeq	r0, r0, sl

000098e4 <__FUNCTION__.3978>:
    98e4:	74696d65 	strbtvc	r6, [r9], #-3429	; 0xfffff29b
    98e8:	00000000 	andeq	r0, r0, r0

000098ec <__FUNCTION__.3926>:
    98ec:	5f697072 	svcpl	0x00697072
    98f0:	5f746573 	svcpl	0x00746573
    98f4:	7074756f 	rsbsvc	r7, r4, pc, ror #10
    98f8:	00007475 	andeq	r7, r0, r5, ror r4

000098fc <__FUNCTION__.4004>:
    98fc:	705f6176 	subsvc	r6, pc, r6, ror r1	; <UNPREDICTABLE>
    9900:	746e6972 	strbtvc	r6, [lr], #-2418	; 0xfffff68e
    9904:	0000006b 	andeq	r0, r0, fp, rrx
    9908:	454e4f44 	strbmi	r4, [lr, #-3908]	; 0xfffff0bc
    990c:	0a212121 	beq	851d98 <__bss_end__+0x847ec0>
    9910:	00000000 	andeq	r0, r0, r0
    9914:	2f637273 	svccs	0x00637273
    9918:	6c616d6b 	stclvs	13, cr6, [r1], #-428	; 0xfffffe54
    991c:	2e636f6c 	cdpcs	15, 6, cr6, cr3, cr12, {3}
    9920:	00000063 	andeq	r0, r0, r3, rrx
    9924:	7479626e 	ldrbtvc	r6, [r9], #-622	; 0xfffffd92
    9928:	00007365 	andeq	r7, r0, r5, ror #6
    992c:	4f525245 	svcmi	0x00525245
    9930:	73253a52 			; <UNDEFINED> instruction: 0x73253a52
    9934:	3a73253a 	bcc	1cd2e24 <__bss_end__+0x1cc8f4c>
    9938:	203a6425 	eorscs	r6, sl, r5, lsr #8
    993c:	534c4146 	movtpl	r4, #49478	; 0xc146
    9940:	253c2845 	ldrcs	r2, [ip, #-2117]!	; 0xfffff7bb
    9944:	3a293e73 	bcc	a59318 <__bss_end__+0xa4f440>
    9948:	6c616320 	stclvs	3, cr6, [r1], #-128	; 0xffffff80
    994c:	676e696c 	strbvs	r6, [lr, -ip, ror #18]!
    9950:	66656220 	strbtvs	r6, [r5], -r0, lsr #4
    9954:	2065726f 	rsbcs	r7, r5, pc, ror #4
    9958:	74696e69 	strbtvc	r6, [r9], #-3689	; 0xfffff197
    995c:	696c6169 	stmdbvs	ip!, {r0, r3, r5, r6, r8, sp, lr}^
    9960:	0a64657a 	beq	1922f50 <__bss_end__+0x1919078>
    9964:	00000000 	andeq	r0, r0, r0
    9968:	74696e69 	strbtvc	r6, [r9], #-3689	; 0xfffff197
    996c:	0000705f 	andeq	r7, r0, pc, asr r0
    9970:	4f525245 	svcmi	0x00525245
    9974:	73253a52 			; <UNDEFINED> instruction: 0x73253a52
    9978:	3a73253a 	bcc	1cd2e68 <__bss_end__+0x1cc8f90>
    997c:	203a6425 	eorscs	r6, sl, r5, lsr #8
    9980:	534c4146 	movtpl	r4, #49478	; 0xc146
    9984:	253c2845 	ldrcs	r2, [ip, #-2117]!	; 0xfffff7bb
    9988:	3a293e73 	bcc	a5935c <__bss_end__+0xa4f484>
    998c:	73736120 	cmnvc	r3, #8
    9990:	6e696d75 	mcrvs	13, 3, r6, cr9, cr5, {3}
    9994:	6f702067 	svcvs	0x00702067
    9998:	20726577 	rsbscs	r6, r2, r7, ror r5
    999c:	7420666f 	strtvc	r6, [r0], #-1647	; 0xfffff991
    99a0:	000a6f77 	andeq	r6, sl, r7, ror pc
    99a4:	705f7369 	subsvc	r7, pc, r9, ror #6
    99a8:	2832776f 	ldmdacs	r2!, {r0, r1, r2, r3, r5, r6, r8, r9, sl, ip, sp, lr}
    99ac:	67696c61 	strbvs	r6, [r9, -r1, ror #24]!
    99b0:	6e656d6e 	cdpvs	13, 6, cr6, cr5, cr14, {3}
    99b4:	00002974 	andeq	r2, r0, r4, ror r9
    99b8:	705f7369 	subsvc	r7, pc, r9, ror #6
    99bc:	2832776f 	ldmdacs	r2!, {r0, r1, r2, r3, r5, r6, r8, r9, sl, ip, sp, lr}
    99c0:	0000296e 	andeq	r2, r0, lr, ror #18
    99c4:	4f525245 	svcmi	0x00525245
    99c8:	73253a52 			; <UNDEFINED> instruction: 0x73253a52
    99cc:	3a73253a 	bcc	1cd2ebc <__bss_end__+0x1cc8fe4>
    99d0:	203a6425 	eorscs	r6, sl, r5, lsr #8
    99d4:	534c4146 	movtpl	r4, #49478	; 0xc146
    99d8:	253c2845 	ldrcs	r2, [ip, #-2117]!	; 0xfffff7bb
    99dc:	3a293e73 	bcc	a593b0 <__bss_end__+0xa4f4d8>
    99e0:	726c6120 	rsbvc	r6, ip, #8
    99e4:	79646165 	stmdbvc	r4!, {r0, r2, r5, r6, r8, sp, lr}^
    99e8:	696e6920 	stmdbvs	lr!, {r5, r8, fp, sp, lr}^
    99ec:	6c616974 			; <UNDEFINED> instruction: 0x6c616974
    99f0:	64657a69 	strbtvs	r7, [r5], #-2665	; 0xfffff597
    99f4:	0000000a 	andeq	r0, r0, sl
    99f8:	696e6921 	stmdbvs	lr!, {r0, r5, r8, fp, sp, lr}^
    99fc:	00705f74 	rsbseq	r5, r0, r4, ror pc
    9a00:	4f525245 	svcmi	0x00525245
    9a04:	73253a52 			; <UNDEFINED> instruction: 0x73253a52
    9a08:	3a73253a 	bcc	1cd2ef8 <__bss_end__+0x1cc9020>
    9a0c:	203a6425 	eorscs	r6, sl, r5, lsr #8
    9a10:	534c4146 	movtpl	r4, #49478	; 0xc146
    9a14:	253c2845 	ldrcs	r2, [ip, #-2117]!	; 0xfffff7bb
    9a18:	3a293e73 	bcc	a593ec <__bss_end__+0xa4f514>
    9a1c:	736e6520 	cmnvc	lr, #32, 10	; 0x8000000
    9a20:	20657275 	rsbcs	r7, r5, r5, ror r2
    9a24:	67696c61 	strbvs	r6, [r9, -r1, ror #24]!
    9a28:	2064656e 	rsbcs	r6, r4, lr, ror #10
    9a2c:	75206f74 	strvc	r6, [r0, #-3956]!	; 0xfffff08c
    9a30:	6e6f696e 	vnmulvs.f16	s13, s30, s29	; <UNPREDICTABLE>
    9a34:	696c6120 	stmdbvs	ip!, {r5, r8, sp, lr}^
    9a38:	000a6e67 	andeq	r6, sl, r7, ror #28
    9a3c:	615f7369 	cmpvs	pc, r9, ror #6
    9a40:	6e67696c 	vnmulvs.f16	s13, s14, s25	; <UNPREDICTABLE>
    9a44:	705f6465 	subsvc	r6, pc, r5, ror #8
    9a48:	61287274 			; <UNDEFINED> instruction: 0x61287274
    9a4c:	636f6c6c 	cmnvs	pc, #108, 24	; 0x6c00
    9a50:	706f745f 	rsbvc	r7, pc, pc, asr r4	; <UNPREDICTABLE>
    9a54:	6973202c 	ldmdbvs	r3!, {r2, r3, r5, sp}^
    9a58:	666f657a 			; <UNDEFINED> instruction: 0x666f657a
    9a5c:	696e7528 	stmdbvs	lr!, {r3, r5, r8, sl, ip, sp, lr}^
    9a60:	61206e6f 			; <UNDEFINED> instruction: 0x61206e6f
    9a64:	6e67696c 	vnmulvs.f16	s13, s14, s25	; <UNPREDICTABLE>
    9a68:	00002929 	andeq	r2, r0, r9, lsr #18

00009a6c <__FUNCTION__.3940>:
    9a6c:	6c616d6b 	stclvs	13, cr6, [r1], #-428	; 0xfffffe54
    9a70:	00636f6c 	rsbeq	r6, r3, ip, ror #30

00009a74 <__FUNCTION__.3946>:
    9a74:	6c616d6b 	stclvs	13, cr6, [r1], #-428	; 0xfffffe54
    9a78:	5f636f6c 	svcpl	0x00636f6c
    9a7c:	67696c61 	strbvs	r6, [r9, -r1, ror #24]!
    9a80:	0064656e 	rsbeq	r6, r4, lr, ror #10

00009a84 <__FUNCTION__.3936>:
    9a84:	6e756f72 	mrcvs	15, 3, r6, cr5, cr2, {3}
    9a88:	00707564 	rsbseq	r7, r0, r4, ror #10

00009a8c <__FUNCTION__.3953>:
    9a8c:	6c616d6b 	stclvs	13, cr6, [r1], #-428	; 0xfffffe54
    9a90:	5f636f6c 	svcpl	0x00636f6c
    9a94:	74696e69 	strbtvc	r6, [r9], #-3689	; 0xfffff197
    9a98:	7465735f 	strbtvc	r7, [r5], #-863	; 0xfffffca1
    9a9c:	6174735f 	cmnvs	r4, pc, asr r3
    9aa0:	Address 0x0000000000009aa0 is out of bounds.


Disassembly of section .data:

00009aa4 <putk>:
    9aa4:	000085e0 	andeq	r8, r0, r0, ror #11

00009aa8 <rpi_putchar>:
    9aa8:	00009434 	andeq	r9, r0, r4, lsr r4

Disassembly of section .bss:

00009aac <__bss_start__>:
    9aac:	00000000 	andeq	r0, r0, r0

00009ab0 <samples>:
    9ab0:	00000000 	andeq	r0, r0, r0

00009ab4 <code_len>:
    9ab4:	00000000 	andeq	r0, r0, r0

00009ab8 <cnt>:
    9ab8:	00000000 	andeq	r0, r0, r0

00009abc <last_clk.4007>:
    9abc:	00000000 	andeq	r0, r0, r0

00009ac0 <period>:
    9ac0:	00000000 	andeq	r0, r0, r0

00009ac4 <buf.3918>:
	...

00009ec4 <uart_registers>:
    9ec4:	00000000 	andeq	r0, r0, r0

00009ec8 <init_p>:
    9ec8:	00000000 	andeq	r0, r0, r0

00009ecc <alloc_top>:
    9ecc:	00000000 	andeq	r0, r0, r0

00009ed0 <alloc_start>:
    9ed0:	00000000 	andeq	r0, r0, r0

00009ed4 <rpi_arm_timer_t>:
    9ed4:	00000000 	andeq	r0, r0, r0

Disassembly of section .ARM.attributes:

00000000 <.ARM.attributes>:
   0:	00002a41 	andeq	r2, r0, r1, asr #20
   4:	61656100 	cmnvs	r5, r0, lsl #2
   8:	01006962 	tsteq	r0, r2, ror #18
   c:	00000020 	andeq	r0, r0, r0, lsr #32
  10:	4b5a3605 	blmi	168d82c <__bss_end__+0x1683954>
  14:	08070600 	stmdaeq	r7, {r9, sl}
  18:	12010901 	andne	r0, r1, #16384	; 0x4000
  1c:	15011404 	strne	r1, [r1, #-1028]	; 0xfffffbfc
  20:	18031701 	stmdane	r3, {r0, r8, r9, sl, ip}
  24:	22011a01 	andcs	r1, r1, #4096	; 0x1000
  28:	Address 0x0000000000000028 is out of bounds.


Disassembly of section .comment:

00000000 <.comment>:
   0:	3a434347 	bcc	10d0d24 <__bss_end__+0x10c6e4c>
   4:	4e472820 	cdpmi	8, 4, cr2, cr7, cr0, {1}
   8:	6f542055 	svcvs	0x00542055
   c:	20736c6f 	rsbscs	r6, r3, pc, ror #24
  10:	20726f66 	rsbscs	r6, r2, r6, ror #30
  14:	206d7241 	rsbcs	r7, sp, r1, asr #4
  18:	65626d45 	strbvs	r6, [r2, #-3397]!	; 0xfffff2bb
  1c:	64656464 	strbtvs	r6, [r5], #-1124	; 0xfffffb9c
  20:	6f725020 	svcvs	0x00725020
  24:	73736563 	cmnvc	r3, #415236096	; 0x18c00000
  28:	2073726f 	rsbscs	r7, r3, pc, ror #4
  2c:	30322d39 	eorscc	r2, r2, r9, lsr sp
  30:	712d3931 			; <UNDEFINED> instruction: 0x712d3931
  34:	616d2d34 	cmnvs	sp, r4, lsr sp
  38:	29726f6a 	ldmdbcs	r2!, {r1, r3, r5, r6, r8, r9, sl, fp, sp, lr}^
  3c:	322e3920 	eorcc	r3, lr, #32, 18	; 0x80000
  40:	3220312e 	eorcc	r3, r0, #-2147483637	; 0x8000000b
  44:	31393130 	teqcc	r9, r0, lsr r1
  48:	20353230 	eorscs	r3, r5, r0, lsr r2
  4c:	6c657228 	sfmvs	f7, 2, [r5], #-160	; 0xffffff60
  50:	65736165 	ldrbvs	r6, [r3, #-357]!	; 0xfffffe9b
  54:	415b2029 	cmpmi	fp, r9, lsr #32
  58:	612f4d52 			; <UNDEFINED> instruction: 0x612f4d52
  5c:	392d6d72 	pushcc	{r1, r4, r5, r6, r8, sl, fp, sp, lr}
  60:	6172622d 	cmnvs	r2, sp, lsr #4
  64:	2068636e 	rsbcs	r6, r8, lr, ror #6
  68:	69766572 	ldmdbvs	r6!, {r1, r4, r5, r6, r8, sl, sp, lr}^
  6c:	6e6f6973 			; <UNDEFINED> instruction: 0x6e6f6973
  70:	37373220 	ldrcc	r3, [r7, -r0, lsr #4]!
  74:	5d393935 			; <UNDEFINED> instruction: 0x5d393935
	...

Disassembly of section .debug_info:

00000000 <.debug_info>:
       0:	0000058a 	andeq	r0, r0, sl, lsl #11
       4:	00000004 	andeq	r0, r0, r4
       8:	01040000 	mrseq	r0, (UNDEF: 4)
       c:	00000212 	andeq	r0, r0, r2, lsl r2
      10:	0003060c 	andeq	r0, r3, ip, lsl #12
      14:	00012700 	andeq	r2, r1, r0, lsl #14
      18:	00803400 	addeq	r3, r0, r0, lsl #8
      1c:	00025c00 	andeq	r5, r2, r0, lsl #24
      20:	00000000 	andeq	r0, r0, r0
      24:	05040200 	streq	r0, [r4, #-512]	; 0xfffffe00
      28:	00746e69 	rsbseq	r6, r4, r9, ror #28
      2c:	d3070403 	movwle	r0, #29699	; 0x7403
      30:	04000001 	streq	r0, [r0], #-1
      34:	0000002c 	andeq	r0, r0, ip, lsr #32
      38:	aa060103 	bge	18044c <__bss_end__+0x176574>
      3c:	03000001 	movweq	r0, #1
      40:	00530502 	subseq	r0, r3, r2, lsl #10
      44:	04030000 	streq	r0, [r3], #-0
      48:	0000f905 	andeq	pc, r0, r5, lsl #18
      4c:	05080300 	streq	r0, [r8, #-768]	; 0xfffffd00
      50:	000000f4 	strdeq	r0, [r0], -r4
      54:	a8080103 	stmdage	r8, {r0, r1, r8}
      58:	03000001 	movweq	r0, #1
      5c:	01e80702 	mvneq	r0, r2, lsl #14
      60:	04030000 	streq	r0, [r3], #-0
      64:	0001ce07 	andeq	ip, r1, r7, lsl #28
      68:	07080300 	streq	r0, [r8, -r0, lsl #6]
      6c:	000001c9 	andeq	r0, r0, r9, asr #3
      70:	00002505 	andeq	r2, r0, r5, lsl #10
      74:	00007f00 	andeq	r7, r0, r0, lsl #30
      78:	00250600 	eoreq	r0, r5, r0, lsl #12
      7c:	07000000 	streq	r0, [r0, -r0]
      80:	00000068 	andeq	r0, r0, r8, rrx
      84:	8b0e1c02 	blhi	387094 <__bss_end__+0x37d1bc>
      88:	08000000 	stmdaeq	r0, {}	; <UNPREDICTABLE>
      8c:	00007004 	andeq	r7, r0, r4
      90:	00250500 	eoreq	r0, r5, r0, lsl #10
      94:	00a00000 	adceq	r0, r0, r0
      98:	a0060000 	andge	r0, r6, r0
      9c:	00000000 	andeq	r0, r0, r0
      a0:	00ad0408 	adceq	r0, sp, r8, lsl #8
      a4:	01030000 	mrseq	r0, (UNDEF: 3)
      a8:	0001b108 	andeq	fp, r1, r8, lsl #2
      ac:	00a60900 	adceq	r0, r6, r0, lsl #18
      b0:	ba070000 	blt	1c00b8 <__bss_end__+0x1b61e0>
      b4:	02000005 	andeq	r0, r0, #5, 0
      b8:	00be0e21 	adcseq	r0, lr, r1, lsr #28
      bc:	04080000 	streq	r0, [r8], #-0
      c0:	00000091 	muleq	r0, r1, r0
      c4:	2c04070a 	stccs	7, cr0, [r4], {10}
      c8:	03000000 	movweq	r0, #0
      cc:	012d0633 			; <UNDEFINED> instruction: 0x012d0633
      d0:	350b0000 	strcc	r0, [fp, #-0]
      d4:	00000000 	andeq	r0, r0, r0
      d8:	0b2000b4 	bleq	8003b0 <__bss_end__+0x7f64d8>
      dc:	0000009e 	muleq	r0, lr, r0
      e0:	2000b400 	andcs	fp, r0, r0, lsl #8
      e4:	00018e0b 	andeq	r8, r1, fp, lsl #28
      e8:	00b40400 	adcseq	r0, r4, r0, lsl #8
      ec:	00230b20 	eoreq	r0, r3, r0, lsr #22
      f0:	b4080000 	strlt	r0, [r8], #-0
      f4:	6d0b2000 	stcvs	0, cr2, [fp, #-0]
      f8:	0c000001 	stceq	0, cr0, [r0], {1}
      fc:	0b2000b4 	bleq	8003d4 <__bss_end__+0x7f64fc>
     100:	0000033f 	andeq	r0, r0, pc, lsr r3
     104:	2000b410 	andcs	fp, r0, r0, lsl r4
     108:	0003ab0b 	andeq	sl, r3, fp, lsl #22
     10c:	00b41400 	adcseq	r1, r4, r0, lsl #8
     110:	01fb0b20 	mvnseq	r0, r0, lsr #22
     114:	b4180000 	ldrlt	r0, [r8], #-0
     118:	500b2000 	andpl	r2, fp, r0
     11c:	1c000003 	stcne	0, cr0, [r0], {3}
     120:	0b2000b4 	bleq	8003f8 <__bss_end__+0x7f6520>
     124:	000002c7 	andeq	r0, r0, r7, asr #5
     128:	2000b420 	andcs	fp, r0, r0, lsr #8
     12c:	00130c00 	andseq	r0, r3, r0, lsl #24
     130:	80030000 	andhi	r0, r3, r0
     134:	0000c403 	andeq	ip, r0, r3, lsl #8
     138:	d4030500 	strle	r0, [r3], #-1280	; 0xfffffb00
     13c:	0a00009e 	beq	3bc <__code_start__-0x7c44>
     140:	002c0407 	eoreq	r0, ip, r7, lsl #8
     144:	14040000 	strne	r0, [r4], #-0
     148:	0001b106 	andeq	fp, r1, r6, lsl #2
     14c:	00000b00 	andeq	r0, r0, r0, lsl #22
     150:	b2000000 	andlt	r0, r0, #0, 0
     154:	8a0b2000 	bhi	2c815c <__bss_end__+0x2be284>
     158:	00000003 	andeq	r0, r0, r3
     15c:	0b2000b2 	bleq	80042c <__bss_end__+0x7f6554>
     160:	0000037c 	andeq	r0, r0, ip, ror r3
     164:	2000b204 	andcs	fp, r0, r4, lsl #4
     168:	0000c80b 	andeq	ip, r0, fp, lsl #16
     16c:	00b20800 	adcseq	r0, r2, r0, lsl #16
     170:	00920b20 	addseq	r0, r2, r0, lsr #22
     174:	b20c0000 	andlt	r0, ip, #0, 0
     178:	d60b2000 	strle	r2, [fp], -r0
     17c:	10000000 	andne	r0, r0, r0
     180:	0b2000b2 	bleq	800450 <__bss_end__+0x7f6578>
     184:	00000180 	andeq	r0, r0, r0, lsl #3
     188:	2000b214 	andcs	fp, r0, r4, lsl r2
     18c:	00031d0b 	andeq	r1, r3, fp, lsl #26
     190:	00b21800 	adcseq	r1, r2, r0, lsl #16
     194:	030e0b20 	movweq	r0, #60192	; 0xeb20
     198:	b21c0000 	andslt	r0, ip, #0, 0
     19c:	440b2000 	strmi	r2, [fp], #-0
     1a0:	20000000 	andcs	r0, r0, r0
     1a4:	0b2000b2 	bleq	800474 <__bss_end__+0x7f659c>
     1a8:	000001b6 			; <UNDEFINED> instruction: 0x000001b6
     1ac:	2000b224 	andcs	fp, r0, r4, lsr #4
     1b0:	007d0700 	rsbseq	r0, sp, r0, lsl #14
     1b4:	14010000 	strne	r0, [r1], #-0
     1b8:	0000a60d 	andeq	sl, r0, sp, lsl #12
     1bc:	02e40700 	rsceq	r0, r4, #0, 14
     1c0:	14010000 	strne	r0, [r1], #-0
     1c4:	0000a61d 	andeq	sl, r0, sp, lsl r6
     1c8:	019e0d00 	orrseq	r0, lr, r0, lsl #26
     1cc:	17010000 	strne	r0, [r1, -r0]
     1d0:	00002c11 	andeq	r2, r0, r1, lsl ip
     1d4:	ac030500 	cfstr32ge	mvfx0, [r3], {-0}
     1d8:	0d00009a 	stceq	0, cr0, [r0, #-616]	; 0xfffffd98
     1dc:	00000074 	andeq	r0, r0, r4, ror r0
     1e0:	2c1c1701 	ldccs	7, cr1, [ip], {1}
     1e4:	05000000 	streq	r0, [r0, #-0]
     1e8:	009ab403 	addseq	fp, sl, r3, lsl #8
     1ec:	01090d00 	tsteq	r9, r0, lsl #26
     1f0:	18010000 	stmdane	r1, {}	; <UNPREDICTABLE>
     1f4:	0001ff1b 	andeq	pc, r1, fp, lsl pc	; <UNPREDICTABLE>
     1f8:	b0030500 	andlt	r0, r3, r0, lsl #10
     1fc:	0800009a 	stmdaeq	r0, {r1, r3, r4, r7}
     200:	00003304 	andeq	r3, r0, r4, lsl #6
     204:	6e630e00 	cdpvs	14, 6, cr0, cr3, cr0, {0}
     208:	40010074 	andmi	r0, r1, r4, ror r0
     20c:	0000331a 	andeq	r3, r0, sl, lsl r3
     210:	b8030500 	stmdalt	r3, {r8, sl}
     214:	0d00009a 	stceq	0, cr0, [r0, #-616]	; 0xfffffd98
     218:	00000102 	andeq	r0, r0, r2, lsl #2
     21c:	331a4101 	tstcc	sl, #1073741824	; 0x40000000
     220:	05000000 	streq	r0, [r0, #-0]
     224:	009ac003 	addseq	ip, sl, r3
     228:	01e00f00 	mvneq	r0, r0, lsl #30
     22c:	62010000 	andvs	r0, r1, #0, 0
     230:	0081bc06 	addeq	fp, r1, r6, lsl #24
     234:	0000d400 	andeq	sp, r0, r0, lsl #8
     238:	3a9c0100 	bcc	fe700640 <__bss_end__+0xfe6f6768>
     23c:	10000003 	andne	r0, r0, r3
     240:	000000e4 	andeq	r0, r0, r4, ror #1
     244:	2c0e7801 	stccs	8, cr7, [lr], {1}
     248:	04000000 	streq	r0, [r0], #-0
     24c:	00000000 	andeq	r0, r0, r0
     250:	11000000 	mrsne	r0, (UNDEF: 0)
     254:	000081c8 	andeq	r8, r0, r8, asr #3
     258:	000004fd 	strdeq	r0, [r0], -sp
     25c:	0081d012 	addeq	sp, r1, r2, lsl r0
     260:	00050900 	andeq	r0, r5, r0, lsl #18
     264:	00027300 	andeq	r7, r2, r0, lsl #6
     268:	50011300 	andpl	r1, r1, r0, lsl #6
     26c:	95000305 	strls	r0, [r0, #-773]	; 0xfffffcfb
     270:	11000000 	mrsne	r0, (UNDEF: 0)
     274:	000081d4 	ldrdeq	r8, [r0], -r4
     278:	00000515 	andeq	r0, r0, r5, lsl r5
     27c:	0081dc12 	addeq	sp, r1, r2, lsl ip
     280:	00050900 	andeq	r0, r5, r0, lsl #18
     284:	00029300 	andeq	r9, r2, r0, lsl #6
     288:	50011300 	andpl	r1, r1, r0, lsl #6
     28c:	951c0305 	ldrls	r0, [ip, #-773]	; 0xfffffcfb
     290:	12000000 	andne	r0, r0, #0, 0
     294:	000081e4 	andeq	r8, r0, r4, ror #3
     298:	00000521 	andeq	r0, r0, r1, lsr #10
     29c:	000002a6 	andeq	r0, r0, r6, lsr #5
     2a0:	01500113 	cmpeq	r0, r3, lsl r1
     2a4:	f0120040 			; <UNDEFINED> instruction: 0xf0120040
     2a8:	09000081 	stmdbeq	r0, {r0, r7}
     2ac:	ba000005 	blt	2c8 <__code_start__-0x7d38>
     2b0:	13000002 	movwne	r0, #2
     2b4:	74025001 	strvc	r5, [r2], #-1
     2b8:	f4110000 			; <UNDEFINED> instruction: 0xf4110000
     2bc:	2d000081 	stccs	0, cr0, [r0, #-516]	; 0xfffffdfc
     2c0:	11000005 	tstne	r0, r5
     2c4:	000081f8 	strdeq	r8, [r0], -r8	; <UNPREDICTABLE>
     2c8:	0000048f 	andeq	r0, r0, pc, lsl #9
     2cc:	00820012 	addeq	r0, r2, r2, lsl r0
     2d0:	00050900 	andeq	r0, r5, r0, lsl #18
     2d4:	0002e000 	andeq	lr, r2, r0
     2d8:	50011300 	andpl	r1, r1, r0, lsl #6
     2dc:	00007402 	andeq	r7, r0, r2, lsl #8
     2e0:	00820411 	addeq	r0, r2, r1, lsl r4
     2e4:	00053900 	andeq	r3, r5, r0, lsl #18
     2e8:	820c1200 	andhi	r1, ip, #0, 4
     2ec:	05090000 	streq	r0, [r9, #-0]
     2f0:	03000000 	movweq	r0, #0
     2f4:	01130000 	tsteq	r3, r0
     2f8:	5c030550 	cfstr32pl	mvfx0, [r3], {80}	; 0x50
     2fc:	00000095 	muleq	r0, r5, r0
     300:	00821c12 	addeq	r1, r2, r2, lsl ip
     304:	0003f700 	andeq	pc, r3, r0, lsl #14
     308:	00031300 	andeq	r1, r3, r0, lsl #6
     30c:	50011300 	andpl	r1, r1, r0, lsl #6
     310:	12003201 	andne	r3, r0, #268435456	; 0x10000000
     314:	0000824c 	andeq	r8, r0, ip, asr #4
     318:	00000509 	andeq	r0, r0, r9, lsl #10
     31c:	00000330 	andeq	r0, r0, r0, lsr r3
     320:	05500113 	ldrbeq	r0, [r0, #-275]	; 0xfffffeed
     324:	00956803 	addseq	r6, r5, r3, lsl #16
     328:	51011300 	mrspl	r1, SP_irq
     32c:	00007402 	andeq	r7, r0, r2, lsl #8
     330:	00827411 	addeq	r7, r2, r1, lsl r4
     334:	00054500 	andeq	r4, r5, r0, lsl #10
     338:	750f0000 	strvc	r0, [pc, #-0]	; 340 <__code_start__-0x7cc0>
     33c:	01000004 	tsteq	r0, r4
     340:	81500644 	cmphi	r0, r4, asr #12
     344:	006c0000 	rsbeq	r0, ip, r0
     348:	9c010000 	stcls	0, cr0, [r1], {-0}
     34c:	000003f7 	strdeq	r0, [r0], -r7
     350:	00637014 	rsbeq	r7, r3, r4, lsl r0
     354:	2c204401 	cfstrscs	mvf4, [r0], #-4
     358:	27000000 	strcs	r0, [r0, -r0]
     35c:	23000000 	movwcs	r0, #0
     360:	10000000 	andne	r0, r0, r0
     364:	00000394 	muleq	r0, r4, r3
     368:	2c0e4601 	stccs	6, cr4, [lr], {1}
     36c:	47000000 	strmi	r0, [r0, -r0]
     370:	45000000 	strmi	r0, [r0, #-0]
     374:	0d000000 	stceq	0, cr0, [r0, #-0]
     378:	000002fd 	strdeq	r0, [r0], -sp
     37c:	2c155801 	ldccs	8, cr5, [r5], {1}
     380:	05000000 	streq	r0, [r0, #-0]
     384:	009abc03 	addseq	fp, sl, r3, lsl #24
     388:	6c631500 	cfstr64vs	mvdx1, [r3], #-0
     38c:	5901006b 	stmdbpl	r1, {r0, r1, r3, r5, r6}
     390:	00002c0e 	andeq	r2, r0, lr, lsl #24
     394:	00005c00 	andeq	r5, r0, r0, lsl #24
     398:	00005a00 	andeq	r5, r0, r0, lsl #20
     39c:	815c1100 	cmphi	ip, r0, lsl #2
     3a0:	05510000 	ldrbeq	r0, [r1, #-0]
     3a4:	64120000 	ldrvs	r0, [r2], #-0
     3a8:	5d000081 	stcpl	0, cr0, [r0, #-516]	; 0xfffffdfc
     3ac:	bd000005 	stclt	0, cr0, [r0, #-20]	; 0xffffffec
     3b0:	13000003 	movwne	r0, #3
     3b4:	0c055001 	stceq	0, cr5, [r5], {1}
     3b8:	2000b200 	andcs	fp, r0, r0, lsl #4
     3bc:	81781200 	cmnhi	r8, r0, lsl #4
     3c0:	05690000 	strbeq	r0, [r9, #-0]!
     3c4:	03d90000 	bicseq	r0, r9, #0, 0
     3c8:	01130000 	tsteq	r3, r0
     3cc:	0c0c0550 	cfstr32eq	mvfx0, [ip], {80}	; 0x50
     3d0:	132000b4 			; <UNDEFINED> instruction: 0x132000b4
     3d4:	31015101 	tstcc	r1, r1, lsl #2
     3d8:	81901200 	orrshi	r1, r0, r0, lsl #4
     3dc:	04510000 	ldrbeq	r0, [r1], #-0
     3e0:	03ed0000 	mvneq	r0, #0, 0
     3e4:	01130000 	tsteq	r3, r0
     3e8:	00740250 	rsbseq	r0, r4, r0, asr r2
     3ec:	81941100 	orrshi	r1, r4, r0, lsl #2
     3f0:	05750000 	ldrbeq	r0, [r5, #-0]!
     3f4:	16000000 	strne	r0, [r0], -r0
     3f8:	000000e9 	andeq	r0, r0, r9, ror #1
     3fc:	5c0d3001 	stcpl	0, cr3, [sp], {1}
     400:	60000080 	andvs	r0, r0, r0, lsl #1
     404:	01000000 	mrseq	r0, (UNDEF: 0)
     408:	0004519c 	muleq	r4, ip, r1
     40c:	032f1700 			; <UNDEFINED> instruction: 0x032f1700
     410:	30010000 	andcc	r0, r1, r0
     414:	00002c21 	andeq	r2, r0, r1, lsr #24
     418:	00007300 	andeq	r7, r0, r0, lsl #6
     41c:	00006f00 	andeq	r6, r0, r0, lsl #30
     420:	80641800 	rsbhi	r1, r4, r0, lsl #16
     424:	00580000 	subseq	r0, r8, r0
     428:	69150000 	ldmdbvs	r5, {}	; <UNPREDICTABLE>
     42c:	0e330100 	rsfeqs	f0, f3, f0
     430:	00000025 	andeq	r0, r0, r5, lsr #32
     434:	00000095 	muleq	r0, r5, r0
     438:	00000091 	muleq	r0, r1, r0
     43c:	00808419 	addeq	r8, r0, r9, lsl r4
     440:	00050900 	andeq	r0, r5, r0, lsl #18
     444:	50011300 	andpl	r1, r1, r0, lsl #6
     448:	94d00305 	ldrbls	r0, [r0], #773	; 0x305
     44c:	00000000 	andeq	r0, r0, r0
     450:	03651600 	cmneq	r5, #0, 12
     454:	28010000 	stmdacs	r1, {}	; <UNPREDICTABLE>
     458:	0080340d 	addeq	r3, r0, sp, lsl #8
     45c:	00002800 	andeq	r2, r0, r0, lsl #16
     460:	8f9c0100 	svchi	0x009c0100
     464:	14000004 	strne	r0, [r0], #-4
     468:	01006370 	tsteq	r0, r0, ror r3
     46c:	002c2028 	eoreq	r2, ip, r8, lsr #32
     470:	00b80000 	adcseq	r0, r8, r0
     474:	00b40000 	adcseq	r0, r4, r0
     478:	ad100000 	ldcge	0, cr0, [r0, #-0]
     47c:	01000000 	mrseq	r0, (UNDEF: 0)
     480:	002c0e29 	eoreq	r0, ip, r9, lsr #28
     484:	00df0000 	sbcseq	r0, pc, r0
     488:	00d90000 	sbcseq	r0, r9, r0
     48c:	1a000000 	bne	494 <__code_start__-0x7b6c>
     490:	0000005d 	andeq	r0, r0, sp, asr r0
     494:	2c111c01 	ldccs	12, cr1, [r1], {1}
     498:	bc000000 	stclt	0, cr0, [r0], {-0}
     49c:	94000080 	strls	r0, [r0], #-128	; 0xffffff80
     4a0:	01000000 	mrseq	r0, (UNDEF: 0)
     4a4:	0004fd9c 	muleq	r4, ip, sp
     4a8:	81081b00 	tsthi	r8, r0, lsl #22
     4ac:	002c0000 	eoreq	r0, ip, r0
     4b0:	04c90000 	strbeq	r0, [r9], #0
     4b4:	69150000 	ldmdbvs	r5, {}	; <UNPREDICTABLE>
     4b8:	0e220100 	sufeqs	f0, f2, f0
     4bc:	00000025 	andeq	r0, r0, r5, lsr #32
     4c0:	00000124 	andeq	r0, r0, r4, lsr #2
     4c4:	00000120 	andeq	r0, r0, r0, lsr #2
     4c8:	80f01200 	rscshi	r1, r0, r0, lsl #4
     4cc:	05090000 	streq	r0, [r9, #-0]
     4d0:	04e00000 	strbteq	r0, [r0], #0
     4d4:	01130000 	tsteq	r3, r0
     4d8:	d8030550 	stmdale	r3, {r4, r6, r8, sl}
     4dc:	00000094 	muleq	r0, r4, r0
     4e0:	0080f811 	addeq	pc, r0, r1, lsl r8	; <UNPREDICTABLE>
     4e4:	00058100 	andeq	r8, r5, r0, lsl #2
     4e8:	81081900 	tsthi	r8, r0, lsl #18
     4ec:	05090000 	streq	r0, [r9, #-0]
     4f0:	01130000 	tsteq	r3, r0
     4f4:	f0030550 			; <UNDEFINED> instruction: 0xf0030550
     4f8:	00000094 	muleq	r0, r4, r0
     4fc:	00091c00 	andeq	r1, r9, r0, lsl #24
     500:	00090000 	andeq	r0, r9, r0
     504:	39020000 	stmdbcc	r2, {}	; <UNPREDICTABLE>
     508:	054c1c06 	strbeq	r1, [ip, #-3078]	; 0xfffff3fa
     50c:	054c0000 	strbeq	r0, [ip, #-0]
     510:	28020000 	stmdacs	r2, {}	; <UNPREDICTABLE>
     514:	011e1c06 	tsteq	lr, r6, lsl #24
     518:	011e0000 	tsteq	lr, r0
     51c:	39040000 	stmdbcc	r4, {}	; <UNPREDICTABLE>
     520:	00b31c06 	adcseq	r1, r3, r6, lsl #24
     524:	00b30000 	adcseq	r0, r3, r0
     528:	08050000 	stmdaeq	r5, {}	; <UNPREDICTABLE>
     52c:	036f1c06 	cmneq	pc, #1536	; 0x600
     530:	036f0000 	cmneq	pc, #0, 0
     534:	77020000 	strvc	r0, [r2, -r0]
     538:	03bf1c06 			; <UNDEFINED> instruction: 0x03bf1c06
     53c:	03bf0000 			; <UNDEFINED> instruction: 0x03bf0000
     540:	37040000 	strcc	r0, [r4, -r0]
     544:	01111c06 	tsteq	r1, r6, lsl #24
     548:	01110000 	tsteq	r1, r0
     54c:	67020000 	strvs	r0, [r2, -r0]
     550:	02f11c06 	rscseq	r1, r1, #1536	; 0x600
     554:	02f10000 	rscseq	r0, r1, #0, 0
     558:	90020000 	andls	r0, r2, r0
     55c:	020c1c06 	andeq	r1, ip, #1536	; 0x600
     560:	020c0000 	andeq	r0, ip, #0, 0
     564:	ad020000 	stcge	0, cr0, [r2, #-0]
     568:	008c1c0a 	addeq	r1, ip, sl, lsl #24
     56c:	008c0000 	addeq	r0, ip, r0
     570:	a1020000 	mrsge	r0, (UNDEF: 2)
     574:	039c1c06 	orrseq	r1, ip, #1536	; 0x600
     578:	039c0000 	orrseq	r0, ip, #0, 0
     57c:	56020000 	strpl	r0, [r2], -r0
     580:	03371c0a 	teqeq	r7, #2560	; 0xa00
     584:	03370000 	teqeq	r7, #0, 0
     588:	71020000 	mrsvc	r0, (UNDEF: 2)
     58c:	059c0007 	ldreq	r0, [ip, #7]
     590:	00040000 	andeq	r0, r4, r0
     594:	000001af 	andeq	r0, r0, pc, lsr #3
     598:	02120104 	andseq	r0, r2, #1
     59c:	500c0000 	andpl	r0, ip, r0
     5a0:	27000004 	strcs	r0, [r0, -r4]
     5a4:	60000001 	andvs	r0, r0, r1
     5a8:	cc000083 	stcgt	0, cr0, [r0], {131}	; 0x83
     5ac:	3c000001 	stccc	0, cr0, [r0], {1}
     5b0:	02000002 	andeq	r0, r0, #2, 0
     5b4:	6e690504 	cdpvs	5, 6, cr0, cr9, cr4, {0}
     5b8:	04030074 	streq	r0, [r3], #-116	; 0xffffff8c
     5bc:	0001d307 	andeq	sp, r1, r7, lsl #6
     5c0:	06010300 	streq	r0, [r1], -r0, lsl #6
     5c4:	000001aa 	andeq	r0, r0, sl, lsr #3
     5c8:	53050203 	movwpl	r0, #20995	; 0x5203
     5cc:	03000000 	movweq	r0, #0
     5d0:	00f90504 	rscseq	r0, r9, r4, lsl #10
     5d4:	08030000 	stmdaeq	r3, {}	; <UNPREDICTABLE>
     5d8:	0000f405 	andeq	pc, r0, r5, lsl #8
     5dc:	08010300 	stmdaeq	r1, {r8, r9}
     5e0:	000001a8 	andeq	r0, r0, r8, lsr #3
     5e4:	e8070203 	stmda	r7, {r0, r1, r9}
     5e8:	03000001 	movweq	r0, #1
     5ec:	01ce0704 	biceq	r0, lr, r4, lsl #14
     5f0:	08030000 	stmdaeq	r3, {}	; <UNPREDICTABLE>
     5f4:	0001c907 	andeq	ip, r1, r7, lsl #18
     5f8:	00250400 	eoreq	r0, r5, r0, lsl #8
     5fc:	007a0000 	rsbseq	r0, sl, r0
     600:	25050000 	strcs	r0, [r5, #-0]
     604:	00000000 	andeq	r0, r0, r0
     608:	00006806 	andeq	r6, r0, r6, lsl #16
     60c:	0e1c0200 	cdpeq	2, 1, cr0, cr12, cr0, {0}
     610:	00000086 	andeq	r0, r0, r6, lsl #1
     614:	006b0407 	rsbeq	r0, fp, r7, lsl #8
     618:	25040000 	strcs	r0, [r4, #-0]
     61c:	9b000000 	blls	624 <__code_start__-0x79dc>
     620:	05000000 	streq	r0, [r0, #-0]
     624:	0000009b 	muleq	r0, fp, r0
     628:	a8040700 	stmdage	r4, {r8, r9, sl}
     62c:	03000000 	movweq	r0, #0
     630:	01b10801 			; <UNDEFINED> instruction: 0x01b10801
     634:	a1080000 	mrsge	r0, (UNDEF: 8)
     638:	06000000 	streq	r0, [r0], -r0
     63c:	000005ba 			; <UNDEFINED> instruction: 0x000005ba
     640:	b90e2102 	stmdblt	lr, {r1, r8, sp}
     644:	07000000 	streq	r0, [r0, -r0]
     648:	00008c04 	andeq	r8, r0, r4, lsl #24
     64c:	04070900 	streq	r0, [r7], #-2304	; 0xfffff700
     650:	0000002c 	andeq	r0, r0, ip, lsr #32
     654:	31061403 	tstcc	r6, r3, lsl #8
     658:	0a000001 	beq	664 <__code_start__-0x799c>
     65c:	00000000 	andeq	r0, r0, r0
     660:	2000b200 	andcs	fp, r0, r0, lsl #4
     664:	00038a0a 	andeq	r8, r3, sl, lsl #20
     668:	00b20000 	adcseq	r0, r2, r0
     66c:	037c0a20 	cmneq	ip, #32, 20	; 0x20000
     670:	b2040000 	andlt	r0, r4, #0, 0
     674:	c80a2000 	stmdagt	sl, {sp}
     678:	08000000 	stmdaeq	r0, {}	; <UNPREDICTABLE>
     67c:	0a2000b2 	beq	80094c <__bss_end__+0x7f6a74>
     680:	00000092 	muleq	r0, r2, r0
     684:	2000b20c 	andcs	fp, r0, ip, lsl #4
     688:	0000d60a 	andeq	sp, r0, sl, lsl #12
     68c:	00b21000 	adcseq	r1, r2, r0
     690:	01800a20 	orreq	r0, r0, r0, lsr #20
     694:	b2140000 	andslt	r0, r4, #0, 0
     698:	1d0a2000 	stcne	0, cr2, [sl, #-0]
     69c:	18000003 	stmdane	r0, {r0, r1}
     6a0:	0a2000b2 	beq	800970 <__bss_end__+0x7f6a98>
     6a4:	0000030e 	andeq	r0, r0, lr, lsl #6
     6a8:	2000b21c 	andcs	fp, r0, ip, lsl r2
     6ac:	0000440a 	andeq	r4, r0, sl, lsl #8
     6b0:	00b22000 	adcseq	r2, r2, r0
     6b4:	01b60a20 			; <UNDEFINED> instruction: 0x01b60a20
     6b8:	b2240000 	eorlt	r0, r4, #0, 0
     6bc:	0b002000 	bleq	86c4 <emit+0x40>
     6c0:	00000428 	andeq	r0, r0, r8, lsr #8
     6c4:	f0063401 			; <UNDEFINED> instruction: 0xf0063401
     6c8:	3c000084 	stccc	0, cr0, [r0], {132}	; 0x84
     6cc:	01000000 	mrseq	r0, (UNDEF: 0)
     6d0:	0001b49c 	muleq	r1, ip, r4
     6d4:	63700c00 	cmnvs	r0, #0, 24
     6d8:	21340100 	teqcs	r4, r0, lsl #2
     6dc:	0000002c 	andeq	r0, r0, ip, lsr #32
     6e0:	00000149 	andeq	r0, r0, r9, asr #2
     6e4:	00000143 	andeq	r0, r0, r3, asr #2
     6e8:	00041b0d 	andeq	r1, r4, sp, lsl #22
     6ec:	0001c400 	andeq	ip, r1, r0, lsl #8
     6f0:	b4030500 	strlt	r0, [r3], #-1280	; 0xfffffb00
     6f4:	0e000096 	mcreq	0, 0, r0, cr0, cr6, {4}
     6f8:	00008518 	andeq	r8, r0, r8, lsl r5
     6fc:	0000056f 	andeq	r0, r0, pc, ror #10
     700:	000001aa 	andeq	r0, r0, sl, lsr #3
     704:	0550010f 	ldrbeq	r0, [r0, #-271]	; 0xfffffef1
     708:	0095a003 	addseq	sl, r5, r3
     70c:	51010f00 	tstpl	r1, r0, lsl #30
     710:	95900305 	ldrls	r0, [r0, #773]	; 0x305
     714:	010f0000 	mrseq	r0, CPSR
     718:	b4030552 	strlt	r0, [r3], #-1362	; 0xfffffaae
     71c:	0f000096 	svceq	0x00000096
     720:	08025301 	stmdaeq	r2, {r0, r8, r9, ip, lr}
     724:	7d020f35 	stcvc	15, cr0, [r2, #-212]	; 0xffffff2c
     728:	2c030500 	cfstr32cs	mvfx0, [r3], {-0}
     72c:	0f000096 	svceq	0x00000096
     730:	03047d02 	movweq	r7, #19714	; 0x4d02
     734:	005001f3 	ldrsheq	r0, [r0], #-19	; 0xffffffed
     738:	00851c10 	addeq	r1, r5, r0, lsl ip
     73c:	00057b00 	andeq	r7, r5, r0, lsl #22
     740:	a8110000 	ldmdage	r1, {}	; <UNPREDICTABLE>
     744:	c4000000 	strgt	r0, [r0], #-0
     748:	12000001 	andne	r0, r0, #1, 0
     74c:	0000002c 	andeq	r0, r0, ip, lsr #32
     750:	b4080011 	strlt	r0, [r8], #-17	; 0xffffffef
     754:	0b000001 	bleq	760 <__code_start__-0x78a0>
     758:	0000043a 	andeq	r0, r0, sl, lsr r4
     75c:	b4063101 	strlt	r3, [r6], #-257	; 0xfffffeff
     760:	3c000084 	stccc	0, cr0, [r0], {132}	; 0x84
     764:	01000000 	mrseq	r0, (UNDEF: 0)
     768:	00024c9c 	muleq	r2, ip, ip
     76c:	63700c00 	cmnvs	r0, #0, 24
     770:	25310100 	ldrcs	r0, [r1, #-256]!	; 0xffffff00
     774:	0000002c 	andeq	r0, r0, ip, lsr #32
     778:	0000017c 	andeq	r0, r0, ip, ror r1
     77c:	00000176 	andeq	r0, r0, r6, ror r1
     780:	00041b0d 	andeq	r1, r4, sp, lsl #22
     784:	00025c00 	andeq	r5, r2, r0, lsl #24
     788:	9c030500 	cfstr32ls	mvfx0, [r3], {-0}
     78c:	0e000096 	mcreq	0, 0, r0, cr0, cr6, {4}
     790:	000084dc 	ldrdeq	r8, [r0], -ip
     794:	0000056f 	andeq	r0, r0, pc, ror #10
     798:	00000242 	andeq	r0, r0, r2, asr #4
     79c:	0550010f 	ldrbeq	r0, [r0, #-271]	; 0xfffffef1
     7a0:	0095a003 	addseq	sl, r5, r3
     7a4:	51010f00 	tstpl	r1, r0, lsl #30
     7a8:	95900305 	ldrls	r0, [r0, #773]	; 0x305
     7ac:	010f0000 	mrseq	r0, CPSR
     7b0:	9c030552 	cfstr32ls	mvfx0, [r3], {82}	; 0x52
     7b4:	0f000096 	svceq	0x00000096
     7b8:	08025301 	stmdaeq	r2, {r0, r8, r9, ip, lr}
     7bc:	7d020f32 	stcvc	15, cr0, [r2, #-200]	; 0xffffff38
     7c0:	1c030500 	cfstr32ne	mvfx0, [r3], {-0}
     7c4:	0f000096 	svceq	0x00000096
     7c8:	03047d02 	movweq	r7, #19714	; 0x4d02
     7cc:	005001f3 	ldrsheq	r0, [r0], #-19	; 0xffffffed
     7d0:	0084e010 	addeq	lr, r4, r0, lsl r0
     7d4:	00057b00 	andeq	r7, r5, r0, lsl #22
     7d8:	a8110000 	ldmdage	r1, {}	; <UNPREDICTABLE>
     7dc:	5c000000 	stcpl	0, cr0, [r0], {-0}
     7e0:	12000002 	andne	r0, r0, #2, 0
     7e4:	0000002c 	andeq	r0, r0, ip, lsr #32
     7e8:	4c080015 	stcmi	0, cr0, [r8], {21}
     7ec:	0b000002 	bleq	7fc <__code_start__-0x7804>
     7f0:	000003d8 	ldrdeq	r0, [r0], -r8
     7f4:	78062e01 	stmdavc	r6, {r0, r9, sl, fp, sp}
     7f8:	3c000084 	stccc	0, cr0, [r0], {132}	; 0x84
     7fc:	01000000 	mrseq	r0, (UNDEF: 0)
     800:	0002e49c 	muleq	r2, ip, r4
     804:	63700c00 	cmnvs	r0, #0, 24
     808:	2c2e0100 	stfcss	f0, [lr], #-0
     80c:	0000002c 	andeq	r0, r0, ip, lsr #32
     810:	000001af 	andeq	r0, r0, pc, lsr #3
     814:	000001a9 	andeq	r0, r0, r9, lsr #3
     818:	00041b0d 	andeq	r1, r4, sp, lsl #22
     81c:	0002f400 	andeq	pc, r2, r0, lsl #8
     820:	7c030500 	cfstr32vc	mvfx0, [r3], {-0}
     824:	0e000096 	mcreq	0, 0, r0, cr0, cr6, {4}
     828:	000084a0 	andeq	r8, r0, r0, lsr #9
     82c:	0000056f 	andeq	r0, r0, pc, ror #10
     830:	000002da 	ldrdeq	r0, [r0], -sl
     834:	0550010f 	ldrbeq	r0, [r0, #-271]	; 0xfffffef1
     838:	0095a003 	addseq	sl, r5, r3
     83c:	51010f00 	tstpl	r1, r0, lsl #30
     840:	95900305 	ldrls	r0, [r0, #773]	; 0x305
     844:	010f0000 	mrseq	r0, CPSR
     848:	7c030552 	cfstr32vc	mvfx0, [r3], {82}	; 0x52
     84c:	0f000096 	svceq	0x00000096
     850:	08025301 	stmdaeq	r2, {r0, r8, r9, ip, lr}
     854:	7d020f2f 	stcvc	15, cr0, [r2, #-188]	; 0xffffff44
     858:	04030500 	streq	r0, [r3], #-1280	; 0xfffffb00
     85c:	0f000096 	svceq	0x00000096
     860:	03047d02 	movweq	r7, #19714	; 0x4d02
     864:	005001f3 	ldrsheq	r0, [r0], #-19	; 0xffffffed
     868:	0084a410 	addeq	sl, r4, r0, lsl r4
     86c:	00057b00 	andeq	r7, r5, r0, lsl #22
     870:	a8110000 	ldmdage	r1, {}	; <UNPREDICTABLE>
     874:	f4000000 	vst4.8	{d0-d3}, [r0], r0
     878:	12000002 	andne	r0, r0, #2, 0
     87c:	0000002c 	andeq	r0, r0, ip, lsr #32
     880:	e408001c 	str	r0, [r8], #-28	; 0xffffffe4
     884:	0b000002 	bleq	894 <__code_start__-0x776c>
     888:	0000045f 	andeq	r0, r0, pc, asr r4
     88c:	3c062b01 			; <UNDEFINED> instruction: 0x3c062b01
     890:	3c000084 	stccc	0, cr0, [r0], {132}	; 0x84
     894:	01000000 	mrseq	r0, (UNDEF: 0)
     898:	00037c9c 	muleq	r3, ip, ip
     89c:	63700c00 	cmnvs	r0, #0, 24
     8a0:	1c2b0100 	stfnes	f0, [fp], #-0
     8a4:	0000002c 	andeq	r0, r0, ip, lsr #32
     8a8:	000001e2 	andeq	r0, r0, r2, ror #3
     8ac:	000001dc 	ldrdeq	r0, [r0], -ip
     8b0:	00041b0d 	andeq	r1, r4, sp, lsl #22
     8b4:	00038c00 	andeq	r8, r3, r0, lsl #24
     8b8:	6c030500 	cfstr32vs	mvfx0, [r3], {-0}
     8bc:	0e000096 	mcreq	0, 0, r0, cr0, cr6, {4}
     8c0:	00008464 	andeq	r8, r0, r4, ror #8
     8c4:	0000056f 	andeq	r0, r0, pc, ror #10
     8c8:	00000372 	andeq	r0, r0, r2, ror r3
     8cc:	0550010f 	ldrbeq	r0, [r0, #-271]	; 0xfffffef1
     8d0:	0095a003 	addseq	sl, r5, r3
     8d4:	51010f00 	tstpl	r1, r0, lsl #30
     8d8:	95900305 	ldrls	r0, [r0, #773]	; 0x305
     8dc:	010f0000 	mrseq	r0, CPSR
     8e0:	6c030552 	cfstr32vs	mvfx0, [r3], {82}	; 0x52
     8e4:	0f000096 	svceq	0x00000096
     8e8:	08025301 	stmdaeq	r2, {r0, r8, r9, ip, lr}
     8ec:	7d020f2c 	stcvc	15, cr0, [r2, #-176]	; 0xffffff50
     8f0:	f4030500 	vst3.8	{d0,d2,d4}, [r3], r0
     8f4:	0f000095 	svceq	0x00000095
     8f8:	03047d02 	movweq	r7, #19714	; 0x4d02
     8fc:	005001f3 	ldrsheq	r0, [r0], #-19	; 0xffffffed
     900:	00846810 	addeq	r6, r4, r0, lsl r8
     904:	00057b00 	andeq	r7, r5, r0, lsl #22
     908:	a8110000 	ldmdage	r1, {}	; <UNPREDICTABLE>
     90c:	8c000000 	stchi	0, cr0, [r0], {-0}
     910:	12000003 	andne	r0, r0, #3, 0
     914:	0000002c 	andeq	r0, r0, ip, lsr #32
     918:	7c08000c 	stcvc	0, cr0, [r8], {12}
     91c:	0b000003 	bleq	930 <__code_start__-0x76d0>
     920:	0000046c 	andeq	r0, r0, ip, ror #8
     924:	00062801 	andeq	r2, r6, r1, lsl #16
     928:	3c000084 	stccc	0, cr0, [r0], {132}	; 0x84
     92c:	01000000 	mrseq	r0, (UNDEF: 0)
     930:	0004149c 	muleq	r4, ip, r4
     934:	63700c00 	cmnvs	r0, #0, 24
     938:	29280100 	stmdbcs	r8!, {r8}
     93c:	0000002c 	andeq	r0, r0, ip, lsr #32
     940:	00000215 	andeq	r0, r0, r5, lsl r2
     944:	0000020f 	andeq	r0, r0, pc, lsl #4
     948:	00041b0d 	andeq	r1, r4, sp, lsl #22
     94c:	00042400 	andeq	r2, r4, r0, lsl #8
     950:	50030500 	andpl	r0, r3, r0, lsl #10
     954:	0e000096 	mcreq	0, 0, r0, cr0, cr6, {4}
     958:	00008428 	andeq	r8, r0, r8, lsr #8
     95c:	0000056f 	andeq	r0, r0, pc, ror #10
     960:	0000040a 	andeq	r0, r0, sl, lsl #8
     964:	0550010f 	ldrbeq	r0, [r0, #-271]	; 0xfffffef1
     968:	0095a003 	addseq	sl, r5, r3
     96c:	51010f00 	tstpl	r1, r0, lsl #30
     970:	95900305 	ldrls	r0, [r0, #773]	; 0x305
     974:	010f0000 	mrseq	r0, CPSR
     978:	50030552 	andpl	r0, r3, r2, asr r5
     97c:	0f000096 	svceq	0x00000096
     980:	08025301 	stmdaeq	r2, {r0, r8, r9, ip, lr}
     984:	7d020f29 	stcvc	15, cr0, [r2, #-164]	; 0xffffff5c
     988:	e4030500 	str	r0, [r3], #-1280	; 0xfffffb00
     98c:	0f000095 	svceq	0x00000095
     990:	03047d02 	movweq	r7, #19714	; 0x4d02
     994:	005001f3 	ldrsheq	r0, [r0], #-19	; 0xffffffed
     998:	00842c10 	addeq	r2, r4, r0, lsl ip
     99c:	00057b00 	andeq	r7, r5, r0, lsl #22
     9a0:	a8110000 	ldmdage	r1, {}	; <UNPREDICTABLE>
     9a4:	24000000 	strcs	r0, [r0], #-0
     9a8:	12000004 	andne	r0, r0, #4, 0
     9ac:	0000002c 	andeq	r0, r0, ip, lsr #32
     9b0:	14080019 	strne	r0, [r8], #-25	; 0xffffffe7
     9b4:	0b000004 	bleq	9cc <__code_start__-0x7634>
     9b8:	00000486 	andeq	r0, r0, r6, lsl #9
     9bc:	c4062001 	strgt	r2, [r6], #-1
     9c0:	3c000083 	stccc	0, cr0, [r0], {131}	; 0x83
     9c4:	01000000 	mrseq	r0, (UNDEF: 0)
     9c8:	0004ac9c 	muleq	r4, ip, ip
     9cc:	63700c00 	cmnvs	r0, #0, 24
     9d0:	25200100 	strcs	r0, [r0, #-256]!	; 0xffffff00
     9d4:	0000002c 	andeq	r0, r0, ip, lsr #32
     9d8:	00000248 	andeq	r0, r0, r8, asr #4
     9dc:	00000242 	andeq	r0, r0, r2, asr #4
     9e0:	00041b0d 	andeq	r1, r4, sp, lsl #22
     9e4:	00025c00 	andeq	r5, r2, r0, lsl #24
     9e8:	38030500 	stmdacc	r3, {r8, sl}
     9ec:	0e000096 	mcreq	0, 0, r0, cr0, cr6, {4}
     9f0:	000083ec 	andeq	r8, r0, ip, ror #7
     9f4:	0000056f 	andeq	r0, r0, pc, ror #10
     9f8:	000004a2 	andeq	r0, r0, r2, lsr #9
     9fc:	0550010f 	ldrbeq	r0, [r0, #-271]	; 0xfffffef1
     a00:	0095a003 	addseq	sl, r5, r3
     a04:	51010f00 	tstpl	r1, r0, lsl #30
     a08:	95900305 	ldrls	r0, [r0, #773]	; 0x305
     a0c:	010f0000 	mrseq	r0, CPSR
     a10:	38030552 	stmdacc	r3, {r1, r4, r6, r8, sl}
     a14:	0f000096 	svceq	0x00000096
     a18:	08025301 	stmdaeq	r2, {r0, r8, r9, ip, lr}
     a1c:	7d020f21 	stcvc	15, cr0, [r2, #-132]	; 0xffffff7c
     a20:	dc030500 	cfstr32le	mvfx0, [r3], {-0}
     a24:	0f000095 	svceq	0x00000095
     a28:	03047d02 	movweq	r7, #19714	; 0x4d02
     a2c:	005001f3 	ldrsheq	r0, [r0], #-19	; 0xffffffed
     a30:	0083f010 	addeq	pc, r3, r0, lsl r0	; <UNPREDICTABLE>
     a34:	00057b00 	andeq	r7, r5, r0, lsl #22
     a38:	1e0b0000 	cdpne	0, 0, cr0, cr11, cr0, {0}
     a3c:	01000001 	tsteq	r0, r1
     a40:	83600605 	cmnhi	r0, #5242880	; 0x500000
     a44:	00640000 	rsbeq	r0, r4, r0
     a48:	9c010000 	stcls	0, cr0, [r1], {-0}
     a4c:	00000569 	andeq	r0, r0, r9, ror #10
     a50:	0003f506 	andeq	pc, r3, r6, lsl #10
     a54:	15110100 	ldrne	r0, [r1, #-256]	; 0xffffff00
     a58:	0000002c 	andeq	r0, r0, ip, lsr #32
     a5c:	00040606 	andeq	r0, r4, r6, lsl #12
     a60:	15120100 	ldrne	r0, [r2, #-256]	; 0xffffff00
     a64:	0000002c 	andeq	r0, r0, ip, lsr #32
     a68:	74736413 	ldrbtvc	r6, [r3], #-1043	; 0xfffffbed
     a6c:	0f160100 	svceq	0x00160100
     a70:	00000569 	andeq	r0, r0, r9, ror #10
     a74:	72731400 	rsbsvc	r1, r3, #0, 8
     a78:	17010063 	strne	r0, [r1, -r3, rrx]
     a7c:	00056913 	andeq	r6, r5, r3, lsl r9
     a80:	006e1500 	rsbeq	r1, lr, r0, lsl #10
     a84:	2c121801 	ldccs	8, cr1, [r2], {1}
     a88:	77000000 	strvc	r0, [r0, -r0]
     a8c:	75000002 	strvc	r0, [r0, #-2]
     a90:	16000002 	strne	r0, [r0], -r2
     a94:	00008390 	muleq	r0, r0, r3
     a98:	00000034 	andeq	r0, r0, r4, lsr r0
     a9c:	00000525 	andeq	r0, r0, r5, lsr #10
     aa0:	01006915 	tsteq	r0, r5, lsl r9
     aa4:	00250d1a 	eoreq	r0, r5, sl, lsl sp
     aa8:	028e0000 	addeq	r0, lr, #0, 0
     aac:	028a0000 	addeq	r0, sl, #0, 0
     ab0:	0e000000 	cdpeq	0, 0, cr0, cr0, cr0, {0}
     ab4:	00008370 	andeq	r8, r0, r0, ror r3
     ab8:	00000587 	andeq	r0, r0, r7, lsl #11
     abc:	00000542 	andeq	r0, r0, r2, asr #10
     ac0:	0550010f 	ldrbeq	r0, [r0, #-271]	; 0xfffffef1
     ac4:	00b21c0c 	adcseq	r1, r2, ip, lsl #24
     ac8:	51010f20 	tstpl	r1, r0, lsr #30
     acc:	00ff0902 	rscseq	r0, pc, r2, lsl #18
     ad0:	00837c0e 	addeq	r7, r3, lr, lsl #24
     ad4:	00058700 	andeq	r8, r5, r0, lsl #14
     ad8:	00055f00 	andeq	r5, r5, r0, lsl #30
     adc:	50010f00 	andpl	r0, r1, r0, lsl #30
     ae0:	b2200c05 	eorlt	r0, r0, #1280	; 0x500
     ae4:	010f2000 	mrseq	r2, CPSR
     ae8:	ff090251 			; <UNDEFINED> instruction: 0xff090251
     aec:	83801000 	orrhi	r1, r0, #0, 0
     af0:	05930000 	ldreq	r0, [r3]
     af4:	07000000 	streq	r0, [r0, -r0]
     af8:	00002c04 	andeq	r2, r0, r4, lsl #24
     afc:	054c1700 	strbeq	r1, [ip, #-1792]	; 0xfffff900
     b00:	054c0000 	strbeq	r0, [ip, #-0]
     b04:	28020000 	stmdacs	r2, {}	; <UNPREDICTABLE>
     b08:	01111706 	tsteq	r1, r6, lsl #14
     b0c:	01110000 	tsteq	r1, r0
     b10:	67020000 	strvs	r0, [r2, -r0]
     b14:	008c1706 	addeq	r1, ip, r6, lsl #14
     b18:	008c0000 	addeq	r0, ip, r0
     b1c:	a1020000 	mrsge	r0, (UNDEF: 2)
     b20:	02f11706 	rscseq	r1, r1, #1572864	; 0x180000
     b24:	02f10000 	rscseq	r0, r1, #0, 0
     b28:	90020000 	andls	r0, r2, r0
     b2c:	056a0006 	strbeq	r0, [sl, #-6]!
     b30:	00040000 	andeq	r0, r4, r0
     b34:	000002ef 	andeq	r0, r0, pc, ror #5
     b38:	02120104 	andseq	r0, r2, #1
     b3c:	e60c0000 	str	r0, [ip], -r0
     b40:	27000004 	strcs	r0, [r0, -r4]
     b44:	2c000001 	stccs	0, cr0, [r0], {1}
     b48:	5c000085 	stcpl	0, cr0, [r0], {133}	; 0x85
     b4c:	79000000 	stmdbvc	r0, {}	; <UNPREDICTABLE>
     b50:	02000003 	andeq	r0, r0, #3, 0
     b54:	6e690504 	cdpvs	5, 6, cr0, cr9, cr4, {0}
     b58:	04030074 	streq	r0, [r3], #-116	; 0xffffff8c
     b5c:	0001d307 	andeq	sp, r1, r7, lsl #6
     b60:	06010300 	streq	r0, [r1], -r0, lsl #6
     b64:	000001aa 	andeq	r0, r0, sl, lsr #3
     b68:	53050203 	movwpl	r0, #20995	; 0x5203
     b6c:	03000000 	movweq	r0, #0
     b70:	00f90504 	rscseq	r0, r9, r4, lsl #10
     b74:	08030000 	stmdaeq	r3, {}	; <UNPREDICTABLE>
     b78:	0000f405 	andeq	pc, r0, r5, lsl #8
     b7c:	08010300 	stmdaeq	r1, {r8, r9}
     b80:	000001a8 	andeq	r0, r0, r8, lsr #3
     b84:	e8070203 	stmda	r7, {r0, r1, r9}
     b88:	04000001 	streq	r0, [r0], #-1
     b8c:	000004f8 	strdeq	r0, [r0], -r8
     b90:	69193404 	ldmdbvs	r9, {r2, sl, ip, sp}
     b94:	03000000 	movweq	r0, #0
     b98:	01ce0704 	biceq	r0, lr, r4, lsl #14
     b9c:	08030000 	stmdaeq	r3, {}	; <UNPREDICTABLE>
     ba0:	0001c907 	andeq	ip, r1, r7, lsl #18
     ba4:	00250500 	eoreq	r0, r5, r0, lsl #10
     ba8:	00860000 	addeq	r0, r6, r0
     bac:	25060000 	strcs	r0, [r6, #-0]
     bb0:	00000000 	andeq	r0, r0, r0
     bb4:	00006807 	andeq	r6, r0, r7, lsl #16
     bb8:	0e1c0200 	cdpeq	2, 1, cr0, cr12, cr0, {0}
     bbc:	00000092 	muleq	r0, r2, r0
     bc0:	00770408 	rsbseq	r0, r7, r8, lsl #8
     bc4:	25050000 	strcs	r0, [r5, #-0]
     bc8:	a7000000 	strge	r0, [r0, -r0]
     bcc:	06000000 	streq	r0, [r0], -r0
     bd0:	000000a7 	andeq	r0, r0, r7, lsr #1
     bd4:	b4040800 	strlt	r0, [r4], #-2048	; 0xfffff800
     bd8:	03000000 	movweq	r0, #0
     bdc:	01b10801 			; <UNDEFINED> instruction: 0x01b10801
     be0:	ad090000 	stcge	0, cr0, [r9, #-0]
     be4:	07000000 	streq	r0, [r0, -r0]
     be8:	000005ba 			; <UNDEFINED> instruction: 0x000005ba
     bec:	c50e2102 	strgt	r2, [lr, #-258]	; 0xfffffefe
     bf0:	08000000 	stmdaeq	r0, {}	; <UNPREDICTABLE>
     bf4:	00009804 	andeq	r9, r0, r4, lsl #16
     bf8:	03040a00 	movweq	r0, #18944	; 0x4a00
     bfc:	0135091e 	teqeq	r5, lr, lsl r9
     c00:	cc0b0000 	stcgt	0, cr0, [fp], {-0}
     c04:	03000004 	movweq	r0, #4
     c08:	005d0f21 	subseq	r0, sp, r1, lsr #30
     c0c:	01040000 	mrseq	r0, (UNDEF: 4)
     c10:	ac0b001e 	stcge	0, cr0, [fp], {30}
     c14:	03000004 	movweq	r0, #4
     c18:	005d0f22 	subseq	r0, sp, r2, lsr #30
     c1c:	02040000 	andeq	r0, r4, #0, 0
     c20:	380b001c 	stmdacc	fp, {r2, r3, r4}
     c24:	03000005 	movweq	r0, #5
     c28:	005d0f27 	subseq	r0, sp, r7, lsr #30
     c2c:	01040000 	mrseq	r0, (UNDEF: 4)
     c30:	160b001a 			; <UNDEFINED> instruction: 0x160b001a
     c34:	03000005 	movweq	r0, #5
     c38:	005d0f29 	subseq	r0, sp, r9, lsr #30
     c3c:	01040000 	mrseq	r0, (UNDEF: 4)
     c40:	b60b0018 			; <UNDEFINED> instruction: 0xb60b0018
     c44:	03000004 	movweq	r0, #4
     c48:	005d0f2b 	subseq	r0, sp, fp, lsr #30
     c4c:	01040000 	mrseq	r0, (UNDEF: 4)
     c50:	a40b0016 	strge	r0, [fp], #-22	; 0xffffffea
     c54:	03000004 	movweq	r0, #4
     c58:	005d0f2d 	subseq	r0, sp, sp, lsr #30
     c5c:	07040000 	streq	r0, [r4, -r0]
     c60:	04000009 	streq	r0, [r0], #-9
     c64:	00000501 	andeq	r0, r0, r1, lsl #10
     c68:	cb032f03 	blgt	cc87c <__bss_end__+0xc29a4>
     c6c:	0c000000 	stceq	0, cr0, [r0], {-0}
     c70:	002c0407 	eoreq	r0, ip, r7, lsl #8
     c74:	33030000 	movwcc	r0, #12288	; 0x3000
     c78:	0001aa06 	andeq	sl, r1, r6, lsl #20
     c7c:	00350d00 	eorseq	r0, r5, r0, lsl #26
     c80:	b4000000 	strlt	r0, [r0], #-0
     c84:	9e0d2000 	cdpls	0, 0, cr2, cr13, cr0, {0}
     c88:	00000000 	andeq	r0, r0, r0
     c8c:	0d2000b4 	stceq	0, cr0, [r0, #-720]!	; 0xfffffd30
     c90:	0000018e 	andeq	r0, r0, lr, lsl #3
     c94:	2000b404 	andcs	fp, r0, r4, lsl #8
     c98:	0000230d 	andeq	r2, r0, sp, lsl #6
     c9c:	00b40800 	adcseq	r0, r4, r0, lsl #16
     ca0:	016d0d20 	cmneq	sp, r0, lsr #26
     ca4:	b40c0000 	strlt	r0, [ip], #-0
     ca8:	3f0d2000 	svccc	0x000d2000
     cac:	10000003 	andne	r0, r0, r3
     cb0:	0d2000b4 	stceq	0, cr0, [r0, #-720]!	; 0xfffffd30
     cb4:	000003ab 	andeq	r0, r0, fp, lsr #7
     cb8:	2000b414 	andcs	fp, r0, r4, lsl r4
     cbc:	0001fb0d 	andeq	pc, r1, sp, lsl #22
     cc0:	00b41800 	adcseq	r1, r4, r0, lsl #16
     cc4:	03500d20 	cmpeq	r0, #32, 26	; 0x800
     cc8:	b41c0000 	ldrlt	r0, [ip], #-0
     ccc:	c70d2000 	strgt	r2, [sp, -r0]
     cd0:	20000002 	andcs	r0, r0, r2
     cd4:	002000b4 	strhteq	r0, [r0], -r4
     cd8:	0000130e 	andeq	r1, r0, lr, lsl #6
     cdc:	03800300 	orreq	r0, r0, #0, 6
     ce0:	00000141 	andeq	r0, r0, r1, asr #2
     ce4:	9ed40305 	cdpls	3, 13, cr0, cr4, cr5, {0}
     ce8:	070c0000 	streq	r0, [ip, -r0]
     cec:	00002c04 	andeq	r2, r0, r4, lsl #24
     cf0:	06140500 	ldreq	r0, [r4], -r0, lsl #10
     cf4:	0000022e 	andeq	r0, r0, lr, lsr #4
     cf8:	0000000d 	andeq	r0, r0, sp
     cfc:	00b20000 	adcseq	r0, r2, r0
     d00:	038a0d20 	orreq	r0, sl, #32, 26	; 0x800
     d04:	b2000000 	andlt	r0, r0, #0, 0
     d08:	7c0d2000 	stcvc	0, cr2, [sp], {-0}
     d0c:	04000003 	streq	r0, [r0], #-3
     d10:	0d2000b2 	stceq	0, cr0, [r0, #-712]!	; 0xfffffd38
     d14:	000000c8 	andeq	r0, r0, r8, asr #1
     d18:	2000b208 	andcs	fp, r0, r8, lsl #4
     d1c:	0000920d 	andeq	r9, r0, sp, lsl #4
     d20:	00b20c00 	adcseq	r0, r2, r0, lsl #24
     d24:	00d60d20 	sbcseq	r0, r6, r0, lsr #26
     d28:	b2100000 	andslt	r0, r0, #0, 0
     d2c:	800d2000 	andhi	r2, sp, r0
     d30:	14000001 	strne	r0, [r0], #-1
     d34:	0d2000b2 	stceq	0, cr0, [r0, #-712]!	; 0xfffffd38
     d38:	0000031d 	andeq	r0, r0, sp, lsl r3
     d3c:	2000b218 	andcs	fp, r0, r8, lsl r2
     d40:	00030e0d 	andeq	r0, r3, sp, lsl #28
     d44:	00b21c00 	adcseq	r1, r2, r0, lsl #24
     d48:	00440d20 	subeq	r0, r4, r0, lsr #26
     d4c:	b2200000 	eorlt	r0, r0, #0, 0
     d50:	b60d2000 	strlt	r2, [sp], -r0
     d54:	24000001 	strcs	r0, [r0], #-1
     d58:	002000b2 	strhteq	r0, [r0], -r2
     d5c:	0005240f 	andeq	r2, r5, pc, lsl #8
     d60:	0d3f0100 	ldfeqs	f0, [pc, #-0]	; d68 <__code_start__-0x7298>
     d64:	0000852c 	andeq	r8, r0, ip, lsr #10
     d68:	0000001c 	andeq	r0, r0, ip, lsl r0
     d6c:	04ba9c01 	ldrteq	r9, [sl], #3073	; 0xc01
     d70:	1b100000 	blne	400d78 <__bss_end__+0x3f6ea0>
     d74:	ca000004 	bgt	d8c <__code_start__-0x7274>
     d78:	05000004 	streq	r0, [r0, #-4]
     d7c:	0097d403 	addseq	sp, r7, r3, lsl #8
     d80:	85341100 	ldrhi	r1, [r4, #-256]!	; 0xffffff00
     d84:	00000000 	andeq	r0, r0, r0
     d88:	02b30000 	adcseq	r0, r3, #0, 0
     d8c:	5f120000 	svcpl	0x00120000
     d90:	01040075 	tsteq	r4, r5, ror r0
     d94:	02810543 	addeq	r0, r1, #281018368	; 0x10c00000
     d98:	73130000 	tstvc	r3, #0, 0
     d9c:	05430100 	strbeq	r0, [r3, #-256]	; 0xffffff00
     da0:	00000135 	andeq	r0, r0, r5, lsr r1
     da4:	01007513 	tsteq	r0, r3, lsl r5
     da8:	002c0543 	eoreq	r0, ip, r3, asr #10
     dac:	14000000 	strne	r0, [r0], #-0
     db0:	43010078 	movwmi	r0, #4216	; 0x1078
     db4:	00026005 	andeq	r6, r2, r5
     db8:	78651500 	stmdavc	r5!, {r8, sl, ip}^
     dbc:	43010070 	movwmi	r0, #4208	; 0x1070
     dc0:	00002c05 	andeq	r2, r0, r5, lsl #24
     dc4:	c6160200 	ldrgt	r0, [r6], -r0, lsl #4
     dc8:	01000004 	tsteq	r0, r4
     dcc:	002c0543 	eoreq	r0, ip, r3, asr #10
     dd0:	161f0000 	ldrne	r0, [pc], -r0
     dd4:	0000049c 	muleq	r0, ip, r4
     dd8:	2c054301 	stccs	3, cr4, [r5], {1}
     ddc:	01000000 	mrseq	r0, (UNDEF: 0)
     de0:	85341100 	ldrhi	r1, [r4, #-256]!	; 0xffffff00
     de4:	00000000 	andeq	r0, r0, r0
     de8:	031c0000 	tsteq	ip, #0, 0
     dec:	5f120000 	svcpl	0x00120000
     df0:	01040075 	tsteq	r4, r5, ror r0
     df4:	02e10544 	rsceq	r0, r1, #68, 10	; 0x11000000
     df8:	73130000 	tstvc	r3, #0, 0
     dfc:	05440100 	strbeq	r0, [r4, #-256]	; 0xffffff00
     e00:	00000135 	andeq	r0, r0, r5, lsr r1
     e04:	01007513 	tsteq	r0, r3, lsl r5
     e08:	002c0544 	eoreq	r0, ip, r4, asr #10
     e0c:	17000000 	strne	r0, [r0, -r0]
     e10:	44010078 	strmi	r0, [r1], #-120	; 0xffffff88
     e14:	0002c005 	andeq	ip, r2, r5
     e18:	18530100 	ldmdane	r3, {r8}^
     e1c:	00707865 	rsbseq	r7, r0, r5, ror #16
     e20:	2c054401 	cfstrscs	mvf4, [r5], {1}
     e24:	b1000000 	mrslt	r0, (UNDEF: 0)
     e28:	ad000002 	stcge	0, cr0, [r0, #-8]
     e2c:	16000002 	strne	r0, [r0], -r2
     e30:	000004c6 	andeq	r0, r0, r6, asr #9
     e34:	2c054401 	cfstrscs	mvf4, [r5], {1}
     e38:	1e000000 	cdpne	0, 0, cr0, cr0, cr0, {0}
     e3c:	00049c16 	andeq	r9, r4, r6, lsl ip
     e40:	05440100 	strbeq	r0, [r4, #-256]	; 0xffffff00
     e44:	0000002c 	andeq	r0, r0, ip, lsr #32
     e48:	34110003 	ldrcc	r0, [r1], #-3
     e4c:	00000085 	andeq	r0, r0, r5, lsl #1
     e50:	7c000000 	stcvc	0, cr0, [r0], {-0}
     e54:	12000003 	andne	r0, r0, #3, 0
     e58:	0400755f 	streq	r7, [r0], #-1375	; 0xfffffaa1
     e5c:	4a054501 	bmi	152268 <__bss_end__+0x148390>
     e60:	13000003 	movwne	r0, #3
     e64:	45010073 	strmi	r0, [r1, #-115]	; 0xffffff8d
     e68:	00013505 	andeq	r3, r1, r5, lsl #10
     e6c:	00751300 	rsbseq	r1, r5, r0, lsl #6
     e70:	2c054501 	cfstr32cs	mvfx4, [r5], {1}
     e74:	00000000 	andeq	r0, r0, r0
     e78:	01007814 	tsteq	r0, r4, lsl r8
     e7c:	03290545 			; <UNDEFINED> instruction: 0x03290545
     e80:	65150000 	ldrvs	r0, [r5, #-0]
     e84:	01007078 	tsteq	r0, r8, ror r0
     e88:	002c0545 	eoreq	r0, ip, r5, asr #10
     e8c:	16200000 	strtne	r0, [r0], -r0
     e90:	000004c6 	andeq	r0, r0, r6, asr #9
     e94:	2c054501 	cfstr32cs	mvfx4, [r5], {1}
     e98:	1f000000 	svcne	0x00000000
     e9c:	00049c16 	andeq	r9, r4, r6, lsl ip
     ea0:	05450100 	strbeq	r0, [r5, #-256]	; 0xffffff00
     ea4:	0000002c 	andeq	r0, r0, ip, lsr #32
     ea8:	34110001 	ldrcc	r0, [r1], #-1
     eac:	00000085 	andeq	r0, r0, r5, lsl #1
     eb0:	dc000000 	stcle	0, cr0, [r0], {-0}
     eb4:	12000003 	andne	r0, r0, #3, 0
     eb8:	0400755f 	streq	r7, [r0], #-1375	; 0xfffffaa1
     ebc:	aa054601 	bge	1526c8 <__bss_end__+0x1487f0>
     ec0:	13000003 	movwne	r0, #3
     ec4:	46010073 			; <UNDEFINED> instruction: 0x46010073
     ec8:	00013505 	andeq	r3, r1, r5, lsl #10
     ecc:	00751300 	rsbseq	r1, r5, r0, lsl #6
     ed0:	2c054601 	stccs	6, cr4, [r5], {1}
     ed4:	00000000 	andeq	r0, r0, r0
     ed8:	01007814 	tsteq	r0, r4, lsl r8
     edc:	03890546 	orreq	r0, r9, #293601280	; 0x11800000
     ee0:	65150000 	ldrvs	r0, [r5, #-0]
     ee4:	01007078 	tsteq	r0, r8, ror r0
     ee8:	002c0546 	eoreq	r0, ip, r6, asr #10
     eec:	16800000 	strne	r0, [r0], r0
     ef0:	000004c6 	andeq	r0, r0, r6, asr #9
     ef4:	2c054601 	stccs	6, cr4, [r5], {1}
     ef8:	1f000000 	svcne	0x00000000
     efc:	00049c16 	andeq	r9, r4, r6, lsl ip
     f00:	05460100 	strbeq	r0, [r6, #-256]	; 0xffffff00
     f04:	0000002c 	andeq	r0, r0, ip, lsr #32
     f08:	34110001 	ldrcc	r0, [r1], #-1
     f0c:	00000085 	andeq	r0, r0, r5, lsl #1
     f10:	3d000000 	stccc	0, cr0, [r0, #-0]
     f14:	12000004 	andne	r0, r0, #4, 0
     f18:	0400755f 	streq	r7, [r0], #-1375	; 0xfffffaa1
     f1c:	0a054701 	beq	152b28 <__bss_end__+0x148c50>
     f20:	13000004 	movwne	r0, #4
     f24:	47010073 	smlsdxmi	r1, r3, r0, r0
     f28:	00013505 	andeq	r3, r1, r5, lsl #10
     f2c:	00751300 	rsbseq	r1, r5, r0, lsl #6
     f30:	2c054701 	stccs	7, cr4, [r5], {1}
     f34:	00000000 	andeq	r0, r0, r0
     f38:	01007814 	tsteq	r0, r4, lsl r8
     f3c:	03e90547 	mvneq	r0, #297795584	; 0x11c00000
     f40:	65190000 	ldrvs	r0, [r9, #-0]
     f44:	01007078 	tsteq	r0, r8, ror r0
     f48:	002c0547 	eoreq	r0, ip, r7, asr #10
     f4c:	02000000 	andeq	r0, r0, #0, 0
     f50:	0004c616 	andeq	ip, r4, r6, lsl r6
     f54:	05470100 	strbeq	r0, [r7, #-256]	; 0xffffff00
     f58:	0000002c 	andeq	r0, r0, ip, lsr #32
     f5c:	049c161f 	ldreq	r1, [ip], #1567	; 0x61f
     f60:	47010000 	strmi	r0, [r1, -r0]
     f64:	00002c05 	andeq	r2, r0, r5, lsl #24
     f68:	11000100 	mrsne	r0, (UNDEF: 16)
     f6c:	00008534 	andeq	r8, r0, r4, lsr r5
     f70:	00000000 	andeq	r0, r0, r0
     f74:	000004a6 	andeq	r0, r0, r6, lsr #9
     f78:	00755f12 	rsbseq	r5, r5, r2, lsl pc
     f7c:	05480104 	strbeq	r0, [r8, #-260]	; 0xfffffefc
     f80:	0000046b 	andeq	r0, r0, fp, ror #8
     f84:	01007313 	tsteq	r0, r3, lsl r3
     f88:	01350548 	teqeq	r5, r8, asr #10
     f8c:	75130000 	ldrvc	r0, [r3, #-0]
     f90:	05480100 	strbeq	r0, [r8, #-256]	; 0xffffff00
     f94:	0000002c 	andeq	r0, r0, ip, lsr #32
     f98:	00781700 	rsbseq	r1, r8, r0, lsl #14
     f9c:	4a054801 	bmi	152fa8 <__bss_end__+0x1490d0>
     fa0:	01000004 	tsteq	r0, r4
     fa4:	78651853 	stmdavc	r5!, {r0, r1, r4, r6, fp, ip}^
     fa8:	48010070 	stmdami	r1, {r4, r5, r6}
     fac:	00002c05 	andeq	r2, r0, r5, lsl #24
     fb0:	0002d500 	andeq	sp, r2, r0, lsl #10
     fb4:	0002d100 	andeq	sp, r2, r0, lsl #2
     fb8:	04c61600 	strbeq	r1, [r6], #1536	; 0x600
     fbc:	48010000 	stmdami	r1, {}	; <UNPREDICTABLE>
     fc0:	00002c05 	andeq	r2, r0, r5, lsl #24
     fc4:	9c161900 			; <UNDEFINED> instruction: 0x9c161900
     fc8:	01000004 	tsteq	r0, r4
     fcc:	002c0548 	eoreq	r0, ip, r8, asr #10
     fd0:	007f0000 	rsbseq	r0, pc, r0
     fd4:	00853c1a 	addeq	r3, r5, sl, lsl ip
     fd8:	00055500 	andeq	r5, r5, r0, lsl #10
     fdc:	50011b00 	andpl	r1, r1, r0, lsl #22
     fe0:	97bc0305 	ldrls	r0, [ip, r5, lsl #6]!
     fe4:	00000000 	andeq	r0, r0, r0
     fe8:	0000b41c 	andeq	fp, r0, ip, lsl r4
     fec:	0004ca00 	andeq	ip, r4, r0, lsl #20
     ff0:	002c1d00 	eoreq	r1, ip, r0, lsl #26
     ff4:	00130000 	andseq	r0, r3, r0
     ff8:	0004ba09 	andeq	fp, r4, r9, lsl #20
     ffc:	00b31e00 	adcseq	r1, r3, r0, lsl #28
    1000:	11010000 	mrsne	r0, (UNDEF: 1)
    1004:	00854806 	addeq	r4, r5, r6, lsl #16
    1008:	00004000 	andeq	r4, r0, r0
    100c:	559c0100 	ldrpl	r0, [ip, #256]	; 0x100
    1010:	1f000005 	svcne	0x00000005
    1014:	000004de 	ldrdeq	r0, [r0], -lr
    1018:	2c241101 	stfcss	f1, [r4], #-4
    101c:	fe000000 	cdp2	0, 0, cr0, cr0, cr0, {0}
    1020:	fa000002 	blx	1030 <__code_start__-0x6fd0>
    1024:	20000002 	andcs	r0, r0, r2
    1028:	00008554 	andeq	r8, r0, r4, asr r5
    102c:	0000022e 	andeq	r0, r0, lr, lsr #4
    1030:	00856021 	addeq	r6, r5, r1, lsr #32
    1034:	00056100 	andeq	r6, r5, r0, lsl #2
    1038:	00051e00 	andeq	r1, r5, r0, lsl #28
    103c:	50011b00 	andpl	r1, r1, r0, lsl #22
    1040:	b2180c05 	andslt	r0, r8, #1280	; 0x500
    1044:	011b2000 	tsteq	fp, r0
    1048:	00310151 	eorseq	r0, r1, r1, asr r1
    104c:	00856c21 	addeq	r6, r5, r1, lsr #24
    1050:	00056100 	andeq	r6, r5, r0, lsl #2
    1054:	00053b00 	andeq	r3, r5, r0, lsl #22
    1058:	50011b00 	andpl	r1, r1, r0, lsl #22
    105c:	b4000c05 	strlt	r0, [r0], #-3077	; 0xfffff3fb
    1060:	011b2000 	tsteq	fp, r0
    1064:	00740251 	rsbseq	r0, r4, r1, asr r2
    1068:	85781a00 	ldrbhi	r1, [r8, #-2560]!	; 0xfffff600
    106c:	05610000 	strbeq	r0, [r1, #-0]!
    1070:	011b0000 	tsteq	fp, r0
    1074:	080c0550 	stmdaeq	ip, {r4, r6, r8, sl}
    1078:	1b2000b4 	blne	801350 <__bss_end__+0x7f7478>
    107c:	08025101 	stmdaeq	r2, {r0, r8, ip, lr}
    1080:	220000aa 	andcs	r0, r0, #170, 0	; 0xaa
    1084:	0000054c 	andeq	r0, r0, ip, asr #10
    1088:	0000054c 	andeq	r0, r0, ip, asr #10
    108c:	22062802 	andcs	r2, r6, #131072	; 0x20000
    1090:	0000008c 	andeq	r0, r0, ip, lsl #1
    1094:	0000008c 	andeq	r0, r0, ip, lsl #1
    1098:	0006a102 	andeq	sl, r6, r2, lsl #2
    109c:	0000019d 	muleq	r0, sp, r1
    10a0:	04ef0004 	strbteq	r0, [pc], #4	; 10a8 <__code_start__-0x6f58>
    10a4:	01040000 	mrseq	r0, (UNDEF: 4)
    10a8:	00000212 	andeq	r0, r0, r2, lsl r2
    10ac:	0005620c 	andeq	r6, r5, ip, lsl #4
    10b0:	00057f00 	andeq	r7, r5, r0, lsl #30
    10b4:	00858800 	addeq	r8, r5, r0, lsl #16
    10b8:	00005800 	andeq	r5, r0, r0, lsl #16
    10bc:	00052900 	andeq	r2, r5, r0, lsl #18
    10c0:	05530200 	ldrbeq	r0, [r3, #-512]	; 0xfffffe00
    10c4:	28020000 	stmdacs	r2, {}	; <UNPREDICTABLE>
    10c8:	0000311b 	andeq	r3, r0, fp, lsl r1
    10cc:	05750300 	ldrbeq	r0, [r5, #-768]!	; 0xfffffd00
    10d0:	04040000 	streq	r0, [r4], #-0
    10d4:	00004800 	andeq	r4, r0, r0, lsl #16
    10d8:	05700400 	ldrbeq	r0, [r0, #-1024]!	; 0xfffffc00
    10dc:	00480000 	subeq	r0, r8, r0
    10e0:	00000000 	andeq	r0, r0, r0
    10e4:	77020405 	strvc	r0, [r2, -r5, lsl #8]
    10e8:	02000005 	andeq	r0, r0, #5, 0
    10ec:	00251863 	eoreq	r1, r5, r3, ror #16
    10f0:	04060000 	streq	r0, [r6], #-0
    10f4:	746e6905 	strbtvc	r6, [lr], #-2309	; 0xfffff6fb
    10f8:	07040700 	streq	r0, [r4, -r0, lsl #14]
    10fc:	000001d3 	ldrdeq	r0, [r0], -r3
    1100:	aa060107 	bge	181524 <__bss_end__+0x17764c>
    1104:	07000001 	streq	r0, [r0, -r1]
    1108:	00530502 	subseq	r0, r3, r2, lsl #10
    110c:	04070000 	streq	r0, [r7], #-0
    1110:	0000f905 	andeq	pc, r0, r5, lsl #18
    1114:	05080700 	streq	r0, [r8, #-1792]	; 0xfffff900
    1118:	000000f4 	strdeq	r0, [r0], -r4
    111c:	a8080107 	stmdage	r8, {r0, r1, r2, r8}
    1120:	07000001 	streq	r0, [r0, -r1]
    1124:	01e80702 	mvneq	r0, r2, lsl #14
    1128:	04070000 	streq	r0, [r7], #-0
    112c:	0001ce07 	andeq	ip, r1, r7, lsl #28
    1130:	07080700 	streq	r0, [r8, -r0, lsl #14]
    1134:	000001c9 	andeq	r0, r0, r9, asr #3
    1138:	00005608 	andeq	r5, r0, r8, lsl #12
    113c:	0000ab00 	andeq	sl, r0, r0, lsl #22
    1140:	00560900 	subseq	r0, r6, r0, lsl #18
    1144:	0a000000 	beq	114c <__code_start__-0x6eb4>
    1148:	00000068 	andeq	r0, r0, r8, rrx
    114c:	b70e1c03 	strlt	r1, [lr, -r3, lsl #24]
    1150:	0b000000 	bleq	1158 <__code_start__-0x6ea8>
    1154:	00009c04 	andeq	r9, r0, r4, lsl #24
    1158:	00560800 	subseq	r0, r6, r0, lsl #16
    115c:	00cc0000 	sbceq	r0, ip, r0
    1160:	cc090000 	stcgt	0, cr0, [r9], {-0}
    1164:	00000000 	andeq	r0, r0, r0
    1168:	00d9040b 	sbcseq	r0, r9, fp, lsl #8
    116c:	01070000 	mrseq	r0, (UNDEF: 7)
    1170:	0001b108 	andeq	fp, r1, r8, lsl #2
    1174:	00d20c00 	sbcseq	r0, r2, r0, lsl #24
    1178:	ba0a0000 	blt	281180 <__bss_end__+0x2772a8>
    117c:	03000005 	movweq	r0, #5
    1180:	00ea0e21 	rsceq	r0, sl, r1, lsr #28
    1184:	040b0000 	streq	r0, [fp], #-0
    1188:	000000bd 	strheq	r0, [r0], -sp
    118c:	00054c0d 	andeq	r4, r5, sp, lsl #24
    1190:	05060100 	streq	r0, [r6, #-256]	; 0xffffff00
    1194:	00000056 	andeq	r0, r0, r6, asr r0
    1198:	00008588 	andeq	r8, r0, r8, lsl #11
    119c:	00000058 	andeq	r0, r0, r8, asr r0
    11a0:	01839c01 	orreq	r9, r3, r1, lsl #24
    11a4:	660e0000 	strvs	r0, [lr], -r0
    11a8:	0100746d 	tsteq	r0, sp, ror #8
    11ac:	00cc1806 	sbceq	r1, ip, r6, lsl #16
    11b0:	91020000 	mrsls	r0, (UNDEF: 2)
    11b4:	62100f70 	andsvs	r0, r0, #112, 30	; 0x1c0
    11b8:	01006675 	tsteq	r0, r5, ror r6
    11bc:	01831108 	orreq	r1, r3, r8, lsl #2
    11c0:	03050000 	movweq	r0, #20480	; 0x5000
    11c4:	00009ac4 	andeq	r9, r0, r4, asr #21
    11c8:	00054411 	andeq	r4, r5, r1, lsl r4
    11cc:	0d090100 	stfeqs	f0, [r9, #-0]
    11d0:	0000004a 	andeq	r0, r0, sl, asr #32
    11d4:	125c9102 	subsne	r9, ip, #-2147483648	; 0x80000000
    11d8:	01007a73 	tsteq	r0, r3, ror sl
    11dc:	00560d0c 	subseq	r0, r6, ip, lsl #26
    11e0:	03220000 			; <UNDEFINED> instruction: 0x03220000
    11e4:	031c0000 	tsteq	ip, #0, 0
    11e8:	b0130000 	andslt	r0, r3, r0
    11ec:	94000085 	strls	r0, [r0], #-133	; 0xffffff7b
    11f0:	76000001 	strvc	r0, [r0], -r1
    11f4:	14000001 	strne	r0, [r0], #-1
    11f8:	75025001 	strvc	r5, [r2, #-1]
    11fc:	51011400 	tstpl	r1, r0, lsl #8
    1200:	04000a03 	streq	r0, [r0], #-2563	; 0xfffff5fd
    1204:	03520114 	cmpeq	r2, #5
    1208:	14064891 	strne	r4, [r6], #-2193	; 0xfffff76f
    120c:	91025301 	tstls	r2, r1, lsl #6
    1210:	c415004c 	ldrgt	r0, [r5], #-76	; 0xffffffb4
    1214:	14000085 	strne	r0, [r0], #-133	; 0xffffff7b
    1218:	75025001 	strvc	r5, [r2, #-1]
    121c:	16000000 	strne	r0, [r0], -r0
    1220:	000000d2 	ldrdeq	r0, [r0], -r2
    1224:	00000194 	muleq	r0, r4, r1
    1228:	00005d17 	andeq	r5, r0, r7, lsl sp
    122c:	0003ff00 	andeq	pc, r3, r0, lsl #30
    1230:	00054918 	andeq	r4, r5, r8, lsl r9
    1234:	00054900 	andeq	r4, r5, r0, lsl #18
    1238:	05020500 	streq	r0, [r2, #-1280]	; 0xfffffb00
    123c:	0000f300 	andeq	pc, r0, r0, lsl #6
    1240:	31000400 	tstcc	r0, r0, lsl #8
    1244:	04000006 	streq	r0, [r0], #-6
    1248:	00021201 	andeq	r1, r2, r1, lsl #4
    124c:	05bf0c00 	ldreq	r0, [pc, #3072]!	; 1e54 <__code_start__-0x61ac>
    1250:	057f0000 	ldrbeq	r0, [pc, #-0]!	; 1258 <__code_start__-0x6da8>
    1254:	85e00000 	strbhi	r0, [r0, #0]!
    1258:	00340000 	eorseq	r0, r4, r0
    125c:	06480000 	strbeq	r0, [r8], -r0
    1260:	04020000 	streq	r0, [r2], #-0
    1264:	746e6905 	strbtvc	r6, [lr], #-2309	; 0xfffff6fb
    1268:	07040300 	streq	r0, [r4, -r0, lsl #6]
    126c:	000001d3 	ldrdeq	r0, [r0], -r3
    1270:	aa060103 	bge	181684 <__bss_end__+0x1777ac>
    1274:	03000001 	movweq	r0, #1
    1278:	00530502 	subseq	r0, r3, r2, lsl #10
    127c:	04030000 	streq	r0, [r3], #-0
    1280:	0000f905 	andeq	pc, r0, r5, lsl #18
    1284:	05080300 	streq	r0, [r8, #-768]	; 0xfffffd00
    1288:	000000f4 	strdeq	r0, [r0], -r4
    128c:	a8080103 	stmdage	r8, {r0, r1, r8}
    1290:	03000001 	movweq	r0, #1
    1294:	01e80702 	mvneq	r0, r2, lsl #14
    1298:	04030000 	streq	r0, [r3], #-0
    129c:	0001ce07 	andeq	ip, r1, r7, lsl #28
    12a0:	07080300 	streq	r0, [r8, -r0, lsl #6]
    12a4:	000001c9 	andeq	r0, r0, r9, asr #3
    12a8:	00002504 	andeq	r2, r0, r4, lsl #10
    12ac:	00007a00 	andeq	r7, r0, r0, lsl #20
    12b0:	00250500 	eoreq	r0, r5, r0, lsl #10
    12b4:	06000000 	streq	r0, [r0], -r0
    12b8:	00000068 	andeq	r0, r0, r8, rrx
    12bc:	860e1c02 	strhi	r1, [lr], -r2, lsl #24
    12c0:	07000000 	streq	r0, [r0, -r0]
    12c4:	00006b04 	andeq	r6, r0, r4, lsl #22
    12c8:	00250400 	eoreq	r0, r5, r0, lsl #8
    12cc:	009b0000 	addseq	r0, fp, r0
    12d0:	9b050000 	blls	1412d8 <__bss_end__+0x137400>
    12d4:	00000000 	andeq	r0, r0, r0
    12d8:	00a80407 	adceq	r0, r8, r7, lsl #8
    12dc:	01030000 	mrseq	r0, (UNDEF: 3)
    12e0:	0001b108 	andeq	fp, r1, r8, lsl #2
    12e4:	00a10800 	adceq	r0, r1, r0, lsl #16
    12e8:	ba060000 	blt	1812f0 <__bss_end__+0x177418>
    12ec:	02000005 	andeq	r0, r0, #5, 0
    12f0:	00b90e21 	adcseq	r0, r9, r1, lsr #28
    12f4:	04070000 	streq	r0, [r7], #-0
    12f8:	0000008c 	andeq	r0, r0, ip, lsl #1
    12fc:	0000ad09 	andeq	sl, r0, r9, lsl #26
    1300:	070c0100 	streq	r0, [ip, -r0, lsl #2]
    1304:	9aa40305 	bls	fe901f20 <__bss_end__+0xfe8f8048>
    1308:	b10a0000 	mrslt	r0, (UNDEF: 10)
    130c:	01000005 	tsteq	r0, r5
    1310:	00250504 	eoreq	r0, r5, r4, lsl #10
    1314:	85e00000 	strbhi	r0, [r0, #0]!
    1318:	00340000 	eorseq	r0, r4, r0
    131c:	9c010000 	stcls	0, cr0, [r1], {-0}
    1320:	0100700b 	tsteq	r0, fp
    1324:	009b1f04 	addseq	r1, fp, r4, lsl #30
    1328:	034f0000 	movteq	r0, #61440	; 0xf000
    132c:	034b0000 	movteq	r0, #45056	; 0xb000
    1330:	00000000 	andeq	r0, r0, r0
    1334:	00000904 	andeq	r0, r0, r4, lsl #18
    1338:	06cf0004 	strbeq	r0, [pc], r4
    133c:	01040000 	mrseq	r0, (UNDEF: 4)
    1340:	00000212 	andeq	r0, r0, r2, lsl r2
    1344:	0006390c 	andeq	r3, r6, ip, lsl #18
    1348:	00057f00 	andeq	r7, r5, r0, lsl #30
    134c:	00861400 	addeq	r1, r6, r0, lsl #8
    1350:	00062c00 	andeq	r2, r6, r0, lsl #24
    1354:	0006ff00 	andeq	pc, r6, r0, lsl #30
    1358:	05040200 	streq	r0, [r4, #-512]	; 0xfffffe00
    135c:	00746e69 	rsbseq	r6, r4, r9, ror #28
    1360:	d3070403 	movwle	r0, #29699	; 0x7403
    1364:	03000001 	movweq	r0, #1
    1368:	01aa0601 			; <UNDEFINED> instruction: 0x01aa0601
    136c:	02030000 	andeq	r0, r3, #0, 0
    1370:	00005305 	andeq	r5, r0, r5, lsl #6
    1374:	05040300 	streq	r0, [r4, #-768]	; 0xfffffd00
    1378:	000000f9 	strdeq	r0, [r0], -r9
    137c:	f4050803 	vst2.8	{d0-d1}, [r5], r3
    1380:	03000000 	movweq	r0, #0
    1384:	01a80801 			; <UNDEFINED> instruction: 0x01a80801
    1388:	02030000 	andeq	r0, r3, #0, 0
    138c:	0001e807 	andeq	lr, r1, r7, lsl #16
    1390:	04f80400 	ldrbteq	r0, [r8], #1024	; 0x400
    1394:	34020000 	strcc	r0, [r2], #-0
    1398:	00006919 	andeq	r6, r0, r9, lsl r9
    139c:	07040300 	streq	r0, [r4, -r0, lsl #6]
    13a0:	000001ce 	andeq	r0, r0, lr, asr #3
    13a4:	0005d304 	andeq	sp, r5, r4, lsl #6
    13a8:	19370200 	ldmdbne	r7!, {r9}
    13ac:	0000007c 	andeq	r0, r0, ip, ror r0
    13b0:	c9070803 	stmdbgt	r7, {r0, r1, fp}
    13b4:	05000001 	streq	r0, [r0, #-1]
    13b8:	00000025 	andeq	r0, r0, r5, lsr #32
    13bc:	00000092 	muleq	r0, r2, r0
    13c0:	00002506 	andeq	r2, r0, r6, lsl #10
    13c4:	68070000 	stmdavs	r7, {}	; <UNPREDICTABLE>
    13c8:	03000000 	movweq	r0, #0
    13cc:	009e0e1c 	addseq	r0, lr, ip, lsl lr
    13d0:	04080000 	streq	r0, [r8], #-0
    13d4:	00000083 	andeq	r0, r0, r3, lsl #1
    13d8:	00002505 	andeq	r2, r0, r5, lsl #10
    13dc:	0000b300 	andeq	fp, r0, r0, lsl #6
    13e0:	00b30600 	adcseq	r0, r3, r0, lsl #12
    13e4:	08000000 	stmdaeq	r0, {}	; <UNPREDICTABLE>
    13e8:	0000c004 	andeq	ip, r0, r4
    13ec:	08010300 	stmdaeq	r1, {r8, r9}
    13f0:	000001b1 			; <UNDEFINED> instruction: 0x000001b1
    13f4:	0000b909 	andeq	fp, r0, r9, lsl #18
    13f8:	05ba0700 	ldreq	r0, [sl, #1792]!	; 0x700
    13fc:	21030000 	mrscs	r0, (UNDEF: 3)
    1400:	0000d10e 	andeq	sp, r0, lr, lsl #2
    1404:	a4040800 	strge	r0, [r4], #-2048	; 0xfffff800
    1408:	07000000 	streq	r0, [r0, -r0]
    140c:	0000007d 	andeq	r0, r0, sp, ror r0
    1410:	b90d0b04 	stmdblt	sp, {r2, r8, r9, fp}
    1414:	07000000 	streq	r0, [r0, -r0]
    1418:	000002e4 	andeq	r0, r0, r4, ror #5
    141c:	b90d0c04 	stmdblt	sp, {r2, sl, fp}
    1420:	07000000 	streq	r0, [r0, -r0]
    1424:	000005dc 	ldrdeq	r0, [r0], -ip
    1428:	b90d0d04 	stmdblt	sp, {r2, r8, sl, fp}
    142c:	07000000 	streq	r0, [r0, -r0]
    1430:	00000605 	andeq	r0, r0, r5, lsl #12
    1434:	b90d0e04 	stmdblt	sp, {r2, r9, sl, fp}
    1438:	07000000 	streq	r0, [r0, -r0]
    143c:	0000066c 	andeq	r0, r0, ip, ror #12
    1440:	b90d0f04 	stmdblt	sp, {r2, r8, r9, sl, fp}
    1444:	07000000 	streq	r0, [r0, -r0]
    1448:	000005f0 	strdeq	r0, [r0], -r0	; <UNPREDICTABLE>
    144c:	b90d1004 	stmdblt	sp, {r2, ip}
    1450:	07000000 	streq	r0, [r0, -r0]
    1454:	0000067b 	andeq	r0, r0, fp, ror r6
    1458:	b90d1104 	stmdblt	sp, {r2, r8, ip}
    145c:	07000000 	streq	r0, [r0, -r0]
    1460:	00000611 	andeq	r0, r0, r1, lsl r6
    1464:	b90d1204 	stmdblt	sp, {r2, r9, ip}
    1468:	04000000 	streq	r0, [r0], #-0
    146c:	00000553 	andeq	r0, r0, r3, asr r5
    1470:	431b2805 	tstmi	fp, #327680	; 0x50000
    1474:	0a000001 	beq	1480 <__code_start__-0x6b80>
    1478:	00000575 	andeq	r0, r0, r5, ror r5
    147c:	5a000604 	bpl	2c94 <__code_start__-0x536c>
    1480:	0b000001 	bleq	148c <__code_start__-0x6b74>
    1484:	00000570 	andeq	r0, r0, r0, ror r5
    1488:	0000015a 	andeq	r0, r0, sl, asr r1
    148c:	040c0000 	streq	r0, [ip], #-0
    1490:	00057704 	andeq	r7, r5, r4, lsl #14
    1494:	18630500 	stmdane	r3!, {r8, sl}^
    1498:	00000137 	andeq	r0, r0, r7, lsr r1
    149c:	0005490d 	andeq	r4, r5, sp, lsl #18
    14a0:	05810100 	streq	r0, [r1, #256]	; 0x100
    14a4:	00000025 	andeq	r0, r0, r5, lsr #32
    14a8:	0000889c 	muleq	r0, ip, r8
    14ac:	000003a4 	andeq	r0, r0, r4, lsr #7
    14b0:	055c9c01 	ldrbeq	r9, [ip, #-3073]	; 0xfffff3ff
    14b4:	620e0000 	andvs	r0, lr, #0, 0
    14b8:	01006675 	tsteq	r0, r5, ror r6
    14bc:	055c1581 	ldrbeq	r1, [ip, #-1409]	; 0xfffffa7f
    14c0:	03730000 	cmneq	r3, #0, 0
    14c4:	036d0000 	cmneq	sp, #0, 0
    14c8:	6e0e0000 	cdpvs	0, 0, cr0, cr14, cr0, {0}
    14cc:	1e810100 	rmfnes	f0, f1, f0
    14d0:	00000025 	andeq	r0, r0, r5, lsr #32
    14d4:	000003a5 	andeq	r0, r0, r5, lsr #7
    14d8:	0000039f 	muleq	r0, pc, r3	; <UNPREDICTABLE>
    14dc:	746d660e 	strbtvc	r6, [sp], #-1550	; 0xfffff9f2
    14e0:	2d810100 	stfcss	f0, [r1]
    14e4:	000000b3 	strheq	r0, [r0], -r3
    14e8:	000003d7 	ldrdeq	r0, [r0], -r7
    14ec:	000003d3 	ldrdeq	r0, [r0], -r3
    14f0:	0005440f 	andeq	r4, r5, pc, lsl #8
    14f4:	3a810100 	bcc	fe0418fc <__bss_end__+0xfe037a24>
    14f8:	0000015c 	andeq	r0, r0, ip, asr r1
    14fc:	7dd49103 	ldfvcp	f1, [r4, #12]
    1500:	01007010 	tsteq	r0, r0, lsl r0
    1504:	055c0882 	ldrbeq	r0, [ip, #-2178]	; 0xfffff77e
    1508:	04090000 	streq	r0, [r9], #-0
    150c:	03f50000 	mvnseq	r0, #0, 0
    1510:	65100000 	ldrvs	r0, [r0, #-0]
    1514:	12820100 	addne	r0, r2, #0
    1518:	0000055c 	andeq	r0, r0, ip, asr r5
    151c:	0000048b 	andeq	r0, r0, fp, lsl #9
    1520:	00000487 	andeq	r0, r0, r7, lsl #9
    1524:	00307810 	eorseq	r7, r0, r0, lsl r8
    1528:	5d0e8301 	stcpl	3, cr8, [lr, #-4]
    152c:	b4000000 	strlt	r0, [r0], #-0
    1530:	b2000004 	andlt	r0, r0, #4, 0
    1534:	11000004 	tstne	r0, r4
    1538:	01003178 	tsteq	r0, r8, ror r1
    153c:	005d1183 	subseq	r1, sp, r3, lsl #3
    1540:	2f120000 	svccs	0x00120000
    1544:	01000006 	tsteq	r0, r6
    1548:	00b31186 	adcseq	r1, r3, r6, lsl #3
    154c:	04cb0000 	strbeq	r0, [fp], #0
    1550:	04c70000 	strbeq	r0, [r7], #0
    1554:	1b130000 	blne	4c155c <__bss_end__+0x4b7684>
    1558:	72000004 	andvc	r0, r0, #4, 0
    155c:	05000005 	streq	r0, [r0, #-5]
    1560:	0098fc03 	addseq	pc, r8, r3, lsl #24
    1564:	89041400 	stmdbhi	r4, {sl, ip}
    1568:	03000000 	movweq	r0, #0
    156c:	73100000 	tstvc	r0, #0, 0
    1570:	0a910100 	beq	fe441978 <__bss_end__+0xfe437aa0>
    1574:	0000055c 	andeq	r0, r0, ip, asr r5
    1578:	000004fd 	strdeq	r0, [r0], -sp
    157c:	000004eb 	andeq	r0, r0, fp, ror #9
    1580:	6d756e15 	ldclvs	14, cr6, [r5, #-84]!	; 0xffffffac
    1584:	0d910100 	ldfeqs	f0, [r1]
    1588:	00000577 	andeq	r0, r0, r7, ror r5
    158c:	7dd89103 	ldfvcp	f1, [r8, #12]
    1590:	00068816 	andeq	r8, r6, r6, lsl r8
    1594:	17910100 	ldrne	r0, [r1, r0, lsl #2]
    1598:	00000577 	andeq	r0, r0, r7, ror r5
    159c:	7ed89103 	atnvce	f1, f3
    15a0:	0005ea12 	andeq	lr, r5, r2, lsl sl
    15a4:	0d920100 	ldfeqs	f0, [r2]
    15a8:	0000002c 	andeq	r0, r0, ip, lsr #32
    15ac:	0000056e 	andeq	r0, r0, lr, ror #10
    15b0:	00000568 	andeq	r0, r0, r8, ror #10
    15b4:	00000017 	andeq	r0, r0, r7, lsl r0
    15b8:	00050400 	andeq	r0, r5, r0, lsl #8
    15bc:	78781500 	ldmdavc	r8!, {r8, sl, ip}^
    15c0:	1a9f0100 	bne	fe7c19c8 <__bss_end__+0xfe7b7af0>
    15c4:	00000070 	andeq	r0, r0, r0, ror r0
    15c8:	04935b06 	ldreq	r5, [r3], #2822	; 0xb06
    15cc:	18049353 	stmdane	r4, {r0, r1, r4, r6, r8, r9, ip, pc}
    15d0:	000089dc 	ldrdeq	r8, [r0], -ip
    15d4:	000008d7 	ldrdeq	r0, [r0], -r7
    15d8:	000002bd 			; <UNDEFINED> instruction: 0x000002bd
    15dc:	02500119 	subseq	r0, r0, #1073741830	; 0x40000006
    15e0:	01190076 	tsteq	r9, r6, ror r0
    15e4:	4c030551 	cfstr32mi	mvfx0, [r3], {81}	; 0x51
    15e8:	19000098 	stmdbne	r0, {r3, r4, r7}
    15ec:	33015201 	movwcc	r5, #4609	; 0x1201
    15f0:	8a201800 	bhi	8075f8 <__bss_end__+0x7fd720>
    15f4:	05870000 	streq	r0, [r7]
    15f8:	02eb0000 	rsceq	r0, fp, #0, 0
    15fc:	01190000 	tsteq	r9, r0
    1600:	19400150 	stmdbne	r0, {r4, r6, r8}^
    1604:	91035101 	tstls	r3, r1, lsl #2
    1608:	01197dd0 			; <UNDEFINED> instruction: 0x01197dd0
    160c:	80080252 	andhi	r0, r8, r2, asr r2
    1610:	007d0219 	rsbseq	r0, sp, r9, lsl r2
    1614:	19007502 	stmdbne	r0, {r1, r8, sl, ip, sp, lr}
    1618:	02047d02 	andeq	r7, r4, #128	; 0x80
    161c:	1800007a 	stmdane	r0, {r1, r3, r4, r5, r6}
    1620:	00008a40 	andeq	r8, r0, r0, asr #20
    1624:	00000587 	andeq	r0, r0, r7, lsl #11
    1628:	0000031f 	andeq	r0, r0, pc, lsl r3
    162c:	01500119 	cmpeq	r0, r9, lsl r1
    1630:	51011940 	tstpl	r1, r0, asr #18
    1634:	7ed09103 	atnvcs	f1, f3
    1638:	02520119 	subseq	r0, r2, #1073741830	; 0x40000006
    163c:	01198008 	tsteq	r9, r8
    1640:	007b0253 	rsbseq	r0, fp, r3, asr r2
    1644:	007d0219 	rsbseq	r0, sp, r9, lsl r2
    1648:	19007502 	stmdbne	r0, {r1, r8, sl, ip, sp, lr}
    164c:	02047d02 	andeq	r7, r4, #128	; 0x80
    1650:	1800007a 	stmdane	r0, {r1, r3, r4, r5, r6}
    1654:	00008a4c 	andeq	r8, r0, ip, asr #20
    1658:	000008e3 	andeq	r0, r0, r3, ror #17
    165c:	0000033b 	andeq	r0, r0, fp, lsr r3
    1660:	03500119 	cmpeq	r0, #1073741830	; 0x40000006
    1664:	197dd091 	ldmdbne	sp!, {r0, r4, r7, ip, lr, pc}^
    1668:	91035101 	tstls	r3, r1, lsl #2
    166c:	18007ed2 	stmdane	r0, {r1, r4, r6, r7, r9, sl, fp, ip, sp, lr}
    1670:	00008a6c 	andeq	r8, r0, ip, ror #20
    1674:	000008ef 	andeq	r0, r0, pc, ror #17
    1678:	00000374 	andeq	r0, r0, r4, ror r3
    167c:	05500119 	ldrbeq	r0, [r0, #-281]	; 0xfffffee7
    1680:	0097fc03 	addseq	pc, r7, r3, lsl #24
    1684:	51011900 	tstpl	r1, r0, lsl #18
    1688:	97e80305 	strbls	r0, [r8, r5, lsl #6]!
    168c:	01190000 	tsteq	r9, r0
    1690:	fc030552 	stc2	5, cr0, [r3], {82}	; 0x52
    1694:	19000098 	stmdbne	r0, {r3, r4, r7}
    1698:	08025301 	stmdaeq	r2, {r0, r8, r9, ip, lr}
    169c:	7d02199d 	vstrvc.16	s2, [r2, #-314]	; 0xfffffec6	; <UNPREDICTABLE>
    16a0:	50030500 	andpl	r0, r3, r0, lsl #10
    16a4:	00000098 	muleq	r0, r8, r0
    16a8:	008a701a 	addeq	r7, sl, sl, lsl r0
    16ac:	0008fb00 	andeq	pc, r8, r0, lsl #22
    16b0:	8a841800 	bhi	fe1076b8 <__bss_end__+0xfe0fd7e0>
    16b4:	08ef0000 	stmiaeq	pc!, {}^	; <UNPREDICTABLE>
    16b8:	03ac0000 			; <UNDEFINED> instruction: 0x03ac0000
    16bc:	01190000 	tsteq	r9, r0
    16c0:	6c030550 	cfstr32vs	mvfx0, [r3], {80}	; 0x50
    16c4:	19000098 	stmdbne	r0, {r3, r4, r7}
    16c8:	03055101 	movweq	r5, #20737	; 0x5101
    16cc:	000097e8 	andeq	r9, r0, r8, ror #15
    16d0:	05520119 	ldrbeq	r0, [r2, #-281]	; 0xfffffee7
    16d4:	0098fc03 	addseq	pc, r8, r3, lsl #24
    16d8:	53011900 	movwpl	r1, #6400	; 0x1900
    16dc:	00af0802 	adceq	r0, pc, r2, lsl #16
    16e0:	008a881a 	addeq	r8, sl, sl, lsl r8
    16e4:	0008fb00 	andeq	pc, r8, r0, lsl #22
    16e8:	8ab41800 	bhi	fed076f0 <__bss_end__+0xfecfd818>
    16ec:	05870000 	streq	r0, [r7]
    16f0:	03e20000 	mvneq	r0, #0, 0
    16f4:	01190000 	tsteq	r9, r0
    16f8:	193a0150 	ldmdbne	sl!, {r4, r6, r8}
    16fc:	91035101 	tstls	r3, r1, lsl #2
    1700:	01197dd0 			; <UNDEFINED> instruction: 0x01197dd0
    1704:	80080252 	andhi	r0, r8, r2, asr r2
    1708:	007d0219 	rsbseq	r0, sp, r9, lsl r2
    170c:	19007502 	stmdbne	r0, {r1, r8, sl, ip, sp, lr}
    1710:	01047d02 	tsteq	r4, r2, lsl #26
    1714:	ec180031 	ldc	0, cr0, [r8], {49}	; 0x31
    1718:	8700008a 	strhi	r0, [r0, -sl, lsl #1]
    171c:	0f000005 	svceq	0x00000005
    1720:	19000004 	stmdbne	r0, {r2}
    1724:	3a015001 	bcc	55730 <__bss_end__+0x4b858>
    1728:	03510119 	cmpeq	r1, #1073741830	; 0x40000006
    172c:	197dd091 	ldmdbne	sp!, {r0, r4, r7, ip, lr, pc}^
    1730:	08025201 	stmdaeq	r2, {r0, r9, ip, lr}
    1734:	7d021980 	vstrvc.16	s2, [r2, #-256]	; 0xffffff00	; <UNPREDICTABLE>
    1738:	00750200 	rsbseq	r0, r5, r0, lsl #4
    173c:	047d0219 	ldrbteq	r0, [sp], #-537	; 0xfffffde7
    1740:	18003001 	stmdane	r0, {r0, ip, sp}
    1744:	00008b20 	andeq	r8, r0, r0, lsr #22
    1748:	00000587 	andeq	r0, r0, r7, lsl #11
    174c:	0000043c 	andeq	r0, r0, ip, lsr r4
    1750:	01500119 	cmpeq	r0, r9, lsl r1
    1754:	51011940 	tstpl	r1, r0, asr #18
    1758:	7dd09103 	ldfvcp	f1, [r0, #12]
    175c:	02520119 	subseq	r0, r2, #1073741830	; 0x40000006
    1760:	02198008 	andseq	r8, r9, #8, 0
    1764:	7502007d 	strvc	r0, [r2, #-125]	; 0xffffff83
    1768:	7d021900 	vstrvc.16	s2, [r2, #-0]	; <UNPREDICTABLE>
    176c:	00300104 	eorseq	r0, r0, r4, lsl #2
    1770:	008b5418 	addeq	r5, fp, r8, lsl r4
    1774:	00058700 	andeq	r8, r5, r0, lsl #14
    1778:	00046900 	andeq	r6, r4, r0, lsl #18
    177c:	50011900 	andpl	r1, r1, r0, lsl #18
    1780:	01193201 	tsteq	r9, r1, lsl #4
    1784:	d0910351 	addsle	r0, r1, r1, asr r3
    1788:	5201197d 	andpl	r1, r1, #2048000	; 0x1f4000
    178c:	19800802 	stmibne	r0, {r1, fp}
    1790:	02007d02 	andeq	r7, r0, #128	; 0x80
    1794:	02190075 	andseq	r0, r9, #117, 0	; 0x75
    1798:	3001047d 	andcc	r0, r1, sp, ror r4
    179c:	8b9c1800 	blhi	fe7077a4 <__bss_end__+0xfe6fd8cc>
    17a0:	05870000 	streq	r0, [r7]
    17a4:	04960000 	ldreq	r0, [r6], #0
    17a8:	01190000 	tsteq	r9, r0
    17ac:	19380150 	ldmdbne	r8!, {r4, r6, r8}
    17b0:	91035101 	tstls	r3, r1, lsl #2
    17b4:	01197dd0 			; <UNDEFINED> instruction: 0x01197dd0
    17b8:	80080252 	andhi	r0, r8, r2, asr r2
    17bc:	007d0219 	rsbseq	r0, sp, r9, lsl r2
    17c0:	19007502 	stmdbne	r0, {r1, r8, sl, ip, sp, lr}
    17c4:	01047d02 	tsteq	r4, r2, lsl #26
    17c8:	bc180030 	ldclt	0, cr0, [r8], {48}	; 0x30
    17cc:	ef00008b 	svc	0x0000008b
    17d0:	b9000008 	stmdblt	r0, {r3}
    17d4:	19000004 	stmdbne	r0, {r2}
    17d8:	03055001 	movweq	r5, #20481	; 0x5001
    17dc:	00009894 	muleq	r0, r4, r8
    17e0:	02510119 	subseq	r0, r1, #1073741830	; 0x40000006
    17e4:	0119007a 	tsteq	r9, sl, ror r0
    17e8:	007a0252 	rsbseq	r0, sl, r2, asr r2
    17ec:	8bcc1b00 	blhi	ff3083f4 <__bss_end__+0xff2fe51c>
    17f0:	04cb0000 	strbeq	r0, [fp], #0
    17f4:	01190000 	tsteq	r9, r0
    17f8:	c8910450 	ldmgt	r1, {r4, r6, sl}
    17fc:	1800067d 	stmdane	r0, {r0, r2, r3, r4, r5, r6, r9, sl}
    1800:	00008be0 	andeq	r8, r0, r0, ror #23
    1804:	000008ef 	andeq	r0, r0, pc, ror #17
    1808:	000004fa 	strdeq	r0, [r0], -sl
    180c:	05500119 	ldrbeq	r0, [r0, #-281]	; 0xfffffee7
    1810:	0098c403 	addseq	ip, r8, r3, lsl #8
    1814:	51011900 	tstpl	r1, r0, lsl #18
    1818:	97e80305 	strbls	r0, [r8, r5, lsl #6]!
    181c:	01190000 	tsteq	r9, r0
    1820:	fc030552 	stc2	5, cr0, [r3], {82}	; 0x52
    1824:	19000098 	stmdbne	r0, {r3, r4, r7}
    1828:	08025301 	stmdaeq	r2, {r0, r8, r9, ip, lr}
    182c:	e41a00d3 	ldr	r0, [sl], #-211	; 0xffffff2d
    1830:	fb00008b 	blx	1a66 <__code_start__-0x659a>
    1834:	00000008 	andeq	r0, r0, r8
    1838:	00891c18 	addeq	r1, r9, r8, lsl ip
    183c:	00080500 	andeq	r0, r8, r0, lsl #10
    1840:	00051800 	andeq	r1, r5, r0, lsl #16
    1844:	50011900 	andpl	r1, r1, r0, lsl #18
    1848:	00007702 	andeq	r7, r0, r2, lsl #14
    184c:	0089c818 	addeq	ip, r9, r8, lsl r8
    1850:	0008ef00 	andeq	lr, r8, r0, lsl #30
    1854:	00055100 	andeq	r5, r5, r0, lsl #2
    1858:	50011900 	andpl	r1, r1, r0, lsl #18
    185c:	97fc0305 	ldrbls	r0, [ip, r5, lsl #6]!
    1860:	01190000 	tsteq	r9, r0
    1864:	e8030551 	stmda	r3, {r0, r4, r6, r8, sl}
    1868:	19000097 	stmdbne	r0, {r0, r1, r2, r4, r7}
    186c:	03055201 	movweq	r5, #20993	; 0x5201
    1870:	000098fc 	strdeq	r9, [r0], -ip
    1874:	02530119 	subseq	r0, r3, #1073741830	; 0x40000006
    1878:	02199808 	andseq	r9, r9, #8, 16	; 0x80000
    187c:	0305007d 	movweq	r0, #20605	; 0x507d
    1880:	00009840 	andeq	r9, r0, r0, asr #16
    1884:	89cc1a00 	stmibhi	ip, {r9, fp, ip}^
    1888:	08fb0000 	ldmeq	fp!, {}^	; <UNPREDICTABLE>
    188c:	00000000 	andeq	r0, r0, r0
    1890:	00b90408 	adcseq	r0, r9, r8, lsl #8
    1894:	c01c0000 	andsgt	r0, ip, r0
    1898:	72000000 	andvc	r0, r0, #0, 0
    189c:	1d000005 	stcne	0, cr0, [r0, #-20]	; 0xffffffec
    18a0:	0000002c 	andeq	r0, r0, ip, lsr #32
    18a4:	62090009 	andvs	r0, r9, #9, 0
    18a8:	1c000005 	stcne	0, cr0, [r0], {5}
    18ac:	000000b9 	strheq	r0, [r0], -r9
    18b0:	00000587 	andeq	r0, r0, r7, lsl #11
    18b4:	00002c1d 	andeq	r2, r0, sp, lsl ip
    18b8:	1e007f00 	cdpne	15, 0, cr7, cr0, cr0, {0}
    18bc:	00000657 	andeq	r0, r0, r7, asr r6
    18c0:	5c014901 			; <UNDEFINED> instruction: 0x5c014901
    18c4:	84000005 	strhi	r0, [r0], #-5
    18c8:	b4000086 	strlt	r0, [r0], #-134	; 0xffffff7a
    18cc:	01000001 	tsteq	r0, r1
    18d0:	0006f09c 	muleq	r6, ip, r0
    18d4:	01a31f00 			; <UNDEFINED> instruction: 0x01a31f00
    18d8:	49010000 	stmdbmi	r1, {}	; <UNPREDICTABLE>
    18dc:	00002c0f 	andeq	r2, r0, pc, lsl #24
    18e0:	00059e00 	andeq	r9, r5, r0, lsl #28
    18e4:	00059800 	andeq	r9, r5, r0, lsl #16
    18e8:	73640e00 	cmnvc	r4, #0, 28
    18ec:	49010074 	stmdbmi	r1, {r2, r4, r5, r6}
    18f0:	00055c1b 	andeq	r5, r5, fp, lsl ip
    18f4:	0005dc00 	andeq	sp, r5, r0, lsl #24
    18f8:	0005cc00 	andeq	ip, r5, r0, lsl #24
    18fc:	006e0e00 	rsbeq	r0, lr, r0, lsl #28
    1900:	25244901 	strcs	r4, [r4, #-2305]!	; 0xfffff6ff
    1904:	40000000 	andmi	r0, r0, r0
    1908:	3c000006 	stccc	0, cr0, [r0], {6}
    190c:	0e000006 	cdpeq	0, 0, cr0, cr0, cr6, {0}
    1910:	006c6176 	rsbeq	r6, ip, r6, ror r1
    1914:	252b4901 	strcs	r4, [fp, #-2305]!	; 0xfffff6ff
    1918:	6a000000 	bvs	1920 <__code_start__-0x66e0>
    191c:	5e000006 	cdppl	0, 0, cr0, cr0, cr6, {0}
    1920:	1f000006 	svcne	0x00000006
    1924:	000005ea 	andeq	r0, r0, sl, ror #11
    1928:	25344901 	ldrcs	r4, [r4, #-2305]!	; 0xfffff6ff
    192c:	c0000000 	andgt	r0, r0, r0
    1930:	ba000006 	blt	1950 <__code_start__-0x66b0>
    1934:	0f000006 	svceq	0x00000006
    1938:	00000695 	muleq	r0, r5, r6
    193c:	253f4901 	ldrcs	r4, [pc, #-2305]!	; 1043 <__code_start__-0x6fbd>
    1940:	02000000 	andeq	r0, r0, #0, 0
    1944:	62150491 	andsvs	r0, r5, #-1862270976	; 0x91000000
    1948:	01006675 	tsteq	r0, r5, ror r6
    194c:	06f0074e 	ldrbteq	r0, [r0], lr, asr #14
    1950:	91030000 	mrsls	r0, (UNDEF: 3)
    1954:	70107fa8 	andsvc	r7, r0, r8, lsr #31
    1958:	114e0100 	mrsne	r0, (UNDEF: 94)
    195c:	0000055c 	andeq	r0, r0, ip, asr r5
    1960:	0000070a 	andeq	r0, r0, sl, lsl #14
    1964:	000006ea 	andeq	r0, r0, sl, ror #13
    1968:	01007510 	tsteq	r0, r0, lsl r5
    196c:	002c0b4f 	eoreq	r0, ip, pc, asr #22
    1970:	07f00000 	ldrbeq	r0, [r0, r0]!
    1974:	07dc0000 	ldrbeq	r0, [ip, r0]
    1978:	1b130000 	blne	4c1980 <__bss_end__+0x4b7aa8>
    197c:	10000004 	andne	r0, r0, r4
    1980:	05000007 	streq	r0, [r0, #-7]
    1984:	0098e403 	addseq	lr, r8, r3, lsl #8
    1988:	86f02000 	ldrbthi	r2, [r0], r0
    198c:	00780000 	rsbseq	r0, r8, r0
    1990:	06770000 	ldrbteq	r0, [r7], -r0
    1994:	51120000 	tstpl	r2, r0
    1998:	01000006 	tsteq	r0, r6
    199c:	002c0d54 	eoreq	r0, ip, r4, asr sp
    19a0:	08710000 	ldmdaeq	r1!, {}^	; <UNPREDICTABLE>
    19a4:	08690000 	stmdaeq	r9!, {}^	; <UNPREDICTABLE>
    19a8:	18000000 	stmdane	r0, {}	; <UNPREDICTABLE>
    19ac:	000087a8 	andeq	r8, r0, r8, lsr #15
    19b0:	000007a2 	andeq	r0, r0, r2, lsr #15
    19b4:	0000068c 	andeq	r0, r0, ip, lsl #13
    19b8:	03510119 	cmpeq	r1, #1073741830	; 0x40000006
    19bc:	007fa091 			; <UNDEFINED> instruction: 0x007fa091
    19c0:	0087bc18 	addeq	fp, r7, r8, lsl ip
    19c4:	00071500 	andeq	r1, r7, r0, lsl #10
    19c8:	0006ad00 	andeq	sl, r6, r0, lsl #26
    19cc:	50011900 	andpl	r1, r1, r0, lsl #18
    19d0:	19007502 	stmdbne	r0, {r1, r8, sl, ip, sp, lr}
    19d4:	74025101 	strvc	r5, [r2], #-257	; 0xfffffeff
    19d8:	53011900 	movwpl	r1, #6400	; 0x1900
    19dc:	7fa09103 	svcvc	0x00a09103
    19e0:	88141800 	ldmdahi	r4, {fp, ip}
    19e4:	08ef0000 	stmiaeq	pc!, {}^	; <UNPREDICTABLE>
    19e8:	06e60000 	strbteq	r0, [r6], r0
    19ec:	01190000 	tsteq	r9, r0
    19f0:	fc030550 	stc2	5, cr0, [r3], {80}	; 0x50
    19f4:	19000097 	stmdbne	r0, {r0, r1, r2, r4, r7}
    19f8:	03055101 	movweq	r5, #20737	; 0x5101
    19fc:	000097e8 	andeq	r9, r0, r8, ror #15
    1a00:	05520119 	ldrbeq	r0, [r2, #-281]	; 0xfffffee7
    1a04:	0098e403 	addseq	lr, r8, r3, lsl #8
    1a08:	53011900 	movwpl	r1, #6400	; 0x1900
    1a0c:	19790802 	ldmdbne	r9!, {r1, fp}^
    1a10:	05007d02 	streq	r7, [r0, #-3330]	; 0xfffff2fe
    1a14:	00981003 	addseq	r1, r8, r3
    1a18:	181a0000 	ldmdane	sl, {}	; <UNPREDICTABLE>
    1a1c:	fb000088 	blx	1c46 <__code_start__-0x63ba>
    1a20:	00000008 	andeq	r0, r0, r8
    1a24:	0000b91c 	andeq	fp, r0, ip, lsl r9
    1a28:	00070000 	andeq	r0, r7, r0
    1a2c:	002c1d00 	eoreq	r1, ip, r0, lsl #26
    1a30:	003f0000 	eorseq	r0, pc, r0
    1a34:	0000c01c 	andeq	ip, r0, ip, lsl r0
    1a38:	00071000 	andeq	r1, r7, r0
    1a3c:	002c1d00 	eoreq	r1, ip, r0, lsl #26
    1a40:	00040000 	andeq	r0, r4, r0
    1a44:	00070009 	andeq	r0, r7, r9
    1a48:	06641e00 	strbteq	r1, [r4], -r0, lsl #28
    1a4c:	38010000 	stmdacc	r1, {}	; <UNPREDICTABLE>
    1a50:	00055c0e 	andeq	r5, r5, lr, lsl #24
    1a54:	00864c00 	addeq	r4, r6, r0, lsl #24
    1a58:	00003800 	andeq	r3, r0, r0, lsl #16
    1a5c:	a29c0100 	addsge	r0, ip, #0
    1a60:	0e000007 	cdpeq	0, 0, cr0, cr0, cr7, {0}
    1a64:	00747364 	rsbseq	r7, r4, r4, ror #6
    1a68:	5c1c3801 	ldcpl	8, cr3, [ip], {1}
    1a6c:	b2000005 	andlt	r0, r0, #5, 0
    1a70:	a8000008 	stmdage	r0, {r3}
    1a74:	0e000008 	cdpeq	0, 0, cr0, cr0, cr8, {0}
    1a78:	3801006e 	stmdacc	r1, {r1, r2, r3, r5, r6}
    1a7c:	00002525 	andeq	r2, r0, r5, lsr #10
    1a80:	0008f900 	andeq	pc, r8, r0, lsl #18
    1a84:	0008f500 	andeq	pc, r8, r0, lsl #10
    1a88:	00700e00 	rsbseq	r0, r0, r0, lsl #28
    1a8c:	5c2e3801 	stcpl	8, cr3, [lr], #-4
    1a90:	22000005 	andcs	r0, r0, #5, 0
    1a94:	1a000009 	bne	1ac0 <__code_start__-0x6540>
    1a98:	1f000009 	svcne	0x00000009
    1a9c:	00000d03 	andeq	r0, r0, r3, lsl #26
    1aa0:	5c373801 	ldcpl	8, cr3, [r7], #-4
    1aa4:	5c000005 	stcpl	0, cr0, [r0], {5}
    1aa8:	58000009 	stmdapl	r0, {r0, r3}
    1aac:	10000009 	andne	r0, r0, r9
    1ab0:	006e656c 	rsbeq	r6, lr, ip, ror #10
    1ab4:	25063a01 	strcs	r3, [r6, #-2561]	; 0xfffff5ff
    1ab8:	82000000 	andhi	r0, r0, #0, 0
    1abc:	7a000009 	bvc	1ae8 <__code_start__-0x6518>
    1ac0:	10000009 	andne	r0, r0, r9
    1ac4:	3e010073 	mcrcc	0, 0, r0, cr1, cr3, {3}
    1ac8:	00055c08 	andeq	r5, r5, r8, lsl #24
    1acc:	0009d000 	andeq	sp, r9, r0
    1ad0:	0009ce00 	andeq	ip, r9, r0, lsl #28
    1ad4:	70210000 	eorvc	r0, r1, r0
    1ad8:	01006461 	tsteq	r0, r1, ror #8
    1adc:	055c0e2e 	ldrbeq	r0, [ip, #-3630]	; 0xfffff1d2
    1ae0:	86280000 	strthi	r0, [r8], -r0
    1ae4:	00240000 	eoreq	r0, r4, r0
    1ae8:	9c010000 	stcls	0, cr0, [r1], {-0}
    1aec:	00000805 	andeq	r0, r0, r5, lsl #16
    1af0:	0100700e 	tsteq	r0, lr
    1af4:	055c182e 	ldrbeq	r1, [ip, #-2094]	; 0xfffff7d2
    1af8:	09e90000 	stmibeq	r9!, {}^	; <UNPREDICTABLE>
    1afc:	09e30000 	stmibeq	r3!, {}^	; <UNPREDICTABLE>
    1b00:	a31f0000 	tstge	pc, #0, 0
    1b04:	01000001 	tsteq	r0, r1
    1b08:	055c222e 	ldrbeq	r2, [ip, #-558]	; 0xfffffdd2
    1b0c:	0a180000 	beq	601b14 <__bss_end__+0x5f7c3c>
    1b10:	0a140000 	beq	501b18 <__bss_end__+0x4f7c40>
    1b14:	ea0f0000 	b	3c1b1c <__bss_end__+0x3b7c44>
    1b18:	01000005 	tsteq	r0, r5
    1b1c:	00252c2e 	eoreq	r2, r5, lr, lsr #24
    1b20:	52010000 	andpl	r0, r1, #0, 0
    1b24:	6e656c10 	mcrvs	12, 3, r6, cr5, cr0, {0}
    1b28:	062f0100 	strteq	r0, [pc], -r0, lsl #2
    1b2c:	00000025 	andeq	r0, r0, r5, lsr #32
    1b30:	00000a3b 	andeq	r0, r0, fp, lsr sl
    1b34:	00000a39 	andeq	r0, r0, r9, lsr sl
    1b38:	05cb1e00 	strbeq	r1, [fp, #3584]	; 0xe00
    1b3c:	27010000 	strcs	r0, [r1, -r0]
    1b40:	0000250c 	andeq	r2, r0, ip, lsl #10
    1b44:	00861400 	addeq	r1, r6, r0, lsl #8
    1b48:	00001400 	andeq	r1, r0, r0, lsl #8
    1b4c:	329c0100 	addscc	r0, ip, #0
    1b50:	0e000008 	cdpeq	0, 0, cr0, cr0, cr8, {0}
    1b54:	27010063 	strcs	r0, [r1, -r3, rrx]
    1b58:	00002518 	andeq	r2, r0, r8, lsl r5
    1b5c:	000a5400 	andeq	r5, sl, r0, lsl #8
    1b60:	000a4e00 	andeq	r4, sl, r0, lsl #28
    1b64:	20220000 	eorcs	r0, r2, r0
    1b68:	01000006 	tsteq	r0, r6
    1b6c:	8838061f 	ldmdahi	r8!, {r0, r1, r2, r3, r4, r9, sl}
    1b70:	00640000 	rsbeq	r0, r4, r0
    1b74:	9c010000 	stcls	0, cr0, [r1], {-0}
    1b78:	000008c2 	andeq	r0, r0, r2, asr #17
    1b7c:	0005fd1f 	andeq	pc, r5, pc, lsl sp	; <UNPREDICTABLE>
    1b80:	1b1f0100 	blne	7c1f88 <__bss_end__+0x7b80b0>
    1b84:	0000009e 	muleq	r0, lr, r0
    1b88:	00000a86 	andeq	r0, r0, r6, lsl #21
    1b8c:	00000a82 	andeq	r0, r0, r2, lsl #21
    1b90:	00065c1f 	andeq	r5, r6, pc, lsl ip
    1b94:	301f0100 	andscc	r0, pc, r0, lsl #2
    1b98:	000000d1 	ldrdeq	r0, [r0], -r1
    1b9c:	00000aab 	andeq	r0, r0, fp, lsr #21
    1ba0:	00000aa7 	andeq	r0, r0, r7, lsr #21
    1ba4:	00041b13 	andeq	r1, r4, r3, lsl fp
    1ba8:	0008d200 	andeq	sp, r8, r0, lsl #4
    1bac:	ec030500 	cfstr32	mvfx0, [r3], {-0}
    1bb0:	18000098 	stmdane	r0, {r3, r4, r7}
    1bb4:	00008880 	andeq	r8, r0, r0, lsl #17
    1bb8:	000008ef 	andeq	r0, r0, pc, ror #17
    1bbc:	000008b8 			; <UNDEFINED> instruction: 0x000008b8
    1bc0:	05500119 	ldrbeq	r0, [r0, #-281]	; 0xfffffee7
    1bc4:	0097fc03 	addseq	pc, r7, r3, lsl #24
    1bc8:	51011900 	tstpl	r1, r0, lsl #18
    1bcc:	97e80305 	strbls	r0, [r8, r5, lsl #6]!
    1bd0:	01190000 	tsteq	r9, r0
    1bd4:	ec030552 	cfstr32	mvfx0, [r3], {82}	; 0x52
    1bd8:	19000098 	stmdbne	r0, {r3, r4, r7}
    1bdc:	08025301 	stmdaeq	r2, {r0, r8, r9, ip, lr}
    1be0:	7d021920 	vstrvc.16	s2, [r2, #-64]	; 0xffffffc0	; <UNPREDICTABLE>
    1be4:	38030500 	stmdacc	r3, {r8, sl}
    1be8:	00000098 	muleq	r0, r8, r0
    1bec:	0088841a 	addeq	r8, r8, sl, lsl r4
    1bf0:	0008fb00 	andeq	pc, r8, r0, lsl #22
    1bf4:	c01c0000 	andsgt	r0, ip, r0
    1bf8:	d2000000 	andle	r0, r0, #0, 0
    1bfc:	1d000008 	stcne	0, cr0, [r0, #-32]	; 0xffffffe0
    1c00:	0000002c 	andeq	r0, r0, ip, lsr #32
    1c04:	c209000e 	andgt	r0, r9, #14, 0
    1c08:	23000008 	movwcs	r0, #8
    1c0c:	0000068d 	andeq	r0, r0, sp, lsl #13
    1c10:	0000068d 	andeq	r0, r0, sp, lsl #13
    1c14:	2305d603 	movwcs	sp, #22019	; 0x5603
    1c18:	0000064a 	andeq	r0, r0, sl, asr #12
    1c1c:	0000064a 	andeq	r0, r0, sl, asr #12
    1c20:	2307d903 	movwcs	sp, #30979	; 0x7903
    1c24:	0000054c 	andeq	r0, r0, ip, asr #10
    1c28:	0000054c 	andeq	r0, r0, ip, asr #10
    1c2c:	23062803 	movwcs	r2, #26627	; 0x6803
    1c30:	00000111 	andeq	r0, r0, r1, lsl r1
    1c34:	00000111 	andeq	r0, r0, r1, lsl r1
    1c38:	00066703 	andeq	r6, r6, r3, lsl #14
    1c3c:	0000012f 	andeq	r0, r0, pc, lsr #2
    1c40:	08e20004 	stmiaeq	r2!, {r2}^
    1c44:	01040000 	mrseq	r0, (UNDEF: 4)
    1c48:	00000212 	andeq	r0, r0, r2, lsl r2
    1c4c:	0006b20c 	andeq	fp, r6, ip, lsl #4
    1c50:	00057f00 	andeq	r7, r5, r0, lsl #30
    1c54:	008c4000 	addeq	r4, ip, r0
    1c58:	00002c00 	andeq	r2, r0, r0, lsl #24
    1c5c:	000cc800 	andeq	ip, ip, r0, lsl #16
    1c60:	05040200 	streq	r0, [r4, #-512]	; 0xfffffe00
    1c64:	00746e69 	rsbseq	r6, r4, r9, ror #28
    1c68:	d3070403 	movwle	r0, #29699	; 0x7403
    1c6c:	03000001 	movweq	r0, #1
    1c70:	01aa0601 			; <UNDEFINED> instruction: 0x01aa0601
    1c74:	02030000 	andeq	r0, r3, #0, 0
    1c78:	00005305 	andeq	r5, r0, r5, lsl #6
    1c7c:	05040300 	streq	r0, [r4, #-768]	; 0xfffffd00
    1c80:	000000f9 	strdeq	r0, [r0], -r9
    1c84:	f4050803 	vst2.8	{d0-d1}, [r5], r3
    1c88:	03000000 	movweq	r0, #0
    1c8c:	01a80801 			; <UNDEFINED> instruction: 0x01a80801
    1c90:	02030000 	andeq	r0, r3, #0, 0
    1c94:	0001e807 	andeq	lr, r1, r7, lsl #16
    1c98:	07040300 	streq	r0, [r4, -r0, lsl #6]
    1c9c:	000001ce 	andeq	r0, r0, lr, asr #3
    1ca0:	c9070803 	stmdbgt	r7, {r0, r1, fp}
    1ca4:	04000001 	streq	r0, [r0], #-1
    1ca8:	00000025 	andeq	r0, r0, r5, lsr #32
    1cac:	0000007a 	andeq	r0, r0, sl, ror r0
    1cb0:	00002505 	andeq	r2, r0, r5, lsl #10
    1cb4:	68060000 	stmdavs	r6, {}	; <UNPREDICTABLE>
    1cb8:	02000000 	andeq	r0, r0, #0, 0
    1cbc:	00860e1c 	addeq	r0, r6, ip, lsl lr
    1cc0:	04070000 	streq	r0, [r7], #-0
    1cc4:	0000006b 	andeq	r0, r0, fp, rrx
    1cc8:	00002504 	andeq	r2, r0, r4, lsl #10
    1ccc:	00009b00 	andeq	r9, r0, r0, lsl #22
    1cd0:	009b0500 	addseq	r0, fp, r0, lsl #10
    1cd4:	07000000 	streq	r0, [r0, -r0]
    1cd8:	0000a804 	andeq	sl, r0, r4, lsl #16
    1cdc:	08010300 	stmdaeq	r1, {r8, r9}
    1ce0:	000001b1 			; <UNDEFINED> instruction: 0x000001b1
    1ce4:	0000a108 	andeq	sl, r0, r8, lsl #2
    1ce8:	05ba0600 	ldreq	r0, [sl, #1536]!	; 0x600
    1cec:	21020000 	mrscs	r0, (UNDEF: 2)
    1cf0:	0000b90e 	andeq	fp, r0, lr, lsl #18
    1cf4:	8c040700 	stchi	7, cr0, [r4], {-0}
    1cf8:	09000000 	stmdbeq	r0, {}	; <UNPREDICTABLE>
    1cfc:	00000111 	andeq	r0, r0, r1, lsl r1
    1d00:	40060401 	andmi	r0, r6, r1, lsl #8
    1d04:	2c00008c 	stccs	0, cr0, [r0], {140}	; 0x8c
    1d08:	01000000 	mrseq	r0, (UNDEF: 0)
    1d0c:	00010e9c 	muleq	r1, ip, lr
    1d10:	8c540a00 	mrrchi	10, 0, r0, r4, cr0
    1d14:	00e80000 	rsceq	r0, r8, r0
    1d18:	010b0000 	mrseq	r0, (UNDEF: 11)
    1d1c:	08030550 	stmdaeq	r3, {r4, r6, r8, sl}
    1d20:	00000099 	muleq	r0, r9, r0
    1d24:	008c580c 	addeq	r5, ip, ip, lsl #16
    1d28:	00010e00 	andeq	r0, r1, r0, lsl #28
    1d2c:	8c600d00 	stclhi	13, cr0, [r0], #-0
    1d30:	011a0000 	tsteq	sl, r0
    1d34:	01040000 	mrseq	r0, (UNDEF: 4)
    1d38:	010b0000 	mrseq	r0, (UNDEF: 11)
    1d3c:	003a0150 	eorseq	r0, sl, r0, asr r1
    1d40:	008c640c 	addeq	r6, ip, ip, lsl #8
    1d44:	00012600 	andeq	r2, r1, r0, lsl #12
    1d48:	cb0e0000 	blgt	381d50 <__bss_end__+0x377e78>
    1d4c:	cb000006 	blgt	1d6c <__code_start__-0x6294>
    1d50:	02000006 	andeq	r0, r0, #6, 0
    1d54:	a90e0646 	stmdbge	lr, {r1, r2, r6, r9, sl}
    1d58:	a9000006 	stmdbge	r0, {r1, r2}
    1d5c:	02000006 	andeq	r0, r0, #6, 0
    1d60:	9e0e0651 	mcrls	6, 0, r0, cr14, cr1, {2}
    1d64:	9e000006 	cdpls	0, 0, cr0, cr0, cr6, {0}
    1d68:	02000006 	andeq	r0, r0, #6, 0
    1d6c:	59000664 	stmdbpl	r0, {r2, r5, r6, r9, sl}
    1d70:	04000001 	streq	r0, [r0], #-1
    1d74:	0009a200 	andeq	sl, r9, r0, lsl #4
    1d78:	12010400 	andne	r0, r1, #0, 8
    1d7c:	0c000002 	stceq	0, cr0, [r0], {2}
    1d80:	000006f7 	strdeq	r0, [r0], -r7
    1d84:	0000057f 	andeq	r0, r0, pc, ror r5
    1d88:	00008c6c 	andeq	r8, r0, ip, ror #24
    1d8c:	00000030 	andeq	r0, r0, r0, lsr r0
    1d90:	00000d59 	andeq	r0, r0, r9, asr sp
    1d94:	69050402 	stmdbvs	r5, {r1, sl}
    1d98:	0300746e 	movweq	r7, #1134	; 0x46e
    1d9c:	01d30704 	bicseq	r0, r3, r4, lsl #14
    1da0:	01030000 	mrseq	r0, (UNDEF: 3)
    1da4:	0001aa06 	andeq	sl, r1, r6, lsl #20
    1da8:	05020300 	streq	r0, [r2, #-768]	; 0xfffffd00
    1dac:	00000053 	andeq	r0, r0, r3, asr r0
    1db0:	f9050403 			; <UNDEFINED> instruction: 0xf9050403
    1db4:	03000000 	movweq	r0, #0
    1db8:	00f40508 	rscseq	r0, r4, r8, lsl #10
    1dbc:	01030000 	mrseq	r0, (UNDEF: 3)
    1dc0:	0001a808 	andeq	sl, r1, r8, lsl #16
    1dc4:	07020300 	streq	r0, [r2, -r0, lsl #6]
    1dc8:	000001e8 	andeq	r0, r0, r8, ror #3
    1dcc:	ce070403 	cdpgt	4, 0, cr0, cr7, cr3, {0}
    1dd0:	03000001 	movweq	r0, #1
    1dd4:	01c90708 	biceq	r0, r9, r8, lsl #14
    1dd8:	25040000 	strcs	r0, [r4, #-0]
    1ddc:	7a000000 	bvc	1de4 <__code_start__-0x621c>
    1de0:	05000000 	streq	r0, [r0, #-0]
    1de4:	00000025 	andeq	r0, r0, r5, lsr #32
    1de8:	00680600 	rsbeq	r0, r8, r0, lsl #12
    1dec:	1c020000 	stcne	0, cr0, [r2], {-0}
    1df0:	0000860e 	andeq	r8, r0, lr, lsl #12
    1df4:	6b040700 	blvs	1039fc <__bss_end__+0xf9b24>
    1df8:	04000000 	streq	r0, [r0], #-0
    1dfc:	00000025 	andeq	r0, r0, r5, lsr #32
    1e00:	0000009b 	muleq	r0, fp, r0
    1e04:	00009b05 	andeq	r9, r0, r5, lsl #22
    1e08:	04070000 	streq	r0, [r7], #-0
    1e0c:	000000a8 	andeq	r0, r0, r8, lsr #1
    1e10:	b1080103 	tstlt	r8, r3, lsl #2
    1e14:	08000001 	stmdaeq	r0, {r0}
    1e18:	000000a1 	andeq	r0, r0, r1, lsr #1
    1e1c:	0005ba06 	andeq	fp, r5, r6, lsl #20
    1e20:	0e210200 	cdpeq	2, 2, cr0, cr1, cr0, {0}
    1e24:	000000b9 	strheq	r0, [r0], -r9
    1e28:	008c0407 	addeq	r0, ip, r7, lsl #8
    1e2c:	d9090000 	stmdble	r9, {}	; <UNPREDICTABLE>
    1e30:	01000006 	tsteq	r0, r6
    1e34:	8c6c0603 	stclhi	6, cr0, [ip], #-12
    1e38:	00300000 	eorseq	r0, r0, r0
    1e3c:	9c010000 	stcls	0, cr0, [r1], {-0}
    1e40:	00000131 	andeq	r0, r0, r1, lsr r1
    1e44:	0005dc06 	andeq	sp, r5, r6, lsl #24
    1e48:	10040100 	andne	r0, r4, r0, lsl #2
    1e4c:	00000025 	andeq	r0, r0, r5, lsr #32
    1e50:	00060506 	andeq	r0, r6, r6, lsl #10
    1e54:	1f040100 	svcne	0x00040100
    1e58:	00000025 	andeq	r0, r0, r5, lsr #32
    1e5c:	0001e00a 	andeq	lr, r1, sl
    1e60:	07050100 	streq	r0, [r5, -r0, lsl #2]
    1e64:	7373620b 	cmnvc	r3, #-1342177280	; 0xb0000000
    1e68:	0a090100 	beq	242270 <__bss_end__+0x238398>
    1e6c:	00000131 	andeq	r0, r0, r1, lsr r1
    1e70:	00000ad2 	ldrdeq	r0, [r0], -r2
    1e74:	00000acc 	andeq	r0, r0, ip, asr #21
    1e78:	0006e10c 	andeq	lr, r6, ip, lsl #2
    1e7c:	0a0a0100 	beq	282284 <__bss_end__+0x2783ac>
    1e80:	00000131 	andeq	r0, r0, r1, lsr r1
    1e84:	008c740d 	addeq	r7, ip, sp, lsl #8
    1e88:	00013700 	andeq	r3, r1, r0, lsl #14
    1e8c:	8c900d00 	ldchi	13, cr0, [r0], {0}
    1e90:	01440000 	mrseq	r0, (UNDEF: 68)
    1e94:	940d0000 	strls	r0, [sp], #-0
    1e98:	5000008c 	andpl	r0, r0, ip, lsl #1
    1e9c:	00000001 	andeq	r0, r0, r1
    1ea0:	00250407 	eoreq	r0, r5, r7, lsl #8
    1ea4:	e90e0000 	stmdb	lr, {}	; <UNPREDICTABLE>
    1ea8:	e9000006 	stmdb	r0, {r1, r2}
    1eac:	02000006 	andeq	r0, r0, #6, 0
    1eb0:	0f060117 	svceq	0x00060117
    1eb4:	000001e0 	andeq	r0, r0, r0, ror #3
    1eb8:	000001e0 	andeq	r0, r0, r0, ror #3
    1ebc:	0f06eb02 	svceq	0x0006eb02
    1ec0:	00000111 	andeq	r0, r0, r1, lsl r1
    1ec4:	00000111 	andeq	r0, r0, r1, lsl r1
    1ec8:	00066702 	andeq	r6, r6, r2, lsl #14
    1ecc:	000000ce 	andeq	r0, r0, lr, asr #1
    1ed0:	0a820004 	beq	fe081ee8 <__bss_end__+0xfe078010>
    1ed4:	01040000 	mrseq	r0, (UNDEF: 4)
    1ed8:	00000212 	andeq	r0, r0, r2, lsl r2
    1edc:	00070a0c 	andeq	r0, r7, ip, lsl #20
    1ee0:	00057f00 	andeq	r7, r5, r0, lsl #30
    1ee4:	008c9c00 	addeq	r9, ip, r0, lsl #24
    1ee8:	00000400 	andeq	r0, r0, r0, lsl #8
    1eec:	000dff00 	andeq	pc, sp, r0, lsl #30
    1ef0:	05040200 	streq	r0, [r4, #-512]	; 0xfffffe00
    1ef4:	00746e69 	rsbseq	r6, r4, r9, ror #28
    1ef8:	d3070403 	movwle	r0, #29699	; 0x7403
    1efc:	03000001 	movweq	r0, #1
    1f00:	01aa0601 			; <UNDEFINED> instruction: 0x01aa0601
    1f04:	02030000 	andeq	r0, r3, #0, 0
    1f08:	00005305 	andeq	r5, r0, r5, lsl #6
    1f0c:	05040300 	streq	r0, [r4, #-768]	; 0xfffffd00
    1f10:	000000f9 	strdeq	r0, [r0], -r9
    1f14:	f4050803 	vst2.8	{d0-d1}, [r5], r3
    1f18:	03000000 	movweq	r0, #0
    1f1c:	01a80801 			; <UNDEFINED> instruction: 0x01a80801
    1f20:	02030000 	andeq	r0, r3, #0, 0
    1f24:	0001e807 	andeq	lr, r1, r7, lsl #16
    1f28:	07040300 	streq	r0, [r4, -r0, lsl #6]
    1f2c:	000001ce 	andeq	r0, r0, lr, asr #3
    1f30:	c9070803 	stmdbgt	r7, {r0, r1, fp}
    1f34:	04000001 	streq	r0, [r0], #-1
    1f38:	00000025 	andeq	r0, r0, r5, lsr #32
    1f3c:	0000007a 	andeq	r0, r0, sl, ror r0
    1f40:	00002505 	andeq	r2, r0, r5, lsl #10
    1f44:	68060000 	stmdavs	r6, {}	; <UNPREDICTABLE>
    1f48:	02000000 	andeq	r0, r0, #0, 0
    1f4c:	00860e1c 	addeq	r0, r6, ip, lsl lr
    1f50:	04070000 	streq	r0, [r7], #-0
    1f54:	0000006b 	andeq	r0, r0, fp, rrx
    1f58:	00002504 	andeq	r2, r0, r4, lsl #10
    1f5c:	00009b00 	andeq	r9, r0, r0, lsl #22
    1f60:	009b0500 	addseq	r0, fp, r0, lsl #10
    1f64:	07000000 	streq	r0, [r0, -r0]
    1f68:	0000a804 	andeq	sl, r0, r4, lsl #16
    1f6c:	08010300 	stmdaeq	r1, {r8, r9}
    1f70:	000001b1 			; <UNDEFINED> instruction: 0x000001b1
    1f74:	0000a108 	andeq	sl, r0, r8, lsl #2
    1f78:	05ba0600 	ldreq	r0, [sl, #1536]!	; 0x600
    1f7c:	21020000 	mrscs	r0, (UNDEF: 2)
    1f80:	0000b90e 	andeq	fp, r0, lr, lsl #18
    1f84:	8c040700 	stchi	7, cr0, [r4], {-0}
    1f88:	09000000 	stmdbeq	r0, {}	; <UNPREDICTABLE>
    1f8c:	000006e9 	andeq	r0, r0, r9, ror #13
    1f90:	9c060401 	cfstrsls	mvf0, [r6], {1}
    1f94:	0400008c 	streq	r0, [r0], #-140	; 0xffffff74
    1f98:	01000000 	mrseq	r0, (UNDEF: 0)
    1f9c:	0220009c 	eoreq	r0, r0, #156, 0	; 0x9c
    1fa0:	00040000 	andeq	r0, r4, r0
    1fa4:	00000afb 	strdeq	r0, [r0], -fp
    1fa8:	02120104 	andseq	r0, r2, #1
    1fac:	550c0000 	strpl	r0, [ip, #-0]
    1fb0:	7f000007 	svcvc	0x00000007
    1fb4:	18000005 	stmdane	r0, {r0, r2}
    1fb8:	00000000 	andeq	r0, r0, r0
    1fbc:	8e000000 	cdphi	0, 0, cr0, cr0, cr0, {0}
    1fc0:	0200000e 	andeq	r0, r0, #14, 0
    1fc4:	6e690504 	cdpvs	5, 6, cr0, cr9, cr4, {0}
    1fc8:	25030074 	strcs	r0, [r3, #-116]	; 0xffffff8c
    1fcc:	04000000 	streq	r0, [r0], #-0
    1fd0:	01d30704 	bicseq	r0, r3, r4, lsl #14
    1fd4:	01040000 	mrseq	r0, (UNDEF: 4)
    1fd8:	0001aa06 	andeq	sl, r1, r6, lsl #20
    1fdc:	05020400 	streq	r0, [r2, #-1024]	; 0xfffffc00
    1fe0:	00000053 	andeq	r0, r0, r3, asr r0
    1fe4:	f9050404 			; <UNDEFINED> instruction: 0xf9050404
    1fe8:	04000000 	streq	r0, [r0], #-0
    1fec:	00f40508 	rscseq	r0, r4, r8, lsl #10
    1ff0:	01040000 	mrseq	r0, (UNDEF: 4)
    1ff4:	0001a808 	andeq	sl, r1, r8, lsl #16
    1ff8:	07020400 	streq	r0, [r2, -r0, lsl #8]
    1ffc:	000001e8 	andeq	r0, r0, r8, ror #3
    2000:	ce070404 	cdpgt	4, 0, cr0, cr7, cr4, {0}
    2004:	04000001 	streq	r0, [r0], #-1
    2008:	01c90708 	biceq	r0, r9, r8, lsl #14
    200c:	25050000 	strcs	r0, [r5, #-0]
    2010:	7f000000 	svcvc	0x00000000
    2014:	06000000 	streq	r0, [r0], -r0
    2018:	00000025 	andeq	r0, r0, r5, lsr #32
    201c:	00680700 	rsbeq	r0, r8, r0, lsl #14
    2020:	1c020000 	stcne	0, cr0, [r2], {-0}
    2024:	00008b0e 	andeq	r8, r0, lr, lsl #22
    2028:	70040800 	andvc	r0, r4, r0, lsl #16
    202c:	05000000 	streq	r0, [r0, #-0]
    2030:	00000025 	andeq	r0, r0, r5, lsr #32
    2034:	000000a0 	andeq	r0, r0, r0, lsr #1
    2038:	0000a006 	andeq	sl, r0, r6
    203c:	04080000 	streq	r0, [r8], #-0
    2040:	000000ad 	andeq	r0, r0, sp, lsr #1
    2044:	b1080104 	tstlt	r8, r4, lsl #2
    2048:	03000001 	movweq	r0, #1
    204c:	000000a6 	andeq	r0, r0, r6, lsr #1
    2050:	0005ba07 	andeq	fp, r5, r7, lsl #20
    2054:	0e210200 	cdpeq	2, 2, cr0, cr1, cr0, {0}
    2058:	000000be 	strheq	r0, [r0], -lr
    205c:	00910408 	addseq	r0, r1, r8, lsl #8
    2060:	4a090000 	bmi	242068 <__bss_end__+0x238190>
    2064:	01000007 	tsteq	r0, r7
    2068:	0031110d 	eorseq	r1, r1, sp, lsl #2
    206c:	9e0a0000 	cdpls	0, 0, cr0, cr10, cr0, {0}
    2070:	01000006 	tsteq	r0, r6
    2074:	8ccc061f 	stclhi	6, cr0, [ip], {31}
    2078:	00500000 	subseq	r0, r0, r0
    207c:	9c010000 	stcls	0, cr0, [r1], {-0}
    2080:	000001a5 	andeq	r0, r0, r5, lsr #3
    2084:	0007680b 	andeq	r6, r7, fp, lsl #16
    2088:	0f2f0100 	svceq	0x002f0100
    208c:	0000002c 	andeq	r0, r0, ip, lsr #32
    2090:	00000aff 	strdeq	r0, [r0], -pc	; <UNPREDICTABLE>
    2094:	00000afd 	strdeq	r0, [r0], -sp
    2098:	0007240b 	andeq	r2, r7, fp, lsl #8
    209c:	0f300100 	svceq	0x00300100
    20a0:	0000002c 	andeq	r0, r0, ip, lsr #32
    20a4:	00000b19 	andeq	r0, r0, r9, lsl fp
    20a8:	00000b17 	andeq	r0, r0, r7, lsl fp
    20ac:	00073b0b 	andeq	r3, r7, fp, lsl #22
    20b0:	0f310100 	svceq	0x00310100
    20b4:	0000002c 	andeq	r0, r0, ip, lsr #32
    20b8:	00000b33 	andeq	r0, r0, r3, lsr fp
    20bc:	00000b31 	andeq	r0, r0, r1, lsr fp
    20c0:	0007750b 	andeq	r7, r7, fp, lsl #10
    20c4:	0f320100 	svceq	0x00320100
    20c8:	0000002c 	andeq	r0, r0, ip, lsr #32
    20cc:	00000b4c 	andeq	r0, r0, ip, asr #22
    20d0:	00000b4a 	andeq	r0, r0, sl, asr #22
    20d4:	008cd40c 	addeq	sp, ip, ip, lsl #8
    20d8:	0001d000 	andeq	sp, r1, r0
    20dc:	8ce00c00 	stclhi	12, cr0, [r0]
    20e0:	01ff0000 	mvnseq	r0, r0
    20e4:	e80d0000 	stmda	sp, {}	; <UNPREDICTABLE>
    20e8:	0b00008c 	bleq	2320 <__code_start__-0x5ce0>
    20ec:	5b000002 	blpl	20fc <__code_start__-0x5f04>
    20f0:	0e000001 	cdpeq	0, 0, cr0, cr0, cr1, {0}
    20f4:	3a015001 	bcc	56100 <__bss_end__+0x4c228>
    20f8:	8cf40d00 	ldclhi	13, cr0, [r4]
    20fc:	02170000 	andseq	r0, r7, #0, 0
    2100:	017b0000 	cmneq	fp, r0
    2104:	010e0000 	mrseq	r0, (UNDEF: 14)
    2108:	240c0550 	strcs	r0, [ip], #-1360	; 0xfffffab0
    210c:	0e201000 	cdpeq	0, 2, cr1, cr0, cr0, {0}
    2110:	0c055101 	stfeqs	f5, [r5], {1}
    2114:	5a000001 	bpl	2120 <__code_start__-0x5ee0>
    2118:	8d000d00 	stchi	13, cr0, [r0, #-0]
    211c:	02170000 	andseq	r0, r7, #0, 0
    2120:	019b0000 	orrseq	r0, fp, r0
    2124:	010e0000 	mrseq	r0, (UNDEF: 14)
    2128:	1c0c0550 	cfstr32ne	mvfx0, [ip], {80}	; 0x50
    212c:	0e201000 	cdpeq	0, 2, cr1, cr0, cr0, {0}
    2130:	0c055101 	stfeqs	f5, [r5], {1}
    2134:	5a000020 	bpl	21bc <__code_start__-0x5e44>
    2138:	8d080c00 	stchi	12, cr0, [r8, #-0]
    213c:	01a50000 			; <UNDEFINED> instruction: 0x01a50000
    2140:	0f000000 	svceq	0x00000000
    2144:	0000072c 	andeq	r0, r0, ip, lsr #14
    2148:	b8061701 	stmdalt	r6, {r0, r8, r9, sl, ip}
    214c:	1400008c 	strne	r0, [r0], #-140	; 0xffffff74
    2150:	01000000 	mrseq	r0, (UNDEF: 0)
    2154:	0001d09c 	muleq	r1, ip, r0
    2158:	07700b00 	ldrbeq	r0, [r0, -r0, lsl #22]!
    215c:	18010000 	stmdane	r1, {}	; <UNPREDICTABLE>
    2160:	0000310e 	andeq	r3, r0, lr, lsl #2
    2164:	000b6700 	andeq	r6, fp, r0, lsl #14
    2168:	000b6100 	andeq	r6, fp, r0, lsl #2
    216c:	47100000 	ldrmi	r0, [r0, -r0]
    2170:	01000007 	tsteq	r0, r7
    2174:	0025050e 	eoreq	r0, r5, lr, lsl #10
    2178:	8ca00000 	stchi	0, cr0, [r0]
    217c:	00180000 	andseq	r0, r8, r0
    2180:	9c010000 	stcls	0, cr0, [r1], {-0}
    2184:	000001ff 	strdeq	r0, [r0], -pc	; <UNPREDICTABLE>
    2188:	0007700b 	andeq	r7, r7, fp
    218c:	0e0f0100 	adfeqe	f0, f7, f0
    2190:	00000031 	andeq	r0, r0, r1, lsr r0
    2194:	00000b95 	muleq	r0, r5, fp
    2198:	00000b91 	muleq	r0, r1, fp
    219c:	06cb1100 	strbeq	r1, [fp], r0, lsl #2
    21a0:	06cb0000 	strbeq	r0, [fp], r0
    21a4:	46020000 	strmi	r0, [r2], -r0
    21a8:	06a91106 	strteq	r1, [r9], r6, lsl #2
    21ac:	06a90000 	strteq	r0, [r9], r0
    21b0:	51020000 	mrspl	r0, (UNDEF: 2)
    21b4:	008c1106 	addeq	r1, ip, r6, lsl #2
    21b8:	008c0000 	addeq	r0, ip, r0
    21bc:	a1020000 	mrsge	r0, (UNDEF: 2)
    21c0:	02780006 	rsbseq	r0, r8, #6, 0
    21c4:	00040000 	andeq	r0, r4, r0
    21c8:	00000c0d 	andeq	r0, r0, sp, lsl #24
    21cc:	02120104 	andseq	r0, r2, #1
    21d0:	c70c0000 	strgt	r0, [ip, -r0]
    21d4:	7f000007 	svcvc	0x00000007
    21d8:	1c000005 	stcne	0, cr0, [r0], {5}
    21dc:	9c00008d 	stcls	0, cr0, [r0], {141}	; 0x8d
    21e0:	6e000000 	cdpvs	0, 0, cr0, cr0, cr0, {0}
    21e4:	0200000f 	andeq	r0, r0, #15, 0
    21e8:	6e690504 	cdpvs	5, 6, cr0, cr9, cr4, {0}
    21ec:	04030074 	streq	r0, [r3], #-116	; 0xffffff8c
    21f0:	0001d307 	andeq	sp, r1, r7, lsl #6
    21f4:	06010300 	streq	r0, [r1], -r0, lsl #6
    21f8:	000001aa 	andeq	r0, r0, sl, lsr #3
    21fc:	53050203 	movwpl	r0, #20995	; 0x5203
    2200:	03000000 	movweq	r0, #0
    2204:	00f90504 	rscseq	r0, r9, r4, lsl #10
    2208:	08030000 	stmdaeq	r3, {}	; <UNPREDICTABLE>
    220c:	0000f405 	andeq	pc, r0, r5, lsl #8
    2210:	08010300 	stmdaeq	r1, {r8, r9}
    2214:	000001a8 	andeq	r0, r0, r8, lsr #3
    2218:	e8070203 	stmda	r7, {r0, r1, r9}
    221c:	03000001 	movweq	r0, #1
    2220:	01ce0704 	biceq	r0, lr, r4, lsl #14
    2224:	08030000 	stmdaeq	r3, {}	; <UNPREDICTABLE>
    2228:	0001c907 	andeq	ip, r1, r7, lsl #18
    222c:	00250400 	eoreq	r0, r5, r0, lsl #8
    2230:	007a0000 	rsbseq	r0, sl, r0
    2234:	25050000 	strcs	r0, [r5, #-0]
    2238:	00000000 	andeq	r0, r0, r0
    223c:	00006806 	andeq	r6, r0, r6, lsl #16
    2240:	0e1c0200 	cdpeq	2, 1, cr0, cr12, cr0, {0}
    2244:	00000086 	andeq	r0, r0, r6, lsl #1
    2248:	006b0407 	rsbeq	r0, fp, r7, lsl #8
    224c:	25040000 	strcs	r0, [r4, #-0]
    2250:	9b000000 	blls	2258 <__code_start__-0x5da8>
    2254:	05000000 	streq	r0, [r0, #-0]
    2258:	0000009b 	muleq	r0, fp, r0
    225c:	a8040700 	stmdage	r4, {r8, r9, sl}
    2260:	03000000 	movweq	r0, #0
    2264:	01b10801 			; <UNDEFINED> instruction: 0x01b10801
    2268:	a1080000 	mrsge	r0, (UNDEF: 8)
    226c:	06000000 	streq	r0, [r0], -r0
    2270:	000005ba 			; <UNDEFINED> instruction: 0x000005ba
    2274:	b90e2102 	stmdblt	lr, {r1, r8, sp}
    2278:	07000000 	streq	r0, [r0, -r0]
    227c:	00008c04 	andeq	r8, r0, r4, lsl #24
    2280:	07a10900 	streq	r0, [r1, r0, lsl #18]!
    2284:	2b010000 	blcs	4228c <__bss_end__+0x383b4>
    2288:	008da006 	addeq	sl, sp, r6
    228c:	00001800 	andeq	r1, r0, r0, lsl #16
    2290:	099c0100 	ldmibeq	ip, {r8}
    2294:	0a000001 	beq	22a0 <__code_start__-0x5d60>
    2298:	00636573 	rsbeq	r6, r3, r3, ror r5
    229c:	2c192b01 			; <UNDEFINED> instruction: 0x2c192b01
    22a0:	b8000000 	stmdalt	r0, {}	; <UNPREDICTABLE>
    22a4:	b400000b 	strlt	r0, [r0], #-11
    22a8:	0b00000b 	bleq	22dc <__code_start__-0x5d24>
    22ac:	00008db4 			; <UNDEFINED> instruction: 0x00008db4
    22b0:	00000109 	andeq	r0, r0, r9, lsl #2
    22b4:	1150010c 	cmpne	r0, ip, lsl #2
    22b8:	355001f3 	ldrbcc	r0, [r0, #-499]	; 0xfffffe0d
    22bc:	5001f324 	andpl	pc, r1, r4, lsr #6
    22c0:	f324321c 	vqsub.u32	d3, d4, d12
    22c4:	33225001 			; <UNDEFINED> instruction: 0x33225001
    22c8:	09000024 	stmdbeq	r0, {r2, r5}
    22cc:	000006a9 	andeq	r0, r0, r9, lsr #13
    22d0:	88062801 	stmdahi	r6, {r0, fp, sp}
    22d4:	1800008d 	stmdane	r0, {r0, r2, r3, r7}
    22d8:	01000000 	mrseq	r0, (UNDEF: 0)
    22dc:	0001529c 	muleq	r1, ip, r2
    22e0:	736d0a00 	cmnvc	sp, #0, 20
    22e4:	18280100 	stmdane	r8!, {r8}
    22e8:	0000002c 	andeq	r0, r0, ip, lsr #32
    22ec:	00000bdd 	ldrdeq	r0, [r0], -sp
    22f0:	00000bd9 	ldrdeq	r0, [r0], -r9
    22f4:	008d9c0b 	addeq	r9, sp, fp, lsl #24
    22f8:	00015200 	andeq	r5, r1, r0, lsl #4
    22fc:	50010c00 	andpl	r0, r1, r0, lsl #24
    2300:	5001f311 	andpl	pc, r1, r1, lsl r3	; <UNPREDICTABLE>
    2304:	01f32435 	mvnseq	r2, r5, lsr r4
    2308:	24321c50 	ldrtcs	r1, [r2], #-3152	; 0xfffff3b0
    230c:	225001f3 	subscs	r0, r0, #-1073741764	; 0xc000003c
    2310:	00002433 	andeq	r2, r0, r3, lsr r4
    2314:	0007ab09 	andeq	sl, r7, r9, lsl #22
    2318:	061f0100 	ldreq	r0, [pc], -r0, lsl #2
    231c:	00008d64 	andeq	r8, r0, r4, ror #26
    2320:	00000024 	andeq	r0, r0, r4, lsr #32
    2324:	01c29c01 	biceq	r9, r2, r1, lsl #24
    2328:	750a0000 	strvc	r0, [sl, #-0]
    232c:	1f010073 	svcne	0x00010073
    2330:	00002c18 	andeq	r2, r0, r8, lsl ip
    2334:	000c0200 	andeq	r0, ip, r0, lsl #4
    2338:	000bfe00 	andeq	pc, fp, r0, lsl #28
    233c:	62720d00 	rsbsvs	r0, r2, #0, 26
    2340:	0e200100 	sufeqs	f0, f0, f0
    2344:	0000002c 	andeq	r0, r0, ip, lsr #32
    2348:	00000c22 	andeq	r0, r0, r2, lsr #24
    234c:	00000c20 	andeq	r0, r0, r0, lsr #24
    2350:	008d740e 	addeq	r7, sp, lr, lsl #8
    2354:	00001400 	andeq	r1, r0, r0, lsl #8
    2358:	0001b800 	andeq	fp, r1, r0, lsl #16
    235c:	61720d00 	cmnvs	r2, r0, lsl #26
    2360:	12220100 	eorne	r0, r2, #0
    2364:	0000002c 	andeq	r0, r0, ip, lsr #32
    2368:	00000c37 	andeq	r0, r0, r7, lsr ip
    236c:	00000c35 	andeq	r0, r0, r5, lsr ip
    2370:	008d780f 	addeq	r7, sp, pc, lsl #16
    2374:	0001c200 	andeq	ip, r1, r0, lsl #4
    2378:	700f0000 	andvc	r0, pc, r0
    237c:	c200008d 	andgt	r0, r0, #141, 0	; 0x8d
    2380:	00000001 	andeq	r0, r0, r1
    2384:	00039c10 	andeq	r9, r3, r0, lsl ip
    2388:	0a160100 	beq	582790 <__bss_end__+0x5788b8>
    238c:	0000002c 	andeq	r0, r0, ip, lsr #32
    2390:	00008d48 	andeq	r8, r0, r8, asr #26
    2394:	0000001c 	andeq	r0, r0, ip, lsl r0
    2398:	020a9c01 	andeq	r9, sl, #256	; 0x100
    239c:	750d0000 	strvc	r0, [sp, #-0]
    23a0:	0e1a0100 	mufeqe	f0, f2, f0
    23a4:	0000002c 	andeq	r0, r0, ip, lsr #32
    23a8:	00000c4e 	andeq	r0, r0, lr, asr #24
    23ac:	00000c4a 	andeq	r0, r0, sl, asr #24
    23b0:	008d500f 	addeq	r5, sp, pc
    23b4:	00026300 	andeq	r6, r2, r0, lsl #6
    23b8:	8d540f00 	ldclhi	15, cr0, [r4, #-0]
    23bc:	020a0000 	andeq	r0, sl, #0, 0
    23c0:	5c0f0000 	stcpl	0, cr0, [pc], {-0}
    23c4:	6300008d 	movwvs	r0, #141	; 0x8d
    23c8:	00000002 	andeq	r0, r0, r2
    23cc:	0007b410 	andeq	fp, r7, r0, lsl r4
    23d0:	0a110100 	beq	4427d8 <__bss_end__+0x438900>
    23d4:	0000002c 	andeq	r0, r0, ip, lsr #32
    23d8:	00008d34 	andeq	r8, r0, r4, lsr sp
    23dc:	00000014 	andeq	r0, r0, r4, lsl r0
    23e0:	02389c01 	eorseq	r9, r8, #256	; 0x100
    23e4:	400b0000 	andmi	r0, fp, r0
    23e8:	6f00008d 	svcvs	0x0000008d
    23ec:	0c000002 	stceq	0, cr0, [r0], {2}
    23f0:	0c055001 	stceq	0, cr5, [r5], {1}
    23f4:	20003004 	andcs	r3, r0, r4
    23f8:	8e090000 	cdphi	0, 0, cr0, cr9, cr0, {0}
    23fc:	01000007 	tsteq	r0, r7
    2400:	8d1c0605 	ldchi	6, cr0, [ip, #-20]	; 0xffffffec
    2404:	00180000 	andseq	r0, r8, r0
    2408:	9c010000 	stcls	0, cr0, [r1], {-0}
    240c:	00000263 	andeq	r0, r0, r3, ror #4
    2410:	00079b11 	andeq	r9, r7, r1, lsl fp
    2414:	1c050100 	stfnes	f0, [r5], {-0}
    2418:	0000002c 	andeq	r0, r0, ip, lsr #32
    241c:	00000c70 	andeq	r0, r0, r0, ror ip
    2420:	00000c6c 	andeq	r0, r0, ip, ror #24
    2424:	02f11200 	rscseq	r1, r1, #0, 4
    2428:	02f10000 	rscseq	r0, r1, #0, 0
    242c:	90020000 	andls	r0, r2, r0
    2430:	020c1206 	andeq	r1, ip, #1610612736	; 0x60000000
    2434:	020c0000 	andeq	r0, ip, #0, 0
    2438:	ad020000 	stcge	0, cr0, [r2, #-0]
    243c:	099e000a 	ldmibeq	lr, {r1, r3}
    2440:	00040000 	andeq	r0, r4, r0
    2444:	00000d22 	andeq	r0, r0, r2, lsr #26
    2448:	02120104 	andseq	r0, r2, #1
    244c:	130c0000 	movwne	r0, #49152	; 0xc000
    2450:	7f000008 	svcvc	0x00000008
    2454:	d0000005 	andle	r0, r0, r5
    2458:	cc00008d 	stcgt	0, cr0, [r0], {141}	; 0x8d
    245c:	6f000002 	svcvs	0x00000002
    2460:	02000010 	andeq	r0, r0, #16, 0
    2464:	6e690504 	cdpvs	5, 6, cr0, cr9, cr4, {0}
    2468:	04030074 	streq	r0, [r3], #-116	; 0xffffff8c
    246c:	0001d307 	andeq	sp, r1, r7, lsl #6
    2470:	002c0400 	eoreq	r0, ip, r0, lsl #8
    2474:	01030000 	mrseq	r0, (UNDEF: 3)
    2478:	0001aa06 	andeq	sl, r1, r6, lsl #20
    247c:	05020300 	streq	r0, [r2, #-768]	; 0xfffffd00
    2480:	00000053 	andeq	r0, r0, r3, asr r0
    2484:	f9050403 			; <UNDEFINED> instruction: 0xf9050403
    2488:	03000000 	movweq	r0, #0
    248c:	00f40508 	rscseq	r0, r4, r8, lsl #10
    2490:	2d050000 	stccs	0, cr0, [r5, #-0]
    2494:	03000009 	movweq	r0, #9
    2498:	0060182e 	rsbeq	r1, r0, lr, lsr #16
    249c:	01030000 	mrseq	r0, (UNDEF: 3)
    24a0:	0001a808 	andeq	sl, r1, r8, lsl #16
    24a4:	07020300 	streq	r0, [r2, -r0, lsl #6]
    24a8:	000001e8 	andeq	r0, r0, r8, ror #3
    24ac:	ce070403 	cdpgt	4, 0, cr0, cr7, cr3, {0}
    24b0:	03000001 	movweq	r0, #1
    24b4:	01c90708 	biceq	r0, r9, r8, lsl #14
    24b8:	25060000 	strcs	r0, [r6, #-0]
    24bc:	8b000000 	blhi	24c4 <__code_start__-0x5b3c>
    24c0:	07000000 	streq	r0, [r0, -r0]
    24c4:	00000025 	andeq	r0, r0, r5, lsr #32
    24c8:	00680800 	rsbeq	r0, r8, r0, lsl #16
    24cc:	1c020000 	stcne	0, cr0, [r2], {-0}
    24d0:	0000970e 	andeq	r9, r0, lr, lsl #14
    24d4:	7c040900 			; <UNDEFINED> instruction: 0x7c040900
    24d8:	06000000 	streq	r0, [r0], -r0
    24dc:	00000025 	andeq	r0, r0, r5, lsr #32
    24e0:	000000ac 	andeq	r0, r0, ip, lsr #1
    24e4:	0000ac07 	andeq	sl, r0, r7, lsl #24
    24e8:	04090000 	streq	r0, [r9], #-0
    24ec:	000000b9 	strheq	r0, [r0], -r9
    24f0:	b1080103 	tstlt	r8, r3, lsl #2
    24f4:	04000001 	streq	r0, [r0], #-1
    24f8:	000000b2 	strheq	r0, [r0], -r2
    24fc:	0005ba08 	andeq	fp, r5, r8, lsl #20
    2500:	0e210200 	cdpeq	2, 2, cr0, cr1, cr0, {0}
    2504:	000000ca 	andeq	r0, r0, sl, asr #1
    2508:	009d0409 	addseq	r0, sp, r9, lsl #8
    250c:	070a0000 	streq	r0, [sl, -r0]
    2510:	00006001 	andeq	r6, r0, r1
    2514:	0e0c0400 	cfcpyseq	mvf0, mvf12
    2518:	0000010f 	andeq	r0, r0, pc, lsl #2
    251c:	000a170b 	andeq	r1, sl, fp, lsl #14
    2520:	6a0b0000 	bvs	2c2528 <__bss_end__+0x2b8650>
    2524:	01000008 	tsteq	r0, r8
    2528:	0008c50b 	andeq	ip, r8, fp, lsl #10
    252c:	d40b0400 	strle	r0, [fp], #-1024	; 0xfffffc00
    2530:	05000008 	streq	r0, [r0, #-8]
    2534:	0008e30b 	andeq	lr, r8, fp, lsl #6
    2538:	f20b0600 	vmax.s8	d0, d11, d0
    253c:	07000008 	streq	r0, [r0, -r8]
    2540:	0009010b 	andeq	r0, r9, fp, lsl #2
    2544:	100b0300 	andne	r0, fp, r0, lsl #6
    2548:	02000009 	andeq	r0, r0, #9, 0
    254c:	0b480c00 	bleq	1205554 <__bss_end__+0x11fb67c>
    2550:	13010000 	movwne	r0, #4096	; 0x1000
    2554:	00003317 	andeq	r3, r0, r7, lsl r3
    2558:	21500000 	cmpcs	r0, r0
    255c:	0a100d20 	beq	4059e4 <__bss_end__+0x3fbb0c>
    2560:	01040000 	mrseq	r0, (UNDEF: 4)
    2564:	014d1017 	cmpeq	sp, r7, lsl r0
    2568:	410e0000 	mrsmi	r0, (UNDEF: 14)
    256c:	01000008 	tsteq	r0, r8
    2570:	002c0e18 	eoreq	r0, ip, r8, lsl lr
    2574:	01040000 	mrseq	r0, (UNDEF: 4)
    2578:	e80e001f 	stmda	lr, {r0, r1, r2, r3, r4}
    257c:	0100000a 	tsteq	r0, sl
    2580:	002c0e19 	eoreq	r0, ip, r9, lsl lr
    2584:	1f040000 	svcne	0x00040000
    2588:	0d000000 	stceq	0, cr0, [r0, #-0]
    258c:	00000b64 	andeq	r0, r0, r4, ror #22
    2590:	101e0104 	andsne	r0, lr, r4, lsl #2
    2594:	0000017b 	andeq	r0, r0, fp, ror r1
    2598:	00083a0e 	andeq	r3, r8, lr, lsl #20
    259c:	0e1f0100 	mufeqe	f0, f7, f0
    25a0:	0000002c 	andeq	r0, r0, ip, lsr #32
    25a4:	001f0104 	andseq	r0, pc, r4, lsl #2
    25a8:	0009700e 	andeq	r7, r9, lr
    25ac:	0e200100 	sufeqs	f0, f0, f0
    25b0:	0000002c 	andeq	r0, r0, ip, lsr #32
    25b4:	00001f04 	andeq	r1, r0, r4, lsl #30
    25b8:	0b350d00 	bleq	d459c0 <__bss_end__+0xd3bae8>
    25bc:	01040000 	mrseq	r0, (UNDEF: 4)
    25c0:	01a91026 			; <UNDEFINED> instruction: 0x01a91026
    25c4:	470e0000 	strmi	r0, [lr, -r0]
    25c8:	0100000a 	tsteq	r0, sl
    25cc:	002c0e27 	eoreq	r0, ip, r7, lsr #28
    25d0:	08040000 	stmdaeq	r4, {}	; <UNPREDICTABLE>
    25d4:	7a0e0018 	bvc	38263c <__bss_end__+0x378764>
    25d8:	0100000b 	tsteq	r0, fp
    25dc:	002c0e28 	eoreq	r0, ip, r8, lsr #28
    25e0:	18040000 	stmdane	r4, {}	; <UNPREDICTABLE>
    25e4:	05000000 	streq	r0, [r0, #-0]
    25e8:	00000957 	andeq	r0, r0, r7, asr r9
    25ec:	7b032901 	blvc	cc9f8 <__bss_end__+0xc2b20>
    25f0:	0d000001 	stceq	0, cr0, [r0, #-4]
    25f4:	00000935 	andeq	r0, r0, r5, lsr r9
    25f8:	102d0104 	eorne	r0, sp, r4, lsl #2
    25fc:	000001f3 	strdeq	r0, [r0], -r3
    2600:	00093c0e 	andeq	r3, r9, lr, lsl #24
    2604:	0e2e0100 	sufeqe	f0, f6, f0
    2608:	0000002c 	andeq	r0, r0, ip, lsr #32
    260c:	001f0104 	andseq	r0, pc, r4, lsl #2
    2610:	000aa60e 	andeq	sl, sl, lr, lsl #12
    2614:	0e2f0100 	sufeqe	f0, f7, f0
    2618:	0000002c 	andeq	r0, r0, ip, lsr #32
    261c:	001e0104 	andseq	r0, lr, r4, lsl #2
    2620:	0009b30e 	andeq	fp, r9, lr, lsl #6
    2624:	0e300100 	rsfeqs	f0, f0, f0
    2628:	0000002c 	andeq	r0, r0, ip, lsr #32
    262c:	00001e04 	andeq	r1, r0, r4, lsl #28
    2630:	0a790d00 	beq	1e45a38 <__bss_end__+0x1e3bb60>
    2634:	01040000 	mrseq	r0, (UNDEF: 4)
    2638:	02511035 	subseq	r1, r1, #53, 0	; 0x35
    263c:	0d0e0000 	stceq	0, cr0, [lr, #-0]
    2640:	0100000c 	tsteq	r0, ip
    2644:	002c0e36 	eoreq	r0, ip, r6, lsr lr
    2648:	01040000 	mrseq	r0, (UNDEF: 4)
    264c:	fe0e001f 	mcr2	0, 0, r0, cr14, cr15, {0}
    2650:	01000009 	tsteq	r0, r9
    2654:	002c0e37 	eoreq	r0, ip, r7, lsr lr
    2658:	01040000 	mrseq	r0, (UNDEF: 4)
    265c:	350e001e 	strcc	r0, [lr, #-30]	; 0xffffffe2
    2660:	0100000a 	tsteq	r0, sl
    2664:	002c0e38 	eoreq	r0, ip, r8, lsr lr
    2668:	01040000 	mrseq	r0, (UNDEF: 4)
    266c:	5f0e001d 	svcpl	0x000e001d
    2670:	01000009 	tsteq	r0, r9
    2674:	002c0e39 	eoreq	r0, ip, r9, lsr lr
    2678:	05040000 	streq	r0, [r4, #-0]
    267c:	280e0018 	stmdacs	lr, {r3, r4}
    2680:	0100000b 	tsteq	r0, fp
    2684:	002c0e3a 	eoreq	r0, ip, sl, lsr lr
    2688:	18040000 	stmdane	r4, {}	; <UNPREDICTABLE>
    268c:	0d000000 	stceq	0, cr0, [r0, #-0]
    2690:	00000b21 	andeq	r0, r0, r1, lsr #22
    2694:	103f0104 	eorsne	r0, pc, r4, lsl #2
    2698:	0000027f 	andeq	r0, r0, pc, ror r2
    269c:	0008550e 	andeq	r5, r8, lr, lsl #10
    26a0:	0e400100 	dvfeqs	f0, f0, f0
    26a4:	0000002c 	andeq	r0, r0, ip, lsr #32
    26a8:	001f0104 	andseq	r0, pc, r4, lsl #2
    26ac:	000bf00e 	andeq	pc, fp, lr
    26b0:	0e410100 	dvfeqs	f0, f1, f0
    26b4:	0000002c 	andeq	r0, r0, ip, lsr #32
    26b8:	00001f04 	andeq	r1, r0, r4, lsl #30
    26bc:	08630d00 	stmdaeq	r3!, {r8, sl, fp}^
    26c0:	01040000 	mrseq	r0, (UNDEF: 4)
    26c4:	02ed1047 	rsceq	r1, sp, #71, 0	; 0x47
    26c8:	ad0e0000 	stcge	0, cr0, [lr, #-0]
    26cc:	0100000b 	tsteq	r0, fp
    26d0:	002c0e48 	eoreq	r0, ip, r8, asr #28
    26d4:	01040000 	mrseq	r0, (UNDEF: 4)
    26d8:	460e001f 			; <UNDEFINED> instruction: 0x460e001f
    26dc:	01000008 	tsteq	r0, r8
    26e0:	002c0e49 	eoreq	r0, ip, r9, asr #28
    26e4:	01040000 	mrseq	r0, (UNDEF: 4)
    26e8:	f60e001e 			; <UNDEFINED> instruction: 0xf60e001e
    26ec:	01000009 	tsteq	r0, r9
    26f0:	002c0e4a 	eoreq	r0, ip, sl, asr #28
    26f4:	03040000 	movweq	r0, #16384	; 0x4000
    26f8:	d60e001b 			; <UNDEFINED> instruction: 0xd60e001b
    26fc:	01000009 	tsteq	r0, r9
    2700:	002c0e4b 	eoreq	r0, ip, fp, asr #28
    2704:	01040000 	mrseq	r0, (UNDEF: 4)
    2708:	970e001a 	smladls	lr, sl, r0, r0
    270c:	0100000a 	tsteq	r0, sl
    2710:	002c0e4c 	eoreq	r0, ip, ip, asr #28
    2714:	01040000 	mrseq	r0, (UNDEF: 4)
    2718:	cd0e0019 	stcgt	0, cr0, [lr, #-100]	; 0xffffff9c
    271c:	0100000b 	tsteq	r0, fp
    2720:	002c0e4d 	eoreq	r0, ip, sp, asr #28
    2724:	19040000 	stmdbne	r4, {}	; <UNPREDICTABLE>
    2728:	05000000 	streq	r0, [r0, #-0]
    272c:	00000bda 	ldrdeq	r0, [r0], -sl
    2730:	7f034e01 	svcvc	0x00034e01
    2734:	0d000002 	stceq	0, cr0, [r0, #-8]
    2738:	0000097e 	andeq	r0, r0, lr, ror r9
    273c:	10520104 	subsne	r0, r2, r4, lsl #2
    2740:	00000337 	andeq	r0, r0, r7, lsr r3
    2744:	0007e20e 	andeq	lr, r7, lr, lsl #4
    2748:	0e530100 	rdfeqs	f0, f3, f0
    274c:	0000002c 	andeq	r0, r0, ip, lsr #32
    2750:	001f0104 	andseq	r0, pc, r4, lsl #2
    2754:	00081e0e 	andeq	r1, r8, lr, lsl #28
    2758:	0e540100 	rdfeqs	f0, f4, f0
    275c:	0000002c 	andeq	r0, r0, ip, lsr #32
    2760:	001e0104 	andseq	r0, lr, r4, lsl #2
    2764:	000af60e 	andeq	pc, sl, lr, lsl #12
    2768:	0e550100 	rdfeqs	f0, f5, f0
    276c:	0000002c 	andeq	r0, r0, ip, lsr #32
    2770:	00001e04 	andeq	r1, r0, r4, lsl #28
    2774:	09860d00 	stmibeq	r6, {r8, sl, fp}
    2778:	01040000 	mrseq	r0, (UNDEF: 4)
    277c:	03f5105a 	mvnseq	r1, #90, 0	; 0x5a
    2780:	890e0000 	stmdbhi	lr, {}	; <UNPREDICTABLE>
    2784:	01000008 	tsteq	r0, r8
    2788:	002c0e5b 	eoreq	r0, ip, fp, asr lr
    278c:	01040000 	mrseq	r0, (UNDEF: 4)
    2790:	010e001f 	tsteq	lr, pc, lsl r0
    2794:	01000008 	tsteq	r0, r8
    2798:	002c0e5c 	eoreq	r0, ip, ip, asr lr
    279c:	01040000 	mrseq	r0, (UNDEF: 4)
    27a0:	c90e001e 	stmdbgt	lr, {r1, r2, r3, r4}
    27a4:	0100000a 	tsteq	r0, sl
    27a8:	002c0e5d 	eoreq	r0, ip, sp, asr lr
    27ac:	01040000 	mrseq	r0, (UNDEF: 4)
    27b0:	2d0e001d 	stccs	0, cr0, [lr, #-116]	; 0xffffff8c
    27b4:	01000008 	tsteq	r0, r8
    27b8:	002c0e5e 	eoreq	r0, ip, lr, asr lr
    27bc:	01040000 	mrseq	r0, (UNDEF: 4)
    27c0:	fd0e001c 	stc2	0, cr0, [lr, #-112]	; 0xffffff90
    27c4:	0100000b 	tsteq	r0, fp
    27c8:	002c0e5f 	eoreq	r0, ip, pc, asr lr
    27cc:	01040000 	mrseq	r0, (UNDEF: 4)
    27d0:	9c0e001b 	stcls	0, cr0, [lr], {27}
    27d4:	01000009 	tsteq	r0, r9
    27d8:	002c0e60 	eoreq	r0, ip, r0, ror #28
    27dc:	01040000 	mrseq	r0, (UNDEF: 4)
    27e0:	d90e001a 	stmdble	lr, {r1, r3, r4}
    27e4:	01000007 	tsteq	r0, r7
    27e8:	002c0e61 	eoreq	r0, ip, r1, ror #28
    27ec:	01040000 	mrseq	r0, (UNDEF: 4)
    27f0:	670e0019 	smladvs	lr, r9, r0, r0
    27f4:	01000009 	tsteq	r0, r9
    27f8:	002c0e62 	eoreq	r0, ip, r2, ror #28
    27fc:	01040000 	mrseq	r0, (UNDEF: 4)
    2800:	9f0e0018 	svcls	0x000e0018
    2804:	0100000b 	tsteq	r0, fp
    2808:	002c0e63 	eoreq	r0, ip, r3, ror #28
    280c:	01040000 	mrseq	r0, (UNDEF: 4)
    2810:	3b0e0017 	blcc	382874 <__bss_end__+0x37899c>
    2814:	0100000b 	tsteq	r0, fp
    2818:	002c0e64 	eoreq	r0, ip, r4, ror #28
    281c:	01040000 	mrseq	r0, (UNDEF: 4)
    2820:	9b0e0016 	blls	382880 <__bss_end__+0x3789a8>
    2824:	01000008 	tsteq	r0, r8
    2828:	002c0e65 	eoreq	r0, ip, r5, ror #28
    282c:	16040000 	strne	r0, [r4], -r0
    2830:	05000000 	streq	r0, [r0, #-0]
    2834:	000009be 			; <UNDEFINED> instruction: 0x000009be
    2838:	37036601 	strcc	r6, [r3, -r1, lsl #12]
    283c:	0d000003 	stceq	0, cr0, [r0, #-12]
    2840:	00000a80 	andeq	r0, r0, r0, lsl #21
    2844:	106a0104 	rsbne	r0, sl, r4, lsl #2
    2848:	0000042f 	andeq	r0, r0, pc, lsr #8
    284c:	00094d0e 	andeq	r4, r9, lr, lsl #26
    2850:	0e6b0100 	poweqe	f0, f3, f0
    2854:	0000002c 	andeq	r0, r0, ip, lsr #32
    2858:	00101004 	andseq	r1, r0, r4
    285c:	0009c80e 	andeq	ip, r9, lr, lsl #16
    2860:	0e6c0100 	poweqe	f0, f4, f0
    2864:	0000002c 	andeq	r0, r0, ip, lsr #32
    2868:	00001004 	andeq	r1, r0, r4
    286c:	01040f00 	tsteq	r4, r0, lsl #30
    2870:	04510570 	ldrbeq	r0, [r1], #-1392	; 0xfffffa90
    2874:	10100000 	andsne	r0, r0, r0
    2878:	0100000a 	tsteq	r0, sl
    287c:	002c1271 	eoreq	r1, ip, r1, ror r2
    2880:	27100000 	ldrcs	r0, [r0, -r0]
    2884:	0100000a 	tsteq	r0, sl
    2888:	011f1772 	tsteq	pc, r2, ror r7	; <UNPREDICTABLE>
    288c:	0f000000 	svceq	0x00000000
    2890:	05740104 	ldrbeq	r0, [r4, #-260]!	; 0xfffffefc
    2894:	00000473 	andeq	r0, r0, r3, ror r4
    2898:	000b6410 	andeq	r6, fp, r0, lsl r4
    289c:	12750100 	rsbsne	r0, r5, #0
    28a0:	0000002c 	andeq	r0, r0, ip, lsr #32
    28a4:	0009e810 	andeq	lr, r9, r0, lsl r8
    28a8:	17760100 	ldrbne	r0, [r6, -r0, lsl #2]!
    28ac:	0000014d 	andeq	r0, r0, sp, asr #2
    28b0:	01040f00 	tsteq	r4, r0, lsl #30
    28b4:	0495057a 	ldreq	r0, [r5], #1402	; 0x57a
    28b8:	35100000 	ldrcc	r0, [r0, #-0]
    28bc:	0100000b 	tsteq	r0, fp
    28c0:	002c127b 	eoreq	r1, ip, fp, ror r2
    28c4:	e3100000 	tst	r0, #0, 0
    28c8:	0100000b 	tsteq	r0, fp
    28cc:	017b167c 	cmneq	fp, ip, ror r6
    28d0:	0f000000 	svceq	0x00000000
    28d4:	057e0104 	ldrbeq	r0, [lr, #-260]!	; 0xfffffefc
    28d8:	000004b7 			; <UNDEFINED> instruction: 0x000004b7
    28dc:	00093510 	andeq	r3, r9, r0, lsl r5
    28e0:	127f0100 	rsbsne	r0, pc, #0
    28e4:	0000002c 	andeq	r0, r0, ip, lsr #32
    28e8:	000bbf10 	andeq	fp, fp, r0, lsl pc
    28ec:	17800100 	strne	r0, [r0, r0, lsl #2]
    28f0:	000001b5 			; <UNDEFINED> instruction: 0x000001b5
    28f4:	01040f00 	tsteq	r4, r0, lsl #30
    28f8:	04d90582 	ldrbeq	r0, [r9], #1410	; 0x582
    28fc:	79100000 	ldmdbvc	r0, {}	; <UNPREDICTABLE>
    2900:	0100000a 	tsteq	r0, sl
    2904:	002c1283 	eoreq	r1, ip, r3, lsl #5
    2908:	8e100000 	cdphi	0, 1, cr0, cr0, cr0, {0}
    290c:	01000009 	tsteq	r0, r9
    2910:	01f31784 	mvnseq	r1, r4, lsl #15
    2914:	0f000000 	svceq	0x00000000
    2918:	05860104 	streq	r0, [r6, #260]	; 0x104
    291c:	000004fb 	strdeq	r0, [r0], -fp
    2920:	000b2110 	andeq	r2, fp, r0, lsl r1
    2924:	12870100 	addne	r0, r7, #0
    2928:	0000002c 	andeq	r0, r0, ip, lsr #32
    292c:	00087b10 	andeq	r7, r8, r0, lsl fp
    2930:	17880100 	strne	r0, [r8, r0, lsl #2]
    2934:	00000251 	andeq	r0, r0, r1, asr r2
    2938:	01040f00 	tsteq	r4, r0, lsl #30
    293c:	0511058a 	ldreq	r0, [r1, #-1418]	; 0xfffffa76
    2940:	4f100000 	svcmi	0x00100000
    2944:	0100000a 	tsteq	r0, sl
    2948:	002c128b 	eoreq	r1, ip, fp, lsl #5
    294c:	0f000000 	svceq	0x00000000
    2950:	058d0104 	streq	r0, [sp, #260]	; 0x104
    2954:	00000533 	andeq	r0, r0, r3, lsr r5
    2958:	00086310 	andeq	r6, r8, r0, lsl r3
    295c:	128e0100 	addne	r0, lr, #0
    2960:	0000002c 	andeq	r0, r0, ip, lsr #32
    2964:	0008a710 	andeq	sl, r8, r0, lsl r7
    2968:	178f0100 	strne	r0, [pc, r0, lsl #2]
    296c:	0000027f 	andeq	r0, r0, pc, ror r2
    2970:	01040f00 	tsteq	r4, r0, lsl #30
    2974:	05490591 	strbeq	r0, [r9, #-1425]	; 0xfffffa6f
    2978:	6b100000 	blvs	402980 <__bss_end__+0x3f8aa8>
    297c:	0100000a 	tsteq	r0, sl
    2980:	002c1292 	mlaeq	ip, r2, r2, r1
    2984:	0f000000 	svceq	0x00000000
    2988:	05940104 	ldreq	r0, [r4, #260]	; 0x104
    298c:	0000055f 	andeq	r0, r0, pc, asr r5
    2990:	000b5210 	andeq	r5, fp, r0, lsl r2
    2994:	12950100 	addsne	r0, r5, #0
    2998:	0000002c 	andeq	r0, r0, ip, lsr #32
    299c:	01040f00 	tsteq	r4, r0, lsl #30
    29a0:	05810597 	streq	r0, [r1, #1431]	; 0x597
    29a4:	7e100000 	cdpvc	0, 1, cr0, cr0, cr0, {0}
    29a8:	01000009 	tsteq	r0, r9
    29ac:	002c1298 	mlaeq	ip, r8, r2, r1
    29b0:	86100000 	ldrhi	r0, [r0], -r0
    29b4:	0100000b 	tsteq	r0, fp
    29b8:	02f91899 	rscseq	r1, r9, #10027008	; 0x990000
    29bc:	0f000000 	svceq	0x00000000
    29c0:	059b0104 	ldreq	r0, [fp, #260]	; 0x104
    29c4:	000005a3 	andeq	r0, r0, r3, lsr #11
    29c8:	00098610 	andeq	r8, r9, r0, lsl r6
    29cc:	129c0100 	addsne	r0, ip, #0
    29d0:	0000002c 	andeq	r0, r0, ip, lsr #32
    29d4:	000a8810 	andeq	r8, sl, r0, lsl r8
    29d8:	189d0100 	ldmne	sp, {r8}
    29dc:	00000337 	andeq	r0, r0, r7, lsr r3
    29e0:	01040f00 	tsteq	r4, r0, lsl #30
    29e4:	05c5059f 	strbeq	r0, [r5, #1439]	; 0x59f
    29e8:	80100000 	andshi	r0, r0, r0
    29ec:	0100000a 	tsteq	r0, sl
    29f0:	002c12a0 	eoreq	r1, ip, r0, lsr #5
    29f4:	6b100000 	blvs	4029fc <__bss_end__+0x3f8b24>
    29f8:	0100000b 	tsteq	r0, fp
    29fc:	040118a1 	streq	r1, [r1], #-2209	; 0xfffff75f
    2a00:	0d000000 	stceq	0, cr0, [r0, #-0]
    2a04:	000007f1 	strdeq	r0, [r0], -r1
    2a08:	106f016c 	rsbne	r0, pc, ip, ror #2
    2a0c:	0000062e 	andeq	r0, r0, lr, lsr #12
    2a10:	00042f11 	andeq	r2, r4, r1, lsl pc
    2a14:	51110000 	tstpl	r1, r0
    2a18:	04000004 	streq	r0, [r0], #-4
    2a1c:	70616712 	rsbvc	r6, r1, r2, lsl r7
    2a20:	0d790100 	ldfeqe	f0, [r9, #-0]
    2a24:	0000062e 	andeq	r0, r0, lr, lsr #12
    2a28:	04731108 	ldrbteq	r1, [r3], #-264	; 0xfffffef8
    2a2c:	11400000 	mrsne	r0, (UNDEF: 64)
    2a30:	00000495 	muleq	r0, r5, r4
    2a34:	04b71144 	ldrteq	r1, [r7], #324	; 0x144
    2a38:	11480000 	mrsne	r0, (UNDEF: 72)
    2a3c:	000004d9 	ldrdeq	r0, [r0], -r9
    2a40:	04fb114c 	ldrbteq	r1, [fp], #332	; 0x14c
    2a44:	11500000 	cmpne	r0, r0
    2a48:	00000511 	andeq	r0, r0, r1, lsl r5
    2a4c:	05331154 	ldreq	r1, [r3, #-340]!	; 0xfffffeac
    2a50:	11580000 	cmpne	r8, r0
    2a54:	00000549 	andeq	r0, r0, r9, asr #10
    2a58:	055f115c 	ldrbeq	r1, [pc, #-348]	; 2904 <__code_start__-0x56fc>
    2a5c:	11600000 	cmnne	r0, r0
    2a60:	00000581 	andeq	r0, r0, r1, lsl #11
    2a64:	05a31164 	streq	r1, [r3, #356]!	; 0x164
    2a68:	00680000 	rsbeq	r0, r8, r0
    2a6c:	00005413 	andeq	r5, r0, r3, lsl r4
    2a70:	00063e00 	andeq	r3, r6, r0, lsl #28
    2a74:	002c1400 	eoreq	r1, ip, r0, lsl #8
    2a78:	00370000 	eorseq	r0, r7, r0
    2a7c:	000ad605 	andeq	sp, sl, r5, lsl #12
    2a80:	03a30100 			; <UNDEFINED> instruction: 0x03a30100
    2a84:	000005c5 	andeq	r0, r0, r5, asr #11
    2a88:	0007f215 	andeq	pc, r7, r5, lsl r2	; <UNPREDICTABLE>
    2a8c:	1ba60100 	blne	fe982e94 <__bss_end__+0xfe978fbc>
    2a90:	0000065c 	andeq	r0, r0, ip, asr r6
    2a94:	9ec40305 	cdpls	3, 12, cr0, cr4, cr5, {0}
    2a98:	04090000 	streq	r0, [r9], #-0
    2a9c:	0000063e 	andeq	r0, r0, lr, lsr r6
    2aa0:	0006cb16 	andeq	ip, r6, r6, lsl fp
    2aa4:	01180100 	tsteq	r8, r0, lsl #2
    2aa8:	00908806 	addseq	r8, r0, r6, lsl #16
    2aac:	00001400 	andeq	r1, r0, r0, lsl #8
    2ab0:	839c0100 	orrshi	r0, ip, #0
    2ab4:	17000006 	strne	r0, [r0, -r6]
    2ab8:	00009090 	muleq	r0, r0, r0
    2abc:	00000683 	andeq	r0, r0, r3, lsl #13
    2ac0:	0b101800 	bleq	408ac8 <__bss_end__+0x3febf0>
    2ac4:	11010000 	mrsne	r0, (UNDEF: 1)
    2ac8:	00250501 	eoreq	r0, r5, r1, lsl #10
    2acc:	90500000 	subsls	r0, r0, r0
    2ad0:	00380000 	eorseq	r0, r8, r0
    2ad4:	9c010000 	stcls	0, cr0, [r1], {-0}
    2ad8:	000006d5 	ldrdeq	r0, [r0], -r5
    2adc:	01007619 	tsteq	r0, r9, lsl r6
    2ae0:	2c0e0113 	stfcss	f0, [lr], {19}
    2ae4:	02000000 	andeq	r0, r0, #0, 0
    2ae8:	861a7491 			; <UNDEFINED> instruction: 0x861a7491
    2aec:	01000009 	tsteq	r0, r9
    2af0:	d5100114 	ldrle	r0, [r0, #-276]	; 0xfffffeec
    2af4:	90000006 	andls	r0, r0, r6
    2af8:	8e00000c 	cdphi	0, 0, cr0, cr0, cr12, {0}
    2afc:	1b00000c 	blne	2b34 <__code_start__-0x54cc>
    2b00:	0000906c 	andeq	r9, r0, ip, rrx
    2b04:	0000097d 	andeq	r0, r0, sp, ror r9
    2b08:	0550011c 	ldrbeq	r0, [r0, #-284]	; 0xfffffee4
    2b0c:	2150640c 	cmpcs	r0, ip, lsl #8
    2b10:	09000020 	stmdbeq	r0, {r5}
    2b14:	0003f504 	andeq	pc, r3, r4, lsl #10
    2b18:	08b51800 	ldmeq	r5!, {fp, ip}
    2b1c:	0a010000 	beq	42b24 <__bss_end__+0x38c4c>
    2b20:	00250501 	eoreq	r0, r5, r1, lsl #10
    2b24:	90300000 	eorsls	r0, r0, r0
    2b28:	00200000 	eoreq	r0, r0, r0
    2b2c:	9c010000 	stcls	0, cr0, [r1], {-0}
    2b30:	00000709 	andeq	r0, r0, r9, lsl #14
    2b34:	00903817 	addseq	r3, r0, r7, lsl r8
    2b38:	00070900 	andeq	r0, r7, r0, lsl #18
    2b3c:	90441700 	subls	r1, r4, r0, lsl #14
    2b40:	07c50000 	strbeq	r0, [r5, r0]
    2b44:	18000000 	stmdane	r0, {}	; <UNPREDICTABLE>
    2b48:	00000a5d 	andeq	r0, r0, sp, asr sl
    2b4c:	05010501 	streq	r0, [r1, #-1281]	; 0xfffffaff
    2b50:	00000025 	andeq	r0, r0, r5, lsr #32
    2b54:	00009024 	andeq	r9, r0, r4, lsr #32
    2b58:	0000000c 	andeq	r0, r0, ip
    2b5c:	072e9c01 	streq	r9, [lr, -r1, lsl #24]!
    2b60:	2c170000 	ldccs	0, cr0, [r7], {-0}
    2b64:	16000090 			; <UNDEFINED> instruction: 0x16000090
    2b68:	00000008 	andeq	r0, r0, r8
    2b6c:	000b951d 	andeq	r9, fp, sp, lsl r5
    2b70:	06fb0100 	ldrbteq	r0, [fp], r0, lsl #2
    2b74:	00008fe4 	andeq	r8, r0, r4, ror #31
    2b78:	00000040 	andeq	r0, r0, r0, asr #32
    2b7c:	07709c01 	ldrbeq	r9, [r0, -r1, lsl #24]!
    2b80:	631e0000 	tstvs	lr, #0, 0
    2b84:	19fb0100 	ldmibne	fp!, {r8}^
    2b88:	0000002c 	andeq	r0, r0, ip, lsr #32
    2b8c:	00000ca9 	andeq	r0, r0, r9, lsr #25
    2b90:	00000ca5 	andeq	r0, r0, r5, lsr #25
    2b94:	008ffc17 	addeq	pc, pc, r7, lsl ip	; <UNPREDICTABLE>
    2b98:	00077000 	andeq	r7, r7, r0
    2b9c:	90181b00 	andsls	r1, r8, r0, lsl #22
    2ba0:	09890000 	stmibeq	r9, {}	; <UNPREDICTABLE>
    2ba4:	011c0000 	tsteq	ip, r0
    2ba8:	00740251 	rsbseq	r0, r4, r1, asr r2
    2bac:	1f1f0000 	svcne	0x001f0000
    2bb0:	01000009 	tsteq	r0, r9
    2bb4:	002505f2 	strdeq	r0, [r5], -r2	; <UNPREDICTABLE>
    2bb8:	8fa80000 	svchi	0x00a80000
    2bbc:	003c0000 	eorseq	r0, ip, r0
    2bc0:	9c010000 	stcls	0, cr0, [r1], {-0}
    2bc4:	000007bf 			; <UNDEFINED> instruction: 0x000007bf
    2bc8:	01007620 	tsteq	r0, r0, lsr #12
    2bcc:	002c0ef4 	strdeq	r0, [ip], -r4	; <UNPREDICTABLE>
    2bd0:	91020000 	mrsls	r0, (UNDEF: 2)
    2bd4:	08632174 	stmdaeq	r3!, {r2, r4, r5, r6, r8, sp}^
    2bd8:	f5010000 			; <UNDEFINED> instruction: 0xf5010000
    2bdc:	0007bf0f 	andeq	fp, r7, pc, lsl #30
    2be0:	000cc900 	andeq	ip, ip, r0, lsl #18
    2be4:	000cc700 	andeq	ip, ip, r0, lsl #14
    2be8:	8fc41b00 	svchi	0x00c41b00
    2bec:	097d0000 	ldmdbeq	sp!, {}^	; <UNPREDICTABLE>
    2bf0:	011c0000 	tsteq	ip, r0
    2bf4:	540c0550 	strpl	r0, [ip], #-1360	; 0xfffffab0
    2bf8:	00202150 	eoreq	r2, r0, r0, asr r1
    2bfc:	ed040900 	vstr.16	s0, [r4, #-0]
    2c00:	1f000002 	svcne	0x00000002
    2c04:	000009a9 	andeq	r0, r0, r9, lsr #19
    2c08:	2505e801 	strcs	lr, [r5, #-2049]	; 0xfffff7ff
    2c0c:	6c000000 	stcvs	0, cr0, [r0], {-0}
    2c10:	3c00008f 	stccc	0, cr0, [r0], {143}	; 0x8f
    2c14:	01000000 	mrseq	r0, (UNDEF: 0)
    2c18:	0008109c 	muleq	r8, ip, r0
    2c1c:	00762200 	rsbseq	r2, r6, r0, lsl #4
    2c20:	2c0eec01 	stccs	12, cr14, [lr], {1}
    2c24:	21000000 	mrscs	r0, (UNDEF: 0)
    2c28:	00000b35 	andeq	r0, r0, r5, lsr fp
    2c2c:	100eed01 	andne	lr, lr, r1, lsl #26
    2c30:	e0000008 	and	r0, r0, r8
    2c34:	de00000c 	cdple	0, 0, cr0, cr0, cr12, {0}
    2c38:	1700000c 	strne	r0, [r0, -ip]
    2c3c:	00008f80 	andeq	r8, r0, r0, lsl #31
    2c40:	00000816 	andeq	r0, r0, r6, lsl r8
    2c44:	008f9817 	addeq	r9, pc, r7, lsl r8	; <UNPREDICTABLE>
    2c48:	00097d00 	andeq	r7, r9, r0, lsl #26
    2c4c:	04090000 	streq	r0, [r9], #-0
    2c50:	000001a9 	andeq	r0, r0, r9, lsr #3
    2c54:	000b0223 	andeq	r0, fp, r3, lsr #4
    2c58:	0cdf0100 	ldfeqe	f0, [pc], {0}
    2c5c:	00000025 	andeq	r0, r0, r5, lsr #32
    2c60:	00008dd0 	ldrdeq	r8, [r0], -r0
    2c64:	00000034 	andeq	r0, r0, r4, lsr r0
    2c68:	08659c01 	stmdaeq	r5!, {r0, sl, fp, ip, pc}^
    2c6c:	76200000 	strtvc	r0, [r0], -r0
    2c70:	0ee10100 	cdpeq	1, 14, cr0, cr1, cr0, {0}
    2c74:	0000002c 	andeq	r0, r0, ip, lsr #32
    2c78:	21749102 	cmncs	r4, r2, lsl #2
    2c7c:	00000863 	andeq	r0, r0, r3, ror #16
    2c80:	bf0fe201 	svclt	0x000fe201
    2c84:	fa000007 	blx	2ca8 <__code_start__-0x5358>
    2c88:	f800000c 			; <UNDEFINED> instruction: 0xf800000c
    2c8c:	1b00000c 	blne	2cc4 <__code_start__-0x533c>
    2c90:	00008dec 	andeq	r8, r0, ip, ror #27
    2c94:	0000097d 	andeq	r0, r0, sp, ror r9
    2c98:	0550011c 	ldrbeq	r0, [r0, #-284]	; 0xfffffee4
    2c9c:	2150540c 	cmpcs	r0, ip, lsl #8
    2ca0:	1d000020 	stcne	0, cr0, [r0, #-128]	; 0xffffff80
    2ca4:	00000009 	andeq	r0, r0, r9
    2ca8:	0406ad01 	streq	sl, [r6], #-3329	; 0xfffff2ff
    2cac:	6800008e 	stmdavs	r0, {r1, r2, r3, r7}
    2cb0:	01000001 	tsteq	r0, r1
    2cb4:	00097d9c 	muleq	r9, ip, sp
    2cb8:	8e202400 	cdphi	4, 2, cr2, cr0, cr0, {0}
    2cbc:	09950000 	ldmibeq	r5, {}	; <UNPREDICTABLE>
    2cc0:	08930000 	ldmeq	r3, {}	; <UNPREDICTABLE>
    2cc4:	011c0000 	tsteq	ip, r0
    2cc8:	1c3e0150 	ldfnes	f0, [lr], #-320	; 0xfffffec0
    2ccc:	32015101 	andcc	r5, r1, #1073741824	; 0x40000000
    2cd0:	8e2c2400 	cdphi	4, 2, cr2, cr12, cr0, {0}
    2cd4:	09950000 	ldmibeq	r5, {}	; <UNPREDICTABLE>
    2cd8:	08ab0000 	stmiaeq	fp!, {}	; <UNPREDICTABLE>
    2cdc:	011c0000 	tsteq	ip, r0
    2ce0:	1c3f0150 	ldfnes	f0, [pc], #-320	; 2ba8 <__code_start__-0x5458>
    2ce4:	32015101 	andcc	r5, r1, #1073741824	; 0x40000000
    2ce8:	8e382400 	cfabsshi	mvf2, mvf8
    2cec:	097d0000 	ldmdbeq	sp!, {}^	; <UNPREDICTABLE>
    2cf0:	08bf0000 	ldmeq	pc!, {}	; <UNPREDICTABLE>
    2cf4:	011c0000 	tsteq	ip, r0
    2cf8:	04750250 	ldrbteq	r0, [r5], #-592	; 0xfffffdb0
    2cfc:	8e581700 	cdphi	7, 5, cr1, cr8, cr0, {0}
    2d00:	09890000 	stmibeq	r9, {}	; <UNPREDICTABLE>
    2d04:	64240000 	strtvs	r0, [r4], #-0
    2d08:	7d00008e 	stcvc	0, cr0, [r0, #-568]	; 0xfffffdc8
    2d0c:	dd000009 	stcle	0, cr0, [r0, #-36]	; 0xffffffdc
    2d10:	1c000008 	stcne	0, cr0, [r0], {8}
    2d14:	75035001 	strvc	r5, [r3, #-1]
    2d18:	170000e0 	strne	r0, [r0, -r0, ror #1]
    2d1c:	00008e84 	andeq	r8, r0, r4, lsl #29
    2d20:	00000989 	andeq	r0, r0, r9, lsl #19
    2d24:	008e9024 	addeq	r9, lr, r4, lsr #32
    2d28:	00097d00 	andeq	r7, r9, r0, lsl #26
    2d2c:	0008fb00 	andeq	pc, r8, r0, lsl #22
    2d30:	50011c00 	andpl	r1, r1, r0, lsl #24
    2d34:	00c47503 	sbceq	r7, r4, r3, lsl #10
    2d38:	8eb01700 	cdphi	7, 11, cr1, cr0, cr0, {0}
    2d3c:	09890000 	stmibeq	r9, {}	; <UNPREDICTABLE>
    2d40:	bc240000 	stclt	0, cr0, [r4], #-0
    2d44:	7d00008e 	stcvc	0, cr0, [r0, #-568]	; 0xfffffdc8
    2d48:	19000009 	stmdbne	r0, {r0, r3}
    2d4c:	1c000009 	stcne	0, cr0, [r0], {9}
    2d50:	75035001 	strvc	r5, [r3, #-1]
    2d54:	170000c8 	strne	r0, [r0, -r8, asr #1]
    2d58:	00008edc 	ldrdeq	r8, [r0], -ip
    2d5c:	00000989 	andeq	r0, r0, r9, lsl #19
    2d60:	008ee824 	addeq	lr, lr, r4, lsr #16
    2d64:	00097d00 	andeq	r7, r9, r0, lsl #26
    2d68:	00093700 	andeq	r3, r9, r0, lsl #14
    2d6c:	50011c00 	andpl	r1, r1, r0, lsl #24
    2d70:	00e87503 	rsceq	r7, r8, r3, lsl #10
    2d74:	8f041700 	svchi	0x00041700
    2d78:	09890000 	stmibeq	r9, {}	; <UNPREDICTABLE>
    2d7c:	10240000 	eorne	r0, r4, r0
    2d80:	7d00008f 	stcvc	0, cr0, [r0, #-572]	; 0xfffffdc4
    2d84:	55000009 	strpl	r0, [r0, #-9]
    2d88:	1c000009 	stcne	0, cr0, [r0], {9}
    2d8c:	75035001 	strvc	r5, [r3, #-1]
    2d90:	170000cc 	strne	r0, [r0, -ip, asr #1]
    2d94:	00008f30 	andeq	r8, r0, r0, lsr pc
    2d98:	00000989 	andeq	r0, r0, r9, lsl #19
    2d9c:	008f3c24 	addeq	r3, pc, r4, lsr #24
    2da0:	00097d00 	andeq	r7, r9, r0, lsl #26
    2da4:	00097300 	andeq	r7, r9, r0, lsl #6
    2da8:	50011c00 	andpl	r1, r1, r0, lsl #24
    2dac:	00e07503 	rsceq	r7, r0, r3, lsl #10
    2db0:	8f5c1700 	svchi	0x005c1700
    2db4:	09890000 	stmibeq	r9, {}	; <UNPREDICTABLE>
    2db8:	25000000 	strcs	r0, [r0, #-0]
    2dbc:	0000020c 	andeq	r0, r0, ip, lsl #4
    2dc0:	0000020c 	andeq	r0, r0, ip, lsl #4
    2dc4:	250aad02 	strcs	sl, [sl, #-3330]	; 0xfffff2fe
    2dc8:	0000008c 	andeq	r0, r0, ip, lsl #1
    2dcc:	0000008c 	andeq	r0, r0, ip, lsl #1
    2dd0:	2506a102 	strcs	sl, [r6, #-258]	; 0xfffffefe
    2dd4:	00000ab7 			; <UNDEFINED> instruction: 0x00000ab7
    2dd8:	00000ab7 			; <UNDEFINED> instruction: 0x00000ab7
    2ddc:	00061904 	andeq	r1, r6, r4, lsl #18
    2de0:	000003bb 			; <UNDEFINED> instruction: 0x000003bb
    2de4:	0f7f0004 	svceq	0x007f0004
    2de8:	01040000 	mrseq	r0, (UNDEF: 4)
    2dec:	00000212 	andeq	r0, r0, r2, lsl r2
    2df0:	000ca80c 	andeq	sl, ip, ip, lsl #16
    2df4:	00057f00 	andeq	r7, r5, r0, lsl #30
    2df8:	00909c00 	addseq	r9, r0, r0, lsl #24
    2dfc:	0000e800 	andeq	lr, r0, r0, lsl #16
    2e00:	00137600 	andseq	r7, r3, r0, lsl #12
    2e04:	05040200 	streq	r0, [r4, #-512]	; 0xfffffe00
    2e08:	00746e69 	rsbseq	r6, r4, r9, ror #28
    2e0c:	d3070403 	movwle	r0, #29699	; 0x7403
    2e10:	04000001 	streq	r0, [r0], #-1
    2e14:	0000002c 	andeq	r0, r0, ip, lsr #32
    2e18:	aa060103 	bge	18322c <__bss_end__+0x179354>
    2e1c:	03000001 	movweq	r0, #1
    2e20:	00530502 	subseq	r0, r3, r2, lsl #10
    2e24:	04030000 	streq	r0, [r3], #-0
    2e28:	0000f905 	andeq	pc, r0, r5, lsl #18
    2e2c:	05080300 	streq	r0, [r8, #-768]	; 0xfffffd00
    2e30:	000000f4 	strdeq	r0, [r0], -r4
    2e34:	a8080103 	stmdage	r8, {r0, r1, r8}
    2e38:	03000001 	movweq	r0, #1
    2e3c:	01e80702 	mvneq	r0, r2, lsl #14
    2e40:	f8050000 			; <UNDEFINED> instruction: 0xf8050000
    2e44:	03000004 	movweq	r0, #4
    2e48:	006e1934 	rsbeq	r1, lr, r4, lsr r9
    2e4c:	04030000 	streq	r0, [r3], #-0
    2e50:	0001ce07 	andeq	ip, r1, r7, lsl #28
    2e54:	07080300 	streq	r0, [r8, -r0, lsl #6]
    2e58:	000001c9 	andeq	r0, r0, r9, asr #3
    2e5c:	00002506 	andeq	r2, r0, r6, lsl #10
    2e60:	00008b00 	andeq	r8, r0, r0, lsl #22
    2e64:	00250700 	eoreq	r0, r5, r0, lsl #14
    2e68:	08000000 	stmdaeq	r0, {}	; <UNPREDICTABLE>
    2e6c:	00000068 	andeq	r0, r0, r8, rrx
    2e70:	970e1c02 	strls	r1, [lr, -r2, lsl #24]
    2e74:	09000000 	stmdbeq	r0, {}	; <UNPREDICTABLE>
    2e78:	00007c04 	andeq	r7, r0, r4, lsl #24
    2e7c:	00250600 	eoreq	r0, r5, r0, lsl #12
    2e80:	00ac0000 	adceq	r0, ip, r0
    2e84:	ac070000 	stcge	0, cr0, [r7], {-0}
    2e88:	00000000 	andeq	r0, r0, r0
    2e8c:	00b90409 	adcseq	r0, r9, r9, lsl #8
    2e90:	01030000 	mrseq	r0, (UNDEF: 3)
    2e94:	0001b108 	andeq	fp, r1, r8, lsl #2
    2e98:	00b20400 	adcseq	r0, r2, r0, lsl #8
    2e9c:	ba080000 	blt	202ea4 <__bss_end__+0x1f8fcc>
    2ea0:	02000005 	andeq	r0, r0, #5, 0
    2ea4:	00ca0e21 	sbceq	r0, sl, r1, lsr #28
    2ea8:	04090000 	streq	r0, [r9], #-0
    2eac:	0000009d 	muleq	r0, sp, r0
    2eb0:	5401070a 	strpl	r0, [r1], #-1802	; 0xfffff8f6
    2eb4:	04000000 	streq	r0, [r0], #-0
    2eb8:	010f0e0c 	tsteq	pc, ip, lsl #28
    2ebc:	170b0000 	strne	r0, [fp, -r0]
    2ec0:	0000000a 	andeq	r0, r0, sl
    2ec4:	00086a0b 	andeq	r6, r8, fp, lsl #20
    2ec8:	c50b0100 	strgt	r0, [fp, #-256]	; 0xffffff00
    2ecc:	04000008 	streq	r0, [r0], #-8
    2ed0:	0008d40b 	andeq	sp, r8, fp, lsl #8
    2ed4:	e30b0500 	movw	r0, #46336	; 0xb500
    2ed8:	06000008 	streq	r0, [r0], -r8
    2edc:	0008f20b 	andeq	pc, r8, fp, lsl #4
    2ee0:	010b0700 	tsteq	fp, r0, lsl #14
    2ee4:	03000009 	movweq	r0, #9
    2ee8:	0009100b 	andeq	r1, r9, fp
    2eec:	05000200 	streq	r0, [r0, #-512]	; 0xfffffe00
    2ef0:	00000c80 	andeq	r0, r0, r0, lsl #25
    2ef4:	d0031504 	andle	r1, r3, r4, lsl #10
    2ef8:	0c000000 	stceq	0, cr0, [r0], {-0}
    2efc:	00000c9e 	muleq	r0, lr, ip
    2f00:	33170e01 	tstcc	r7, #1, 28
    2f04:	00000000 	andeq	r0, r0, r0
    2f08:	0c202000 	stceq	0, cr2, [r0], #-0
    2f0c:	00000c2d 	andeq	r0, r0, sp, lsr #24
    2f10:	33170f01 	tstcc	r7, #1, 30
    2f14:	1c000000 	stcne	0, cr0, [r0], {-0}
    2f18:	0c202000 	stceq	0, cr2, [r0], #-0
    2f1c:	00000c23 	andeq	r0, r0, r3, lsr #24
    2f20:	33171001 	tstcc	r7, #1, 0
    2f24:	28000000 	stmdacs	r0, {}	; <UNPREDICTABLE>
    2f28:	0c202000 	stceq	0, cr2, [r0], #-0
    2f2c:	00000c94 	muleq	r0, r4, ip
    2f30:	33171101 	tstcc	r7, #1073741824	; 0x40000000
    2f34:	34000000 	strcc	r0, [r0], #-0
    2f38:	0d202000 	stceq	0, cr2, [r0, #-0]
    2f3c:	00000c4a 	andeq	r0, r0, sl, asr #24
    2f40:	25054301 	strcs	r4, [r5, #-769]	; 0xfffffcff
    2f44:	64000000 	strvs	r0, [r0], #-0
    2f48:	20000091 	mulcs	r0, r1, r0
    2f4c:	01000000 	mrseq	r0, (UNDEF: 0)
    2f50:	00019d9c 	muleq	r1, ip, sp
    2f54:	69700e00 	ldmdbvs	r0!, {r9, sl, fp}^
    2f58:	4301006e 	movwmi	r0, #4206	; 0x106e
    2f5c:	00002c18 	andeq	r2, r0, r8, lsl ip
    2f60:	000d1300 	andeq	r1, sp, r0, lsl #6
    2f64:	000d0f00 	andeq	r0, sp, r0, lsl #30
    2f68:	91740f00 	cmnls	r4, r0, lsl #30
    2f6c:	03a60000 			; <UNDEFINED> instruction: 0x03a60000
    2f70:	01100000 	tsteq	r0, r0
    2f74:	340c0550 	strcc	r0, [ip], #-1360	; 0xfffffab0
    2f78:	00202000 	eoreq	r2, r0, r0
    2f7c:	0c541100 	ldfeqe	f1, [r4], {-0}
    2f80:	3e010000 	cdpcc	0, 0, cr0, cr1, cr0, {0}
    2f84:	00915406 	addseq	r5, r1, r6, lsl #8
    2f88:	00001000 	andeq	r1, r0, r0
    2f8c:	de9c0100 	fmllee	f0, f4, f0
    2f90:	0e000001 	cdpeq	0, 0, cr0, cr0, cr1, {0}
    2f94:	006e6970 	rsbeq	r6, lr, r0, ror r9
    2f98:	2c1e3e01 	ldccs	14, cr3, [lr], {1}
    2f9c:	35000000 	strcc	r0, [r0, #-0]
    2fa0:	3100000d 	tstcc	r0, sp
    2fa4:	0f00000d 	svceq	0x0000000d
    2fa8:	00009160 	andeq	r9, r0, r0, ror #2
    2fac:	00000308 	andeq	r0, r0, r8, lsl #6
    2fb0:	03500110 	cmpeq	r0, #4
    2fb4:	105001f3 	ldrshne	r0, [r0], #-19	; 0xffffffed
    2fb8:	30015101 	andcc	r5, r1, r1, lsl #2
    2fbc:	3f110000 	svccc	0x00110000
    2fc0:	0100000c 	tsteq	r0, ip
    2fc4:	91380632 	teqls	r8, r2, lsr r6
    2fc8:	001c0000 	andseq	r0, ip, r0
    2fcc:	9c010000 	stcls	0, cr0, [r1], {-0}
    2fd0:	00000239 	andeq	r0, r0, r9, lsr r2
    2fd4:	6e69700e 	cdpvs	0, 6, cr7, cr9, cr14, {0}
    2fd8:	1a320100 	bne	c833e0 <__bss_end__+0xc79508>
    2fdc:	0000002c 	andeq	r0, r0, ip, lsr #32
    2fe0:	00000d5e 	andeq	r0, r0, lr, asr sp
    2fe4:	00000d56 	andeq	r0, r0, r6, asr sp
    2fe8:	0100760e 	tsteq	r0, lr, lsl #12
    2fec:	002c2832 	eoreq	r2, ip, r2, lsr r8
    2ff0:	0da00000 	stceq	0, cr0, [r0]
    2ff4:	0d980000 	ldceq	0, cr0, [r8]
    2ff8:	48120000 	ldmdami	r2, {}	; <UNPREDICTABLE>
    2ffc:	80000091 	mulhi	r0, r1, r0
    3000:	2f000002 	svccs	0x00000002
    3004:	10000002 	andne	r0, r0, r2
    3008:	f3035001 	vhadd.u8	d5, d3, d1
    300c:	13005001 	movwne	r5, #1
    3010:	00009150 	andeq	r9, r0, r0, asr r1
    3014:	00000239 	andeq	r0, r0, r9, lsr r2
    3018:	0c631100 	stfeqe	f1, [r3], #-0
    301c:	2d010000 	stccs	0, cr0, [r1, #-0]
    3020:	00911c06 	addseq	r1, r1, r6, lsl #24
    3024:	00001c00 	andeq	r1, r0, r0, lsl #24
    3028:	809c0100 	addshi	r0, ip, r0, lsl #2
    302c:	0e000002 	cdpeq	0, 0, cr0, cr0, cr2, {0}
    3030:	006e6970 	rsbeq	r6, lr, r0, ror r9
    3034:	2c1c2d01 	ldccs	13, cr2, [ip], {1}
    3038:	de000000 	cdple	0, 0, cr0, cr0, cr0, {0}
    303c:	da00000d 	ble	3078 <__code_start__-0x4f88>
    3040:	0f00000d 	svceq	0x0000000d
    3044:	00009130 	andeq	r9, r0, r0, lsr r1
    3048:	000003b2 			; <UNDEFINED> instruction: 0x000003b2
    304c:	05500110 	ldrbeq	r0, [r0, #-272]	; 0xfffffef0
    3050:	2000280c 	andcs	r2, r0, ip, lsl #16
    3054:	51011020 	tstpl	r1, r0, lsr #32
    3058:	01f33105 	mvnseq	r3, r5, lsl #2
    305c:	00002450 	andeq	r2, r0, r0, asr r4
    3060:	000cb311 	andeq	fp, ip, r1, lsl r3
    3064:	06280100 	strteq	r0, [r8], -r0, lsl #2
    3068:	00009100 	andeq	r9, r0, r0, lsl #2
    306c:	0000001c 	andeq	r0, r0, ip, lsl r0
    3070:	02c79c01 	sbceq	r9, r7, #256	; 0x100
    3074:	700e0000 	andvc	r0, lr, r0
    3078:	01006e69 	tsteq	r0, r9, ror #28
    307c:	002c1b28 	eoreq	r1, ip, r8, lsr #22
    3080:	0e030000 	cdpeq	0, 0, cr0, cr3, cr0, {0}
    3084:	0dff0000 	ldcleq	0, cr0, [pc]	; 308c <__code_start__-0x4f74>
    3088:	140f0000 	strne	r0, [pc], #-0	; 3090 <__code_start__-0x4f70>
    308c:	b2000091 	andlt	r0, r0, #145, 0	; 0x91
    3090:	10000003 	andne	r0, r0, r3
    3094:	0c055001 	stceq	0, cr5, [r5], {1}
    3098:	2020001c 	eorcs	r0, r0, ip, lsl r0
    309c:	05510110 	ldrbeq	r0, [r1, #-272]	; 0xfffffef0
    30a0:	5001f331 	andpl	pc, r1, r1, lsr r3	; <UNPREDICTABLE>
    30a4:	11000024 	tstne	r0, r4, lsr #32
    30a8:	00000c70 	andeq	r0, r0, r0, ror ip
    30ac:	f0062301 			; <UNDEFINED> instruction: 0xf0062301
    30b0:	10000090 	mulne	r0, r0, r0
    30b4:	01000000 	mrseq	r0, (UNDEF: 0)
    30b8:	0003089c 	muleq	r3, ip, r8
    30bc:	69700e00 	ldmdbvs	r0!, {r9, sl, fp}^
    30c0:	2301006e 	movwcs	r0, #4206	; 0x106e
    30c4:	00002c1f 	andeq	r2, r0, pc, lsl ip
    30c8:	000e2800 	andeq	r2, lr, r0, lsl #16
    30cc:	000e2400 	andeq	r2, lr, r0, lsl #8
    30d0:	90fc0f00 	rscsls	r0, ip, r0, lsl #30
    30d4:	03080000 	movweq	r0, #32768	; 0x8000
    30d8:	01100000 	tsteq	r0, r0
    30dc:	01f30350 	mvnseq	r0, r0, asr r3
    30e0:	51011050 	qaddpl	r1, r0, r1
    30e4:	00003101 	andeq	r3, r0, r1, lsl #2
    30e8:	000ab711 	andeq	fp, sl, r1, lsl r7
    30ec:	06140100 	ldreq	r0, [r4], -r0, lsl #2
    30f0:	0000909c 	muleq	r0, ip, r0
    30f4:	00000054 	andeq	r0, r0, r4, asr r0
    30f8:	03a69c01 			; <UNDEFINED> instruction: 0x03a69c01
    30fc:	700e0000 	andvc	r0, lr, r0
    3100:	01006e69 	tsteq	r0, r9, ror #28
    3104:	002c2114 	eoreq	r2, ip, r4, lsl r1
    3108:	0e4d0000 	cdpeq	0, 4, cr0, cr13, cr0, {0}
    310c:	0e490000 	cdpeq	0, 4, cr0, cr9, cr0, {0}
    3110:	660e0000 	strvs	r0, [lr], -r0
    3114:	14010076 	strne	r0, [r1], #-118	; 0xffffff8a
    3118:	00010f32 	andeq	r0, r1, r2, lsr pc
    311c:	000e6f00 	andeq	r6, lr, r0, lsl #30
    3120:	000e6b00 	andeq	r6, lr, r0, lsl #22
    3124:	0c8c1400 	cfstrseq	mvf1, [ip], {0}
    3128:	15010000 	strne	r0, [r1, #-0]
    312c:	0000620e 	andeq	r6, r0, lr, lsl #4
    3130:	000e9200 	andeq	r9, lr, r0, lsl #4
    3134:	000e9000 	andeq	r9, lr, r0
    3138:	0c371400 	cfldrseq	mvf1, [r7], #-0
    313c:	16010000 	strne	r0, [r1], -r0
    3140:	0000620e 	andeq	r6, r0, lr, lsl #4
    3144:	000ea700 	andeq	sl, lr, r0, lsl #14
    3148:	000ea500 	andeq	sl, lr, r0, lsl #10
    314c:	04c61400 	strbeq	r1, [r6], #1024	; 0x400
    3150:	17010000 	strne	r0, [r1, -r0]
    3154:	0000620e 	andeq	r6, r0, lr, lsl #4
    3158:	000ebc00 	andeq	fp, lr, r0, lsl #24
    315c:	000eba00 	andeq	fp, lr, r0, lsl #20
    3160:	90c81200 	sbcls	r1, r8, r0, lsl #4
    3164:	03a60000 			; <UNDEFINED> instruction: 0x03a60000
    3168:	03950000 	orrseq	r0, r5, #0, 0
    316c:	01100000 	tsteq	r0, r0
    3170:	00770250 	rsbseq	r0, r7, r0, asr r2
    3174:	90e80f00 	rscls	r0, r8, r0, lsl #30
    3178:	03b20000 			; <UNDEFINED> instruction: 0x03b20000
    317c:	01100000 	tsteq	r0, r0
    3180:	00770250 	rsbseq	r0, r7, r0, asr r2
    3184:	0c150000 	ldceq	0, cr0, [r5], {-0}
    3188:	0c000002 	stceq	0, cr0, [r0], {2}
    318c:	02000002 	andeq	r0, r0, #2, 0
    3190:	8c150aad 			; <UNDEFINED> instruction: 0x8c150aad
    3194:	8c000000 	stchi	0, cr0, [r0], {-0}
    3198:	02000000 	andeq	r0, r0, #0, 0
    319c:	a30006a1 	movwge	r0, #1697	; 0x6a1
    31a0:	04000006 	streq	r0, [r0], #-6
    31a4:	0010be00 	andseq	fp, r0, r0, lsl #28
    31a8:	12010400 	andne	r0, r1, #0, 8
    31ac:	0c000002 	stceq	0, cr0, [r0], {2}
    31b0:	00000d68 	andeq	r0, r0, r8, ror #26
    31b4:	0000057f 	andeq	r0, r0, pc, ror r5
    31b8:	00009184 	andeq	r9, r0, r4, lsl #3
    31bc:	000002b0 			; <UNDEFINED> instruction: 0x000002b0
    31c0:	00001503 	andeq	r1, r0, r3, lsl #10
    31c4:	69050402 	stmdbvs	r5, {r1, sl}
    31c8:	0300746e 	movweq	r7, #1134	; 0x46e
    31cc:	01d30704 	bicseq	r0, r3, r4, lsl #14
    31d0:	01030000 	mrseq	r0, (UNDEF: 3)
    31d4:	0001aa06 	andeq	sl, r1, r6, lsl #20
    31d8:	05020300 	streq	r0, [r2, #-768]	; 0xfffffd00
    31dc:	00000053 	andeq	r0, r0, r3, asr r0
    31e0:	f9050403 			; <UNDEFINED> instruction: 0xf9050403
    31e4:	03000000 	movweq	r0, #0
    31e8:	00f40508 	rscseq	r0, r4, r8, lsl #10
    31ec:	01030000 	mrseq	r0, (UNDEF: 3)
    31f0:	0001a808 	andeq	sl, r1, r8, lsl #16
    31f4:	07020300 	streq	r0, [r2, -r0, lsl #6]
    31f8:	000001e8 	andeq	r0, r0, r8, ror #3
    31fc:	ce070403 	cdpgt	4, 0, cr0, cr7, cr3, {0}
    3200:	03000001 	movweq	r0, #1
    3204:	01c90708 	biceq	r0, r9, r8, lsl #14
    3208:	25040000 	strcs	r0, [r4, #-0]
    320c:	7a000000 	bvc	3214 <__code_start__-0x4dec>
    3210:	05000000 	streq	r0, [r0, #-0]
    3214:	00000025 	andeq	r0, r0, r5, lsr #32
    3218:	00680600 	rsbeq	r0, r8, r0, lsl #12
    321c:	1c020000 	stcne	0, cr0, [r2], {-0}
    3220:	0000860e 	andeq	r8, r0, lr, lsl #12
    3224:	6b040700 	blvs	104e2c <__bss_end__+0xfaf54>
    3228:	04000000 	streq	r0, [r0], #-0
    322c:	00000025 	andeq	r0, r0, r5, lsr #32
    3230:	0000009b 	muleq	r0, fp, r0
    3234:	00009b05 	andeq	r9, r0, r5, lsl #22
    3238:	04070000 	streq	r0, [r7], #-0
    323c:	000000a8 	andeq	r0, r0, r8, lsr #1
    3240:	b1080103 	tstlt	r8, r3, lsl #2
    3244:	08000001 	stmdaeq	r0, {r0}
    3248:	000000a1 	andeq	r0, r0, r1, lsr #1
    324c:	0005ba06 	andeq	fp, r5, r6, lsl #20
    3250:	0e210200 	cdpeq	2, 2, cr0, cr1, cr0, {0}
    3254:	000000b9 	strheq	r0, [r0], -r9
    3258:	008c0407 	addeq	r0, ip, r7, lsl #8
    325c:	11060000 	mrsne	r0, (UNDEF: 6)
    3260:	01000006 	tsteq	r0, r6
    3264:	00a10d04 	adceq	r0, r1, r4, lsl #26
    3268:	fd090000 	stc2	0, cr0, [r9, #-0]
    326c:	0100000c 	tsteq	r0, ip
    3270:	00dd0e05 	sbcseq	r0, sp, r5, lsl #28
    3274:	03050000 	movweq	r0, #20480	; 0x5000
    3278:	00009ed0 	ldrdeq	r9, [r0], -r0
    327c:	2709040a 	strcs	r0, [r9, -sl, lsl #8]
    3280:	0100000d 	tsteq	r0, sp
    3284:	00dd0e06 	sbcseq	r0, sp, r6, lsl #28
    3288:	03050000 	movweq	r0, #20480	; 0x5000
    328c:	00009ecc 	andeq	r9, r0, ip, asr #29
    3290:	000d3109 	andeq	r3, sp, r9, lsl #2
    3294:	0c090100 	stfeqs	f0, [r9], {-0}
    3298:	00000025 	andeq	r0, r0, r5, lsr #32
    329c:	9ec80305 	cdpls	3, 12, cr0, cr8, cr5, {0}
    32a0:	08030000 	stmdaeq	r3, {}	; <UNPREDICTABLE>
    32a4:	000d2004 	andeq	r2, sp, r4
    32a8:	0d380b00 	vldmdbeq	r8!, {d0-d-1}
    32ac:	77010000 	strvc	r0, [r1, -r0]
    32b0:	0000dd07 	andeq	sp, r0, r7, lsl #26
    32b4:	00942400 	addseq	r2, r4, r0, lsl #8
    32b8:	00001000 	andeq	r1, r0, r0
    32bc:	0c9c0100 	ldfeqs	f0, [ip], {0}
    32c0:	00000ceb 	andeq	r0, r0, fp, ror #25
    32c4:	10066e01 	andne	r6, r6, r1, lsl #28
    32c8:	14000094 	strne	r0, [r0], #-148	; 0xffffff6c
    32cc:	01000000 	mrseq	r0, (UNDEF: 0)
    32d0:	0cca0d9c 	stcleq	13, cr0, [sl], {156}	; 0x9c
    32d4:	61010000 	mrsvs	r0, (UNDEF: 1)
    32d8:	00934806 	addseq	r4, r3, r6, lsl #16
    32dc:	0000a000 	andeq	sl, r0, r0
    32e0:	629c0100 	addsvs	r0, ip, #0
    32e4:	0e000002 	cdpeq	0, 0, cr0, cr0, cr2, {0}
    32e8:	00000d7d 	andeq	r0, r0, sp, ror sp
    32ec:	2c266101 	stfcss	f6, [r6], #-4
    32f0:	d7000000 	strle	r0, [r0, -r0]
    32f4:	cf00000e 	svcgt	0x0000000e
    32f8:	0f00000e 	svceq	0x0000000e
    32fc:	0000041b 	andeq	r0, r0, fp, lsl r4
    3300:	00000272 	andeq	r0, r0, r2, ror r2
    3304:	9a8c0305 	bls	fe303f20 <__bss_end__+0xfe2fa048>
    3308:	34100000 	ldrcc	r0, [r0], #-0
    330c:	74000006 	strvc	r0, [r0], #-6
    3310:	02000093 	andeq	r0, r0, #147, 0	; 0x93
    3314:	00000058 	andeq	r0, r0, r8, asr r0
    3318:	cb056601 	blgt	15cb24 <__bss_end__+0x152c4c>
    331c:	11000001 	tstne	r0, r1
    3320:	00000651 	andeq	r0, r0, r1, asr r6
    3324:	00000f13 	andeq	r0, r0, r3, lsl pc
    3328:	00000f11 	andeq	r0, r0, r1, lsl pc
    332c:	00064511 	andeq	r4, r6, r1, lsl r5
    3330:	000f2900 	andeq	r2, pc, r0, lsl #18
    3334:	000f2700 	andeq	r2, pc, r0, lsl #14
    3338:	065c1200 	ldrbeq	r1, [ip], -r0, lsl #4
    333c:	93740000 	cmnls	r4, #0, 0
    3340:	74040000 	strvc	r0, [r4], #-0
    3344:	00000093 	muleq	r0, r3, r0
    3348:	01000000 	mrseq	r0, (UNDEF: 0)
    334c:	77110c1f 			; <UNDEFINED> instruction: 0x77110c1f
    3350:	3e000006 	cdpcc	0, 0, cr0, cr0, cr6, {0}
    3354:	3c00000f 	stccc	0, cr0, [r0], {15}
    3358:	1100000f 	tstne	r0, pc
    335c:	0000066d 	andeq	r0, r0, sp, ror #12
    3360:	00000f54 	andeq	r0, r0, r4, asr pc
    3364:	00000f52 	andeq	r0, r0, r2, asr pc
    3368:	88130000 	ldmdahi	r3, {}	; <UNPREDICTABLE>
    336c:	82000093 	andhi	r0, r0, #147, 0	; 0x93
    3370:	14000006 	strne	r0, [r0], #-6
    3374:	000093a4 	andeq	r9, r0, r4, lsr #7
    3378:	0000068e 	andeq	r0, r0, lr, lsl #13
    337c:	0000020d 	andeq	r0, r0, sp, lsl #4
    3380:	05500115 	ldrbeq	r0, [r0, #-277]	; 0xfffffeeb
    3384:	0099c403 	addseq	ip, r9, r3, lsl #8
    3388:	51011500 	tstpl	r1, r0, lsl #10
    338c:	99140305 	ldmdbls	r4, {r0, r2, r8, r9}
    3390:	01150000 	tsteq	r5, r0
    3394:	8c030552 	cfstr32hi	mvfx0, [r3], {82}	; 0x52
    3398:	1500009a 	strne	r0, [r0, #-154]	; 0xffffff66
    339c:	08025301 	stmdaeq	r2, {r0, r8, r9, ip, lr}
    33a0:	7d021562 	cfstr32vc	mvfx1, [r2, #-392]	; 0xfffffe78
    33a4:	f8030500 			; <UNDEFINED> instruction: 0xf8030500
    33a8:	00000099 	muleq	r0, r9, r0
    33ac:	0093a813 	addseq	sl, r3, r3, lsl r8
    33b0:	00069a00 	andeq	r9, r6, r0, lsl #20
    33b4:	93ac1300 			; <UNDEFINED> instruction: 0x93ac1300
    33b8:	06820000 	streq	r0, [r2], r0
    33bc:	c8140000 	ldmdagt	r4, {}	; <UNPREDICTABLE>
    33c0:	8e000093 	mcrhi	0, 0, r0, cr0, cr3, {4}
    33c4:	58000006 	stmdapl	r0, {r1, r2}
    33c8:	15000002 	strne	r0, [r0, #-2]
    33cc:	03055001 	movweq	r5, #20481	; 0x5001
    33d0:	00009a00 	andeq	r9, r0, r0, lsl #20
    33d4:	05510115 	ldrbeq	r0, [r1, #-277]	; 0xfffffeeb
    33d8:	00991403 	addseq	r1, r9, r3, lsl #8
    33dc:	52011500 	andpl	r1, r1, #0, 10
    33e0:	9a8c0305 	bls	fe303ffc <__bss_end__+0xfe2fa124>
    33e4:	01150000 	tsteq	r5, r0
    33e8:	66080253 			; <UNDEFINED> instruction: 0x66080253
    33ec:	007d0215 	rsbseq	r0, sp, r5, lsl r2
    33f0:	9a3c0305 	bls	f0400c <__bss_end__+0xefa134>
    33f4:	13000000 	movwne	r0, #0
    33f8:	000093cc 	andeq	r9, r0, ip, asr #7
    33fc:	0000069a 	muleq	r0, sl, r6
    3400:	00a81600 	adceq	r1, r8, r0, lsl #12
    3404:	02720000 	rsbseq	r0, r2, #0, 0
    3408:	2c170000 	ldccs	0, cr0, [r7], {-0}
    340c:	16000000 	strne	r0, [r0], -r0
    3410:	02620800 	rsbeq	r0, r2, #0, 16
    3414:	6f0d0000 	svcvs	0x000d0000
    3418:	01000003 	tsteq	r0, r3
    341c:	93e80657 	mvnls	r0, #91226112	; 0x5700000
    3420:	00280000 	eoreq	r0, r8, r0
    3424:	9c010000 	stcls	0, cr0, [r1], {-0}
    3428:	00000297 	muleq	r0, r7, r2
    342c:	00940413 	addseq	r0, r4, r3, lsl r4
    3430:	00013200 	andeq	r3, r1, r0, lsl #4
    3434:	49180000 	ldmdbmi	r8, {}	; <UNPREDICTABLE>
    3438:	0100000d 	tsteq	r0, sp
    343c:	00dd0742 	sbcseq	r0, sp, r2, asr #14
    3440:	92240000 	eorls	r0, r4, #0, 0
    3444:	01240000 			; <UNDEFINED> instruction: 0x01240000
    3448:	9c010000 	stcls	0, cr0, [r1], {-0}
    344c:	000004a5 	andeq	r0, r0, r5, lsr #9
    3450:	000d760e 	andeq	r7, sp, lr, lsl #12
    3454:	20420100 	subcs	r0, r2, r0, lsl #2
    3458:	0000002c 	andeq	r0, r0, ip, lsr #32
    345c:	00000f7f 	andeq	r0, r0, pc, ror pc
    3460:	00000f67 	andeq	r0, r0, r7, ror #30
    3464:	000ce10e 	andeq	lr, ip, lr, lsl #2
    3468:	31420100 	mrscc	r0, (UNDEF: 82)
    346c:	0000002c 	andeq	r0, r0, ip, lsr #32
    3470:	00001037 	andeq	r1, r0, r7, lsr r0
    3474:	0000101d 	andeq	r1, r0, sp, lsl r0
    3478:	00041b0f 	andeq	r1, r4, pc, lsl #22
    347c:	0004b500 	andeq	fp, r4, r0, lsl #10
    3480:	74030500 	strvc	r0, [r3], #-1280	; 0xfffffb00
    3484:	1900009a 	stmdbne	r0, {r1, r3, r4, r7}
    3488:	00000618 	andeq	r0, r0, r8, lsl r6
    348c:	00009244 	andeq	r9, r0, r4, asr #4
    3490:	00924403 	addseq	r4, r2, r3, lsl #8
    3494:	00000400 	andeq	r0, r0, r0, lsl #8
    3498:	05450100 	strbeq	r0, [r5, #-256]	; 0xffffff00
    349c:	0000030f 	andeq	r0, r0, pc, lsl #6
    34a0:	00062911 	andeq	r2, r6, r1, lsl r9
    34a4:	0010e500 	andseq	lr, r0, r0, lsl #10
    34a8:	0010e300 	andseq	lr, r0, r0, lsl #6
    34ac:	e3100000 	tst	r0, #0, 0
    34b0:	60000005 	andvs	r0, r0, r5
    34b4:	00000092 	muleq	r0, r2, r0
    34b8:	00000040 	andeq	r0, r0, r0, asr #32
    34bc:	ae194a01 	vnmlsge.f32	s8, s18, s2
    34c0:	11000003 	tstne	r0, r3
    34c4:	000005fe 	strdeq	r0, [r0], -lr
    34c8:	00001100 	andeq	r1, r0, r0, lsl #2
    34cc:	000010f8 	strdeq	r1, [r0], -r8
    34d0:	0005f411 	andeq	pc, r5, r1, lsl r4	; <UNPREDICTABLE>
    34d4:	00114000 	andseq	r4, r1, r0
    34d8:	00113a00 	andseq	r3, r1, r0, lsl #20
    34dc:	00401a00 	subeq	r1, r0, r0, lsl #20
    34e0:	18190000 	ldmdane	r9, {}	; <UNPREDICTABLE>
    34e4:	60000006 	andvs	r0, r0, r6
    34e8:	03000092 	movweq	r0, #146	; 0x92
    34ec:	00009260 	andeq	r9, r0, r0, ror #4
    34f0:	00000004 	andeq	r0, r0, r4
    34f4:	6a052501 	bvs	14c900 <__bss_end__+0x142a28>
    34f8:	11000003 	tstne	r0, r3
    34fc:	00000629 	andeq	r0, r0, r9, lsr #12
    3500:	0000116f 	andeq	r1, r0, pc, ror #2
    3504:	0000116d 	andeq	r1, r0, sp, ror #2
    3508:	93181400 	tstls	r8, #0, 8
    350c:	068e0000 	streq	r0, [lr], r0
    3510:	03a30000 			; <UNDEFINED> instruction: 0x03a30000
    3514:	01150000 	tsteq	r5, r0
    3518:	fc030550 	stc2	5, cr0, [r3], {80}	; 0x50
    351c:	15000097 	strne	r0, [r0, #-151]	; 0xffffff69
    3520:	03055101 	movweq	r5, #20737	; 0x5101
    3524:	00009914 	andeq	r9, r0, r4, lsl r9
    3528:	05520115 	ldrbeq	r0, [r2, #-277]	; 0xfffffeeb
    352c:	009a8403 	addseq	r8, sl, r3, lsl #8
    3530:	53011500 	movwpl	r1, #5376	; 0x1500
    3534:	15250802 	strne	r0, [r5, #-2050]!	; 0xfffff7fe
    3538:	05007d02 	streq	r7, [r0, #-3330]	; 0xfffff2fe
    353c:	0099b803 	addseq	fp, r9, r3, lsl #16
    3540:	1c130000 	ldcne	0, cr0, [r3], {-0}
    3544:	9a000093 	bls	3798 <__code_start__-0x4868>
    3548:	00000006 	andeq	r0, r0, r6
    354c:	92841400 	addls	r1, r4, #0, 8
    3550:	04ba0000 	ldrteq	r0, [sl], #0
    3554:	03c30000 	biceq	r0, r3, #0, 0
    3558:	01150000 	tsteq	r5, r0
    355c:	01f30350 	mvnseq	r0, r0, asr r3
    3560:	a8140050 	ldmdage	r4, {r4, r6}
    3564:	8e000092 	mcrhi	0, 0, r0, cr0, cr2, {4}
    3568:	fc000006 	stc2	0, cr0, [r0], {6}
    356c:	15000003 	strne	r0, [r0, #-3]
    3570:	03055001 	movweq	r5, #20481	; 0x5001
    3574:	000097fc 	strdeq	r9, [r0], -ip
    3578:	05510115 	ldrbeq	r0, [r1, #-277]	; 0xfffffeeb
    357c:	00991403 	addseq	r1, r9, r3, lsl #8
    3580:	52011500 	andpl	r1, r1, #0, 10
    3584:	9a740305 	bls	1d041a0 <__bss_end__+0x1cfa2c8>
    3588:	01150000 	tsteq	r5, r0
    358c:	43080253 	movwmi	r0, #33363	; 0x8253
    3590:	007d0215 	rsbseq	r0, sp, r5, lsl r2
    3594:	99240305 	stmdbls	r4!, {r0, r2, r8, r9}
    3598:	13000000 	movwne	r0, #0
    359c:	000092ac 	andeq	r9, r0, ip, lsr #5
    35a0:	0000069a 	muleq	r0, sl, r6
    35a4:	0092b013 	addseq	fp, r2, r3, lsl r0
    35a8:	00068200 	andeq	r8, r6, r0, lsl #4
    35ac:	92cc1400 	sbcls	r1, ip, #0, 8
    35b0:	068e0000 	streq	r0, [lr], r0
    35b4:	04470000 	strbeq	r0, [r7], #-0
    35b8:	01150000 	tsteq	r5, r0
    35bc:	2c030550 	cfstr32cs	mvfx0, [r3], {80}	; 0x50
    35c0:	15000099 	strne	r0, [r0, #-153]	; 0xffffff67
    35c4:	03055101 	movweq	r5, #20737	; 0x5101
    35c8:	00009914 	andeq	r9, r0, r4, lsl r9
    35cc:	05520115 	ldrbeq	r0, [r2, #-277]	; 0xfffffeeb
    35d0:	009a7403 	addseq	r7, sl, r3, lsl #8
    35d4:	53011500 	movwpl	r1, #5376	; 0x1500
    35d8:	15440802 	strbne	r0, [r4, #-2050]	; 0xfffff7fe
    35dc:	05007d02 	streq	r7, [r0, #-3330]	; 0xfffff2fe
    35e0:	00996803 	addseq	r6, r9, r3, lsl #16
    35e4:	d0130000 	andsle	r0, r3, r0
    35e8:	9a000092 	bls	3838 <__code_start__-0x47c8>
    35ec:	13000006 	movwne	r0, #6
    35f0:	000092d4 	ldrdeq	r9, [r0], -r4
    35f4:	00000682 	andeq	r0, r0, r2, lsl #13
    35f8:	0092f014 	addseq	pc, r2, r4, lsl r0	; <UNPREDICTABLE>
    35fc:	00068e00 	andeq	r8, r6, r0, lsl #28
    3600:	00049200 	andeq	r9, r4, r0, lsl #4
    3604:	50011500 	andpl	r1, r1, r0, lsl #10
    3608:	99700305 	ldmdbls	r0!, {r0, r2, r8, r9}^
    360c:	01150000 	tsteq	r5, r0
    3610:	14030551 	strne	r0, [r3], #-1361	; 0xfffffaaf
    3614:	15000099 	strne	r0, [r0, #-153]	; 0xffffff67
    3618:	03055201 	movweq	r5, #20993	; 0x5201
    361c:	00009a74 	andeq	r9, r0, r4, ror sl
    3620:	02530115 	subseq	r0, r3, #1073741829	; 0x40000005
    3624:	02154508 	andseq	r4, r5, #8, 10	; 0x2000000
    3628:	0305007d 	movweq	r0, #20605	; 0x507d
    362c:	000099a4 	andeq	r9, r0, r4, lsr #19
    3630:	92f41300 	rscsls	r1, r4, #0, 6
    3634:	069a0000 	ldreq	r0, [sl], r0
    3638:	f8130000 			; <UNDEFINED> instruction: 0xf8130000
    363c:	ba000092 	blt	388c <__code_start__-0x4774>
    3640:	00000004 	andeq	r0, r0, r4
    3644:	0000a816 	andeq	sl, r0, r6, lsl r8
    3648:	0004b500 	andeq	fp, r4, r0, lsl #10
    364c:	002c1700 	eoreq	r1, ip, r0, lsl #14
    3650:	000f0000 	andeq	r0, pc, r0
    3654:	0004a508 	andeq	sl, r4, r8, lsl #10
    3658:	03371800 	teqeq	r7, #0, 16
    365c:	36010000 	strcc	r0, [r1], -r0
    3660:	0000dd07 	andeq	sp, r0, r7, lsl #26
    3664:	00918400 	addseq	r8, r1, r0, lsl #8
    3668:	0000a000 	andeq	sl, r0, r0
    366c:	ce9c0100 	fmlgte	f0, f4, f0
    3670:	0e000005 	cdpeq	0, 0, cr0, cr0, cr5, {0}
    3674:	00000d76 	andeq	r0, r0, r6, ror sp
    3678:	2c183601 	ldccs	6, cr3, [r8], {1}
    367c:	92000000 	andls	r0, r0, #0, 0
    3680:	82000011 	andhi	r0, r0, #17, 0
    3684:	0f000011 	svceq	0x00000011
    3688:	0000041b 	andeq	r0, r0, fp, lsl r4
    368c:	000005de 	ldrdeq	r0, [r0], -lr
    3690:	9a6c0305 	bls	1b042ac <__bss_end__+0x1afa3d4>
    3694:	721b0000 	andsvc	r0, fp, #0, 0
    3698:	01007465 	tsteq	r0, r5, ror #8
    369c:	00dd0b39 	sbcseq	r0, sp, r9, lsr fp
    36a0:	11ff0000 	mvnsne	r0, r0
    36a4:	11fd0000 	mvnsne	r0, r0
    36a8:	e3100000 	tst	r0, #0, 0
    36ac:	ac000005 	stcge	0, cr0, [r0], {5}
    36b0:	01000091 	swpeq	r0, r1, [r0]	; <UNPREDICTABLE>
    36b4:	00000028 	andeq	r0, r0, r8, lsr #32
    36b8:	40123a01 	andsmi	r3, r2, r1, lsl #20
    36bc:	11000005 	tstne	r0, r5
    36c0:	000005fe 	strdeq	r0, [r0], -lr
    36c4:	00001214 	andeq	r1, r0, r4, lsl r2
    36c8:	00001212 	andeq	r1, r0, r2, lsl r2
    36cc:	0005f411 	andeq	pc, r5, r1, lsl r4	; <UNPREDICTABLE>
    36d0:	00122c00 	andseq	r2, r2, r0, lsl #24
    36d4:	00122800 	andseq	r2, r2, r0, lsl #16
    36d8:	00281c00 	eoreq	r1, r8, r0, lsl #24
    36dc:	14000000 	strne	r0, [r0], #-0
    36e0:	000091e0 	andeq	r9, r0, r0, ror #3
    36e4:	0000068e 	andeq	r0, r0, lr, lsl #13
    36e8:	00000579 	andeq	r0, r0, r9, ror r5
    36ec:	05500115 	ldrbeq	r0, [r0, #-277]	; 0xfffffeeb
    36f0:	0097fc03 	addseq	pc, r7, r3, lsl #24
    36f4:	51011500 	tstpl	r1, r0, lsl #10
    36f8:	99140305 	ldmdbls	r4, {r0, r2, r8, r9}
    36fc:	01150000 	tsteq	r5, r0
    3700:	6c030552 	cfstr32vs	mvfx0, [r3], {82}	; 0x52
    3704:	1500009a 	strne	r0, [r0, #-154]	; 0xffffff66
    3708:	08025301 	stmdaeq	r2, {r0, r8, r9, ip, lr}
    370c:	7d021537 	cfstr32vc	mvfx1, [r2, #-220]	; 0xffffff24
    3710:	24030500 	strcs	r0, [r3], #-1280	; 0xfffffb00
    3714:	00000099 	muleq	r0, r9, r0
    3718:	0091e413 	addseq	lr, r1, r3, lsl r4
    371c:	00069a00 	andeq	r9, r6, r0, lsl #20
    3720:	91e81300 	mvnls	r1, r0, lsl #6
    3724:	06820000 	streq	r0, [r2], r0
    3728:	04140000 	ldreq	r0, [r4], #-0
    372c:	8e000092 	mcrhi	0, 0, r0, cr0, cr2, {4}
    3730:	c4000006 	strgt	r0, [r0], #-6
    3734:	15000005 	strne	r0, [r0, #-5]
    3738:	03055001 	movweq	r5, #20481	; 0x5001
    373c:	0000992c 	andeq	r9, r0, ip, lsr #18
    3740:	05510115 	ldrbeq	r0, [r1, #-277]	; 0xfffffeeb
    3744:	00991403 	addseq	r1, r9, r3, lsl #8
    3748:	52011500 	andpl	r1, r1, #0, 10
    374c:	9a6c0305 	bls	1b04368 <__bss_end__+0x1afa490>
    3750:	01150000 	tsteq	r5, r0
    3754:	38080253 	stmdacc	r8, {r0, r1, r4, r6, r9}
    3758:	007d0215 	rsbseq	r0, sp, r5, lsl r2
    375c:	99680305 	stmdbls	r8!, {r0, r2, r8, r9}^
    3760:	13000000 	movwne	r0, #0
    3764:	00009208 	andeq	r9, r0, r8, lsl #4
    3768:	0000069a 	muleq	r0, sl, r6
    376c:	00a81600 	adceq	r1, r8, r0, lsl #12
    3770:	05de0000 	ldrbeq	r0, [lr]
    3774:	2c170000 	ldccs	0, cr0, [r7], {-0}
    3778:	07000000 	streq	r0, [r0, -r0]
    377c:	05ce0800 	strbeq	r0, [lr, #2048]	; 0x800
    3780:	181d0000 	ldmdane	sp, {}	; <UNPREDICTABLE>
    3784:	0100000d 	tsteq	r0, sp
    3788:	002c1824 	eoreq	r1, ip, r4, lsr #16
    378c:	18030000 	stmdane	r3, {}	; <UNPREDICTABLE>
    3790:	1e000006 	cdpne	0, 0, cr0, cr0, cr6, {0}
    3794:	24010078 	strcs	r0, [r1], #-120	; 0xffffff88
    3798:	00002c29 	andeq	r2, r0, r9, lsr #24
    379c:	006e1e00 	rsbeq	r1, lr, r0, lsl #28
    37a0:	2c352401 	cfldrscs	mvf2, [r5], #-4
    37a4:	0f000000 	svceq	0x00000000
    37a8:	0000041b 	andeq	r0, r0, fp, lsl r4
    37ac:	000005de 	ldrdeq	r0, [r0], -lr
    37b0:	9a840305 	bls	fe1043cc <__bss_end__+0xfe0fa4f4>
    37b4:	1d000000 	stcne	0, cr0, [r0, #-0]
    37b8:	00000cf5 	strdeq	r0, [r0], -r5
    37bc:	2c182101 	ldfcss	f2, [r8], {1}
    37c0:	03000000 	movweq	r0, #0
    37c4:	00000634 	andeq	r0, r0, r4, lsr r6
    37c8:	0100781e 	tsteq	r0, lr, lsl r8
    37cc:	002c2921 	eoreq	r2, ip, r1, lsr #18
    37d0:	1d000000 	stcne	0, cr0, [r0, #-0]
    37d4:	00000d59 	andeq	r0, r0, r9, asr sp
    37d8:	2c181e01 	ldccs	14, cr1, [r8], {1}
    37dc:	03000000 	movweq	r0, #0
    37e0:	0000065c 	andeq	r0, r0, ip, asr r6
    37e4:	7274701e 	rsbsvc	r7, r4, #30, 0
    37e8:	2d1e0100 	ldfcss	f0, [lr, #-0]
    37ec:	000000dd 	ldrdeq	r0, [r0], -sp
    37f0:	01006e1e 	tsteq	r0, lr, lsl lr
    37f4:	002c3b1e 	eoreq	r3, ip, lr, lsl fp
    37f8:	1d000000 	stcne	0, cr0, [r0, #-0]
    37fc:	00000cbf 			; <UNDEFINED> instruction: 0x00000cbf
    3800:	2c181b01 			; <UNDEFINED> instruction: 0x2c181b01
    3804:	03000000 	movweq	r0, #0
    3808:	00000682 	andeq	r0, r0, r2, lsl #13
    380c:	0100781e 	tsteq	r0, lr, lsl r8
    3810:	002c2c1b 	eoreq	r2, ip, fp, lsl ip
    3814:	6e1e0000 	cdpvs	0, 1, cr0, cr14, cr0, {0}
    3818:	381b0100 	ldmdacc	fp, {r8}
    381c:	0000002c 	andeq	r0, r0, ip, lsr #32
    3820:	0d091f00 	stceq	15, cr1, [r9, #-0]
    3824:	0d090000 	stceq	0, cr0, [r9, #-0]
    3828:	1d020000 	stcne	0, cr0, [r2, #-0]
    382c:	054c1f06 	strbeq	r1, [ip, #-3846]	; 0xfffff0fa
    3830:	054c0000 	strbeq	r0, [ip, #-0]
    3834:	28020000 	stmdacs	r2, {}	; <UNPREDICTABLE>
    3838:	01111f06 	tsteq	r1, r6, lsl #30
    383c:	01110000 	tsteq	r1, r0
    3840:	67020000 	strvs	r0, [r2, -r0]
    3844:	01490006 	cmpeq	r9, r6
    3848:	00040000 	andeq	r0, r4, r0
    384c:	000012a5 	andeq	r1, r0, r5, lsr #5
    3850:	02120104 	andseq	r0, r2, #1
    3854:	a10c0000 	mrsge	r0, (UNDEF: 12)
    3858:	7f00000d 	svcvc	0x0000000d
    385c:	34000005 	strcc	r0, [r0], #-5
    3860:	3c000094 	stccc	0, cr0, [r0], {148}	; 0x94
    3864:	ec000000 	stc	0, cr0, [r0], {-0}
    3868:	02000017 	andeq	r0, r0, #23, 0
    386c:	6e690504 	cdpvs	5, 6, cr0, cr9, cr4, {0}
    3870:	04030074 	streq	r0, [r3], #-116	; 0xffffff8c
    3874:	0001d307 	andeq	sp, r1, r7, lsl #6
    3878:	06010300 	streq	r0, [r1], -r0, lsl #6
    387c:	000001aa 	andeq	r0, r0, sl, lsr #3
    3880:	53050203 	movwpl	r0, #20995	; 0x5203
    3884:	03000000 	movweq	r0, #0
    3888:	00f90504 	rscseq	r0, r9, r4, lsl #10
    388c:	08030000 	stmdaeq	r3, {}	; <UNPREDICTABLE>
    3890:	0000f405 	andeq	pc, r0, r5, lsl #8
    3894:	08010300 	stmdaeq	r1, {r8, r9}
    3898:	000001a8 	andeq	r0, r0, r8, lsr #3
    389c:	e8070203 	stmda	r7, {r0, r1, r9}
    38a0:	03000001 	movweq	r0, #1
    38a4:	01ce0704 	biceq	r0, lr, r4, lsl #14
    38a8:	08030000 	stmdaeq	r3, {}	; <UNPREDICTABLE>
    38ac:	0001c907 	andeq	ip, r1, r7, lsl #18
    38b0:	00250400 	eoreq	r0, r5, r0, lsl #8
    38b4:	007a0000 	rsbseq	r0, sl, r0
    38b8:	25050000 	strcs	r0, [r5, #-0]
    38bc:	00000000 	andeq	r0, r0, r0
    38c0:	00006806 	andeq	r6, r0, r6, lsl #16
    38c4:	0e1c0200 	cdpeq	2, 1, cr0, cr12, cr0, {0}
    38c8:	00000086 	andeq	r0, r0, r6, lsl #1
    38cc:	006b0407 	rsbeq	r0, fp, r7, lsl #8
    38d0:	25040000 	strcs	r0, [r4, #-0]
    38d4:	9b000000 	blls	38dc <__code_start__-0x4724>
    38d8:	05000000 	streq	r0, [r0, #-0]
    38dc:	0000009b 	muleq	r0, fp, r0
    38e0:	a8040700 	stmdage	r4, {r8, r9, sl}
    38e4:	03000000 	movweq	r0, #0
    38e8:	01b10801 			; <UNDEFINED> instruction: 0x01b10801
    38ec:	a1080000 	mrsge	r0, (UNDEF: 8)
    38f0:	06000000 	streq	r0, [r0], -r0
    38f4:	000005ba 			; <UNDEFINED> instruction: 0x000005ba
    38f8:	b90e2102 	stmdblt	lr, {r1, r8, sp}
    38fc:	07000000 	streq	r0, [r0, -r0]
    3900:	00008c04 	andeq	r8, r0, r4, lsl #24
    3904:	007a0900 	rsbseq	r0, sl, r0, lsl #18
    3908:	06010000 	streq	r0, [r1], -r0
    390c:	a8030507 	stmdage	r3, {r0, r1, r2, r8, sl}
    3910:	0a00009a 	beq	3b80 <__code_start__-0x4480>
    3914:	00000d94 	muleq	r0, r4, sp
    3918:	60060b01 	andvs	r0, r6, r1, lsl #22
    391c:	10000094 	mulne	r0, r4, r0
    3920:	01000000 	mrseq	r0, (UNDEF: 0)
    3924:	0000f19c 	muleq	r0, ip, r1
    3928:	70660b00 	rsbvc	r0, r6, r0, lsl #22
    392c:	190b0100 	stmdbne	fp, {r8}
    3930:	00000086 	andeq	r0, r0, r6, lsl #1
    3934:	0c005001 	stceq	0, cr5, [r0], {1}
    3938:	00000d09 	andeq	r0, r0, r9, lsl #26
    393c:	48060801 	stmdami	r6, {r0, fp}
    3940:	18000094 	stmdane	r0, {r2, r4, r7}
    3944:	01000000 	mrseq	r0, (UNDEF: 0)
    3948:	0d830d9c 	stceq	13, cr0, [r3, #624]	; 0x270
    394c:	03010000 	movweq	r0, #4096	; 0x1000
    3950:	0000250c 	andeq	r2, r0, ip, lsl #10
    3954:	00943400 	addseq	r3, r4, r0, lsl #8
    3958:	00001400 	andeq	r1, r0, r0, lsl #8
    395c:	409c0100 	addsmi	r0, ip, r0, lsl #2
    3960:	0e000001 	cdpeq	0, 0, cr0, cr0, cr1, {0}
    3964:	03010063 	movweq	r0, #4195	; 0x1063
    3968:	00002521 	andeq	r2, r0, r1, lsr #10
    396c:	00125000 	andseq	r5, r2, r0
    3970:	00124c00 	andseq	r4, r2, r0, lsl #24
    3974:	94400f00 	strbls	r0, [r0], #-3840	; 0xfffff100
    3978:	01400000 	mrseq	r0, (UNDEF: 64)
    397c:	01100000 	tsteq	r0, r0
    3980:	00740250 	rsbseq	r0, r4, r0, asr r2
    3984:	95110000 	ldrls	r0, [r1, #-0]
    3988:	9500000b 	strls	r0, [r0, #-11]
    398c:	0200000b 	andeq	r0, r0, #11, 0
    3990:	3700063b 	smladxcc	r0, fp, r6, r0
    3994:	04000001 	streq	r0, [r0], #-1
    3998:	0013b400 	andseq	fp, r3, r0, lsl #8
    399c:	12010400 	andne	r0, r1, #0, 8
    39a0:	0c000002 	stceq	0, cr0, [r0], {2}
    39a4:	00000db0 			; <UNDEFINED> instruction: 0x00000db0
    39a8:	0000057f 	andeq	r0, r0, pc, ror r5
    39ac:	00009470 	andeq	r9, r0, r0, ror r4
    39b0:	00000034 	andeq	r0, r0, r4, lsr r0
    39b4:	00001896 	muleq	r0, r6, r8
    39b8:	69050402 	stmdbvs	r5, {r1, sl}
    39bc:	0300746e 	movweq	r7, #1134	; 0x46e
    39c0:	01d30704 	bicseq	r0, r3, r4, lsl #14
    39c4:	01030000 	mrseq	r0, (UNDEF: 3)
    39c8:	0001aa06 	andeq	sl, r1, r6, lsl #20
    39cc:	05020300 	streq	r0, [r2, #-768]	; 0xfffffd00
    39d0:	00000053 	andeq	r0, r0, r3, asr r0
    39d4:	f9050403 			; <UNDEFINED> instruction: 0xf9050403
    39d8:	03000000 	movweq	r0, #0
    39dc:	00f40508 	rscseq	r0, r4, r8, lsl #10
    39e0:	01030000 	mrseq	r0, (UNDEF: 3)
    39e4:	0001a808 	andeq	sl, r1, r8, lsl #16
    39e8:	07020300 	streq	r0, [r2, -r0, lsl #6]
    39ec:	000001e8 	andeq	r0, r0, r8, ror #3
    39f0:	ce070403 	cdpgt	4, 0, cr0, cr7, cr3, {0}
    39f4:	03000001 	movweq	r0, #1
    39f8:	01c90708 	biceq	r0, r9, r8, lsl #14
    39fc:	25040000 	strcs	r0, [r4, #-0]
    3a00:	7a000000 	bvc	3a08 <__code_start__-0x45f8>
    3a04:	05000000 	streq	r0, [r0, #-0]
    3a08:	00000025 	andeq	r0, r0, r5, lsr #32
    3a0c:	00680600 	rsbeq	r0, r8, r0, lsl #12
    3a10:	1c020000 	stcne	0, cr0, [r2], {-0}
    3a14:	0000860e 	andeq	r8, r0, lr, lsl #12
    3a18:	6b040700 	blvs	105620 <__bss_end__+0xfb748>
    3a1c:	04000000 	streq	r0, [r0], #-0
    3a20:	00000025 	andeq	r0, r0, r5, lsr #32
    3a24:	0000009b 	muleq	r0, fp, r0
    3a28:	00009b05 	andeq	r9, r0, r5, lsl #22
    3a2c:	04070000 	streq	r0, [r7], #-0
    3a30:	000000a8 	andeq	r0, r0, r8, lsr #1
    3a34:	b1080103 	tstlt	r8, r3, lsl #2
    3a38:	08000001 	stmdaeq	r0, {r0}
    3a3c:	000000a1 	andeq	r0, r0, r1, lsr #1
    3a40:	0005ba06 	andeq	fp, r5, r6, lsl #20
    3a44:	0e210200 	cdpeq	2, 2, cr0, cr1, cr0, {0}
    3a48:	000000b9 	strheq	r0, [r0], -r9
    3a4c:	008c0407 	addeq	r0, ip, r7, lsl #8
    3a50:	4a090000 	bmi	243a58 <__bss_end__+0x239b80>
    3a54:	01000006 	tsteq	r0, r6
    3a58:	01340704 	teqeq	r4, r4, lsl #14
    3a5c:	94700000 	ldrbtls	r0, [r0], #-0
    3a60:	00340000 	eorseq	r0, r4, r0
    3a64:	9c010000 	stcls	0, cr0, [r1], {-0}
    3a68:	00000134 	andeq	r0, r0, r4, lsr r1
    3a6c:	000dbe0a 	andeq	fp, sp, sl, lsl #28
    3a70:	15040100 	strne	r0, [r4, #-256]	; 0xffffff00
    3a74:	00000134 	andeq	r0, r0, r4, lsr r1
    3a78:	730b5001 	movwvc	r5, #45057	; 0xb001
    3a7c:	01006372 	tsteq	r0, r2, ror r3
    3a80:	009b2704 	addseq	r2, fp, r4, lsl #14
    3a84:	12720000 	rsbsne	r0, r2, #0, 0
    3a88:	126e0000 	rsbne	r0, lr, #0, 0
    3a8c:	730c0000 	movwvc	r0, #49152	; 0xc000
    3a90:	05010031 	streq	r0, [r1, #-49]	; 0xffffffcf
    3a94:	0001340b 	andeq	r3, r1, fp, lsl #8
    3a98:	00129d00 	andseq	r9, r2, r0, lsl #26
    3a9c:	00129300 	andseq	r9, r2, r0, lsl #6
    3aa0:	32730c00 	rsbscc	r0, r3, #0, 24
    3aa4:	11060100 	mrsne	r0, (UNDEF: 22)
    3aa8:	0000009b 	muleq	r0, fp, r0
    3aac:	000012e2 	andeq	r1, r0, r2, ror #5
    3ab0:	000012de 	ldrdeq	r1, [r0], -lr
    3ab4:	0100630c 	tsteq	r0, ip, lsl #6
    3ab8:	00a10a07 	adceq	r0, r1, r7, lsl #20
    3abc:	13060000 	movwne	r0, #24576	; 0x6000
    3ac0:	13020000 	movwne	r0, #8192	; 0x2000
    3ac4:	07000000 	streq	r0, [r0, -r0]
    3ac8:	0000a104 	andeq	sl, r0, r4, lsl #2
    3acc:	014e0000 	mrseq	r0, (UNDEF: 78)
    3ad0:	00040000 	andeq	r0, r4, r0
    3ad4:	0000146a 	andeq	r1, r0, sl, ror #8
    3ad8:	02120104 	andseq	r0, r2, #1
    3adc:	ca0c0000 	bgt	303ae4 <__bss_end__+0x2f9c0c>
    3ae0:	7f00000d 	svcvc	0x0000000d
    3ae4:	70000005 	andvc	r0, r0, r5
    3ae8:	00000000 	andeq	r0, r0, r0
    3aec:	8c000000 	stchi	0, cr0, [r0], {-0}
    3af0:	02000019 	andeq	r0, r0, #25, 0
    3af4:	6e690504 	cdpvs	5, 6, cr0, cr9, cr4, {0}
    3af8:	c3030074 	movwgt	r0, #12404	; 0x3074
    3afc:	0300000d 	movweq	r0, #13
    3b00:	003817d1 	ldrsbteq	r1, [r8], -r1
    3b04:	04040000 	streq	r0, [r4], #-0
    3b08:	0001d307 	andeq	sp, r1, r7, lsl #6
    3b0c:	06010400 	streq	r0, [r1], -r0, lsl #8
    3b10:	000001aa 	andeq	r0, r0, sl, lsr #3
    3b14:	53050204 	movwpl	r0, #20996	; 0x5204
    3b18:	04000000 	streq	r0, [r0], #-0
    3b1c:	00f90504 	rscseq	r0, r9, r4, lsl #10
    3b20:	08040000 	stmdaeq	r4, {}	; <UNPREDICTABLE>
    3b24:	0000f405 	andeq	pc, r0, r5, lsl #8
    3b28:	08010400 	stmdaeq	r1, {sl}
    3b2c:	000001a8 	andeq	r0, r0, r8, lsr #3
    3b30:	00005b05 	andeq	r5, r0, r5, lsl #22
    3b34:	07020400 	streq	r0, [r2, -r0, lsl #8]
    3b38:	000001e8 	andeq	r0, r0, r8, ror #3
    3b3c:	ce070404 	cdpgt	4, 0, cr0, cr7, cr4, {0}
    3b40:	04000001 	streq	r0, [r0], #-1
    3b44:	01c90708 	biceq	r0, r9, r8, lsl #14
    3b48:	25060000 	strcs	r0, [r6, #-0]
    3b4c:	8b000000 	blhi	3b54 <__code_start__-0x44ac>
    3b50:	07000000 	streq	r0, [r0, -r0]
    3b54:	00000025 	andeq	r0, r0, r5, lsr #32
    3b58:	00680800 	rsbeq	r0, r8, r0, lsl #16
    3b5c:	1c020000 	stcne	0, cr0, [r2], {-0}
    3b60:	0000970e 	andeq	r9, r0, lr, lsl #14
    3b64:	7c040900 			; <UNDEFINED> instruction: 0x7c040900
    3b68:	06000000 	streq	r0, [r0], -r0
    3b6c:	00000025 	andeq	r0, r0, r5, lsr #32
    3b70:	000000ac 	andeq	r0, r0, ip, lsr #1
    3b74:	0000ac07 	andeq	sl, r0, r7, lsl #24
    3b78:	04090000 	streq	r0, [r9], #-0
    3b7c:	000000b9 	strheq	r0, [r0], -r9
    3b80:	b1080104 	tstlt	r8, r4, lsl #2
    3b84:	05000001 	streq	r0, [r0, #-1]
    3b88:	000000b2 	strheq	r0, [r0], -r2
    3b8c:	0005ba08 	andeq	fp, r5, r8, lsl #20
    3b90:	0e210200 	cdpeq	2, 2, cr0, cr1, cr0, {0}
    3b94:	000000ca 	andeq	r0, r0, sl, asr #1
    3b98:	009d0409 	addseq	r0, sp, r9, lsl #8
    3b9c:	8d0a0000 	stchi	0, cr0, [sl, #-0]
    3ba0:	01000006 	tsteq	r0, r6
    3ba4:	00250504 	eoreq	r0, r5, r4, lsl #10
    3ba8:	94a40000 	strtls	r0, [r4], #0
    3bac:	002c0000 	eoreq	r0, ip, r0
    3bb0:	9c010000 	stcls	0, cr0, [r1], {-0}
    3bb4:	0000014b 	andeq	r0, r0, fp, asr #2
    3bb8:	31735f0b 	cmncc	r3, fp, lsl #30
    3bbc:	19040100 	stmdbne	r4, {r8}
    3bc0:	000000ac 	andeq	r0, r0, ip, lsr #1
    3bc4:	00001328 	andeq	r1, r0, r8, lsr #6
    3bc8:	00001324 	andeq	r1, r0, r4, lsr #6
    3bcc:	32735f0b 	rsbscc	r5, r3, #11, 30	; 0x2c
    3bd0:	2a040100 	bcs	103fd8 <__bss_end__+0xfa100>
    3bd4:	000000ac 	andeq	r0, r0, ip, lsr #1
    3bd8:	0000134d 	andeq	r1, r0, sp, asr #6
    3bdc:	00001349 	andeq	r1, r0, r9, asr #6
    3be0:	01006e0b 	tsteq	r0, fp, lsl #28
    3be4:	002c3604 	eoreq	r3, ip, r4, lsl #12
    3be8:	13740000 	cmnne	r4, #0, 0
    3bec:	136e0000 	cmnne	lr, #0, 0
    3bf0:	730c0000 	movwvc	r0, #49152	; 0xc000
    3bf4:	05010031 	streq	r0, [r1, #-49]	; 0xffffffcf
    3bf8:	00014b1a 	andeq	r4, r1, sl, lsl fp
    3bfc:	0013a700 	andseq	sl, r3, r0, lsl #14
    3c00:	00139f00 	andseq	r9, r3, r0, lsl #30
    3c04:	32730c00 	rsbscc	r0, r3, #0, 24
    3c08:	2c050100 	stfcss	f0, [r5], {-0}
    3c0c:	0000014b 	andeq	r0, r0, fp, asr #2
    3c10:	000013e3 	andeq	r1, r0, r3, ror #7
    3c14:	000013dd 	ldrdeq	r1, [r0], -sp
    3c18:	62040900 	andvs	r0, r4, #0, 18
    3c1c:	00000000 	andeq	r0, r0, r0

Disassembly of section .debug_abbrev:

00000000 <.debug_abbrev>:
       0:	25011101 	strcs	r1, [r1, #-257]	; 0xfffffeff
       4:	030b130e 	movweq	r1, #45838	; 0xb30e
       8:	110e1b0e 	tstne	lr, lr, lsl #22
       c:	10061201 	andne	r1, r6, r1, lsl #4
      10:	02000017 	andeq	r0, r0, #23, 0
      14:	0b0b0024 	bleq	2c00ac <__bss_end__+0x2b61d4>
      18:	08030b3e 	stmdaeq	r3, {r1, r2, r3, r4, r5, r8, r9, fp}
      1c:	24030000 	strcs	r0, [r3], #-0
      20:	3e0b0b00 	vmlacc.f64	d0, d11, d0
      24:	000e030b 	andeq	r0, lr, fp, lsl #6
      28:	00350400 	eorseq	r0, r5, r0, lsl #8
      2c:	00001349 	andeq	r1, r0, r9, asr #6
      30:	27011505 	strcs	r1, [r1, -r5, lsl #10]
      34:	01134919 	tsteq	r3, r9, lsl r9
      38:	06000013 			; <UNDEFINED> instruction: 0x06000013
      3c:	13490005 	movtne	r0, #36869	; 0x9005
      40:	34070000 	strcc	r0, [r7], #-0
      44:	3a0e0300 	bcc	380c4c <__bss_end__+0x376d74>
      48:	390b3b0b 	stmdbcc	fp, {r0, r1, r3, r8, r9, fp, ip, sp}
      4c:	3f13490b 	svccc	0x0013490b
      50:	00193c19 	andseq	r3, r9, r9, lsl ip
      54:	000f0800 	andeq	r0, pc, r0, lsl #16
      58:	13490b0b 	movtne	r0, #39691	; 0x9b0b
      5c:	26090000 	strcs	r0, [r9], -r0
      60:	00134900 	andseq	r4, r3, r0, lsl #18
      64:	01040a00 	tsteq	r4, r0, lsl #20
      68:	0b0b0b3e 	bleq	2c2d68 <__bss_end__+0x2b8e90>
      6c:	0b3a1349 	bleq	e84d98 <__bss_end__+0xe7aec0>
      70:	0b390b3b 	bleq	e42d64 <__bss_end__+0xe38e8c>
      74:	00001301 	andeq	r1, r0, r1, lsl #6
      78:	0300280b 	movweq	r2, #2059	; 0x80b
      7c:	00061c0e 	andeq	r1, r6, lr, lsl #24
      80:	00340c00 	eorseq	r0, r4, r0, lsl #24
      84:	0b3a0e03 	bleq	e83898 <__bss_end__+0xe799c0>
      88:	0b390b3b 	bleq	e42d7c <__bss_end__+0xe38ea4>
      8c:	193f1349 	ldmdbne	pc!, {r0, r3, r6, r8, r9, ip}	; <UNPREDICTABLE>
      90:	00001802 	andeq	r1, r0, r2, lsl #16
      94:	0300340d 	movweq	r3, #1037	; 0x40d
      98:	3b0b3a0e 	blcc	2ce8d8 <__bss_end__+0x2c4a00>
      9c:	490b390b 	stmdbmi	fp, {r0, r1, r3, r8, fp, ip, sp}
      a0:	00180213 	andseq	r0, r8, r3, lsl r2
      a4:	00340e00 	eorseq	r0, r4, r0, lsl #28
      a8:	0b3a0803 	bleq	e820bc <__bss_end__+0xe781e4>
      ac:	0b390b3b 	bleq	e42da0 <__bss_end__+0xe38ec8>
      b0:	18021349 	stmdane	r2, {r0, r3, r6, r8, r9, ip}
      b4:	2e0f0000 	cdpcs	0, 0, cr0, cr15, cr0, {0}
      b8:	03193f01 	tsteq	r9, #1, 30
      bc:	3b0b3a0e 	blcc	2ce8fc <__bss_end__+0x2c4a24>
      c0:	270b390b 	strcs	r3, [fp, -fp, lsl #18]
      c4:	12011119 	andne	r1, r1, #1073741830	; 0x40000006
      c8:	97184006 	ldrls	r4, [r8, -r6]
      cc:	13011942 	movwne	r1, #6466	; 0x1942
      d0:	34100000 	ldrcc	r0, [r0], #-0
      d4:	3a0e0300 	bcc	380cdc <__bss_end__+0x376e04>
      d8:	390b3b0b 	stmdbcc	fp, {r0, r1, r3, r8, r9, fp, ip, sp}
      dc:	0213490b 	andseq	r4, r3, #180224	; 0x2c000
      e0:	1742b717 	smlaldne	fp, r2, r7, r7
      e4:	89110000 	ldmdbhi	r1, {}	; <UNPREDICTABLE>
      e8:	11000182 	smlabbne	r0, r2, r1, r0
      ec:	00133101 	andseq	r3, r3, r1, lsl #2
      f0:	82891200 	addhi	r1, r9, #0, 4
      f4:	01110101 	tsteq	r1, r1, lsl #2
      f8:	13011331 	movwne	r1, #4913	; 0x1331
      fc:	8a130000 	bhi	4c0104 <__bss_end__+0x4b622c>
     100:	02000182 	andeq	r0, r0, #-2147483616	; 0x80000020
     104:	18429118 	stmdane	r2, {r3, r4, r8, ip, pc}^
     108:	05140000 	ldreq	r0, [r4, #-0]
     10c:	3a080300 	bcc	200d14 <__bss_end__+0x1f6e3c>
     110:	390b3b0b 	stmdbcc	fp, {r0, r1, r3, r8, r9, fp, ip, sp}
     114:	0213490b 	andseq	r4, r3, #180224	; 0x2c000
     118:	1742b717 	smlaldne	fp, r2, r7, r7
     11c:	34150000 	ldrcc	r0, [r5], #-0
     120:	3a080300 	bcc	200d28 <__bss_end__+0x1f6e50>
     124:	390b3b0b 	stmdbcc	fp, {r0, r1, r3, r8, r9, fp, ip, sp}
     128:	0213490b 	andseq	r4, r3, #180224	; 0x2c000
     12c:	1742b717 	smlaldne	fp, r2, r7, r7
     130:	2e160000 	cdpcs	0, 1, cr0, cr6, cr0, {0}
     134:	3a0e0301 	bcc	380d40 <__bss_end__+0x376e68>
     138:	390b3b0b 	stmdbcc	fp, {r0, r1, r3, r8, r9, fp, ip, sp}
     13c:	1119270b 	tstne	r9, fp, lsl #14
     140:	40061201 	andmi	r1, r6, r1, lsl #4
     144:	19429718 	stmdbne	r2, {r3, r4, r8, r9, sl, ip, pc}^
     148:	00001301 	andeq	r1, r0, r1, lsl #6
     14c:	03000517 	movweq	r0, #1303	; 0x517
     150:	3b0b3a0e 	blcc	2ce990 <__bss_end__+0x2c4ab8>
     154:	490b390b 	stmdbmi	fp, {r0, r1, r3, r8, fp, ip, sp}
     158:	b7170213 			; <UNDEFINED> instruction: 0xb7170213
     15c:	00001742 	andeq	r1, r0, r2, asr #14
     160:	11010b18 	tstne	r1, r8, lsl fp
     164:	00061201 	andeq	r1, r6, r1, lsl #4
     168:	82891900 	addhi	r1, r9, #0, 18
     16c:	01110101 	tsteq	r1, r1, lsl #2
     170:	00001331 	andeq	r1, r0, r1, lsr r3
     174:	03012e1a 	movweq	r2, #7706	; 0x1e1a
     178:	3b0b3a0e 	blcc	2ce9b8 <__bss_end__+0x2c4ae0>
     17c:	270b390b 	strcs	r3, [fp, -fp, lsl #18]
     180:	11134919 	tstne	r3, r9, lsl r9
     184:	40061201 	andmi	r1, r6, r1, lsl #4
     188:	19429718 	stmdbne	r2, {r3, r4, r8, r9, sl, ip, pc}^
     18c:	00001301 	andeq	r1, r0, r1, lsl #6
     190:	11010b1b 	tstne	r1, fp, lsl fp
     194:	01061201 	tsteq	r6, r1, lsl #4
     198:	1c000013 	stcne	0, cr0, [r0], {19}
     19c:	193f002e 	ldmdbne	pc!, {r1, r2, r3, r5}	; <UNPREDICTABLE>
     1a0:	0e6e193c 			; <UNDEFINED> instruction: 0x0e6e193c
     1a4:	0b3a0e03 	bleq	e839b8 <__bss_end__+0xe79ae0>
     1a8:	0b390b3b 	bleq	e42e9c <__bss_end__+0xe38fc4>
     1ac:	01000000 	mrseq	r0, (UNDEF: 0)
     1b0:	0e250111 	mcreq	1, 1, r0, cr5, cr1, {0}
     1b4:	0e030b13 	vmoveq.32	d3[0], r0
     1b8:	01110e1b 	tsteq	r1, fp, lsl lr
     1bc:	17100612 			; <UNDEFINED> instruction: 0x17100612
     1c0:	24020000 	strcs	r0, [r2], #-0
     1c4:	3e0b0b00 	vmlacc.f64	d0, d11, d0
     1c8:	0008030b 	andeq	r0, r8, fp, lsl #6
     1cc:	00240300 	eoreq	r0, r4, r0, lsl #6
     1d0:	0b3e0b0b 	bleq	f82e04 <__bss_end__+0xf78f2c>
     1d4:	00000e03 	andeq	r0, r0, r3, lsl #28
     1d8:	27011504 	strcs	r1, [r1, -r4, lsl #10]
     1dc:	01134919 	tsteq	r3, r9, lsl r9
     1e0:	05000013 	streq	r0, [r0, #-19]	; 0xffffffed
     1e4:	13490005 	movtne	r0, #36869	; 0x9005
     1e8:	34060000 	strcc	r0, [r6], #-0
     1ec:	3a0e0300 	bcc	380df4 <__bss_end__+0x376f1c>
     1f0:	390b3b0b 	stmdbcc	fp, {r0, r1, r3, r8, r9, fp, ip, sp}
     1f4:	3f13490b 	svccc	0x0013490b
     1f8:	00193c19 	andseq	r3, r9, r9, lsl ip
     1fc:	000f0700 	andeq	r0, pc, r0, lsl #14
     200:	13490b0b 	movtne	r0, #39691	; 0x9b0b
     204:	26080000 	strcs	r0, [r8], -r0
     208:	00134900 	andseq	r4, r3, r0, lsl #18
     20c:	01040900 	tsteq	r4, r0, lsl #18
     210:	0b0b0b3e 	bleq	2c2f10 <__bss_end__+0x2b9038>
     214:	0b3a1349 	bleq	e84f40 <__bss_end__+0xe7b068>
     218:	0b390b3b 	bleq	e42f0c <__bss_end__+0xe39034>
     21c:	00001301 	andeq	r1, r0, r1, lsl #6
     220:	0300280a 	movweq	r2, #2058	; 0x80a
     224:	00061c0e 	andeq	r1, r6, lr, lsl #24
     228:	012e0b00 			; <UNDEFINED> instruction: 0x012e0b00
     22c:	0e03193f 			; <UNDEFINED> instruction: 0x0e03193f
     230:	0b3b0b3a 	bleq	ec2f20 <__bss_end__+0xeb9048>
     234:	19270b39 	stmdbne	r7!, {r0, r3, r4, r5, r8, r9, fp}
     238:	06120111 			; <UNDEFINED> instruction: 0x06120111
     23c:	42971840 	addsmi	r1, r7, #64, 16	; 0x400000
     240:	00130119 	andseq	r0, r3, r9, lsl r1
     244:	00050c00 	andeq	r0, r5, r0, lsl #24
     248:	0b3a0803 	bleq	e8225c <__bss_end__+0xe78384>
     24c:	0b390b3b 	bleq	e42f40 <__bss_end__+0xe39068>
     250:	17021349 	strne	r1, [r2, -r9, asr #6]
     254:	001742b7 			; <UNDEFINED> instruction: 0x001742b7
     258:	00340d00 	eorseq	r0, r4, r0, lsl #26
     25c:	13490e03 	movtne	r0, #40451	; 0x9e03
     260:	18021934 	stmdane	r2, {r2, r4, r5, r8, fp, ip}
     264:	890e0000 	stmdbhi	lr, {}	; <UNPREDICTABLE>
     268:	11010182 	smlabbne	r1, r2, r1, r0
     26c:	01133101 	tsteq	r3, r1, lsl #2
     270:	0f000013 	svceq	0x00000013
     274:	0001828a 	andeq	r8, r1, sl, lsl #5
     278:	42911802 	addsmi	r1, r1, #131072	; 0x20000
     27c:	10000018 	andne	r0, r0, r8, lsl r0
     280:	00018289 	andeq	r8, r1, r9, lsl #5
     284:	13310111 	teqne	r1, #1073741828	; 0x40000004
     288:	01110000 	tsteq	r1, r0
     28c:	01134901 	tsteq	r3, r1, lsl #18
     290:	12000013 	andne	r0, r0, #19, 0
     294:	13490021 	movtne	r0, #36897	; 0x9021
     298:	00000b2f 	andeq	r0, r0, pc, lsr #22
     29c:	03003413 	movweq	r3, #1043	; 0x413
     2a0:	3b0b3a08 	blcc	2ceac8 <__bss_end__+0x2c4bf0>
     2a4:	490b390b 	stmdbmi	fp, {r0, r1, r3, r8, fp, ip, sp}
     2a8:	000b1c13 	andeq	r1, fp, r3, lsl ip
     2ac:	00341400 	eorseq	r1, r4, r0, lsl #8
     2b0:	0b3a0803 	bleq	e822c4 <__bss_end__+0xe783ec>
     2b4:	0b390b3b 	bleq	e42fa8 <__bss_end__+0xe390d0>
     2b8:	00001349 	andeq	r1, r0, r9, asr #6
     2bc:	03003415 	movweq	r3, #1045	; 0x415
     2c0:	3b0b3a08 	blcc	2ceae8 <__bss_end__+0x2c4c10>
     2c4:	490b390b 	stmdbmi	fp, {r0, r1, r3, r8, fp, ip, sp}
     2c8:	b7170213 			; <UNDEFINED> instruction: 0xb7170213
     2cc:	00001742 	andeq	r1, r0, r2, asr #14
     2d0:	11010b16 	tstne	r1, r6, lsl fp
     2d4:	01061201 	tsteq	r6, r1, lsl #4
     2d8:	17000013 	smladne	r0, r3, r0, r0
     2dc:	193f002e 	ldmdbne	pc!, {r1, r2, r3, r5}	; <UNPREDICTABLE>
     2e0:	0e6e193c 			; <UNDEFINED> instruction: 0x0e6e193c
     2e4:	0b3a0e03 	bleq	e83af8 <__bss_end__+0xe79c20>
     2e8:	0b390b3b 	bleq	e42fdc <__bss_end__+0xe39104>
     2ec:	01000000 	mrseq	r0, (UNDEF: 0)
     2f0:	0e250111 	mcreq	1, 1, r0, cr5, cr1, {0}
     2f4:	0e030b13 	vmoveq.32	d3[0], r0
     2f8:	01110e1b 	tsteq	r1, fp, lsl lr
     2fc:	17100612 			; <UNDEFINED> instruction: 0x17100612
     300:	24020000 	strcs	r0, [r2], #-0
     304:	3e0b0b00 	vmlacc.f64	d0, d11, d0
     308:	0008030b 	andeq	r0, r8, fp, lsl #6
     30c:	00240300 	eoreq	r0, r4, r0, lsl #6
     310:	0b3e0b0b 	bleq	f82f44 <__bss_end__+0xf7906c>
     314:	00000e03 	andeq	r0, r0, r3, lsl #28
     318:	03001604 	movweq	r1, #1540	; 0x604
     31c:	3b0b3a0e 	blcc	2ceb5c <__bss_end__+0x2c4c84>
     320:	490b390b 	stmdbmi	fp, {r0, r1, r3, r8, fp, ip, sp}
     324:	05000013 	streq	r0, [r0, #-19]	; 0xffffffed
     328:	19270115 	stmdbne	r7!, {r0, r2, r4, r8}
     32c:	13011349 	movwne	r1, #4937	; 0x1349
     330:	05060000 	streq	r0, [r6, #-0]
     334:	00134900 	andseq	r4, r3, r0, lsl #18
     338:	00340700 	eorseq	r0, r4, r0, lsl #14
     33c:	0b3a0e03 	bleq	e83b50 <__bss_end__+0xe79c78>
     340:	0b390b3b 	bleq	e43034 <__bss_end__+0xe3915c>
     344:	193f1349 	ldmdbne	pc!, {r0, r3, r6, r8, r9, ip}	; <UNPREDICTABLE>
     348:	0000193c 	andeq	r1, r0, ip, lsr r9
     34c:	0b000f08 	bleq	3f74 <__code_start__-0x408c>
     350:	0013490b 	andseq	r4, r3, fp, lsl #18
     354:	00260900 	eoreq	r0, r6, r0, lsl #18
     358:	00001349 	andeq	r1, r0, r9, asr #6
     35c:	0b01130a 	bleq	44f8c <__bss_end__+0x3b0b4>
     360:	3b0b3a0b 	blcc	2ceb94 <__bss_end__+0x2c4cbc>
     364:	010b390b 	tsteq	fp, fp, lsl #18
     368:	0b000013 	bleq	3bc <__code_start__-0x7c44>
     36c:	0e03000d 	cdpeq	0, 0, cr0, cr3, cr13, {0}
     370:	0b3b0b3a 	bleq	ec3060 <__bss_end__+0xeb9188>
     374:	13490b39 	movtne	r0, #39737	; 0x9b39
     378:	0b0d0b0b 	bleq	342fac <__bss_end__+0x3390d4>
     37c:	0b380b0c 	bleq	e02fb4 <__bss_end__+0xdf90dc>
     380:	040c0000 	streq	r0, [ip], #-0
     384:	0b0b3e01 	bleq	2cfb90 <__bss_end__+0x2c5cb8>
     388:	3a13490b 	bcc	4d27bc <__bss_end__+0x4c88e4>
     38c:	390b3b0b 	stmdbcc	fp, {r0, r1, r3, r8, r9, fp, ip, sp}
     390:	0013010b 	andseq	r0, r3, fp, lsl #2
     394:	00280d00 	eoreq	r0, r8, r0, lsl #26
     398:	061c0e03 	ldreq	r0, [ip], -r3, lsl #28
     39c:	340e0000 	strcc	r0, [lr], #-0
     3a0:	3a0e0300 	bcc	380fa8 <__bss_end__+0x3770d0>
     3a4:	390b3b0b 	stmdbcc	fp, {r0, r1, r3, r8, r9, fp, ip, sp}
     3a8:	3f13490b 	svccc	0x0013490b
     3ac:	00180219 	andseq	r0, r8, r9, lsl r2
     3b0:	012e0f00 			; <UNDEFINED> instruction: 0x012e0f00
     3b4:	0b3a0e03 	bleq	e83bc8 <__bss_end__+0xe79cf0>
     3b8:	0b390b3b 	bleq	e430ac <__bss_end__+0xe391d4>
     3bc:	01111927 	tsteq	r1, r7, lsr #18
     3c0:	18400612 	stmdane	r0, {r1, r4, r9, sl}^
     3c4:	01194297 			; <UNDEFINED> instruction: 0x01194297
     3c8:	10000013 	andne	r0, r0, r3, lsl r0
     3cc:	0e030034 	mcreq	0, 0, r0, cr3, cr4, {1}
     3d0:	19341349 	ldmdbne	r4!, {r0, r3, r6, r8, r9, ip}
     3d4:	00001802 	andeq	r1, r0, r2, lsl #16
     3d8:	11010b11 	tstne	r1, r1, lsl fp
     3dc:	01061201 	tsteq	r6, r1, lsl #4
     3e0:	12000013 	andne	r0, r0, #19, 0
     3e4:	08030117 	stmdaeq	r3, {r0, r1, r2, r4, r8}
     3e8:	0b3a0b0b 	bleq	e8301c <__bss_end__+0xe79144>
     3ec:	0b390b3b 	bleq	e430e0 <__bss_end__+0xe39208>
     3f0:	00001301 	andeq	r1, r0, r1, lsl #6
     3f4:	03000d13 	movweq	r0, #3347	; 0xd13
     3f8:	3b0b3a08 	blcc	2cec20 <__bss_end__+0x2c4d48>
     3fc:	490b390b 	stmdbmi	fp, {r0, r1, r3, r8, fp, ip, sp}
     400:	14000013 	strne	r0, [r0], #-19	; 0xffffffed
     404:	08030034 	stmdaeq	r3, {r2, r4, r5}
     408:	0b3b0b3a 	bleq	ec30f8 <__bss_end__+0xeb9220>
     40c:	13490b39 	movtne	r0, #39737	; 0x9b39
     410:	34150000 	ldrcc	r0, [r5], #-0
     414:	3a080300 	bcc	20101c <__bss_end__+0x1f7144>
     418:	390b3b0b 	stmdbcc	fp, {r0, r1, r3, r8, r9, fp, ip, sp}
     41c:	1c13490b 			; <UNDEFINED> instruction: 0x1c13490b
     420:	1600000b 	strne	r0, [r0], -fp
     424:	0e030034 	mcreq	0, 0, r0, cr3, cr4, {1}
     428:	0b3b0b3a 	bleq	ec3118 <__bss_end__+0xeb9240>
     42c:	13490b39 	movtne	r0, #39737	; 0x9b39
     430:	00000b1c 	andeq	r0, r0, ip, lsl fp
     434:	03003417 	movweq	r3, #1047	; 0x417
     438:	3b0b3a08 	blcc	2cec60 <__bss_end__+0x2c4d88>
     43c:	490b390b 	stmdbmi	fp, {r0, r1, r3, r8, fp, ip, sp}
     440:	00180213 	andseq	r0, r8, r3, lsl r2
     444:	00341800 	eorseq	r1, r4, r0, lsl #16
     448:	0b3a0803 	bleq	e8245c <__bss_end__+0xe78584>
     44c:	0b390b3b 	bleq	e43140 <__bss_end__+0xe39268>
     450:	17021349 	strne	r1, [r2, -r9, asr #6]
     454:	001742b7 			; <UNDEFINED> instruction: 0x001742b7
     458:	00341900 	eorseq	r1, r4, r0, lsl #18
     45c:	0b3a0803 	bleq	e82470 <__bss_end__+0xe78598>
     460:	0b390b3b 	bleq	e43154 <__bss_end__+0xe3927c>
     464:	051c1349 	ldreq	r1, [ip, #-841]	; 0xfffffcb7
     468:	891a0000 	ldmdbhi	sl, {}	; <UNPREDICTABLE>
     46c:	11010182 	smlabbne	r1, r2, r1, r0
     470:	00133101 	andseq	r3, r3, r1, lsl #2
     474:	828a1b00 	addhi	r1, sl, #0, 22
     478:	18020001 	stmdane	r2, {r0}
     47c:	00184291 	mulseq	r8, r1, r2
     480:	01011c00 	tsteq	r1, r0, lsl #24
     484:	13011349 	movwne	r1, #4937	; 0x1349
     488:	211d0000 	tstcs	sp, r0
     48c:	2f134900 	svccs	0x00134900
     490:	1e00000b 	cdpne	0, 0, cr0, cr0, cr11, {0}
     494:	193f012e 	ldmdbne	pc!, {r1, r2, r3, r5, r8}	; <UNPREDICTABLE>
     498:	0b3a0e03 	bleq	e83cac <__bss_end__+0xe79dd4>
     49c:	0b390b3b 	bleq	e43190 <__bss_end__+0xe392b8>
     4a0:	01111927 	tsteq	r1, r7, lsr #18
     4a4:	18400612 	stmdane	r0, {r1, r4, r9, sl}^
     4a8:	01194297 			; <UNDEFINED> instruction: 0x01194297
     4ac:	1f000013 	svcne	0x00000013
     4b0:	0e030005 	cdpeq	0, 0, cr0, cr3, cr5, {0}
     4b4:	0b3b0b3a 	bleq	ec31a4 <__bss_end__+0xeb92cc>
     4b8:	13490b39 	movtne	r0, #39737	; 0x9b39
     4bc:	42b71702 	adcsmi	r1, r7, #524288	; 0x80000
     4c0:	20000017 	andcs	r0, r0, r7, lsl r0
     4c4:	00018289 	andeq	r8, r1, r9, lsl #5
     4c8:	13310111 	teqne	r1, #1073741828	; 0x40000004
     4cc:	89210000 	stmdbhi	r1!, {}	; <UNPREDICTABLE>
     4d0:	11010182 	smlabbne	r1, r2, r1, r0
     4d4:	01133101 	tsteq	r3, r1, lsl #2
     4d8:	22000013 	andcs	r0, r0, #19, 0
     4dc:	193f002e 	ldmdbne	pc!, {r1, r2, r3, r5}	; <UNPREDICTABLE>
     4e0:	0e6e193c 			; <UNDEFINED> instruction: 0x0e6e193c
     4e4:	0b3a0e03 	bleq	e83cf8 <__bss_end__+0xe79e20>
     4e8:	0b390b3b 	bleq	e431dc <__bss_end__+0xe39304>
     4ec:	01000000 	mrseq	r0, (UNDEF: 0)
     4f0:	0e250111 	mcreq	1, 1, r0, cr5, cr1, {0}
     4f4:	0e030b13 	vmoveq.32	d3[0], r0
     4f8:	01110e1b 	tsteq	r1, fp, lsl lr
     4fc:	17100612 			; <UNDEFINED> instruction: 0x17100612
     500:	16020000 	strne	r0, [r2], -r0
     504:	3a0e0300 	bcc	38110c <__bss_end__+0x377234>
     508:	390b3b0b 	stmdbcc	fp, {r0, r1, r3, r8, r9, fp, ip, sp}
     50c:	0013490b 	andseq	r4, r3, fp, lsl #18
     510:	01130300 	tsteq	r3, r0, lsl #6
     514:	0b0b0e03 	bleq	2c3d28 <__bss_end__+0x2b9e50>
     518:	0b3b0b3a 	bleq	ec3208 <__bss_end__+0xeb9330>
     51c:	00001301 	andeq	r1, r0, r1, lsl #6
     520:	03000d04 	movweq	r0, #3332	; 0xd04
     524:	3813490e 	ldmdacc	r3, {r1, r2, r3, r8, fp, lr}
     528:	0019340b 	andseq	r3, r9, fp, lsl #8
     52c:	000f0500 	andeq	r0, pc, r0, lsl #10
     530:	00000b0b 	andeq	r0, r0, fp, lsl #22
     534:	0b002406 	bleq	9554 <__code_end__+0x84>
     538:	030b3e0b 	movweq	r3, #48651	; 0xbe0b
     53c:	07000008 	streq	r0, [r0, -r8]
     540:	0b0b0024 	bleq	2c05d8 <__bss_end__+0x2b6700>
     544:	0e030b3e 	vmoveq.16	d3[0], r0
     548:	15080000 	strne	r0, [r8, #-0]
     54c:	49192701 	ldmdbmi	r9, {r0, r8, r9, sl, sp}
     550:	00130113 	andseq	r0, r3, r3, lsl r1
     554:	00050900 	andeq	r0, r5, r0, lsl #18
     558:	00001349 	andeq	r1, r0, r9, asr #6
     55c:	0300340a 	movweq	r3, #1034	; 0x40a
     560:	3b0b3a0e 	blcc	2ceda0 <__bss_end__+0x2c4ec8>
     564:	490b390b 	stmdbmi	fp, {r0, r1, r3, r8, fp, ip, sp}
     568:	3c193f13 	ldccc	15, cr3, [r9], {19}
     56c:	0b000019 	bleq	5d8 <__code_start__-0x7a28>
     570:	0b0b000f 	bleq	2c05b4 <__bss_end__+0x2b66dc>
     574:	00001349 	andeq	r1, r0, r9, asr #6
     578:	4900260c 	stmdbmi	r0, {r2, r3, r9, sl, sp}
     57c:	0d000013 	stceq	0, cr0, [r0, #-76]	; 0xffffffb4
     580:	193f012e 	ldmdbne	pc!, {r1, r2, r3, r5, r8}	; <UNPREDICTABLE>
     584:	0b3a0e03 	bleq	e83d98 <__bss_end__+0xe79ec0>
     588:	0b390b3b 	bleq	e4327c <__bss_end__+0xe393a4>
     58c:	13491927 	movtne	r1, #39207	; 0x9927
     590:	06120111 			; <UNDEFINED> instruction: 0x06120111
     594:	42971840 	addsmi	r1, r7, #64, 16	; 0x400000
     598:	00130119 	andseq	r0, r3, r9, lsl r1
     59c:	00050e00 	andeq	r0, r5, r0, lsl #28
     5a0:	0b3a0803 	bleq	e825b4 <__bss_end__+0xe786dc>
     5a4:	0b390b3b 	bleq	e43298 <__bss_end__+0xe393c0>
     5a8:	18021349 	stmdane	r2, {r0, r3, r6, r8, r9, ip}
     5ac:	180f0000 	stmdane	pc, {}	; <UNPREDICTABLE>
     5b0:	10000000 	andne	r0, r0, r0
     5b4:	08030034 	stmdaeq	r3, {r2, r4, r5}
     5b8:	0b3b0b3a 	bleq	ec32a8 <__bss_end__+0xeb93d0>
     5bc:	13490b39 	movtne	r0, #39737	; 0x9b39
     5c0:	00001802 	andeq	r1, r0, r2, lsl #16
     5c4:	03003411 	movweq	r3, #1041	; 0x411
     5c8:	3b0b3a0e 	blcc	2cee08 <__bss_end__+0x2c4f30>
     5cc:	490b390b 	stmdbmi	fp, {r0, r1, r3, r8, fp, ip, sp}
     5d0:	00180213 	andseq	r0, r8, r3, lsl r2
     5d4:	00341200 	eorseq	r1, r4, r0, lsl #4
     5d8:	0b3a0803 	bleq	e825ec <__bss_end__+0xe78714>
     5dc:	0b390b3b 	bleq	e432d0 <__bss_end__+0xe393f8>
     5e0:	17021349 	strne	r1, [r2, -r9, asr #6]
     5e4:	001742b7 			; <UNDEFINED> instruction: 0x001742b7
     5e8:	82891300 	addhi	r1, r9, #0, 6
     5ec:	01110101 	tsteq	r1, r1, lsl #2
     5f0:	13011331 	movwne	r1, #4913	; 0x1331
     5f4:	8a140000 	bhi	5005fc <__bss_end__+0x4f6724>
     5f8:	02000182 	andeq	r0, r0, #-2147483616	; 0x80000020
     5fc:	18429118 	stmdane	r2, {r3, r4, r8, ip, pc}^
     600:	89150000 	ldmdbhi	r5, {}	; <UNPREDICTABLE>
     604:	11010182 	smlabbne	r1, r2, r1, r0
     608:	16000001 	strne	r0, [r0], -r1
     60c:	13490101 	movtne	r0, #37121	; 0x9101
     610:	00001301 	andeq	r1, r0, r1, lsl #6
     614:	49002117 	stmdbmi	r0, {r0, r1, r2, r4, r8, sp}
     618:	00052f13 	andeq	r2, r5, r3, lsl pc
     61c:	002e1800 	eoreq	r1, lr, r0, lsl #16
     620:	193c193f 	ldmdbne	ip!, {r0, r1, r2, r3, r4, r5, r8, fp, ip}
     624:	0e030e6e 	cdpeq	14, 0, cr0, cr3, cr14, {3}
     628:	0b3b0b3a 	bleq	ec3318 <__bss_end__+0xeb9440>
     62c:	00000b39 	andeq	r0, r0, r9, lsr fp
     630:	01110100 	tsteq	r1, r0, lsl #2
     634:	0b130e25 	bleq	4c3ed0 <__bss_end__+0x4b9ff8>
     638:	0e1b0e03 	cdpeq	14, 1, cr0, cr11, cr3, {0}
     63c:	06120111 			; <UNDEFINED> instruction: 0x06120111
     640:	00001710 	andeq	r1, r0, r0, lsl r7
     644:	0b002402 	bleq	9654 <__FUNCTION__.3969+0x4>
     648:	030b3e0b 	movweq	r3, #48651	; 0xbe0b
     64c:	03000008 	movweq	r0, #8
     650:	0b0b0024 	bleq	2c06e8 <__bss_end__+0x2b6810>
     654:	0e030b3e 	vmoveq.16	d3[0], r0
     658:	15040000 	strne	r0, [r4, #-0]
     65c:	49192701 	ldmdbmi	r9, {r0, r8, r9, sl, sp}
     660:	00130113 	andseq	r0, r3, r3, lsl r1
     664:	00050500 	andeq	r0, r5, r0, lsl #10
     668:	00001349 	andeq	r1, r0, r9, asr #6
     66c:	03003406 	movweq	r3, #1030	; 0x406
     670:	3b0b3a0e 	blcc	2ceeb0 <__bss_end__+0x2c4fd8>
     674:	490b390b 	stmdbmi	fp, {r0, r1, r3, r8, fp, ip, sp}
     678:	3c193f13 	ldccc	15, cr3, [r9], {19}
     67c:	07000019 	smladeq	r0, r9, r0, r0
     680:	0b0b000f 	bleq	2c06c4 <__bss_end__+0x2b67ec>
     684:	00001349 	andeq	r1, r0, r9, asr #6
     688:	49002608 	stmdbmi	r0, {r3, r9, sl, sp}
     68c:	09000013 	stmdbeq	r0, {r0, r1, r4}
     690:	13470034 	movtne	r0, #28724	; 0x7034
     694:	0b3b0b3a 	bleq	ec3384 <__bss_end__+0xeb94ac>
     698:	18020b39 	stmdane	r2, {r0, r3, r4, r5, r8, r9, fp}
     69c:	2e0a0000 	cdpcs	0, 0, cr0, cr10, cr0, {0}
     6a0:	03193f01 	tsteq	r9, #1, 30
     6a4:	3b0b3a0e 	blcc	2ceee4 <__bss_end__+0x2c500c>
     6a8:	270b390b 	strcs	r3, [fp, -fp, lsl #18]
     6ac:	11134919 	tstne	r3, r9, lsl r9
     6b0:	40061201 	andmi	r1, r6, r1, lsl #4
     6b4:	19429618 	stmdbne	r2, {r3, r4, r9, sl, ip, pc}^
     6b8:	050b0000 	streq	r0, [fp, #-0]
     6bc:	3a080300 	bcc	2012c4 <__bss_end__+0x1f73ec>
     6c0:	390b3b0b 	stmdbcc	fp, {r0, r1, r3, r8, r9, fp, ip, sp}
     6c4:	0213490b 	andseq	r4, r3, #180224	; 0x2c000
     6c8:	1742b717 	smlaldne	fp, r2, r7, r7
     6cc:	01000000 	mrseq	r0, (UNDEF: 0)
     6d0:	0e250111 	mcreq	1, 1, r0, cr5, cr1, {0}
     6d4:	0e030b13 	vmoveq.32	d3[0], r0
     6d8:	01110e1b 	tsteq	r1, fp, lsl lr
     6dc:	17100612 			; <UNDEFINED> instruction: 0x17100612
     6e0:	24020000 	strcs	r0, [r2], #-0
     6e4:	3e0b0b00 	vmlacc.f64	d0, d11, d0
     6e8:	0008030b 	andeq	r0, r8, fp, lsl #6
     6ec:	00240300 	eoreq	r0, r4, r0, lsl #6
     6f0:	0b3e0b0b 	bleq	f83324 <__bss_end__+0xf7944c>
     6f4:	00000e03 	andeq	r0, r0, r3, lsl #28
     6f8:	03001604 	movweq	r1, #1540	; 0x604
     6fc:	3b0b3a0e 	blcc	2cef3c <__bss_end__+0x2c5064>
     700:	490b390b 	stmdbmi	fp, {r0, r1, r3, r8, fp, ip, sp}
     704:	05000013 	streq	r0, [r0, #-19]	; 0xffffffed
     708:	19270115 	stmdbne	r7!, {r0, r2, r4, r8}
     70c:	13011349 	movwne	r1, #4937	; 0x1349
     710:	05060000 	streq	r0, [r6, #-0]
     714:	00134900 	andseq	r4, r3, r0, lsl #18
     718:	00340700 	eorseq	r0, r4, r0, lsl #14
     71c:	0b3a0e03 	bleq	e83f30 <__bss_end__+0xe7a058>
     720:	0b390b3b 	bleq	e43414 <__bss_end__+0xe3953c>
     724:	193f1349 	ldmdbne	pc!, {r0, r3, r6, r8, r9, ip}	; <UNPREDICTABLE>
     728:	0000193c 	andeq	r1, r0, ip, lsr r9
     72c:	0b000f08 	bleq	4354 <__code_start__-0x3cac>
     730:	0013490b 	andseq	r4, r3, fp, lsl #18
     734:	00260900 	eoreq	r0, r6, r0, lsl #18
     738:	00001349 	andeq	r1, r0, r9, asr #6
     73c:	0301130a 	movweq	r1, #4874	; 0x130a
     740:	3a0b0b0e 	bcc	2c3380 <__bss_end__+0x2b94a8>
     744:	010b3b0b 	tsteq	fp, fp, lsl #22
     748:	0b000013 	bleq	79c <__code_start__-0x7864>
     74c:	0e03000d 	cdpeq	0, 0, cr0, cr3, cr13, {0}
     750:	0b381349 	bleq	e0547c <__bss_end__+0xdfb5a4>
     754:	00001934 	andeq	r1, r0, r4, lsr r9
     758:	0b000f0c 	bleq	4390 <__code_start__-0x3c70>
     75c:	0d00000b 	stceq	0, cr0, [r0, #-44]	; 0xffffffd4
     760:	193f012e 	ldmdbne	pc!, {r1, r2, r3, r5, r8}	; <UNPREDICTABLE>
     764:	0b3a0e03 	bleq	e83f78 <__bss_end__+0xe7a0a0>
     768:	0b390b3b 	bleq	e4345c <__bss_end__+0xe39584>
     76c:	13491927 	movtne	r1, #39207	; 0x9927
     770:	06120111 			; <UNDEFINED> instruction: 0x06120111
     774:	42971840 	addsmi	r1, r7, #64, 16	; 0x400000
     778:	00130119 	andseq	r0, r3, r9, lsl r1
     77c:	00050e00 	andeq	r0, r5, r0, lsl #28
     780:	0b3a0803 	bleq	e82794 <__bss_end__+0xe788bc>
     784:	0b390b3b 	bleq	e43478 <__bss_end__+0xe395a0>
     788:	17021349 	strne	r1, [r2, -r9, asr #6]
     78c:	001742b7 			; <UNDEFINED> instruction: 0x001742b7
     790:	00050f00 	andeq	r0, r5, r0, lsl #30
     794:	0b3a0e03 	bleq	e83fa8 <__bss_end__+0xe7a0d0>
     798:	0b390b3b 	bleq	e4348c <__bss_end__+0xe395b4>
     79c:	18021349 	stmdane	r2, {r0, r3, r6, r8, r9, ip}
     7a0:	34100000 	ldrcc	r0, [r0], #-0
     7a4:	3a080300 	bcc	2013ac <__bss_end__+0x1f74d4>
     7a8:	390b3b0b 	stmdbcc	fp, {r0, r1, r3, r8, r9, fp, ip, sp}
     7ac:	0213490b 	andseq	r4, r3, #180224	; 0x2c000
     7b0:	1742b717 	smlaldne	fp, r2, r7, r7
     7b4:	34110000 	ldrcc	r0, [r1], #-0
     7b8:	3a080300 	bcc	2013c0 <__bss_end__+0x1f74e8>
     7bc:	390b3b0b 	stmdbcc	fp, {r0, r1, r3, r8, r9, fp, ip, sp}
     7c0:	0013490b 	andseq	r4, r3, fp, lsl #18
     7c4:	00341200 	eorseq	r1, r4, r0, lsl #4
     7c8:	0b3a0e03 	bleq	e83fdc <__bss_end__+0xe7a104>
     7cc:	0b390b3b 	bleq	e434c0 <__bss_end__+0xe395e8>
     7d0:	17021349 	strne	r1, [r2, -r9, asr #6]
     7d4:	001742b7 			; <UNDEFINED> instruction: 0x001742b7
     7d8:	00341300 	eorseq	r1, r4, r0, lsl #6
     7dc:	13490e03 	movtne	r0, #40451	; 0x9e03
     7e0:	18021934 	stmdane	r2, {r2, r4, r5, r8, fp, ip}
     7e4:	0b140000 	bleq	5007ec <__bss_end__+0x4f6914>
     7e8:	12011101 	andne	r1, r1, #1073741824	; 0x40000000
     7ec:	15000006 	strne	r0, [r0, #-6]
     7f0:	08030034 	stmdaeq	r3, {r2, r4, r5}
     7f4:	0b3b0b3a 	bleq	ec34e4 <__bss_end__+0xeb960c>
     7f8:	13490b39 	movtne	r0, #39737	; 0x9b39
     7fc:	00001802 	andeq	r1, r0, r2, lsl #16
     800:	03003416 	movweq	r3, #1046	; 0x416
     804:	3b0b3a0e 	blcc	2cf044 <__bss_end__+0x2c516c>
     808:	490b390b 	stmdbmi	fp, {r0, r1, r3, r8, fp, ip, sp}
     80c:	00180213 	andseq	r0, r8, r3, lsl r2
     810:	010b1700 	tsteq	fp, r0, lsl #14
     814:	13011755 	movwne	r1, #5973	; 0x1755
     818:	89180000 	ldmdbhi	r8, {}	; <UNPREDICTABLE>
     81c:	11010182 	smlabbne	r1, r2, r1, r0
     820:	01133101 	tsteq	r3, r1, lsl #2
     824:	19000013 	stmdbne	r0, {r0, r1, r4}
     828:	0001828a 	andeq	r8, r1, sl, lsl #5
     82c:	42911802 	addsmi	r1, r1, #131072	; 0x20000
     830:	1a000018 	bne	898 <__code_start__-0x7768>
     834:	00018289 	andeq	r8, r1, r9, lsl #5
     838:	13310111 	teqne	r1, #1073741828	; 0x40000004
     83c:	891b0000 	ldmdbhi	fp, {}	; <UNPREDICTABLE>
     840:	11010182 	smlabbne	r1, r2, r1, r0
     844:	00130101 	andseq	r0, r3, r1, lsl #2
     848:	01011c00 	tsteq	r1, r0, lsl #24
     84c:	13011349 	movwne	r1, #4937	; 0x1349
     850:	211d0000 	tstcs	sp, r0
     854:	2f134900 	svccs	0x00134900
     858:	1e00000b 	cdpne	0, 0, cr0, cr0, cr11, {0}
     85c:	0e03012e 	adfeqsp	f0, f3, #0.5
     860:	0b3b0b3a 	bleq	ec3550 <__bss_end__+0xeb9678>
     864:	19270b39 	stmdbne	r7!, {r0, r3, r4, r5, r8, r9, fp}
     868:	01111349 	tsteq	r1, r9, asr #6
     86c:	18400612 	stmdane	r0, {r1, r4, r9, sl}^
     870:	01194297 			; <UNDEFINED> instruction: 0x01194297
     874:	1f000013 	svcne	0x00000013
     878:	0e030005 	cdpeq	0, 0, cr0, cr3, cr5, {0}
     87c:	0b3b0b3a 	bleq	ec356c <__bss_end__+0xeb9694>
     880:	13490b39 	movtne	r0, #39737	; 0x9b39
     884:	42b71702 	adcsmi	r1, r7, #524288	; 0x80000
     888:	20000017 	andcs	r0, r0, r7, lsl r0
     88c:	0111010b 	tsteq	r1, fp, lsl #2
     890:	13010612 	movwne	r0, #5650	; 0x1612
     894:	2e210000 	cdpcs	0, 2, cr0, cr1, cr0, {0}
     898:	3a080301 	bcc	2014a4 <__bss_end__+0x1f75cc>
     89c:	390b3b0b 	stmdbcc	fp, {r0, r1, r3, r8, r9, fp, ip, sp}
     8a0:	4919270b 	ldmdbmi	r9, {r0, r1, r3, r8, r9, sl, sp}
     8a4:	12011113 	andne	r1, r1, #-1073741820	; 0xc0000004
     8a8:	97184006 	ldrls	r4, [r8, -r6]
     8ac:	13011942 	movwne	r1, #6466	; 0x1942
     8b0:	2e220000 	cdpcs	0, 2, cr0, cr2, cr0, {0}
     8b4:	03193f01 	tsteq	r9, #1, 30
     8b8:	3b0b3a0e 	blcc	2cf0f8 <__bss_end__+0x2c5220>
     8bc:	270b390b 	strcs	r3, [fp, -fp, lsl #18]
     8c0:	12011119 	andne	r1, r1, #1073741830	; 0x40000006
     8c4:	97184006 	ldrls	r4, [r8, -r6]
     8c8:	13011942 	movwne	r1, #6466	; 0x1942
     8cc:	2e230000 	cdpcs	0, 2, cr0, cr3, cr0, {0}
     8d0:	3c193f00 	ldccc	15, cr3, [r9], {-0}
     8d4:	030e6e19 	movweq	r6, #60953	; 0xee19
     8d8:	3b0b3a0e 	blcc	2cf118 <__bss_end__+0x2c5240>
     8dc:	000b390b 	andeq	r3, fp, fp, lsl #18
     8e0:	11010000 	mrsne	r0, (UNDEF: 1)
     8e4:	130e2501 	movwne	r2, #58625	; 0xe501
     8e8:	1b0e030b 	blne	38151c <__bss_end__+0x377644>
     8ec:	1201110e 	andne	r1, r1, #-2147483645	; 0x80000003
     8f0:	00171006 	andseq	r1, r7, r6
     8f4:	00240200 	eoreq	r0, r4, r0, lsl #4
     8f8:	0b3e0b0b 	bleq	f8352c <__bss_end__+0xf79654>
     8fc:	00000803 	andeq	r0, r0, r3, lsl #16
     900:	0b002403 	bleq	9914 <__FUNCTION__.4004+0x18>
     904:	030b3e0b 	movweq	r3, #48651	; 0xbe0b
     908:	0400000e 	streq	r0, [r0], #-14
     90c:	19270115 	stmdbne	r7!, {r0, r2, r4, r8}
     910:	13011349 	movwne	r1, #4937	; 0x1349
     914:	05050000 	streq	r0, [r5, #-0]
     918:	00134900 	andseq	r4, r3, r0, lsl #18
     91c:	00340600 	eorseq	r0, r4, r0, lsl #12
     920:	0b3a0e03 	bleq	e84134 <__bss_end__+0xe7a25c>
     924:	0b390b3b 	bleq	e43618 <__bss_end__+0xe39740>
     928:	193f1349 	ldmdbne	pc!, {r0, r3, r6, r8, r9, ip}	; <UNPREDICTABLE>
     92c:	0000193c 	andeq	r1, r0, ip, lsr r9
     930:	0b000f07 	bleq	4554 <__code_start__-0x3aac>
     934:	0013490b 	andseq	r4, r3, fp, lsl #18
     938:	00260800 	eoreq	r0, r6, r0, lsl #16
     93c:	00001349 	andeq	r1, r0, r9, asr #6
     940:	3f012e09 	svccc	0x00012e09
     944:	3a0e0319 	bcc	3815b0 <__bss_end__+0x3776d8>
     948:	390b3b0b 	stmdbcc	fp, {r0, r1, r3, r8, r9, fp, ip, sp}
     94c:	8719270b 	ldrhi	r2, [r9, -fp, lsl #14]
     950:	01111901 	tsteq	r1, r1, lsl #18
     954:	18400612 	stmdane	r0, {r1, r4, r9, sl}^
     958:	01194297 			; <UNDEFINED> instruction: 0x01194297
     95c:	0a000013 	beq	9b0 <__code_start__-0x7650>
     960:	01018289 	smlabbeq	r1, r9, r2, r8
     964:	13010111 	movwne	r0, #4369	; 0x1111
     968:	8a0b0000 	bhi	2c0970 <__bss_end__+0x2b6a98>
     96c:	02000182 	andeq	r0, r0, #-2147483616	; 0x80000020
     970:	18429118 	stmdane	r2, {r3, r4, r8, ip, pc}^
     974:	890c0000 	stmdbhi	ip, {}	; <UNPREDICTABLE>
     978:	11000182 	smlabbne	r0, r2, r1, r0
     97c:	00133101 	andseq	r3, r3, r1, lsl #2
     980:	82890d00 	addhi	r0, r9, #0, 26
     984:	01110101 	tsteq	r1, r1, lsl #2
     988:	13011331 	movwne	r1, #4913	; 0x1331
     98c:	2e0e0000 	cdpcs	0, 0, cr0, cr14, cr0, {0}
     990:	3c193f00 	ldccc	15, cr3, [r9], {-0}
     994:	030e6e19 	movweq	r6, #60953	; 0xee19
     998:	3b0b3a0e 	blcc	2cf1d8 <__bss_end__+0x2c5300>
     99c:	000b390b 	andeq	r3, fp, fp, lsl #18
     9a0:	11010000 	mrsne	r0, (UNDEF: 1)
     9a4:	130e2501 	movwne	r2, #58625	; 0xe501
     9a8:	1b0e030b 	blne	3815dc <__bss_end__+0x377704>
     9ac:	1201110e 	andne	r1, r1, #-2147483645	; 0x80000003
     9b0:	00171006 	andseq	r1, r7, r6
     9b4:	00240200 	eoreq	r0, r4, r0, lsl #4
     9b8:	0b3e0b0b 	bleq	f835ec <__bss_end__+0xf79714>
     9bc:	00000803 	andeq	r0, r0, r3, lsl #16
     9c0:	0b002403 	bleq	99d4 <__FUNCTION__.4004+0xd8>
     9c4:	030b3e0b 	movweq	r3, #48651	; 0xbe0b
     9c8:	0400000e 	streq	r0, [r0], #-14
     9cc:	19270115 	stmdbne	r7!, {r0, r2, r4, r8}
     9d0:	13011349 	movwne	r1, #4937	; 0x1349
     9d4:	05050000 	streq	r0, [r5, #-0]
     9d8:	00134900 	andseq	r4, r3, r0, lsl #18
     9dc:	00340600 	eorseq	r0, r4, r0, lsl #12
     9e0:	0b3a0e03 	bleq	e841f4 <__bss_end__+0xe7a31c>
     9e4:	0b390b3b 	bleq	e436d8 <__bss_end__+0xe39800>
     9e8:	193f1349 	ldmdbne	pc!, {r0, r3, r6, r8, r9, ip}	; <UNPREDICTABLE>
     9ec:	0000193c 	andeq	r1, r0, ip, lsr r9
     9f0:	0b000f07 	bleq	4614 <__code_start__-0x39ec>
     9f4:	0013490b 	andseq	r4, r3, fp, lsl #18
     9f8:	00260800 	eoreq	r0, r6, r0, lsl #16
     9fc:	00001349 	andeq	r1, r0, r9, asr #6
     a00:	3f012e09 	svccc	0x00012e09
     a04:	3a0e0319 	bcc	381670 <__bss_end__+0x377798>
     a08:	390b3b0b 	stmdbcc	fp, {r0, r1, r3, r8, r9, fp, ip, sp}
     a0c:	1201110b 	andne	r1, r1, #-1073741822	; 0xc0000002
     a10:	97184006 	ldrls	r4, [r8, -r6]
     a14:	13011942 	movwne	r1, #6466	; 0x1942
     a18:	2e0a0000 	cdpcs	0, 0, cr0, cr10, cr0, {0}
     a1c:	03193f00 	tsteq	r9, #0, 30
     a20:	3b0b3a0e 	blcc	2cf260 <__bss_end__+0x2c5388>
     a24:	270b390b 	strcs	r3, [fp, -fp, lsl #18]
     a28:	00193c19 	andseq	r3, r9, r9, lsl ip
     a2c:	00340b00 	eorseq	r0, r4, r0, lsl #22
     a30:	0b3a0803 	bleq	e82a44 <__bss_end__+0xe78b6c>
     a34:	0b390b3b 	bleq	e43728 <__bss_end__+0xe39850>
     a38:	17021349 	strne	r1, [r2, -r9, asr #6]
     a3c:	001742b7 			; <UNDEFINED> instruction: 0x001742b7
     a40:	00340c00 	eorseq	r0, r4, r0, lsl #24
     a44:	0b3a0e03 	bleq	e84258 <__bss_end__+0xe7a380>
     a48:	0b390b3b 	bleq	e4373c <__bss_end__+0xe39864>
     a4c:	00001349 	andeq	r1, r0, r9, asr #6
     a50:	0182890d 	orreq	r8, r2, sp, lsl #18
     a54:	31011100 	mrscc	r1, (UNDEF: 17)
     a58:	0e000013 	mcreq	0, 0, r0, cr0, cr3, {0}
     a5c:	193f002e 	ldmdbne	pc!, {r1, r2, r3, r5}	; <UNPREDICTABLE>
     a60:	0e6e193c 			; <UNDEFINED> instruction: 0x0e6e193c
     a64:	0b3a0e03 	bleq	e84278 <__bss_end__+0xe7a3a0>
     a68:	0b39053b 	bleq	e41f5c <__bss_end__+0xe38084>
     a6c:	2e0f0000 	cdpcs	0, 0, cr0, cr15, cr0, {0}
     a70:	3c193f00 	ldccc	15, cr3, [r9], {-0}
     a74:	030e6e19 	movweq	r6, #60953	; 0xee19
     a78:	3b0b3a0e 	blcc	2cf2b8 <__bss_end__+0x2c53e0>
     a7c:	000b390b 	andeq	r3, fp, fp, lsl #18
     a80:	11010000 	mrsne	r0, (UNDEF: 1)
     a84:	130e2501 	movwne	r2, #58625	; 0xe501
     a88:	1b0e030b 	blne	3816bc <__bss_end__+0x3777e4>
     a8c:	1201110e 	andne	r1, r1, #-2147483645	; 0x80000003
     a90:	00171006 	andseq	r1, r7, r6
     a94:	00240200 	eoreq	r0, r4, r0, lsl #4
     a98:	0b3e0b0b 	bleq	f836cc <__bss_end__+0xf797f4>
     a9c:	00000803 	andeq	r0, r0, r3, lsl #16
     aa0:	0b002403 	bleq	9ab4 <code_len>
     aa4:	030b3e0b 	movweq	r3, #48651	; 0xbe0b
     aa8:	0400000e 	streq	r0, [r0], #-14
     aac:	19270115 	stmdbne	r7!, {r0, r2, r4, r8}
     ab0:	13011349 	movwne	r1, #4937	; 0x1349
     ab4:	05050000 	streq	r0, [r5, #-0]
     ab8:	00134900 	andseq	r4, r3, r0, lsl #18
     abc:	00340600 	eorseq	r0, r4, r0, lsl #12
     ac0:	0b3a0e03 	bleq	e842d4 <__bss_end__+0xe7a3fc>
     ac4:	0b390b3b 	bleq	e437b8 <__bss_end__+0xe398e0>
     ac8:	193f1349 	ldmdbne	pc!, {r0, r3, r6, r8, r9, ip}	; <UNPREDICTABLE>
     acc:	0000193c 	andeq	r1, r0, ip, lsr r9
     ad0:	0b000f07 	bleq	46f4 <__code_start__-0x390c>
     ad4:	0013490b 	andseq	r4, r3, fp, lsl #18
     ad8:	00260800 	eoreq	r0, r6, r0, lsl #16
     adc:	00001349 	andeq	r1, r0, r9, asr #6
     ae0:	3f002e09 	svccc	0x00002e09
     ae4:	3a0e0319 	bcc	381750 <__bss_end__+0x377878>
     ae8:	390b3b0b 	stmdbcc	fp, {r0, r1, r3, r8, r9, fp, ip, sp}
     aec:	1119270b 	tstne	r9, fp, lsl #14
     af0:	40061201 	andmi	r1, r6, r1, lsl #4
     af4:	19429718 	stmdbne	r2, {r3, r4, r8, r9, sl, ip, pc}^
     af8:	01000000 	mrseq	r0, (UNDEF: 0)
     afc:	0e250111 	mcreq	1, 1, r0, cr5, cr1, {0}
     b00:	0e030b13 	vmoveq.32	d3[0], r0
     b04:	17550e1b 	smmlane	r5, fp, lr, r0
     b08:	17100111 			; <UNDEFINED> instruction: 0x17100111
     b0c:	24020000 	strcs	r0, [r2], #-0
     b10:	3e0b0b00 	vmlacc.f64	d0, d11, d0
     b14:	0008030b 	andeq	r0, r8, fp, lsl #6
     b18:	00260300 	eoreq	r0, r6, r0, lsl #6
     b1c:	00001349 	andeq	r1, r0, r9, asr #6
     b20:	0b002404 	bleq	9b38 <buf.3918+0x74>
     b24:	030b3e0b 	movweq	r3, #48651	; 0xbe0b
     b28:	0500000e 	streq	r0, [r0, #-14]
     b2c:	19270115 	stmdbne	r7!, {r0, r2, r4, r8}
     b30:	13011349 	movwne	r1, #4937	; 0x1349
     b34:	05060000 	streq	r0, [r6, #-0]
     b38:	00134900 	andseq	r4, r3, r0, lsl #18
     b3c:	00340700 	eorseq	r0, r4, r0, lsl #14
     b40:	0b3a0e03 	bleq	e84354 <__bss_end__+0xe7a47c>
     b44:	0b390b3b 	bleq	e43838 <__bss_end__+0xe39960>
     b48:	193f1349 	ldmdbne	pc!, {r0, r3, r6, r8, r9, ip}	; <UNPREDICTABLE>
     b4c:	0000193c 	andeq	r1, r0, ip, lsr r9
     b50:	0b000f08 	bleq	4778 <__code_start__-0x3888>
     b54:	0013490b 	andseq	r4, r3, fp, lsl #18
     b58:	00340900 	eorseq	r0, r4, r0, lsl #18
     b5c:	0b3a0e03 	bleq	e84370 <__bss_end__+0xe7a498>
     b60:	0b390b3b 	bleq	e43854 <__bss_end__+0xe3997c>
     b64:	00001349 	andeq	r1, r0, r9, asr #6
     b68:	3f012e0a 	svccc	0x00012e0a
     b6c:	3a0e0319 	bcc	3817d8 <__bss_end__+0x377900>
     b70:	390b3b0b 	stmdbcc	fp, {r0, r1, r3, r8, r9, fp, ip, sp}
     b74:	8719270b 	ldrhi	r2, [r9, -fp, lsl #14]
     b78:	01111901 	tsteq	r1, r1, lsl #18
     b7c:	18400612 	stmdane	r0, {r1, r4, r9, sl}^
     b80:	01194297 			; <UNDEFINED> instruction: 0x01194297
     b84:	0b000013 	bleq	bd8 <__code_start__-0x7428>
     b88:	0e030034 	mcreq	0, 0, r0, cr3, cr4, {1}
     b8c:	0b3b0b3a 	bleq	ec387c <__bss_end__+0xeb99a4>
     b90:	13490b39 	movtne	r0, #39737	; 0x9b39
     b94:	42b71702 	adcsmi	r1, r7, #524288	; 0x80000
     b98:	0c000017 	stceq	0, cr0, [r0], {23}
     b9c:	00018289 	andeq	r8, r1, r9, lsl #5
     ba0:	13310111 	teqne	r1, #1073741828	; 0x40000004
     ba4:	890d0000 	stmdbhi	sp, {}	; <UNPREDICTABLE>
     ba8:	11010182 	smlabbne	r1, r2, r1, r0
     bac:	01133101 	tsteq	r3, r1, lsl #2
     bb0:	0e000013 	mcreq	0, 0, r0, cr0, cr3, {0}
     bb4:	0001828a 	andeq	r8, r1, sl, lsl #5
     bb8:	42911802 	addsmi	r1, r1, #131072	; 0x20000
     bbc:	0f000018 	svceq	0x00000018
     bc0:	193f012e 	ldmdbne	pc!, {r1, r2, r3, r5, r8}	; <UNPREDICTABLE>
     bc4:	0b3a0e03 	bleq	e843d8 <__bss_end__+0xe7a500>
     bc8:	0b390b3b 	bleq	e438bc <__bss_end__+0xe399e4>
     bcc:	01111927 	tsteq	r1, r7, lsr #18
     bd0:	18400612 	stmdane	r0, {r1, r4, r9, sl}^
     bd4:	01194297 			; <UNDEFINED> instruction: 0x01194297
     bd8:	10000013 	andne	r0, r0, r3, lsl r0
     bdc:	193f012e 	ldmdbne	pc!, {r1, r2, r3, r5, r8}	; <UNPREDICTABLE>
     be0:	0b3a0e03 	bleq	e843f4 <__bss_end__+0xe7a51c>
     be4:	0b390b3b 	bleq	e438d8 <__bss_end__+0xe39a00>
     be8:	13491927 	movtne	r1, #39207	; 0x9927
     bec:	06120111 			; <UNDEFINED> instruction: 0x06120111
     bf0:	42971840 	addsmi	r1, r7, #64, 16	; 0x400000
     bf4:	00130119 	andseq	r0, r3, r9, lsl r1
     bf8:	002e1100 	eoreq	r1, lr, r0, lsl #2
     bfc:	193c193f 	ldmdbne	ip!, {r0, r1, r2, r3, r4, r5, r8, fp, ip}
     c00:	0e030e6e 	cdpeq	14, 0, cr0, cr3, cr14, {3}
     c04:	0b3b0b3a 	bleq	ec38f4 <__bss_end__+0xeb9a1c>
     c08:	00000b39 	andeq	r0, r0, r9, lsr fp
     c0c:	01110100 	tsteq	r1, r0, lsl #2
     c10:	0b130e25 	bleq	4c44ac <__bss_end__+0x4ba5d4>
     c14:	0e1b0e03 	cdpeq	14, 1, cr0, cr11, cr3, {0}
     c18:	06120111 			; <UNDEFINED> instruction: 0x06120111
     c1c:	00001710 	andeq	r1, r0, r0, lsl r7
     c20:	0b002402 	bleq	9c30 <buf.3918+0x16c>
     c24:	030b3e0b 	movweq	r3, #48651	; 0xbe0b
     c28:	03000008 	movweq	r0, #8
     c2c:	0b0b0024 	bleq	2c0cc4 <__bss_end__+0x2b6dec>
     c30:	0e030b3e 	vmoveq.16	d3[0], r0
     c34:	15040000 	strne	r0, [r4, #-0]
     c38:	49192701 	ldmdbmi	r9, {r0, r8, r9, sl, sp}
     c3c:	00130113 	andseq	r0, r3, r3, lsl r1
     c40:	00050500 	andeq	r0, r5, r0, lsl #10
     c44:	00001349 	andeq	r1, r0, r9, asr #6
     c48:	03003406 	movweq	r3, #1030	; 0x406
     c4c:	3b0b3a0e 	blcc	2cf48c <__bss_end__+0x2c55b4>
     c50:	490b390b 	stmdbmi	fp, {r0, r1, r3, r8, fp, ip, sp}
     c54:	3c193f13 	ldccc	15, cr3, [r9], {19}
     c58:	07000019 	smladeq	r0, r9, r0, r0
     c5c:	0b0b000f 	bleq	2c0ca0 <__bss_end__+0x2b6dc8>
     c60:	00001349 	andeq	r1, r0, r9, asr #6
     c64:	49002608 	stmdbmi	r0, {r3, r9, sl, sp}
     c68:	09000013 	stmdbeq	r0, {r0, r1, r4}
     c6c:	193f012e 	ldmdbne	pc!, {r1, r2, r3, r5, r8}	; <UNPREDICTABLE>
     c70:	0b3a0e03 	bleq	e84484 <__bss_end__+0xe7a5ac>
     c74:	0b390b3b 	bleq	e43968 <__bss_end__+0xe39a90>
     c78:	01111927 	tsteq	r1, r7, lsr #18
     c7c:	18400612 	stmdane	r0, {r1, r4, r9, sl}^
     c80:	01194297 			; <UNDEFINED> instruction: 0x01194297
     c84:	0a000013 	beq	cd8 <__code_start__-0x7328>
     c88:	08030005 	stmdaeq	r3, {r0, r2}
     c8c:	0b3b0b3a 	bleq	ec397c <__bss_end__+0xeb9aa4>
     c90:	13490b39 	movtne	r0, #39737	; 0x9b39
     c94:	42b71702 	adcsmi	r1, r7, #524288	; 0x80000
     c98:	0b000017 	bleq	cfc <__code_start__-0x7304>
     c9c:	01018289 	smlabbeq	r1, r9, r2, r8
     ca0:	13310111 	teqne	r1, #1073741828	; 0x40000004
     ca4:	8a0c0000 	bhi	300cac <__bss_end__+0x2f6dd4>
     ca8:	02000182 	andeq	r0, r0, #-2147483616	; 0x80000020
     cac:	18429118 	stmdane	r2, {r3, r4, r8, ip, pc}^
     cb0:	340d0000 	strcc	r0, [sp], #-0
     cb4:	3a080300 	bcc	2018bc <__bss_end__+0x1f79e4>
     cb8:	390b3b0b 	stmdbcc	fp, {r0, r1, r3, r8, r9, fp, ip, sp}
     cbc:	0213490b 	andseq	r4, r3, #180224	; 0x2c000
     cc0:	1742b717 	smlaldne	fp, r2, r7, r7
     cc4:	0b0e0000 	bleq	380ccc <__bss_end__+0x376df4>
     cc8:	12011101 	andne	r1, r1, #1073741824	; 0x40000000
     ccc:	00130106 	andseq	r0, r3, r6, lsl #2
     cd0:	82890f00 	addhi	r0, r9, #0, 30
     cd4:	01110001 	tsteq	r1, r1
     cd8:	00001331 	andeq	r1, r0, r1, lsr r3
     cdc:	3f012e10 	svccc	0x00012e10
     ce0:	3a0e0319 	bcc	38194c <__bss_end__+0x377a74>
     ce4:	390b3b0b 	stmdbcc	fp, {r0, r1, r3, r8, r9, fp, ip, sp}
     ce8:	4919270b 	ldmdbmi	r9, {r0, r1, r3, r8, r9, sl, sp}
     cec:	12011113 	andne	r1, r1, #-1073741820	; 0xc0000004
     cf0:	97184006 	ldrls	r4, [r8, -r6]
     cf4:	13011942 	movwne	r1, #6466	; 0x1942
     cf8:	05110000 	ldreq	r0, [r1, #-0]
     cfc:	3a0e0300 	bcc	381904 <__bss_end__+0x377a2c>
     d00:	390b3b0b 	stmdbcc	fp, {r0, r1, r3, r8, r9, fp, ip, sp}
     d04:	0213490b 	andseq	r4, r3, #180224	; 0x2c000
     d08:	1742b717 	smlaldne	fp, r2, r7, r7
     d0c:	2e120000 	cdpcs	0, 1, cr0, cr2, cr0, {0}
     d10:	3c193f00 	ldccc	15, cr3, [r9], {-0}
     d14:	030e6e19 	movweq	r6, #60953	; 0xee19
     d18:	3b0b3a0e 	blcc	2cf558 <__bss_end__+0x2c5680>
     d1c:	000b390b 	andeq	r3, fp, fp, lsl #18
     d20:	11010000 	mrsne	r0, (UNDEF: 1)
     d24:	130e2501 	movwne	r2, #58625	; 0xe501
     d28:	1b0e030b 	blne	38195c <__bss_end__+0x377a84>
     d2c:	1201110e 	andne	r1, r1, #-2147483645	; 0x80000003
     d30:	00171006 	andseq	r1, r7, r6
     d34:	00240200 	eoreq	r0, r4, r0, lsl #4
     d38:	0b3e0b0b 	bleq	f8396c <__bss_end__+0xf79a94>
     d3c:	00000803 	andeq	r0, r0, r3, lsl #16
     d40:	0b002403 	bleq	9d54 <buf.3918+0x290>
     d44:	030b3e0b 	movweq	r3, #48651	; 0xbe0b
     d48:	0400000e 	streq	r0, [r0], #-14
     d4c:	13490026 	movtne	r0, #36902	; 0x9026
     d50:	16050000 	strne	r0, [r5], -r0
     d54:	3a0e0300 	bcc	38195c <__bss_end__+0x377a84>
     d58:	390b3b0b 	stmdbcc	fp, {r0, r1, r3, r8, r9, fp, ip, sp}
     d5c:	0013490b 	andseq	r4, r3, fp, lsl #18
     d60:	01150600 	tsteq	r5, r0, lsl #12
     d64:	13491927 	movtne	r1, #39207	; 0x9927
     d68:	00001301 	andeq	r1, r0, r1, lsl #6
     d6c:	49000507 	stmdbmi	r0, {r0, r1, r2, r8, sl}
     d70:	08000013 	stmdaeq	r0, {r0, r1, r4}
     d74:	0e030034 	mcreq	0, 0, r0, cr3, cr4, {1}
     d78:	0b3b0b3a 	bleq	ec3a68 <__bss_end__+0xeb9b90>
     d7c:	13490b39 	movtne	r0, #39737	; 0x9b39
     d80:	193c193f 	ldmdbne	ip!, {r0, r1, r2, r3, r4, r5, r8, fp, ip}
     d84:	0f090000 	svceq	0x00090000
     d88:	490b0b00 	stmdbmi	fp, {r8, r9, fp}
     d8c:	0a000013 	beq	de0 <__code_start__-0x7220>
     d90:	0b3e0104 	bleq	f811a8 <__bss_end__+0xf772d0>
     d94:	13490b0b 	movtne	r0, #39691	; 0x9b0b
     d98:	0b3b0b3a 	bleq	ec3a88 <__bss_end__+0xeb9bb0>
     d9c:	13010b39 	movwne	r0, #6969	; 0x1b39
     da0:	280b0000 	stmdacs	fp, {}	; <UNPREDICTABLE>
     da4:	1c0e0300 	stcne	3, cr0, [lr], {-0}
     da8:	0c00000b 	stceq	0, cr0, [r0], {11}
     dac:	0e030034 	mcreq	0, 0, r0, cr3, cr4, {1}
     db0:	0b3b0b3a 	bleq	ec3aa0 <__bss_end__+0xeb9bc8>
     db4:	13490b39 	movtne	r0, #39737	; 0x9b39
     db8:	0000061c 	andeq	r0, r0, ip, lsl r6
     dbc:	0301130d 	movweq	r1, #4877	; 0x130d
     dc0:	3a0b0b0e 	bcc	2c3a00 <__bss_end__+0x2b9b28>
     dc4:	390b3b0b 	stmdbcc	fp, {r0, r1, r3, r8, r9, fp, ip, sp}
     dc8:	0013010b 	andseq	r0, r3, fp, lsl #2
     dcc:	000d0e00 	andeq	r0, sp, r0, lsl #28
     dd0:	0b3a0e03 	bleq	e845e4 <__bss_end__+0xe7a70c>
     dd4:	0b390b3b 	bleq	e43ac8 <__bss_end__+0xe39bf0>
     dd8:	0b0b1349 	bleq	2c5b04 <__bss_end__+0x2bbc2c>
     ddc:	0b0c0b0d 	bleq	303a18 <__bss_end__+0x2f9b40>
     de0:	00000b38 	andeq	r0, r0, r8, lsr fp
     de4:	0b01170f 	bleq	46a28 <__bss_end__+0x3cb50>
     de8:	3b0b3a0b 	blcc	2cf61c <__bss_end__+0x2c5744>
     dec:	010b390b 	tsteq	fp, fp, lsl #18
     df0:	10000013 	andne	r0, r0, r3, lsl r0
     df4:	0e03000d 	cdpeq	0, 0, cr0, cr3, cr13, {0}
     df8:	0b3b0b3a 	bleq	ec3ae8 <__bss_end__+0xeb9c10>
     dfc:	13490b39 	movtne	r0, #39737	; 0x9b39
     e00:	0d110000 	ldceq	0, cr0, [r1, #-0]
     e04:	38134900 	ldmdacc	r3, {r8, fp, lr}
     e08:	1200000b 	andne	r0, r0, #11, 0
     e0c:	0803000d 	stmdaeq	r3, {r0, r2, r3}
     e10:	0b3b0b3a 	bleq	ec3b00 <__bss_end__+0xeb9c28>
     e14:	13490b39 	movtne	r0, #39737	; 0x9b39
     e18:	00000b38 	andeq	r0, r0, r8, lsr fp
     e1c:	49010113 	stmdbmi	r1, {r0, r1, r4, r8}
     e20:	00130113 	andseq	r0, r3, r3, lsl r1
     e24:	00211400 	eoreq	r1, r1, r0, lsl #8
     e28:	0b2f1349 	bleq	bc5b54 <__bss_end__+0xbbbc7c>
     e2c:	34150000 	ldrcc	r0, [r5], #-0
     e30:	3a0e0300 	bcc	381a38 <__bss_end__+0x377b60>
     e34:	390b3b0b 	stmdbcc	fp, {r0, r1, r3, r8, r9, fp, ip, sp}
     e38:	0213490b 	andseq	r4, r3, #180224	; 0x2c000
     e3c:	16000018 			; <UNDEFINED> instruction: 0x16000018
     e40:	193f012e 	ldmdbne	pc!, {r1, r2, r3, r5, r8}	; <UNPREDICTABLE>
     e44:	0b3a0e03 	bleq	e84658 <__bss_end__+0xe7a780>
     e48:	0b39053b 	bleq	e4233c <__bss_end__+0xe38464>
     e4c:	01111927 	tsteq	r1, r7, lsr #18
     e50:	18400612 	stmdane	r0, {r1, r4, r9, sl}^
     e54:	01194297 			; <UNDEFINED> instruction: 0x01194297
     e58:	17000013 	smladne	r0, r3, r0, r0
     e5c:	00018289 	andeq	r8, r1, r9, lsl #5
     e60:	13310111 	teqne	r1, #1073741828	; 0x40000004
     e64:	2e180000 	cdpcs	0, 1, cr0, cr8, cr0, {0}
     e68:	03193f01 	tsteq	r9, #1, 30
     e6c:	3b0b3a0e 	blcc	2cf6ac <__bss_end__+0x2c57d4>
     e70:	270b3905 	strcs	r3, [fp, -r5, lsl #18]
     e74:	11134919 	tstne	r3, r9, lsl r9
     e78:	40061201 	andmi	r1, r6, r1, lsl #4
     e7c:	19429718 	stmdbne	r2, {r3, r4, r8, r9, sl, ip, pc}^
     e80:	00001301 	andeq	r1, r0, r1, lsl #6
     e84:	03003419 	movweq	r3, #1049	; 0x419
     e88:	3b0b3a08 	blcc	2cf6b0 <__bss_end__+0x2c57d8>
     e8c:	490b3905 	stmdbmi	fp, {r0, r2, r8, fp, ip, sp}
     e90:	00180213 	andseq	r0, r8, r3, lsl r2
     e94:	00341a00 	eorseq	r1, r4, r0, lsl #20
     e98:	0b3a0e03 	bleq	e846ac <__bss_end__+0xe7a7d4>
     e9c:	0b39053b 	bleq	e42390 <__bss_end__+0xe384b8>
     ea0:	17021349 	strne	r1, [r2, -r9, asr #6]
     ea4:	001742b7 			; <UNDEFINED> instruction: 0x001742b7
     ea8:	82891b00 	addhi	r1, r9, #0, 22
     eac:	01110101 	tsteq	r1, r1, lsl #2
     eb0:	00001331 	andeq	r1, r0, r1, lsr r3
     eb4:	01828a1c 	orreq	r8, r2, ip, lsl sl
     eb8:	91180200 	tstls	r8, r0, lsl #4
     ebc:	00001842 	andeq	r1, r0, r2, asr #16
     ec0:	3f012e1d 	svccc	0x00012e1d
     ec4:	3a0e0319 	bcc	381b30 <__bss_end__+0x377c58>
     ec8:	390b3b0b 	stmdbcc	fp, {r0, r1, r3, r8, r9, fp, ip, sp}
     ecc:	1119270b 	tstne	r9, fp, lsl #14
     ed0:	40061201 	andmi	r1, r6, r1, lsl #4
     ed4:	19429718 	stmdbne	r2, {r3, r4, r8, r9, sl, ip, pc}^
     ed8:	00001301 	andeq	r1, r0, r1, lsl #6
     edc:	0300051e 	movweq	r0, #1310	; 0x51e
     ee0:	3b0b3a08 	blcc	2cf708 <__bss_end__+0x2c5830>
     ee4:	490b390b 	stmdbmi	fp, {r0, r1, r3, r8, fp, ip, sp}
     ee8:	b7170213 			; <UNDEFINED> instruction: 0xb7170213
     eec:	00001742 	andeq	r1, r0, r2, asr #14
     ef0:	3f012e1f 	svccc	0x00012e1f
     ef4:	3a0e0319 	bcc	381b60 <__bss_end__+0x377c88>
     ef8:	390b3b0b 	stmdbcc	fp, {r0, r1, r3, r8, r9, fp, ip, sp}
     efc:	4919270b 	ldmdbmi	r9, {r0, r1, r3, r8, r9, sl, sp}
     f00:	12011113 	andne	r1, r1, #-1073741820	; 0xc0000004
     f04:	97184006 	ldrls	r4, [r8, -r6]
     f08:	13011942 	movwne	r1, #6466	; 0x1942
     f0c:	34200000 	strtcc	r0, [r0], #-0
     f10:	3a080300 	bcc	201b18 <__bss_end__+0x1f7c40>
     f14:	390b3b0b 	stmdbcc	fp, {r0, r1, r3, r8, r9, fp, ip, sp}
     f18:	0213490b 	andseq	r4, r3, #180224	; 0x2c000
     f1c:	21000018 	tstcs	r0, r8, lsl r0
     f20:	0e030034 	mcreq	0, 0, r0, cr3, cr4, {1}
     f24:	0b3b0b3a 	bleq	ec3c14 <__bss_end__+0xeb9d3c>
     f28:	13490b39 	movtne	r0, #39737	; 0x9b39
     f2c:	42b71702 	adcsmi	r1, r7, #524288	; 0x80000
     f30:	22000017 	andcs	r0, r0, #23, 0
     f34:	08030034 	stmdaeq	r3, {r2, r4, r5}
     f38:	0b3b0b3a 	bleq	ec3c28 <__bss_end__+0xeb9d50>
     f3c:	13490b39 	movtne	r0, #39737	; 0x9b39
     f40:	2e230000 	cdpcs	0, 2, cr0, cr3, cr0, {0}
     f44:	3a0e0301 	bcc	381b50 <__bss_end__+0x377c78>
     f48:	390b3b0b 	stmdbcc	fp, {r0, r1, r3, r8, r9, fp, ip, sp}
     f4c:	4919270b 	ldmdbmi	r9, {r0, r1, r3, r8, r9, sl, sp}
     f50:	12011113 	andne	r1, r1, #-1073741820	; 0xc0000004
     f54:	97184006 	ldrls	r4, [r8, -r6]
     f58:	13011942 	movwne	r1, #6466	; 0x1942
     f5c:	89240000 	stmdbhi	r4!, {}	; <UNPREDICTABLE>
     f60:	11010182 	smlabbne	r1, r2, r1, r0
     f64:	01133101 	tsteq	r3, r1, lsl #2
     f68:	25000013 	strcs	r0, [r0, #-19]	; 0xffffffed
     f6c:	193f002e 	ldmdbne	pc!, {r1, r2, r3, r5}	; <UNPREDICTABLE>
     f70:	0e6e193c 			; <UNDEFINED> instruction: 0x0e6e193c
     f74:	0b3a0e03 	bleq	e84788 <__bss_end__+0xe7a8b0>
     f78:	0b390b3b 	bleq	e43c6c <__bss_end__+0xe39d94>
     f7c:	01000000 	mrseq	r0, (UNDEF: 0)
     f80:	0e250111 	mcreq	1, 1, r0, cr5, cr1, {0}
     f84:	0e030b13 	vmoveq.32	d3[0], r0
     f88:	01110e1b 	tsteq	r1, fp, lsl lr
     f8c:	17100612 			; <UNDEFINED> instruction: 0x17100612
     f90:	24020000 	strcs	r0, [r2], #-0
     f94:	3e0b0b00 	vmlacc.f64	d0, d11, d0
     f98:	0008030b 	andeq	r0, r8, fp, lsl #6
     f9c:	00240300 	eoreq	r0, r4, r0, lsl #6
     fa0:	0b3e0b0b 	bleq	f83bd4 <__bss_end__+0xf79cfc>
     fa4:	00000e03 	andeq	r0, r0, r3, lsl #28
     fa8:	49002604 	stmdbmi	r0, {r2, r9, sl, sp}
     fac:	05000013 	streq	r0, [r0, #-19]	; 0xffffffed
     fb0:	0e030016 	mcreq	0, 0, r0, cr3, cr6, {0}
     fb4:	0b3b0b3a 	bleq	ec3ca4 <__bss_end__+0xeb9dcc>
     fb8:	13490b39 	movtne	r0, #39737	; 0x9b39
     fbc:	15060000 	strne	r0, [r6, #-0]
     fc0:	49192701 	ldmdbmi	r9, {r0, r8, r9, sl, sp}
     fc4:	00130113 	andseq	r0, r3, r3, lsl r1
     fc8:	00050700 	andeq	r0, r5, r0, lsl #14
     fcc:	00001349 	andeq	r1, r0, r9, asr #6
     fd0:	03003408 	movweq	r3, #1032	; 0x408
     fd4:	3b0b3a0e 	blcc	2cf814 <__bss_end__+0x2c593c>
     fd8:	490b390b 	stmdbmi	fp, {r0, r1, r3, r8, fp, ip, sp}
     fdc:	3c193f13 	ldccc	15, cr3, [r9], {19}
     fe0:	09000019 	stmdbeq	r0, {r0, r3, r4}
     fe4:	0b0b000f 	bleq	2c1028 <__bss_end__+0x2b7150>
     fe8:	00001349 	andeq	r1, r0, r9, asr #6
     fec:	3e01040a 	cdpcc	4, 0, cr0, cr1, cr10, {0}
     ff0:	490b0b0b 	stmdbmi	fp, {r0, r1, r3, r8, r9, fp}
     ff4:	3b0b3a13 	blcc	2cf848 <__bss_end__+0x2c5970>
     ff8:	010b390b 	tsteq	fp, fp, lsl #18
     ffc:	0b000013 	bleq	1050 <__code_start__-0x6fb0>
    1000:	0e030028 	cdpeq	0, 0, cr0, cr3, cr8, {1}
    1004:	00000b1c 	andeq	r0, r0, ip, lsl fp
    1008:	0300340c 	movweq	r3, #1036	; 0x40c
    100c:	3b0b3a0e 	blcc	2cf84c <__bss_end__+0x2c5974>
    1010:	490b390b 	stmdbmi	fp, {r0, r1, r3, r8, fp, ip, sp}
    1014:	00061c13 	andeq	r1, r6, r3, lsl ip
    1018:	012e0d00 			; <UNDEFINED> instruction: 0x012e0d00
    101c:	0e03193f 			; <UNDEFINED> instruction: 0x0e03193f
    1020:	0b3b0b3a 	bleq	ec3d10 <__bss_end__+0xeb9e38>
    1024:	19270b39 	stmdbne	r7!, {r0, r3, r4, r5, r8, r9, fp}
    1028:	01111349 	tsteq	r1, r9, asr #6
    102c:	18400612 	stmdane	r0, {r1, r4, r9, sl}^
    1030:	01194297 			; <UNDEFINED> instruction: 0x01194297
    1034:	0e000013 	mcreq	0, 0, r0, cr0, cr3, {0}
    1038:	08030005 	stmdaeq	r3, {r0, r2}
    103c:	0b3b0b3a 	bleq	ec3d2c <__bss_end__+0xeb9e54>
    1040:	13490b39 	movtne	r0, #39737	; 0x9b39
    1044:	42b71702 	adcsmi	r1, r7, #524288	; 0x80000
    1048:	0f000017 	svceq	0x00000017
    104c:	01018289 	smlabbeq	r1, r9, r2, r8
    1050:	13310111 	teqne	r1, #1073741828	; 0x40000004
    1054:	8a100000 	bhi	40105c <__bss_end__+0x3f7184>
    1058:	02000182 	andeq	r0, r0, #-2147483616	; 0x80000020
    105c:	18429118 	stmdane	r2, {r3, r4, r8, ip, pc}^
    1060:	2e110000 	cdpcs	0, 1, cr0, cr1, cr0, {0}
    1064:	03193f01 	tsteq	r9, #1, 30
    1068:	3b0b3a0e 	blcc	2cf8a8 <__bss_end__+0x2c59d0>
    106c:	270b390b 	strcs	r3, [fp, -fp, lsl #18]
    1070:	12011119 	andne	r1, r1, #1073741830	; 0x40000006
    1074:	97184006 	ldrls	r4, [r8, -r6]
    1078:	13011942 	movwne	r1, #6466	; 0x1942
    107c:	89120000 	ldmdbhi	r2, {}	; <UNPREDICTABLE>
    1080:	11010182 	smlabbne	r1, r2, r1, r0
    1084:	01133101 	tsteq	r3, r1, lsl #2
    1088:	13000013 	movwne	r0, #19
    108c:	00018289 	andeq	r8, r1, r9, lsl #5
    1090:	13310111 	teqne	r1, #1073741828	; 0x40000004
    1094:	34140000 	ldrcc	r0, [r4], #-0
    1098:	3a0e0300 	bcc	381ca0 <__bss_end__+0x377dc8>
    109c:	390b3b0b 	stmdbcc	fp, {r0, r1, r3, r8, r9, fp, ip, sp}
    10a0:	0213490b 	andseq	r4, r3, #180224	; 0x2c000
    10a4:	1742b717 	smlaldne	fp, r2, r7, r7
    10a8:	2e150000 	cdpcs	0, 1, cr0, cr5, cr0, {0}
    10ac:	3c193f00 	ldccc	15, cr3, [r9], {-0}
    10b0:	030e6e19 	movweq	r6, #60953	; 0xee19
    10b4:	3b0b3a0e 	blcc	2cf8f4 <__bss_end__+0x2c5a1c>
    10b8:	000b390b 	andeq	r3, fp, fp, lsl #18
    10bc:	11010000 	mrsne	r0, (UNDEF: 1)
    10c0:	130e2501 	movwne	r2, #58625	; 0xe501
    10c4:	1b0e030b 	blne	381cf8 <__bss_end__+0x377e20>
    10c8:	1201110e 	andne	r1, r1, #-2147483645	; 0x80000003
    10cc:	00171006 	andseq	r1, r7, r6
    10d0:	00240200 	eoreq	r0, r4, r0, lsl #4
    10d4:	0b3e0b0b 	bleq	f83d08 <__bss_end__+0xf79e30>
    10d8:	00000803 	andeq	r0, r0, r3, lsl #16
    10dc:	0b002403 	bleq	a0f0 <__bss_end__+0x218>
    10e0:	030b3e0b 	movweq	r3, #48651	; 0xbe0b
    10e4:	0400000e 	streq	r0, [r0], #-14
    10e8:	19270115 	stmdbne	r7!, {r0, r2, r4, r8}
    10ec:	13011349 	movwne	r1, #4937	; 0x1349
    10f0:	05050000 	streq	r0, [r5, #-0]
    10f4:	00134900 	andseq	r4, r3, r0, lsl #18
    10f8:	00340600 	eorseq	r0, r4, r0, lsl #12
    10fc:	0b3a0e03 	bleq	e84910 <__bss_end__+0xe7aa38>
    1100:	0b390b3b 	bleq	e43df4 <__bss_end__+0xe39f1c>
    1104:	193f1349 	ldmdbne	pc!, {r0, r3, r6, r8, r9, ip}	; <UNPREDICTABLE>
    1108:	0000193c 	andeq	r1, r0, ip, lsr r9
    110c:	0b000f07 	bleq	4d30 <__code_start__-0x32d0>
    1110:	0013490b 	andseq	r4, r3, fp, lsl #18
    1114:	00260800 	eoreq	r0, r6, r0, lsl #16
    1118:	00001349 	andeq	r1, r0, r9, asr #6
    111c:	03003409 	movweq	r3, #1033	; 0x409
    1120:	3b0b3a0e 	blcc	2cf960 <__bss_end__+0x2c5a88>
    1124:	490b390b 	stmdbmi	fp, {r0, r1, r3, r8, fp, ip, sp}
    1128:	00180213 	andseq	r0, r8, r3, lsl r2
    112c:	000f0a00 	andeq	r0, pc, r0, lsl #20
    1130:	00000b0b 	andeq	r0, r0, fp, lsl #22
    1134:	3f002e0b 	svccc	0x00002e0b
    1138:	3a0e0319 	bcc	381da4 <__bss_end__+0x377ecc>
    113c:	390b3b0b 	stmdbcc	fp, {r0, r1, r3, r8, r9, fp, ip, sp}
    1140:	4919270b 	ldmdbmi	r9, {r0, r1, r3, r8, r9, sl, sp}
    1144:	12011113 	andne	r1, r1, #-1073741820	; 0xc0000004
    1148:	97184006 	ldrls	r4, [r8, -r6]
    114c:	00001942 	andeq	r1, r0, r2, asr #18
    1150:	3f002e0c 	svccc	0x00002e0c
    1154:	3a0e0319 	bcc	381dc0 <__bss_end__+0x377ee8>
    1158:	390b3b0b 	stmdbcc	fp, {r0, r1, r3, r8, r9, fp, ip, sp}
    115c:	1119270b 	tstne	r9, fp, lsl #14
    1160:	40061201 	andmi	r1, r6, r1, lsl #4
    1164:	19429718 	stmdbne	r2, {r3, r4, r8, r9, sl, ip, pc}^
    1168:	2e0d0000 	cdpcs	0, 0, cr0, cr13, cr0, {0}
    116c:	03193f01 	tsteq	r9, #1, 30
    1170:	3b0b3a0e 	blcc	2cf9b0 <__bss_end__+0x2c5ad8>
    1174:	270b390b 	strcs	r3, [fp, -fp, lsl #18]
    1178:	12011119 	andne	r1, r1, #1073741830	; 0x40000006
    117c:	97184006 	ldrls	r4, [r8, -r6]
    1180:	13011942 	movwne	r1, #6466	; 0x1942
    1184:	050e0000 	streq	r0, [lr, #-0]
    1188:	3a0e0300 	bcc	381d90 <__bss_end__+0x377eb8>
    118c:	390b3b0b 	stmdbcc	fp, {r0, r1, r3, r8, r9, fp, ip, sp}
    1190:	0213490b 	andseq	r4, r3, #180224	; 0x2c000
    1194:	1742b717 	smlaldne	fp, r2, r7, r7
    1198:	340f0000 	strcc	r0, [pc], #-0	; 11a0 <__code_start__-0x6e60>
    119c:	490e0300 	stmdbmi	lr, {r8, r9}
    11a0:	02193413 	andseq	r3, r9, #318767104	; 0x13000000
    11a4:	10000018 	andne	r0, r0, r8, lsl r0
    11a8:	1331011d 	teqne	r1, #1073741831	; 0x40000007
    11ac:	42b80152 	adcsmi	r0, r8, #-2147483628	; 0x80000014
    11b0:	5817550b 	ldmdapl	r7, {r0, r1, r3, r8, sl, ip, lr}
    11b4:	570b590b 	strpl	r5, [fp, -fp, lsl #18]
    11b8:	0013010b 	andseq	r0, r3, fp, lsl #2
    11bc:	00051100 	andeq	r1, r5, r0, lsl #2
    11c0:	17021331 	smladxne	r2, r1, r3, r1
    11c4:	001742b7 			; <UNDEFINED> instruction: 0x001742b7
    11c8:	011d1200 	tsteq	sp, r0, lsl #4
    11cc:	01521331 	cmpeq	r2, r1, lsr r3
    11d0:	110b42b8 			; <UNDEFINED> instruction: 0x110b42b8
    11d4:	58061201 	stmdapl	r6, {r0, r9, ip}
    11d8:	570b590b 	strpl	r5, [fp, -fp, lsl #18]
    11dc:	1300000b 	movwne	r0, #11
    11e0:	00018289 	andeq	r8, r1, r9, lsl #5
    11e4:	13310111 	teqne	r1, #1073741828	; 0x40000004
    11e8:	89140000 	ldmdbhi	r4, {}	; <UNPREDICTABLE>
    11ec:	11010182 	smlabbne	r1, r2, r1, r0
    11f0:	01133101 	tsteq	r3, r1, lsl #2
    11f4:	15000013 	strne	r0, [r0, #-19]	; 0xffffffed
    11f8:	0001828a 	andeq	r8, r1, sl, lsl #5
    11fc:	42911802 	addsmi	r1, r1, #131072	; 0x20000
    1200:	16000018 			; <UNDEFINED> instruction: 0x16000018
    1204:	13490101 	movtne	r0, #37121	; 0x9101
    1208:	00001301 	andeq	r1, r0, r1, lsl #6
    120c:	49002117 	stmdbmi	r0, {r0, r1, r2, r4, r8, sp}
    1210:	000b2f13 	andeq	r2, fp, r3, lsl pc
    1214:	012e1800 			; <UNDEFINED> instruction: 0x012e1800
    1218:	0e03193f 			; <UNDEFINED> instruction: 0x0e03193f
    121c:	0b3b0b3a 	bleq	ec3f0c <__bss_end__+0xeba034>
    1220:	19270b39 	stmdbne	r7!, {r0, r3, r4, r5, r8, r9, fp}
    1224:	01111349 	tsteq	r1, r9, asr #6
    1228:	18400612 	stmdane	r0, {r1, r4, r9, sl}^
    122c:	01194297 			; <UNDEFINED> instruction: 0x01194297
    1230:	19000013 	stmdbne	r0, {r0, r1, r4}
    1234:	1331011d 	teqne	r1, #1073741831	; 0x40000007
    1238:	42b80152 	adcsmi	r0, r8, #-2147483628	; 0x80000014
    123c:	1201110b 	andne	r1, r1, #-1073741822	; 0xc0000002
    1240:	590b5806 	stmdbpl	fp, {r1, r2, fp, ip, lr}
    1244:	010b570b 	tsteq	fp, fp, lsl #14
    1248:	1a000013 	bne	129c <__code_start__-0x6d64>
    124c:	1755010b 	ldrbne	r0, [r5, -fp, lsl #2]
    1250:	341b0000 	ldrcc	r0, [fp], #-0
    1254:	3a080300 	bcc	201e5c <__bss_end__+0x1f7f84>
    1258:	390b3b0b 	stmdbcc	fp, {r0, r1, r3, r8, r9, fp, ip, sp}
    125c:	0213490b 	andseq	r4, r3, #180224	; 0x2c000
    1260:	1742b717 	smlaldne	fp, r2, r7, r7
    1264:	0b1c0000 	bleq	70126c <__bss_end__+0x6f7394>
    1268:	00175500 	andseq	r5, r7, r0, lsl #10
    126c:	012e1d00 			; <UNDEFINED> instruction: 0x012e1d00
    1270:	0b3a0e03 	bleq	e84a84 <__bss_end__+0xe7abac>
    1274:	0b390b3b 	bleq	e43f68 <__bss_end__+0xe3a090>
    1278:	13491927 	movtne	r1, #39207	; 0x9927
    127c:	13010b20 	movwne	r0, #6944	; 0x1b20
    1280:	051e0000 	ldreq	r0, [lr, #-0]
    1284:	3a080300 	bcc	201e8c <__bss_end__+0x1f7fb4>
    1288:	390b3b0b 	stmdbcc	fp, {r0, r1, r3, r8, r9, fp, ip, sp}
    128c:	0013490b 	andseq	r4, r3, fp, lsl #18
    1290:	002e1f00 	eoreq	r1, lr, r0, lsl #30
    1294:	193c193f 	ldmdbne	ip!, {r0, r1, r2, r3, r4, r5, r8, fp, ip}
    1298:	0e030e6e 	cdpeq	14, 0, cr0, cr3, cr14, {3}
    129c:	0b3b0b3a 	bleq	ec3f8c <__bss_end__+0xeba0b4>
    12a0:	00000b39 	andeq	r0, r0, r9, lsr fp
    12a4:	01110100 	tsteq	r1, r0, lsl #2
    12a8:	0b130e25 	bleq	4c4b44 <__bss_end__+0x4bac6c>
    12ac:	0e1b0e03 	cdpeq	14, 1, cr0, cr11, cr3, {0}
    12b0:	06120111 			; <UNDEFINED> instruction: 0x06120111
    12b4:	00001710 	andeq	r1, r0, r0, lsl r7
    12b8:	0b002402 	bleq	a2c8 <__bss_end__+0x3f0>
    12bc:	030b3e0b 	movweq	r3, #48651	; 0xbe0b
    12c0:	03000008 	movweq	r0, #8
    12c4:	0b0b0024 	bleq	2c135c <__bss_end__+0x2b7484>
    12c8:	0e030b3e 	vmoveq.16	d3[0], r0
    12cc:	15040000 	strne	r0, [r4, #-0]
    12d0:	49192701 	ldmdbmi	r9, {r0, r8, r9, sl, sp}
    12d4:	00130113 	andseq	r0, r3, r3, lsl r1
    12d8:	00050500 	andeq	r0, r5, r0, lsl #10
    12dc:	00001349 	andeq	r1, r0, r9, asr #6
    12e0:	03003406 	movweq	r3, #1030	; 0x406
    12e4:	3b0b3a0e 	blcc	2cfb24 <__bss_end__+0x2c5c4c>
    12e8:	490b390b 	stmdbmi	fp, {r0, r1, r3, r8, fp, ip, sp}
    12ec:	3c193f13 	ldccc	15, cr3, [r9], {19}
    12f0:	07000019 	smladeq	r0, r9, r0, r0
    12f4:	0b0b000f 	bleq	2c1338 <__bss_end__+0x2b7460>
    12f8:	00001349 	andeq	r1, r0, r9, asr #6
    12fc:	49002608 	stmdbmi	r0, {r3, r9, sl, sp}
    1300:	09000013 	stmdbeq	r0, {r0, r1, r4}
    1304:	13470034 	movtne	r0, #28724	; 0x7034
    1308:	0b3b0b3a 	bleq	ec3ff8 <__bss_end__+0xeba120>
    130c:	18020b39 	stmdane	r2, {r0, r3, r4, r5, r8, r9, fp}
    1310:	2e0a0000 	cdpcs	0, 0, cr0, cr10, cr0, {0}
    1314:	03193f01 	tsteq	r9, #1, 30
    1318:	3b0b3a0e 	blcc	2cfb58 <__bss_end__+0x2c5c80>
    131c:	270b390b 	strcs	r3, [fp, -fp, lsl #18]
    1320:	12011119 	andne	r1, r1, #1073741830	; 0x40000006
    1324:	97184006 	ldrls	r4, [r8, -r6]
    1328:	13011942 	movwne	r1, #6466	; 0x1942
    132c:	050b0000 	streq	r0, [fp, #-0]
    1330:	3a080300 	bcc	201f38 <__bss_end__+0x1f8060>
    1334:	390b3b0b 	stmdbcc	fp, {r0, r1, r3, r8, r9, fp, ip, sp}
    1338:	0213490b 	andseq	r4, r3, #180224	; 0x2c000
    133c:	0c000018 	stceq	0, cr0, [r0], {24}
    1340:	193f002e 	ldmdbne	pc!, {r1, r2, r3, r5}	; <UNPREDICTABLE>
    1344:	0b3a0e03 	bleq	e84b58 <__bss_end__+0xe7ac80>
    1348:	0b390b3b 	bleq	e4403c <__bss_end__+0xe3a164>
    134c:	01111927 	tsteq	r1, r7, lsr #18
    1350:	18400612 	stmdane	r0, {r1, r4, r9, sl}^
    1354:	00194297 	mulseq	r9, r7, r2
    1358:	012e0d00 			; <UNDEFINED> instruction: 0x012e0d00
    135c:	0b3a0e03 	bleq	e84b70 <__bss_end__+0xe7ac98>
    1360:	0b390b3b 	bleq	e44054 <__bss_end__+0xe3a17c>
    1364:	13491927 	movtne	r1, #39207	; 0x9927
    1368:	06120111 			; <UNDEFINED> instruction: 0x06120111
    136c:	42971840 	addsmi	r1, r7, #64, 16	; 0x400000
    1370:	00130119 	andseq	r0, r3, r9, lsl r1
    1374:	00050e00 	andeq	r0, r5, r0, lsl #28
    1378:	0b3a0803 	bleq	e8338c <__bss_end__+0xe794b4>
    137c:	0b390b3b 	bleq	e44070 <__bss_end__+0xe3a198>
    1380:	17021349 	strne	r1, [r2, -r9, asr #6]
    1384:	001742b7 			; <UNDEFINED> instruction: 0x001742b7
    1388:	82890f00 	addhi	r0, r9, #0, 30
    138c:	01110101 	tsteq	r1, r1, lsl #2
    1390:	00001331 	andeq	r1, r0, r1, lsr r3
    1394:	01828a10 	orreq	r8, r2, r0, lsl sl
    1398:	91180200 	tstls	r8, r0, lsl #4
    139c:	00001842 	andeq	r1, r0, r2, asr #16
    13a0:	3f002e11 	svccc	0x00002e11
    13a4:	6e193c19 	mrcvs	12, 0, r3, cr9, cr9, {0}
    13a8:	3a0e030e 	bcc	381fe8 <__bss_end__+0x378110>
    13ac:	390b3b0b 	stmdbcc	fp, {r0, r1, r3, r8, r9, fp, ip, sp}
    13b0:	0000000b 	andeq	r0, r0, fp
    13b4:	25011101 	strcs	r1, [r1, #-257]	; 0xfffffeff
    13b8:	030b130e 	movweq	r1, #45838	; 0xb30e
    13bc:	110e1b0e 	tstne	lr, lr, lsl #22
    13c0:	10061201 	andne	r1, r6, r1, lsl #4
    13c4:	02000017 	andeq	r0, r0, #23, 0
    13c8:	0b0b0024 	bleq	2c1460 <__bss_end__+0x2b7588>
    13cc:	08030b3e 	stmdaeq	r3, {r1, r2, r3, r4, r5, r8, r9, fp}
    13d0:	24030000 	strcs	r0, [r3], #-0
    13d4:	3e0b0b00 	vmlacc.f64	d0, d11, d0
    13d8:	000e030b 	andeq	r0, lr, fp, lsl #6
    13dc:	01150400 	tsteq	r5, r0, lsl #8
    13e0:	13491927 	movtne	r1, #39207	; 0x9927
    13e4:	00001301 	andeq	r1, r0, r1, lsl #6
    13e8:	49000505 	stmdbmi	r0, {r0, r2, r8, sl}
    13ec:	06000013 			; <UNDEFINED> instruction: 0x06000013
    13f0:	0e030034 	mcreq	0, 0, r0, cr3, cr4, {1}
    13f4:	0b3b0b3a 	bleq	ec40e4 <__bss_end__+0xeba20c>
    13f8:	13490b39 	movtne	r0, #39737	; 0x9b39
    13fc:	193c193f 	ldmdbne	ip!, {r0, r1, r2, r3, r4, r5, r8, fp, ip}
    1400:	0f070000 	svceq	0x00070000
    1404:	490b0b00 	stmdbmi	fp, {r8, r9, fp}
    1408:	08000013 	stmdaeq	r0, {r0, r1, r4}
    140c:	13490026 	movtne	r0, #36902	; 0x9026
    1410:	2e090000 	cdpcs	0, 0, cr0, cr9, cr0, {0}
    1414:	03193f01 	tsteq	r9, #1, 30
    1418:	3b0b3a0e 	blcc	2cfc58 <__bss_end__+0x2c5d80>
    141c:	270b390b 	strcs	r3, [fp, -fp, lsl #18]
    1420:	11134919 	tstne	r3, r9, lsl r9
    1424:	40061201 	andmi	r1, r6, r1, lsl #4
    1428:	19429718 	stmdbne	r2, {r3, r4, r8, r9, sl, ip, pc}^
    142c:	00001301 	andeq	r1, r0, r1, lsl #6
    1430:	0300050a 	movweq	r0, #1290	; 0x50a
    1434:	3b0b3a0e 	blcc	2cfc74 <__bss_end__+0x2c5d9c>
    1438:	490b390b 	stmdbmi	fp, {r0, r1, r3, r8, fp, ip, sp}
    143c:	00180213 	andseq	r0, r8, r3, lsl r2
    1440:	00050b00 	andeq	r0, r5, r0, lsl #22
    1444:	0b3a0803 	bleq	e83458 <__bss_end__+0xe79580>
    1448:	0b390b3b 	bleq	e4413c <__bss_end__+0xe3a264>
    144c:	17021349 	strne	r1, [r2, -r9, asr #6]
    1450:	001742b7 			; <UNDEFINED> instruction: 0x001742b7
    1454:	00340c00 	eorseq	r0, r4, r0, lsl #24
    1458:	0b3a0803 	bleq	e8346c <__bss_end__+0xe79594>
    145c:	0b390b3b 	bleq	e44150 <__bss_end__+0xe3a278>
    1460:	17021349 	strne	r1, [r2, -r9, asr #6]
    1464:	001742b7 			; <UNDEFINED> instruction: 0x001742b7
    1468:	11010000 	mrsne	r0, (UNDEF: 1)
    146c:	130e2501 	movwne	r2, #58625	; 0xe501
    1470:	1b0e030b 	blne	3820a4 <__bss_end__+0x3781cc>
    1474:	1117550e 	tstne	r7, lr, lsl #10
    1478:	00171001 	andseq	r1, r7, r1
    147c:	00240200 	eoreq	r0, r4, r0, lsl #4
    1480:	0b3e0b0b 	bleq	f840b4 <__bss_end__+0xf7a1dc>
    1484:	00000803 	andeq	r0, r0, r3, lsl #16
    1488:	03001603 	movweq	r1, #1539	; 0x603
    148c:	3b0b3a0e 	blcc	2cfccc <__bss_end__+0x2c5df4>
    1490:	490b390b 	stmdbmi	fp, {r0, r1, r3, r8, fp, ip, sp}
    1494:	04000013 	streq	r0, [r0], #-19	; 0xffffffed
    1498:	0b0b0024 	bleq	2c1530 <__bss_end__+0x2b7658>
    149c:	0e030b3e 	vmoveq.16	d3[0], r0
    14a0:	26050000 	strcs	r0, [r5], -r0
    14a4:	00134900 	andseq	r4, r3, r0, lsl #18
    14a8:	01150600 	tsteq	r5, r0, lsl #12
    14ac:	13491927 	movtne	r1, #39207	; 0x9927
    14b0:	00001301 	andeq	r1, r0, r1, lsl #6
    14b4:	49000507 	stmdbmi	r0, {r0, r1, r2, r8, sl}
    14b8:	08000013 	stmdaeq	r0, {r0, r1, r4}
    14bc:	0e030034 	mcreq	0, 0, r0, cr3, cr4, {1}
    14c0:	0b3b0b3a 	bleq	ec41b0 <__bss_end__+0xeba2d8>
    14c4:	13490b39 	movtne	r0, #39737	; 0x9b39
    14c8:	193c193f 	ldmdbne	ip!, {r0, r1, r2, r3, r4, r5, r8, fp, ip}
    14cc:	0f090000 	svceq	0x00090000
    14d0:	490b0b00 	stmdbmi	fp, {r8, r9, fp}
    14d4:	0a000013 	beq	1528 <__code_start__-0x6ad8>
    14d8:	193f012e 	ldmdbne	pc!, {r1, r2, r3, r5, r8}	; <UNPREDICTABLE>
    14dc:	0b3a0e03 	bleq	e84cf0 <__bss_end__+0xe7ae18>
    14e0:	0b390b3b 	bleq	e441d4 <__bss_end__+0xe3a2fc>
    14e4:	13491927 	movtne	r1, #39207	; 0x9927
    14e8:	06120111 			; <UNDEFINED> instruction: 0x06120111
    14ec:	42971840 	addsmi	r1, r7, #64, 16	; 0x400000
    14f0:	00130119 	andseq	r0, r3, r9, lsl r1
    14f4:	00050b00 	andeq	r0, r5, r0, lsl #22
    14f8:	0b3a0803 	bleq	e8350c <__bss_end__+0xe79634>
    14fc:	0b390b3b 	bleq	e441f0 <__bss_end__+0xe3a318>
    1500:	17021349 	strne	r1, [r2, -r9, asr #6]
    1504:	001742b7 			; <UNDEFINED> instruction: 0x001742b7
    1508:	00340c00 	eorseq	r0, r4, r0, lsl #24
    150c:	0b3a0803 	bleq	e83520 <__bss_end__+0xe79648>
    1510:	0b390b3b 	bleq	e44204 <__bss_end__+0xe3a32c>
    1514:	17021349 	strne	r1, [r2, -r9, asr #6]
    1518:	001742b7 			; <UNDEFINED> instruction: 0x001742b7
	...

Disassembly of section .debug_loc:

00000000 <.debug_loc>:
       0:	00000001 	andeq	r0, r0, r1
       4:	000001d8 	ldrdeq	r0, [r0], -r8
       8:	000001e0 	andeq	r0, r0, r0, ror #3
       c:	9f300002 	svcls	0x00300002
      10:	000001e0 	andeq	r0, r0, r0, ror #3
      14:	0000025c 	andeq	r0, r0, ip, asr r2
      18:	00540001 	subseq	r0, r4, r1
	...
      24:	1c000000 	stcne	0, cr0, [r0], {-0}
      28:	27000001 	strcs	r0, [r0, -r1]
      2c:	01000001 	tsteq	r0, r1
      30:	01275000 			; <UNDEFINED> instruction: 0x01275000
      34:	01880000 	orreq	r0, r8, r0
      38:	00010000 	andeq	r0, r1, r0
      3c:	00000054 	andeq	r0, r0, r4, asr r0
      40:	00000000 	andeq	r0, r0, r0
      44:	30000000 	andcc	r0, r0, r0
      48:	40000001 	andmi	r0, r0, r1
      4c:	01000001 	tsteq	r0, r1
      50:	00005000 	andeq	r5, r0, r0
	...
      5c:	00000160 	andeq	r0, r0, r0, ror #2
      60:	00000188 	andeq	r0, r0, r8, lsl #3
      64:	00500001 	subseq	r0, r0, r1
	...
      70:	28000000 	stmdacs	r0, {}	; <UNPREDICTABLE>
      74:	38000000 	stmdacc	r0, {}	; <UNPREDICTABLE>
      78:	01000000 	mrseq	r0, (UNDEF: 0)
      7c:	00385000 	eorseq	r5, r8, r0
      80:	00880000 	addeq	r0, r8, r0
      84:	00010000 	andeq	r0, r1, r0
      88:	00000055 	andeq	r0, r0, r5, asr r0
      8c:	00000000 	andeq	r0, r0, r0
      90:	00000200 	andeq	r0, r0, r0, lsl #4
      94:	00003000 	andeq	r3, r0, r0
      98:	00003800 	andeq	r3, r0, r0, lsl #16
      9c:	30000200 	andcc	r0, r0, r0, lsl #4
      a0:	0000389f 	muleq	r0, pc, r8	; <UNPREDICTABLE>
      a4:	00008800 	andeq	r8, r0, r0, lsl #16
      a8:	54000100 	strpl	r0, [r0], #-256	; 0xffffff00
	...
      bc:	0000000c 	andeq	r0, r0, ip
      c0:	0c500001 	mrrceq	0, 0, r0, r0, cr1	; <UNPREDICTABLE>
      c4:	28000000 	stmdacs	r0, {}	; <UNPREDICTABLE>
      c8:	04000000 	streq	r0, [r0], #-0
      cc:	5001f300 	andpl	pc, r1, r0, lsl #6
      d0:	0000009f 	muleq	r0, pc, r0	; <UNPREDICTABLE>
	...
      dc:	0c000000 	stceq	0, cr0, [r0], {-0}
      e0:	10000000 	andne	r0, r0, r0
      e4:	05000000 	streq	r0, [r0, #-0]
      e8:	32007000 	andcc	r7, r0, #0, 0
      ec:	00109f25 	andseq	r9, r0, r5, lsr #30
      f0:	00140000 	andseq	r0, r4, r0
      f4:	00090000 	andeq	r0, r9, r0
      f8:	725001f3 	subsvc	r0, r0, #-1073741764	; 0xc000003c
      fc:	25321c00 	ldrcs	r1, [r2, #-3072]!	; 0xfffff400
     100:	0000149f 	muleq	r0, pc, r4	; <UNPREDICTABLE>
     104:	00002800 	andeq	r2, r0, r0, lsl #16
     108:	f3000d00 	vpadd.f32	d0, d0, d0
     10c:	ac035001 	stcge	0, cr5, [r3], {1}
     110:	0600009a 			; <UNDEFINED> instruction: 0x0600009a
     114:	9f25321c 	svcls	0x0025321c
	...
     120:	00000002 	andeq	r0, r0, r2
     124:	000000d4 	ldrdeq	r0, [r0], -r4
     128:	000000d8 	ldrdeq	r0, [r0], -r8
     12c:	9f300002 	svcls	0x00300002
     130:	000000d8 	ldrdeq	r0, [r0], -r8
     134:	0000011c 	andeq	r0, r0, ip, lsl r1
     138:	00530001 	subseq	r0, r3, r1
	...
     148:	00019000 	andeq	r9, r1, r0
     14c:	0001b400 	andeq	fp, r1, r0, lsl #8
     150:	50000100 	andpl	r0, r0, r0, lsl #2
     154:	000001b4 			; <UNDEFINED> instruction: 0x000001b4
     158:	000001b7 			; <UNDEFINED> instruction: 0x000001b7
     15c:	6c910002 	ldcvs	0, cr0, [r1], {2}
     160:	000001b7 			; <UNDEFINED> instruction: 0x000001b7
     164:	000001cc 	andeq	r0, r0, ip, asr #3
     168:	01f30004 	mvnseq	r0, r4
     16c:	00009f50 	andeq	r9, r0, r0, asr pc
	...
     17c:	00000154 	andeq	r0, r0, r4, asr r1
     180:	00000178 	andeq	r0, r0, r8, ror r1
     184:	78500001 	ldmdavc	r0, {r0}^
     188:	7b000001 	blvc	194 <__code_start__-0x7e6c>
     18c:	02000001 	andeq	r0, r0, #1, 0
     190:	7b6c9100 	blvc	1b24598 <__bss_end__+0x1b1a6c0>
     194:	90000001 	andls	r0, r0, r1
     198:	04000001 	streq	r0, [r0], #-1
     19c:	5001f300 	andpl	pc, r1, r0, lsl #6
     1a0:	0000009f 	muleq	r0, pc, r0	; <UNPREDICTABLE>
	...
     1ac:	18000000 	stmdane	r0, {}	; <UNPREDICTABLE>
     1b0:	3c000001 	stccc	0, cr0, [r0], {1}
     1b4:	01000001 	tsteq	r0, r1
     1b8:	013c5000 	teqeq	ip, r0
     1bc:	013f0000 	teqeq	pc, r0
     1c0:	00020000 	andeq	r0, r2, r0
     1c4:	013f6c91 	teqeq	pc, r1	; <illegal shifter operand>	; <UNPREDICTABLE>
     1c8:	01540000 	cmpeq	r4, r0
     1cc:	00040000 	andeq	r0, r4, r0
     1d0:	9f5001f3 	svcls	0x005001f3
	...
     1e0:	00dc0000 	sbcseq	r0, ip, r0
     1e4:	01000000 	mrseq	r0, (UNDEF: 0)
     1e8:	00010000 	andeq	r0, r1, r0
     1ec:	00010050 	andeq	r0, r1, r0, asr r0
     1f0:	00010300 	andeq	r0, r1, r0, lsl #6
     1f4:	91000200 	mrsls	r0, R8_usr
     1f8:	0001036c 	andeq	r0, r1, ip, ror #6
     1fc:	00011800 	andeq	r1, r1, r0, lsl #16
     200:	f3000400 	vshl.u8	d0, d0, d0
     204:	009f5001 	addseq	r5, pc, r1
	...
     214:	0000a000 	andeq	sl, r0, r0
     218:	0000c400 	andeq	ip, r0, r0, lsl #8
     21c:	50000100 	andpl	r0, r0, r0, lsl #2
     220:	000000c4 	andeq	r0, r0, r4, asr #1
     224:	000000c7 	andeq	r0, r0, r7, asr #1
     228:	6c910002 	ldcvs	0, cr0, [r1], {2}
     22c:	000000c7 	andeq	r0, r0, r7, asr #1
     230:	000000dc 	ldrdeq	r0, [r0], -ip
     234:	01f30004 	mvnseq	r0, r4
     238:	00009f50 	andeq	r9, r0, r0, asr pc
	...
     248:	00000064 	andeq	r0, r0, r4, rrx
     24c:	00000088 	andeq	r0, r0, r8, lsl #1
     250:	88500001 	ldmdahi	r0, {r0}^
     254:	8b000000 	blhi	25c <__code_start__-0x7da4>
     258:	02000000 	andeq	r0, r0, #0, 0
     25c:	8b6c9100 	blhi	1b24664 <__bss_end__+0x1b1a78c>
     260:	a0000000 	andge	r0, r0, r0
     264:	04000000 	streq	r0, [r0], #-0
     268:	5001f300 	andpl	pc, r1, r0, lsl #6
     26c:	0000009f 	muleq	r0, pc, r0	; <UNPREDICTABLE>
     270:	00000000 	andeq	r0, r0, r0
     274:	30000000 	andcc	r0, r0, r0
     278:	64000000 	strvs	r0, [r0], #-0
     27c:	01000000 	mrseq	r0, (UNDEF: 0)
     280:	00005000 	andeq	r5, r0, r0
     284:	00000000 	andeq	r0, r0, r0
     288:	00020000 	andeq	r0, r2, r0
     28c:	00300000 	eorseq	r0, r0, r0
     290:	00340000 	eorseq	r0, r4, r0
     294:	00020000 	andeq	r0, r2, r0
     298:	00349f30 	eorseq	r9, r4, r0, lsr pc
     29c:	00640000 	rsbeq	r0, r4, r0
     2a0:	00010000 	andeq	r0, r1, r0
     2a4:	00000053 	andeq	r0, r0, r3, asr r0
     2a8:	00000000 	andeq	r0, r0, r0
     2ac:	20201700 	eorcs	r1, r0, r0, lsl #14
     2b0:	00000800 	andeq	r0, r0, r0, lsl #16
     2b4:	00000800 	andeq	r0, r0, r0, lsl #16
     2b8:	34000200 	strcc	r0, [r0], #-512	; 0xfffffe00
     2bc:	0000089f 	muleq	r0, pc, r8	; <UNPREDICTABLE>
     2c0:	00001c00 	andeq	r1, r0, r0, lsl #24
     2c4:	3c000200 	sfmcc	f0, 4, [r0], {-0}
     2c8:	0000009f 	muleq	r0, pc, r0	; <UNPREDICTABLE>
     2cc:	00000000 	andeq	r0, r0, r0
     2d0:	70706700 	rsbsvc	r6, r0, r0, lsl #14
     2d4:	00000800 	andeq	r0, r0, r0, lsl #16
     2d8:	00000800 	andeq	r0, r0, r0, lsl #16
     2dc:	40000400 	andmi	r0, r0, r0, lsl #8
     2e0:	089f243c 	ldmeq	pc, {r2, r3, r4, r5, sl, sp}	; <UNPREDICTABLE>
     2e4:	1c000000 	stcne	0, cr0, [r0], {-0}
     2e8:	05000000 	streq	r0, [r0, #-0]
     2ec:	3ffe0800 	svccc	0x00fe0800
     2f0:	00009f24 	andeq	r9, r0, r4, lsr #30
	...
     2fc:	001c0000 	andseq	r0, ip, r0
     300:	00270000 	eoreq	r0, r7, r0
     304:	00010000 	andeq	r0, r1, r0
     308:	00002750 	andeq	r2, r0, r0, asr r7
     30c:	00005c00 	andeq	r5, r0, r0, lsl #24
     310:	54000100 	strpl	r0, [r0], #-256	; 0xffffff00
	...
     320:	002c0000 	eoreq	r0, ip, r0
     324:	00380000 	eorseq	r0, r8, r0
     328:	00010000 	andeq	r0, r1, r0
     32c:	00003850 	andeq	r3, r0, r0, asr r8
     330:	00004800 	andeq	r4, r0, r0, lsl #16
     334:	54000100 	strpl	r0, [r0], #-256	; 0xffffff00
     338:	00000048 	andeq	r0, r0, r8, asr #32
     33c:	00000058 	andeq	r0, r0, r8, asr r0
     340:	00500001 	subseq	r0, r0, r1
	...
     34c:	00000101 	andeq	r0, r0, r1, lsl #2
     350:	08000000 	stmdaeq	r0, {}	; <UNPREDICTABLE>
     354:	01000000 	mrseq	r0, (UNDEF: 0)
     358:	00085000 	andeq	r5, r8, r0
     35c:	00340000 	eorseq	r0, r4, r0
     360:	00010000 	andeq	r0, r1, r0
     364:	00000054 	andeq	r0, r0, r4, asr r0
	...
     370:	88000000 	stmdahi	r0, {}	; <UNPREDICTABLE>
     374:	b8000002 	stmdalt	r0, {r1}
     378:	01000002 	tsteq	r0, r2
     37c:	02b85000 	adcseq	r5, r8, #0, 0
     380:	06040000 	streq	r0, [r4], -r0
     384:	00010000 	andeq	r0, r1, r0
     388:	00060459 	andeq	r0, r6, r9, asr r4
     38c:	00062c00 	andeq	r2, r6, r0, lsl #24
     390:	f3000400 	vshl.u8	d0, d0, d0
     394:	009f5001 	addseq	r5, pc, r1
	...
     3a4:	00028800 	andeq	r8, r2, r0, lsl #16
     3a8:	0002a000 	andeq	sl, r2, r0
     3ac:	51000100 	mrspl	r0, (UNDEF: 16)
     3b0:	000002a0 	andeq	r0, r0, r0, lsr #5
     3b4:	000002b8 			; <UNDEFINED> instruction: 0x000002b8
     3b8:	01710003 	cmneq	r1, r3
     3bc:	0002b89f 	muleq	r2, pc, r8	; <UNPREDICTABLE>
     3c0:	00062c00 	andeq	r2, r6, r0, lsl #24
     3c4:	f3000400 	vshl.u8	d0, d0, d0
     3c8:	009f5101 	addseq	r5, pc, r1, lsl #2
	...
     3d4:	88000000 	stmdahi	r0, {}	; <UNPREDICTABLE>
     3d8:	b8000002 	stmdalt	r0, {r1}
     3dc:	01000002 	tsteq	r0, r2
     3e0:	02b85200 	adcseq	r5, r8, #0, 4
     3e4:	06040000 	streq	r0, [r4], -r0
     3e8:	00010000 	andeq	r0, r1, r0
     3ec:	00000056 	andeq	r0, r0, r6, asr r0
     3f0:	00000000 	andeq	r0, r0, r0
     3f4:	00000100 	andeq	r0, r0, r0, lsl #2
     3f8:	00000000 	andeq	r0, r0, r0
     3fc:	00000101 	andeq	r0, r0, r1, lsl #2
     400:	00000000 	andeq	r0, r0, r0
     404:	00000202 	andeq	r0, r0, r2, lsl #4
     408:	00029c00 	andeq	r9, r2, r0, lsl #24
     40c:	0002b800 	andeq	fp, r2, r0, lsl #16
     410:	50000100 	andpl	r0, r0, r0, lsl #2
     414:	000002b8 			; <UNDEFINED> instruction: 0x000002b8
     418:	000002bc 			; <UNDEFINED> instruction: 0x000002bc
     41c:	bc540001 	mrrclt	0, 0, r0, r4, cr1
     420:	c0000002 	andgt	r0, r0, r2
     424:	03000002 	movweq	r0, #2
     428:	9f017400 	svcls	0x00017400
     42c:	000002c0 	andeq	r0, r0, r0, asr #5
     430:	000002e4 	andeq	r0, r0, r4, ror #5
     434:	e4540001 	ldrb	r0, [r4], #-1
     438:	e8000002 	stmda	r0, {r1}
     43c:	03000002 	movweq	r0, #2
     440:	9f017400 	svcls	0x00017400
     444:	000002e8 	andeq	r0, r0, r8, ror #5
     448:	000005d4 	ldrdeq	r0, [r0], -r4
     44c:	d4540001 	ldrble	r0, [r4], #-1
     450:	d8000005 	stmdale	r0, {r0, r2}
     454:	03000005 	movweq	r0, #5
     458:	9f017400 	svcls	0x00017400
     45c:	000005d8 	ldrdeq	r0, [r0], -r8
     460:	000005f0 	strdeq	r0, [r0], -r0	; <UNPREDICTABLE>
     464:	f0540001 			; <UNDEFINED> instruction: 0xf0540001
     468:	f8000005 			; <UNDEFINED> instruction: 0xf8000005
     46c:	03000005 	movweq	r0, #5
     470:	9f017400 	svcls	0x00017400
     474:	000005f8 	strdeq	r0, [r0], -r8
     478:	00000604 	andeq	r0, r0, r4, lsl #12
     47c:	00540001 	subseq	r0, r4, r1
	...
     488:	a4000000 	strge	r0, [r0], #-0
     48c:	04000002 	streq	r0, [r0], #-2
     490:	01000006 	tsteq	r0, r6
     494:	06045800 	streq	r5, [r4], -r0, lsl #16
     498:	062c0000 	strteq	r0, [ip], -r0
     49c:	000a0000 	andeq	r0, sl, r0
     4a0:	f35101f3 	vbsl	q8, <illegal reg q8.5>, <illegal reg q9.5>
     4a4:	31225001 			; <UNDEFINED> instruction: 0x31225001
     4a8:	00009f1c 	andeq	r9, r0, ip, lsl pc
     4ac:	00000000 	andeq	r0, r0, r0
     4b0:	00010000 	andeq	r0, r1, r0
     4b4:	000003f0 	strdeq	r0, [r0], -r0	; <UNPREDICTABLE>
     4b8:	0000040b 	andeq	r0, r0, fp, lsl #8
     4bc:	00530001 	subseq	r0, r3, r1
     4c0:	00000000 	andeq	r0, r0, r0
     4c4:	01000000 	mrseq	r0, (UNDEF: 0)
     4c8:	ac000000 	stcge	0, cr0, [r0], {-0}
     4cc:	b8000002 	stmdalt	r0, {r1}
     4d0:	01000002 	tsteq	r0, r2
     4d4:	02b85200 	adcseq	r5, r8, #0, 4
     4d8:	062c0000 	strteq	r0, [ip], -r0
     4dc:	00030000 	andeq	r0, r3, r0
     4e0:	007dc891 			; <UNDEFINED> instruction: 0x007dc891
	...
     4f0:	00000101 	andeq	r0, r0, r1, lsl #2
	...
     4fc:	00041000 	andeq	r1, r4, r0
     500:	00042800 	andeq	r2, r4, r0, lsl #16
     504:	50000100 	andpl	r0, r0, r0, lsl #2
     508:	00000428 	andeq	r0, r0, r8, lsr #8
     50c:	0000043c 	andeq	r0, r0, ip, lsr r4
     510:	a4570001 	ldrbge	r0, [r7], #-1
     514:	a4000004 	strge	r0, [r0], #-4
     518:	01000004 	tsteq	r0, r4
     51c:	04a45000 	strteq	r5, [r4], #0
     520:	04ac0000 	strteq	r0, [ip], #0
     524:	00010000 	andeq	r0, r1, r0
     528:	0004dc57 	andeq	sp, r4, r7, asr ip
     52c:	0004e000 	andeq	lr, r4, r0
     530:	50000100 	andpl	r0, r0, r0, lsl #2
     534:	00000510 	andeq	r0, r0, r0, lsl r5
     538:	00000514 	andeq	r0, r0, r4, lsl r5
     53c:	44500001 	ldrbmi	r0, [r0], #-1
     540:	48000005 	stmdami	r0, {r0, r2}
     544:	01000005 	tsteq	r0, r5
     548:	058c5000 	streq	r5, [ip]
     54c:	05900000 	ldreq	r0, [r0]
     550:	00010000 	andeq	r0, r1, r0
     554:	0005d050 	andeq	sp, r5, r0, asr r0
     558:	0005f000 	andeq	pc, r5, r0
     55c:	57000100 	strpl	r0, [r0, -r0, lsl #2]
	...
     568:	00000002 	andeq	r0, r0, r2
     56c:	02f40000 	rscseq	r0, r4, #0, 0
     570:	02f80000 	rscseq	r0, r8, #0, 0
     574:	00020000 	andeq	r0, r2, r0
     578:	02f89f30 	rscseq	r9, r8, #48, 30	; 0xc0
     57c:	03140000 	tsteq	r4, #0, 0
     580:	00010000 	andeq	r0, r1, r0
     584:	00031c55 	andeq	r1, r3, r5, asr ip
     588:	0005f000 	andeq	pc, r5, r0
     58c:	55000100 	strpl	r0, [r0, #-256]	; 0xffffff00
	...
     59c:	00700000 	rsbseq	r0, r0, r0
     5a0:	00940000 	addseq	r0, r4, r0
     5a4:	00010000 	andeq	r0, r1, r0
     5a8:	00009450 	andeq	r9, r0, r0, asr r4
     5ac:	0000fc00 	andeq	pc, r0, r0, lsl #24
     5b0:	70000300 	andvc	r0, r0, r0, lsl #6
     5b4:	00fc9f02 	rscseq	r9, ip, r2, lsl #30
     5b8:	02240000 	eoreq	r0, r4, #0, 0
     5bc:	00040000 	andeq	r0, r4, r0
     5c0:	9f5001f3 	svcls	0x005001f3
	...
     5dc:	00000070 	andeq	r0, r0, r0, ror r0
     5e0:	000000e0 	andeq	r0, r0, r0, ror #1
     5e4:	e0510001 	subs	r0, r1, r1
     5e8:	54000000 	strpl	r0, [r0], #-0
     5ec:	01000001 	tsteq	r0, r1
     5f0:	01545500 	cmpeq	r4, r0, lsl #10
     5f4:	01580000 	cmpeq	r8, r0
     5f8:	00010000 	andeq	r0, r1, r0
     5fc:	00015851 	andeq	r5, r1, r1, asr r8
     600:	0001b000 	andeq	fp, r1, r0
     604:	55000100 	strpl	r0, [r0, #-256]	; 0xffffff00
     608:	000001b0 			; <UNDEFINED> instruction: 0x000001b0
     60c:	000001c0 	andeq	r0, r0, r0, asr #3
     610:	c0510001 	subsgt	r0, r1, r1
     614:	e4000001 	str	r0, [r0], #-1
     618:	01000001 	tsteq	r0, r1
     61c:	01e45500 	mvneq	r5, r0, lsl #10
     620:	01f80000 	mvnseq	r0, r0
     624:	00010000 	andeq	r0, r1, r0
     628:	0001f851 	andeq	pc, r1, r1, asr r8	; <UNPREDICTABLE>
     62c:	00022400 	andeq	r2, r2, r0, lsl #8
     630:	55000100 	strpl	r0, [r0, #-256]	; 0xffffff00
	...
     640:	00000070 	andeq	r0, r0, r0, ror r0
     644:	00000084 	andeq	r0, r0, r4, lsl #1
     648:	84520001 	ldrbhi	r0, [r2], #-1
     64c:	24000000 	strcs	r0, [r0], #-0
     650:	01000002 	tsteq	r0, r2
     654:	00005400 	andeq	r5, r0, r0, lsl #8
	...
     660:	01000000 	mrseq	r0, (UNDEF: 0)
     664:	00000000 	andeq	r0, r0, r0
     668:	00700000 	rsbseq	r0, r0, r0
     66c:	00f40000 	rscseq	r0, r4, r0
     670:	00010000 	andeq	r0, r1, r0
     674:	00014c53 	andeq	r4, r1, r3, asr ip
     678:	00018000 	andeq	r8, r1, r0
     67c:	53000100 	movwpl	r0, #256	; 0x100
     680:	00000180 	andeq	r0, r0, r0, lsl #3
     684:	0000018c 	andeq	r0, r0, ip, lsl #3
     688:	01f30004 	mvnseq	r0, r4
     68c:	01b09f53 	asrseq	r9, r3, pc
     690:	01e80000 	mvneq	r0, r0
     694:	00010000 	andeq	r0, r1, r0
     698:	0001e853 	andeq	lr, r1, r3, asr r8
     69c:	0001ff00 	andeq	pc, r1, r0, lsl #30
     6a0:	5c000100 	stfpls	f0, [r0], {-0}
     6a4:	000001ff 	strdeq	r0, [r0], -pc	; <UNPREDICTABLE>
     6a8:	00000224 	andeq	r0, r0, r4, lsr #4
     6ac:	01f30004 	mvnseq	r0, r4
     6b0:	00009f53 	andeq	r9, r0, r3, asr pc
	...
     6c0:	00000070 	andeq	r0, r0, r0, ror r0
     6c4:	0000008c 	andeq	r0, r0, ip, lsl #1
     6c8:	00910002 	addseq	r0, r1, r2
     6cc:	0000008c 	andeq	r0, r0, ip, lsl #1
     6d0:	00000193 	muleq	r0, r3, r1
     6d4:	b0520001 	subslt	r0, r2, r1
     6d8:	f4000001 	vst4.8	{d0-d3}, [r0], r1
     6dc:	01000001 	tsteq	r0, r1
     6e0:	00005200 	andeq	r5, r0, r0, lsl #4
     6e4:	00000000 	andeq	r0, r0, r0
     6e8:	00010000 	andeq	r0, r1, r0
     6ec:	00010100 	andeq	r0, r1, r0, lsl #2
     6f0:	00000000 	andeq	r0, r0, r0
     6f4:	01000000 	mrseq	r0, (UNDEF: 0)
     6f8:	00010101 	andeq	r0, r1, r1, lsl #2
     6fc:	00010100 	andeq	r0, r1, r0, lsl #2
	...
     708:	008c0000 	addeq	r0, ip, r0
     70c:	00fc0000 	rscseq	r0, ip, r0
     710:	00040000 	andeq	r0, r4, r0
     714:	9f7fa091 	svcls	0x007fa091
     718:	000000fc 	strdeq	r0, [r0], -ip
     71c:	0000013c 	andeq	r0, r0, ip, lsr r1
     720:	3c500001 	mrrccc	0, 0, r0, r0, cr1	; <UNPREDICTABLE>
     724:	48000001 	stmdami	r0, {r0}
     728:	03000001 	movweq	r0, #1
     72c:	9f027100 	svcls	0x00027100
     730:	00000148 	andeq	r0, r0, r8, asr #2
     734:	0000014c 	andeq	r0, r0, ip, asr #2
     738:	4c500001 	mrrcmi	0, 0, r0, r0, cr1	; <UNPREDICTABLE>
     73c:	58000001 	stmdapl	r0, {r0}
     740:	04000001 	streq	r0, [r0], #-1
     744:	7fa09100 	svcvc	0x00a09100
     748:	0001589f 	muleq	r1, pc, r8	; <UNPREDICTABLE>
     74c:	00016c00 	andeq	r6, r1, r0, lsl #24
     750:	51000100 	mrspl	r0, (UNDEF: 16)
     754:	0000016c 	andeq	r0, r0, ip, ror #2
     758:	00000178 	andeq	r0, r0, r8, ror r1
     75c:	7f710003 	svcvc	0x00710003
     760:	0001789f 	muleq	r1, pc, r8	; <UNPREDICTABLE>
     764:	00018400 	andeq	r8, r1, r0, lsl #8
     768:	71000300 	mrsvc	r0, LR_irq
     76c:	01849f01 	orreq	r9, r4, r1, lsl #30
     770:	01930000 	orrseq	r0, r3, r0
     774:	00010000 	andeq	r0, r1, r0
     778:	0001b050 	andeq	fp, r1, r0, asr r0
     77c:	0001b000 	andeq	fp, r1, r0
     780:	91000400 	tstls	r0, r0, lsl #8
     784:	b09f7fa0 	addslt	r7, pc, r0, lsr #31
     788:	b8000001 	stmdalt	r0, {r0}
     78c:	04000001 	streq	r0, [r0], #-1
     790:	7fa19100 	svcvc	0x00a19100
     794:	0001b89f 	muleq	r1, pc, r8	; <UNPREDICTABLE>
     798:	0001bc00 	andeq	fp, r1, r0, lsl #24
     79c:	50000100 	andpl	r0, r0, r0, lsl #2
     7a0:	000001bc 			; <UNDEFINED> instruction: 0x000001bc
     7a4:	000001c0 	andeq	r0, r0, r0, asr #3
     7a8:	a0910004 	addsge	r0, r1, r4
     7ac:	01c09f7f 	biceq	r9, r0, pc, ror pc
     7b0:	01d40000 	bicseq	r0, r4, r0
     7b4:	00010000 	andeq	r0, r1, r0
     7b8:	0001d450 	andeq	sp, r1, r0, asr r4
     7bc:	0001e400 	andeq	lr, r1, r0, lsl #8
     7c0:	70000300 	andvc	r0, r0, r0, lsl #6
     7c4:	01e49f7f 	mvneq	r9, pc, ror pc
     7c8:	02240000 	eoreq	r0, r4, #0, 0
     7cc:	00040000 	andeq	r0, r4, r0
     7d0:	9f7fa091 	svcls	0x007fa091
	...
     7dc:	01000000 	mrseq	r0, (UNDEF: 0)
     7e0:	00000001 	andeq	r0, r0, r1
	...
     7f0:	00000090 	muleq	r0, r0, r0
     7f4:	000000dc 	ldrdeq	r0, [r0], -ip
     7f8:	dc5c0001 	mrrcle	0, 0, r0, ip, cr1
     7fc:	f4000000 	vst4.8	{d0-d3}, [r0], r0
     800:	01000000 	mrseq	r0, (UNDEF: 0)
     804:	00f45300 	rscseq	r5, r4, r0, lsl #6
     808:	014c0000 	mrseq	r0, (UNDEF: 76)
     80c:	00010000 	andeq	r0, r1, r0
     810:	00014c5c 	andeq	r4, r1, ip, asr ip
     814:	00015800 	andeq	r5, r1, r0, lsl #16
     818:	53000100 	movwpl	r0, #256	; 0x100
     81c:	00000158 	andeq	r0, r0, r8, asr r1
     820:	00000174 	andeq	r0, r0, r4, ror r1
     824:	b05c0001 	subslt	r0, ip, r1
     828:	c0000001 	andgt	r0, r0, r1
     82c:	01000001 	tsteq	r0, r1
     830:	01c05300 	biceq	r5, r0, r0, lsl #6
     834:	01dc0000 	bicseq	r0, ip, r0
     838:	00010000 	andeq	r0, r1, r0
     83c:	0001e45c 	andeq	lr, r1, ip, asr r4
     840:	0001e800 	andeq	lr, r1, r0, lsl #16
     844:	53000100 	movwpl	r0, #256	; 0x100
     848:	000001e8 	andeq	r0, r0, r8, ror #3
     84c:	000001ff 	strdeq	r0, [r0], -pc	; <UNPREDICTABLE>
     850:	ff5c0001 			; <UNDEFINED> instruction: 0xff5c0001
     854:	24000001 	strcs	r0, [r0], #-1
     858:	04000002 	streq	r0, [r0], #-2
     85c:	5301f300 	movwpl	pc, #4864	; 0x1300	; <UNPREDICTABLE>
     860:	0000009f 	muleq	r0, pc, r0	; <UNPREDICTABLE>
     864:	00000000 	andeq	r0, r0, r0
     868:	01010100 	mrseq	r0, (UNDEF: 17)
     86c:	00000000 	andeq	r0, r0, r0
     870:	0000dc00 	andeq	sp, r0, r0, lsl #24
     874:	0000f000 	andeq	pc, r0, r0
     878:	30000200 	andcc	r0, r0, r0, lsl #4
     87c:	0000f09f 	muleq	r0, pc, r0	; <UNPREDICTABLE>
     880:	0000f800 	andeq	pc, r0, r0, lsl #16
     884:	31000200 	mrscc	r0, R8_usr
     888:	0000fc9f 	muleq	r0, pc, ip	; <UNPREDICTABLE>
     88c:	00014c00 	andeq	r4, r1, r0, lsl #24
     890:	56000100 	strpl	r0, [r0], -r0, lsl #2
     894:	0000014c 	andeq	r0, r0, ip, asr #2
     898:	00000154 	andeq	r0, r0, r4, asr r1
     89c:	9f300002 	svcls	0x00300002
	...
     8a8:	01000000 	mrseq	r0, (UNDEF: 0)
     8ac:	01000001 	tsteq	r0, r1
     8b0:	00380001 	eorseq	r0, r8, r1
     8b4:	00540000 	subseq	r0, r4, r0
     8b8:	00010000 	andeq	r0, r1, r0
     8bc:	00005450 	andeq	r5, r0, r0, asr r4
     8c0:	00005800 	andeq	r5, r0, r0, lsl #16
     8c4:	52000100 	andpl	r0, r0, #0
     8c8:	00000058 	andeq	r0, r0, r8, asr r0
     8cc:	00000060 	andeq	r0, r0, r0, rrx
     8d0:	01720003 	cmneq	r2, r3
     8d4:	0000609f 	muleq	r0, pc, r0	; <UNPREDICTABLE>
     8d8:	00006400 	andeq	r6, r0, r0, lsl #8
     8dc:	52000100 	andpl	r0, r0, #0
     8e0:	00000064 	andeq	r0, r0, r4, rrx
     8e4:	00000070 	andeq	r0, r0, r0, ror r0
     8e8:	01720003 	cmneq	r2, r3
     8ec:	0000009f 	muleq	r0, pc, r0	; <UNPREDICTABLE>
	...
     8f8:	00003800 	andeq	r3, r0, r0, lsl #16
     8fc:	00005000 	andeq	r5, r0, r0
     900:	51000100 	mrspl	r0, (UNDEF: 16)
     904:	00000050 	andeq	r0, r0, r0, asr r0
     908:	00000070 	andeq	r0, r0, r0, ror r0
     90c:	01f30004 	mvnseq	r0, r4
     910:	00009f51 	andeq	r9, r0, r1, asr pc
	...
     91c:	01000000 	mrseq	r0, (UNDEF: 0)
     920:	00380001 	eorseq	r0, r8, r1
     924:	00500000 	subseq	r0, r0, r0
     928:	00010000 	andeq	r0, r1, r0
     92c:	00005052 	andeq	r5, r0, r2, asr r0
     930:	00005c00 	andeq	r5, r0, r0, lsl #24
     934:	51000100 	mrspl	r0, (UNDEF: 16)
     938:	0000005c 	andeq	r0, r0, ip, asr r0
     93c:	00000060 	andeq	r0, r0, r0, rrx
     940:	01710003 	cmneq	r1, r3
     944:	0000609f 	muleq	r0, pc, r0	; <UNPREDICTABLE>
     948:	00007000 	andeq	r7, r0, r0
     94c:	51000100 	mrspl	r0, (UNDEF: 16)
	...
     95c:	00000038 	andeq	r0, r0, r8, lsr r0
     960:	0000004c 	andeq	r0, r0, ip, asr #32
     964:	4c530001 	mrrcmi	0, 0, r0, r3, cr1
     968:	68000000 	stmdavs	r0, {}	; <UNPREDICTABLE>
     96c:	01000000 	mrseq	r0, (UNDEF: 0)
     970:	00005300 	andeq	r5, r0, r0, lsl #6
	...
     980:	00400000 	subeq	r0, r0, r0
     984:	00480000 	subeq	r0, r8, r0
     988:	00010000 	andeq	r0, r1, r0
     98c:	0000485c 	andeq	r4, r0, ip, asr r8
     990:	00004c00 	andeq	r4, r0, r0, lsl #24
     994:	72000800 	andvc	r0, r0, #0, 16
     998:	1c007300 	stcne	3, cr7, [r0], {-0}
     99c:	4c9f0123 	ldfmis	f0, [pc], {35}	; 0x23
     9a0:	54000000 	strpl	r0, [r0], #-0
     9a4:	09000000 	stmdbeq	r0, {}	; <UNPREDICTABLE>
     9a8:	f3007200 	vhsub.u8	d7, d0, d0
     9ac:	231c5301 	tstcs	ip, #67108864	; 0x4000000
     9b0:	00549f01 	subseq	r9, r4, r1, lsl #30
     9b4:	00700000 	rsbseq	r0, r0, r0
     9b8:	000a0000 	andeq	r0, sl, r0
     9bc:	f35201f3 	vbsl	q8, q9, <illegal reg q9.5>
     9c0:	231c5301 	tstcs	ip, #67108864	; 0x4000000
     9c4:	00009f01 	andeq	r9, r0, r1, lsl #30
     9c8:	00000000 	andeq	r0, r0, r0
     9cc:	00010000 	andeq	r0, r1, r0
     9d0:	0000004c 	andeq	r0, r0, ip, asr #32
     9d4:	00000070 	andeq	r0, r0, r0, ror r0
     9d8:	00500001 	subseq	r0, r0, r1
	...
     9e4:	00000101 	andeq	r0, r0, r1, lsl #2
     9e8:	00001400 	andeq	r1, r0, r0, lsl #8
     9ec:	00001c00 	andeq	r1, r0, r0, lsl #24
     9f0:	50000100 	andpl	r0, r0, r0, lsl #2
     9f4:	0000001c 	andeq	r0, r0, ip, lsl r0
     9f8:	00000024 	andeq	r0, r0, r4, lsr #32
     9fc:	01700003 	cmneq	r0, r3
     a00:	0000249f 	muleq	r0, pc, r4	; <UNPREDICTABLE>
     a04:	00003800 	andeq	r3, r0, r0, lsl #16
     a08:	50000100 	andpl	r0, r0, r0, lsl #2
	...
     a18:	00000014 	andeq	r0, r0, r4, lsl r0
     a1c:	00000018 	andeq	r0, r0, r8, lsl r0
     a20:	18510001 	ldmdane	r1, {r0}^
     a24:	38000000 	stmdacc	r0, {}	; <UNPREDICTABLE>
     a28:	04000000 	streq	r0, [r0], #-0
     a2c:	5101f300 	mrspl	pc, SP_irq	; <UNPREDICTABLE>
     a30:	0000009f 	muleq	r0, pc, r0	; <UNPREDICTABLE>
     a34:	00000000 	andeq	r0, r0, r0
     a38:	18000000 	stmdane	r0, {}	; <UNPREDICTABLE>
     a3c:	38000000 	stmdacc	r0, {}	; <UNPREDICTABLE>
     a40:	01000000 	mrseq	r0, (UNDEF: 0)
     a44:	00005100 	andeq	r5, r0, r0, lsl #2
	...
     a58:	00000004 	andeq	r0, r0, r4
     a5c:	04500001 	ldrbeq	r0, [r0], #-1
     a60:	0c000000 	stceq	0, cr0, [r0], {-0}
     a64:	03000000 	movweq	r0, #0
     a68:	9f307000 	svcls	0x00307000
     a6c:	0000000c 	andeq	r0, r0, ip
     a70:	00000014 	andeq	r0, r0, r4, lsl r0
     a74:	01f30004 	mvnseq	r0, r4
     a78:	00009f50 	andeq	r9, r0, r0, asr pc
	...
     a84:	02240000 	eoreq	r0, r4, #0, 0
     a88:	02680000 	rsbeq	r0, r8, #0, 0
     a8c:	00010000 	andeq	r0, r1, r0
     a90:	00026850 	andeq	r6, r2, r0, asr r8
     a94:	00028800 	andeq	r8, r2, r0, lsl #16
     a98:	f3000400 	vshl.u8	d0, d0, d0
     a9c:	009f5001 	addseq	r5, pc, r1
	...
     aa8:	24000000 	strcs	r0, [r0], #-0
     aac:	64000002 	strvs	r0, [r0], #-2
     ab0:	01000002 	tsteq	r0, r2
     ab4:	02645100 	rsbeq	r5, r4, #0
     ab8:	02880000 	addeq	r0, r8, #0, 0
     abc:	00040000 	andeq	r0, r4, r0
     ac0:	9f5101f3 	svcls	0x005101f3
	...
     acc:	00010100 	andeq	r0, r1, r0, lsl #2
     ad0:	000c0000 	andeq	r0, ip, r0
     ad4:	00140000 	andseq	r0, r4, r0
     ad8:	00010000 	andeq	r0, r1, r0
     adc:	00001453 	andeq	r1, r0, r3, asr r4
     ae0:	00001c00 	andeq	r1, r0, r0, lsl #24
     ae4:	73000300 	movwvc	r0, #768	; 0x300
     ae8:	001c9f04 	andseq	r9, ip, r4, lsl #30
     aec:	00230000 	eoreq	r0, r3, r0
     af0:	00010000 	andeq	r0, r1, r0
     af4:	00000053 	andeq	r0, r0, r3, asr r0
     af8:	00000000 	andeq	r0, r0, r0
     afc:	e8000100 	stmda	r0, {r8}
     b00:	0400008c 	streq	r0, [r0], #-140	; 0xffffff74
     b04:	0600008d 	streq	r0, [r0], -sp, lsl #1
     b08:	001c0c00 	andseq	r0, ip, r0, lsl #24
     b0c:	009f2010 	addseq	r2, pc, r0, lsl r0	; <UNPREDICTABLE>
     b10:	00000000 	andeq	r0, r0, r0
     b14:	02000000 	andeq	r0, r0, #0, 0
     b18:	008ce800 	addeq	lr, ip, r0, lsl #16
     b1c:	008d0400 	addeq	r0, sp, r0, lsl #8
     b20:	0c000600 	stceq	6, cr0, [r0], {-0}
     b24:	20100024 	andscs	r0, r0, r4, lsr #32
     b28:	0000009f 	muleq	r0, pc, r0	; <UNPREDICTABLE>
     b2c:	00000000 	andeq	r0, r0, r0
     b30:	e8000300 	stmda	r0, {r8, r9}
     b34:	0400008c 	streq	r0, [r0], #-140	; 0xffffff74
     b38:	0500008d 	streq	r0, [r0, #-141]	; 0xffffff73
     b3c:	47b40800 	ldrmi	r0, [r4, r0, lsl #16]!
     b40:	00009f24 	andeq	r9, r0, r4, lsr #30
     b44:	00000000 	andeq	r0, r0, r0
     b48:	00040000 	andeq	r0, r4, r0
     b4c:	00008ce8 	andeq	r8, r0, r8, ror #25
     b50:	00008d04 	andeq	r8, r0, r4, lsl #26
     b54:	20080003 	andcs	r0, r8, r3
     b58:	0000009f 	muleq	r0, pc, r0	; <UNPREDICTABLE>
     b5c:	00000000 	andeq	r0, r0, r0
     b60:	00000200 	andeq	r0, r0, r0, lsl #4
     b64:	b8000000 	stmdalt	r0, {}	; <UNPREDICTABLE>
     b68:	bc00008c 	stclt	0, cr0, [r0], {140}	; 0x8c
     b6c:	0200008c 	andeq	r0, r0, #140, 0	; 0x8c
     b70:	bc9f3000 	ldclt	0, cr3, [pc], {0}
     b74:	c000008c 	andgt	r0, r0, ip, lsl #1
     b78:	0100008c 	smlabbeq	r0, ip, r0, r0
     b7c:	8cc45300 	stclhi	3, cr5, [r4], {0}
     b80:	8ccc0000 	stclhi	0, cr0, [ip], {0}
     b84:	00010000 	andeq	r0, r1, r0
     b88:	00000053 	andeq	r0, r0, r3, asr r0
     b8c:	00000000 	andeq	r0, r0, r0
     b90:	00000200 	andeq	r0, r0, r0, lsl #4
     b94:	008ca000 	addeq	sl, ip, r0
     b98:	008ca400 	addeq	sl, ip, r0, lsl #8
     b9c:	30000200 	andcc	r0, r0, r0, lsl #4
     ba0:	008ca49f 	umulleq	sl, ip, pc, r4	; <UNPREDICTABLE>
     ba4:	008ca800 	addeq	sl, ip, r0, lsl #16
     ba8:	50000100 	andpl	r0, r0, r0, lsl #2
	...
     bb8:	00000084 	andeq	r0, r0, r4, lsl #1
     bbc:	00000090 	muleq	r0, r0, r0
     bc0:	90500001 	subsls	r0, r0, r1
     bc4:	9c000000 	stcls	0, cr0, [r0], {-0}
     bc8:	04000000 	streq	r0, [r0], #-0
     bcc:	5001f300 	andpl	pc, r1, r0, lsl #6
     bd0:	0000009f 	muleq	r0, pc, r0	; <UNPREDICTABLE>
	...
     bdc:	00006c00 	andeq	r6, r0, r0, lsl #24
     be0:	00007800 	andeq	r7, r0, r0, lsl #16
     be4:	50000100 	andpl	r0, r0, r0, lsl #2
     be8:	00000078 	andeq	r0, r0, r8, ror r0
     bec:	00000084 	andeq	r0, r0, r4, lsl #1
     bf0:	01f30004 	mvnseq	r0, r4
     bf4:	00009f50 	andeq	r9, r0, r0, asr pc
	...
     c00:	00480000 	subeq	r0, r8, r0
     c04:	00530000 	subseq	r0, r3, r0
     c08:	00010000 	andeq	r0, r1, r0
     c0c:	00005350 	andeq	r5, r0, r0, asr r3
     c10:	00006c00 	andeq	r6, r0, r0, lsl #24
     c14:	55000100 	strpl	r0, [r0, #-256]	; 0xffffff00
	...
     c20:	00580000 	subseq	r0, r8, r0
     c24:	006c0000 	rsbeq	r0, ip, r0
     c28:	00010000 	andeq	r0, r1, r0
     c2c:	00000054 	andeq	r0, r0, r4, asr r0
     c30:	00000000 	andeq	r0, r0, r0
     c34:	5c000000 	stcpl	0, cr0, [r0], {-0}
     c38:	60000000 	andvs	r0, r0, r0
     c3c:	01000000 	mrseq	r0, (UNDEF: 0)
     c40:	00005000 	andeq	r5, r0, r0
	...
     c4c:	003c0000 	eorseq	r0, ip, r0
     c50:	003f0000 	eorseq	r0, pc, r0
     c54:	00010000 	andeq	r0, r1, r0
     c58:	00003f50 	andeq	r3, r0, r0, asr pc
     c5c:	00004800 	andeq	r4, r0, r0, lsl #16
     c60:	54000100 	strpl	r0, [r0], #-256	; 0xffffff00
	...
     c74:	00000004 	andeq	r0, r0, r4
     c78:	04500001 	ldrbeq	r0, [r0], #-1
     c7c:	18000000 	stmdane	r0, {}	; <UNPREDICTABLE>
     c80:	01000000 	mrseq	r0, (UNDEF: 0)
     c84:	00005300 	andeq	r5, r0, r0, lsl #6
     c88:	00000000 	andeq	r0, r0, r0
     c8c:	00010000 	andeq	r0, r1, r0
     c90:	000002a0 	andeq	r0, r0, r0, lsr #5
     c94:	000002b8 			; <UNDEFINED> instruction: 0x000002b8
     c98:	6c910003 	ldcvs	0, cr0, [r1], {3}
     c9c:	0000009f 	muleq	r0, pc, r0	; <UNPREDICTABLE>
     ca0:	00000000 	andeq	r0, r0, r0
     ca4:	01010000 	mrseq	r0, (UNDEF: 1)
     ca8:	00021400 	andeq	r1, r2, r0, lsl #8
     cac:	00022800 	andeq	r2, r2, r0, lsl #16
     cb0:	50000100 	andpl	r0, r0, r0, lsl #2
     cb4:	00000228 	andeq	r0, r0, r8, lsr #4
     cb8:	00000254 	andeq	r0, r0, r4, asr r2
     cbc:	00540001 	subseq	r0, r4, r1
     cc0:	00000000 	andeq	r0, r0, r0
     cc4:	01000000 	mrseq	r0, (UNDEF: 0)
     cc8:	0001f400 	andeq	pc, r1, r0, lsl #8
     ccc:	00021400 	andeq	r1, r2, r0, lsl #8
     cd0:	91000300 	mrsls	r0, LR_irq
     cd4:	00009f6c 	andeq	r9, r0, ip, ror #30
     cd8:	00000000 	andeq	r0, r0, r0
     cdc:	00010000 	andeq	r0, r1, r0
     ce0:	000001c8 	andeq	r0, r0, r8, asr #3
     ce4:	000001d8 	ldrdeq	r0, [r0], -r8
     ce8:	1df20006 	ldclne	0, cr0, [r2, #24]!
     cec:	0000002c 	andeq	r0, r0, ip, lsr #32
	...
     cf8:	001c0001 	andseq	r0, ip, r1
     cfc:	00340000 	eorseq	r0, r4, r0
     d00:	00030000 	andeq	r0, r3, r0
     d04:	009f6c91 	umullseq	r6, pc, r1, ip	; <UNPREDICTABLE>
	...
     d10:	c8000000 	stmdagt	r0, {}	; <UNPREDICTABLE>
     d14:	d4000000 	strle	r0, [r0], #-0
     d18:	01000000 	mrseq	r0, (UNDEF: 0)
     d1c:	00d45000 	sbcseq	r5, r4, r0
     d20:	00e80000 	rsceq	r0, r8, r0
     d24:	00010000 	andeq	r0, r1, r0
     d28:	00000054 	andeq	r0, r0, r4, asr r0
	...
     d34:	0000b800 	andeq	fp, r0, r0, lsl #16
     d38:	0000c300 	andeq	ip, r0, r0, lsl #6
     d3c:	50000100 	andpl	r0, r0, r0, lsl #2
     d40:	000000c3 	andeq	r0, r0, r3, asr #1
     d44:	000000c8 	andeq	r0, r0, r8, asr #1
     d48:	01f30004 	mvnseq	r0, r4
     d4c:	00009f50 	andeq	r9, r0, r0, asr pc
	...
     d5c:	009c0000 	addseq	r0, ip, r0
     d60:	00ab0000 	adceq	r0, fp, r0
     d64:	00010000 	andeq	r0, r1, r0
     d68:	0000ab50 	andeq	sl, r0, r0, asr fp
     d6c:	0000b000 	andeq	fp, r0, r0
     d70:	f3000400 	vshl.u8	d0, d0, d0
     d74:	b09f5001 	addslt	r5, pc, r1
     d78:	b3000000 	movwlt	r0, #0
     d7c:	01000000 	mrseq	r0, (UNDEF: 0)
     d80:	00b35000 	adcseq	r5, r3, r0
     d84:	00b80000 	adcseq	r0, r8, r0
     d88:	00040000 	andeq	r0, r4, r0
     d8c:	9f5001f3 	svcls	0x005001f3
	...
     da0:	0000009c 	muleq	r0, ip, r0
     da4:	000000ab 	andeq	r0, r0, fp, lsr #1
     da8:	ab510001 	blge	1440db4 <__bss_end__+0x1436edc>
     dac:	b0000000 	andlt	r0, r0, r0
     db0:	04000000 	streq	r0, [r0], #-0
     db4:	5101f300 	mrspl	pc, SP_irq	; <UNPREDICTABLE>
     db8:	0000b09f 	muleq	r0, pc, r0	; <UNPREDICTABLE>
     dbc:	0000b300 	andeq	fp, r0, r0, lsl #6
     dc0:	51000100 	mrspl	r0, (UNDEF: 16)
     dc4:	000000b3 	strheq	r0, [r0], -r3
     dc8:	000000b8 	strheq	r0, [r0], -r8
     dcc:	01f30004 	mvnseq	r0, r4
     dd0:	00009f51 	andeq	r9, r0, r1, asr pc
	...
     ddc:	00800000 	addeq	r0, r0, r0
     de0:	00900000 	addseq	r0, r0, r0
     de4:	00010000 	andeq	r0, r1, r0
     de8:	00009050 	andeq	r9, r0, r0, asr r0
     dec:	00009c00 	andeq	r9, r0, r0, lsl #24
     df0:	f3000400 	vshl.u8	d0, d0, d0
     df4:	009f5001 	addseq	r5, pc, r1
	...
     e00:	64000000 	strvs	r0, [r0], #-0
     e04:	74000000 	strvc	r0, [r0], #-0
     e08:	01000000 	mrseq	r0, (UNDEF: 0)
     e0c:	00745000 	rsbseq	r5, r4, r0
     e10:	00800000 	addeq	r0, r0, r0
     e14:	00040000 	andeq	r0, r4, r0
     e18:	9f5001f3 	svcls	0x005001f3
	...
     e28:	00000054 	andeq	r0, r0, r4, asr r0
     e2c:	0000005f 	andeq	r0, r0, pc, asr r0
     e30:	5f500001 	svcpl	0x00500001
     e34:	64000000 	strvs	r0, [r0], #-0
     e38:	04000000 	streq	r0, [r0], #-0
     e3c:	5001f300 	andpl	pc, r1, r0, lsl #6
     e40:	0000009f 	muleq	r0, pc, r0	; <UNPREDICTABLE>
	...
     e50:	00002800 	andeq	r2, r0, r0, lsl #16
     e54:	50000100 	andpl	r0, r0, r0, lsl #2
     e58:	00000028 	andeq	r0, r0, r8, lsr #32
     e5c:	00000054 	andeq	r0, r0, r4, asr r0
     e60:	00540001 	subseq	r0, r4, r1
	...
     e70:	2b000000 	blcs	e78 <__code_start__-0x7188>
     e74:	01000000 	mrseq	r0, (UNDEF: 0)
     e78:	002b5100 	eoreq	r5, fp, r0, lsl #2
     e7c:	00540000 	subseq	r0, r4, r0
     e80:	00040000 	andeq	r0, r4, r0
     e84:	9f5101f3 	svcls	0x005101f3
	...
     e90:	00240000 	eoreq	r0, r4, r0
     e94:	00540000 	subseq	r0, r4, r0
     e98:	00010000 	andeq	r0, r1, r0
     e9c:	00000057 	andeq	r0, r0, r7, asr r0
     ea0:	00000000 	andeq	r0, r0, r0
     ea4:	2c000000 	stccs	0, cr0, [r0], {-0}
     ea8:	48000000 	stmdami	r0, {}	; <UNPREDICTABLE>
     eac:	01000000 	mrseq	r0, (UNDEF: 0)
     eb0:	00005000 	andeq	r5, r0, r0
	...
     ebc:	00000038 	andeq	r0, r0, r8, lsr r0
     ec0:	00000054 	andeq	r0, r0, r4, asr r0
     ec4:	00550001 	subseq	r0, r5, r1
	...
     ed4:	c4000000 	strgt	r0, [r0], #-0
     ed8:	03000001 	movweq	r0, #1
     edc:	01000002 	tsteq	r0, r2
     ee0:	02035000 	andeq	r5, r3, #0, 0
     ee4:	02240000 	eoreq	r0, r4, #0, 0
     ee8:	00040000 	andeq	r0, r4, r0
     eec:	9f5001f3 	svcls	0x005001f3
     ef0:	00000224 	andeq	r0, r0, r4, lsr #4
     ef4:	00000227 	andeq	r0, r0, r7, lsr #4
     ef8:	27500001 	ldrbcs	r0, [r0, -r1]
     efc:	64000002 	strvs	r0, [r0], #-2
     f00:	04000002 	streq	r0, [r0], #-2
     f04:	5001f300 	andpl	pc, r1, r0, lsl #6
     f08:	0000009f 	muleq	r0, pc, r0	; <UNPREDICTABLE>
     f0c:	00000000 	andeq	r0, r0, r0
     f10:	f0060200 			; <UNDEFINED> instruction: 0xf0060200
     f14:	f0000001 			; <UNDEFINED> instruction: 0xf0000001
     f18:	02000001 	andeq	r0, r0, #1, 0
     f1c:	009f3800 	addseq	r3, pc, r0, lsl #16
     f20:	00000000 	andeq	r0, r0, r0
     f24:	02000000 	andeq	r0, r0, #0, 0
     f28:	0001f006 	andeq	pc, r1, r6
     f2c:	0001f000 	andeq	pc, r1, r0
     f30:	50000100 	andpl	r0, r0, r0, lsl #2
	...
     f3c:	01f00604 	mvnseq	r0, r4, lsl #12
     f40:	01f00000 	mvnseq	r0, r0
     f44:	00020000 	andeq	r0, r2, r0
     f48:	00009f38 	andeq	r9, r0, r8, lsr pc
     f4c:	00000000 	andeq	r0, r0, r0
     f50:	06040000 	streq	r0, [r4], -r0
     f54:	000001f0 	strdeq	r0, [r0], -r0	; <UNPREDICTABLE>
     f58:	000001f0 	strdeq	r0, [r0], -r0	; <UNPREDICTABLE>
     f5c:	00500001 	subseq	r0, r0, r1
	...
     f7c:	a0000000 	andge	r0, r0, r0
     f80:	ff000000 			; <UNDEFINED> instruction: 0xff000000
     f84:	01000000 	mrseq	r0, (UNDEF: 0)
     f88:	00ff5000 	rscseq	r5, pc, r0
     f8c:	01080000 	mrseq	r0, (UNDEF: 8)
     f90:	00040000 	andeq	r0, r4, r0
     f94:	9f5001f3 	svcls	0x005001f3
     f98:	00000108 	andeq	r0, r0, r8, lsl #2
     f9c:	00000120 	andeq	r0, r0, r0, lsr #2
     fa0:	20500001 	subscs	r0, r0, r1
     fa4:	28000001 	stmdacs	r0, {r0}
     fa8:	04000001 	streq	r0, [r0], #-1
     fac:	5001f300 	andpl	pc, r1, r0, lsl #6
     fb0:	0001289f 	muleq	r1, pc, r8	; <UNPREDICTABLE>
     fb4:	00012b00 	andeq	r2, r1, r0, lsl #22
     fb8:	50000100 	andpl	r0, r0, r0, lsl #2
     fbc:	0000012b 	andeq	r0, r0, fp, lsr #2
     fc0:	0000014c 	andeq	r0, r0, ip, asr #2
     fc4:	01f30004 	mvnseq	r0, r4
     fc8:	014c9f50 	cmpeq	ip, r0, asr pc
     fcc:	014f0000 	mrseq	r0, SPSR
     fd0:	00010000 	andeq	r0, r1, r0
     fd4:	00014f50 	andeq	r4, r1, r0, asr pc
     fd8:	00017000 	andeq	r7, r1, r0
     fdc:	f3000400 	vshl.u8	d0, d0, d0
     fe0:	709f5001 	addsvc	r5, pc, r1
     fe4:	73000001 	movwvc	r0, #1
     fe8:	01000001 	tsteq	r0, r1
     fec:	01735000 	cmneq	r3, r0
     ff0:	01780000 	cmneq	r8, r0
     ff4:	00040000 	andeq	r0, r4, r0
     ff8:	9f5001f3 	svcls	0x005001f3
     ffc:	00000178 	andeq	r0, r0, r8, ror r1
    1000:	00000190 	muleq	r0, r0, r1
    1004:	90500001 	subsls	r0, r0, r1
    1008:	c4000001 	strgt	r0, [r0], #-1
    100c:	04000001 	streq	r0, [r0], #-1
    1010:	5001f300 	andpl	pc, r1, r0, lsl #6
    1014:	0000009f 	muleq	r0, pc, r0	; <UNPREDICTABLE>
	...
    1034:	a0000000 	andge	r0, r0, r0
    1038:	ec000000 	stc	0, cr0, [r0], {-0}
    103c:	01000000 	mrseq	r0, (UNDEF: 0)
    1040:	00ec5100 	rsceq	r5, ip, r0, lsl #2
    1044:	00ff0000 	rscseq	r0, pc, r0
    1048:	00040000 	andeq	r0, r4, r0
    104c:	9f1f0072 	svcls	0x001f0072
    1050:	000000ff 	strdeq	r0, [r0], -pc	; <UNPREDICTABLE>
    1054:	00000108 	andeq	r0, r0, r8, lsl #2
    1058:	01f30004 	mvnseq	r0, r4
    105c:	01089f51 	tsteq	r8, r1, asr pc
    1060:	011c0000 	tsteq	ip, r0
    1064:	00010000 	andeq	r0, r1, r0
    1068:	00011c51 	andeq	r1, r1, r1, asr ip
    106c:	00012800 	andeq	r2, r1, r0, lsl #16
    1070:	f3000400 	vshl.u8	d0, d0, d0
    1074:	289f5101 	ldmcs	pc, {r0, r8, ip, lr}	; <UNPREDICTABLE>
    1078:	2b000001 	blcs	1084 <__code_start__-0x6f7c>
    107c:	01000001 	tsteq	r0, r1
    1080:	012b5100 			; <UNDEFINED> instruction: 0x012b5100
    1084:	014c0000 	mrseq	r0, (UNDEF: 76)
    1088:	00040000 	andeq	r0, r4, r0
    108c:	9f5101f3 	svcls	0x005101f3
    1090:	0000014c 	andeq	r0, r0, ip, asr #2
    1094:	0000014f 	andeq	r0, r0, pc, asr #2
    1098:	4f510001 	svcmi	0x00510001
    109c:	70000001 	andvc	r0, r0, r1
    10a0:	04000001 	streq	r0, [r0], #-1
    10a4:	5101f300 	mrspl	pc, SP_irq	; <UNPREDICTABLE>
    10a8:	0001709f 	muleq	r1, pc, r0	; <UNPREDICTABLE>
    10ac:	00017300 	andeq	r7, r1, r0, lsl #6
    10b0:	51000100 	mrspl	r0, (UNDEF: 16)
    10b4:	00000173 	andeq	r0, r0, r3, ror r1
    10b8:	00000178 	andeq	r0, r0, r8, ror r1
    10bc:	01f30004 	mvnseq	r0, r4
    10c0:	01789f51 	cmneq	r8, r1, asr pc
    10c4:	018c0000 	orreq	r0, ip, r0
    10c8:	00010000 	andeq	r0, r1, r0
    10cc:	00018c51 	andeq	r8, r1, r1, asr ip
    10d0:	0001c400 	andeq	ip, r1, r0, lsl #8
    10d4:	f3000400 	vshl.u8	d0, d0, d0
    10d8:	009f5101 	addseq	r5, pc, r1, lsl #2
    10dc:	00000000 	andeq	r0, r0, r0
    10e0:	03000000 	movweq	r0, #0
    10e4:	0000c000 	andeq	ip, r0, r0
    10e8:	0000c400 	andeq	ip, r0, r0, lsl #8
    10ec:	51000100 	mrspl	r0, (UNDEF: 16)
	...
    1100:	000000dc 	ldrdeq	r0, [r0], -ip
    1104:	000000ec 	andeq	r0, r0, ip, ror #1
    1108:	ec510001 	mrrc	0, 0, r0, r1, cr1
    110c:	f4000000 	vst4.8	{d0-d3}, [r0], r0
    1110:	04000000 	streq	r0, [r0], #-0
    1114:	1f007200 	svcne	0x00007200
    1118:	0001789f 	muleq	r1, pc, r8	; <UNPREDICTABLE>
    111c:	00018c00 	andeq	r8, r1, r0, lsl #24
    1120:	51000100 	mrspl	r0, (UNDEF: 16)
    1124:	0000018c 	andeq	r0, r0, ip, lsl #3
    1128:	000001c4 	andeq	r0, r0, r4, asr #3
    112c:	01f30004 	mvnseq	r0, r4
    1130:	00009f51 	andeq	r9, r0, r1, asr pc
	...
    1140:	000000dc 	ldrdeq	r0, [r0], -ip
    1144:	000000f4 	strdeq	r0, [r0], -r4
    1148:	78530001 	ldmdavc	r3, {r0}^
    114c:	7c000001 	stcvc	0, cr0, [r0], {1}
    1150:	01000001 	tsteq	r0, r1
    1154:	017c5300 	cmneq	ip, r0, lsl #6
    1158:	01930000 	orrseq	r0, r3, r0
    115c:	00050000 	andeq	r0, r5, r0
    1160:	009ecc03 	addseq	ip, lr, r3, lsl #24
	...
    116c:	dc000300 	stcle	3, cr0, [r0], {-0}
    1170:	e0000000 	and	r0, r0, r0
    1174:	01000000 	mrseq	r0, (UNDEF: 0)
    1178:	00005100 	andeq	r5, r0, r0, lsl #2
	...
    1194:	00280000 	eoreq	r0, r8, r0
    1198:	00010000 	andeq	r0, r1, r0
    119c:	00002850 	andeq	r2, r0, r0, asr r8
    11a0:	00002c00 	andeq	r2, r0, r0, lsl #24
    11a4:	53000100 	movwpl	r0, #256	; 0x100
    11a8:	0000002c 	andeq	r0, r0, ip, lsr #32
    11ac:	00000030 	andeq	r0, r0, r0, lsr r0
    11b0:	7d730003 	ldclvc	0, cr0, [r3, #-12]!
    11b4:	0000309f 	muleq	r0, pc, r0	; <UNPREDICTABLE>
    11b8:	00004000 	andeq	r4, r0, r0
    11bc:	f3000400 	vshl.u8	d0, d0, d0
    11c0:	409f5001 	addsmi	r5, pc, r1
    11c4:	58000000 	stmdapl	r0, {}	; <UNPREDICTABLE>
    11c8:	01000000 	mrseq	r0, (UNDEF: 0)
    11cc:	00585000 	subseq	r5, r8, r0
    11d0:	00600000 	rsbeq	r0, r0, r0
    11d4:	00040000 	andeq	r0, r4, r0
    11d8:	9f5001f3 	svcls	0x005001f3
    11dc:	00000060 	andeq	r0, r0, r0, rrx
    11e0:	00000063 	andeq	r0, r0, r3, rrx
    11e4:	63500001 	cmpvs	r0, #1, 0
    11e8:	a0000000 	andge	r0, r0, r0
    11ec:	04000000 	streq	r0, [r0], #-0
    11f0:	5001f300 	andpl	pc, r1, r0, lsl #6
    11f4:	0000009f 	muleq	r0, pc, r0	; <UNPREDICTABLE>
    11f8:	00000000 	andeq	r0, r0, r0
    11fc:	28000000 	stmdacs	r0, {}	; <UNPREDICTABLE>
    1200:	40000000 	andmi	r0, r0, r0
    1204:	01000000 	mrseq	r0, (UNDEF: 0)
    1208:	00005000 	andeq	r5, r0, r0
    120c:	00000000 	andeq	r0, r0, r0
    1210:	00010000 	andeq	r0, r1, r0
    1214:	00000028 	andeq	r0, r0, r8, lsr #32
    1218:	00000030 	andeq	r0, r0, r0, lsr r0
    121c:	9f340002 	svcls	0x00340002
	...
    1228:	00000001 	andeq	r0, r0, r1
    122c:	00000028 	andeq	r0, r0, r8, lsr #32
    1230:	0000002c 	andeq	r0, r0, ip, lsr #32
    1234:	2c530001 	mrrccs	0, 0, r0, r3, cr1
    1238:	30000000 	andcc	r0, r0, r0
    123c:	03000000 	movweq	r0, #0
    1240:	9f7d7300 	svcls	0x007d7300
	...
    1254:	0000000b 	andeq	r0, r0, fp
    1258:	0b500001 	bleq	1401264 <__bss_end__+0x13f738c>
    125c:	14000000 	strne	r0, [r0], #-0
    1260:	01000000 	mrseq	r0, (UNDEF: 0)
    1264:	00005400 	andeq	r5, r0, r0, lsl #8
	...
    1274:	001c0000 	andseq	r0, ip, r0
    1278:	00010000 	andeq	r0, r1, r0
    127c:	00001c51 	andeq	r1, r0, r1, asr ip
    1280:	00003400 	andeq	r3, r0, r0, lsl #8
    1284:	f3000400 	vshl.u8	d0, d0, d0
    1288:	009f5101 	addseq	r5, pc, r1, lsl #2
    128c:	00000000 	andeq	r0, r0, r0
    1290:	02000000 	andeq	r0, r0, #0, 0
    1294:	00000000 	andeq	r0, r0, r0
    1298:	00000101 	andeq	r0, r0, r1, lsl #2
    129c:	00000000 	andeq	r0, r0, r0
    12a0:	00000400 	andeq	r0, r0, r0, lsl #8
    12a4:	50000100 	andpl	r0, r0, r0, lsl #2
    12a8:	00000004 	andeq	r0, r0, r4
    12ac:	0000001c 	andeq	r0, r0, ip, lsl r0
    12b0:	1c520001 	mrrcne	0, 0, r0, r2, cr1
    12b4:	24000000 	strcs	r0, [r0], #-0
    12b8:	01000000 	mrseq	r0, (UNDEF: 0)
    12bc:	00245300 	eoreq	r5, r4, r0, lsl #6
    12c0:	00280000 	eoreq	r0, r8, r0
    12c4:	00030000 	andeq	r0, r3, r0
    12c8:	289f0173 	ldmcs	pc, {r0, r1, r4, r5, r6, r8}	; <UNPREDICTABLE>
    12cc:	34000000 	strcc	r0, [r0], #-0
    12d0:	01000000 	mrseq	r0, (UNDEF: 0)
    12d4:	00005300 	andeq	r5, r0, r0, lsl #6
    12d8:	00000000 	andeq	r0, r0, r0
    12dc:	00030000 	andeq	r0, r3, r0
    12e0:	00000000 	andeq	r0, r0, r0
    12e4:	00240000 	eoreq	r0, r4, r0
    12e8:	00010000 	andeq	r0, r1, r0
    12ec:	00002451 	andeq	r2, r0, r1, asr r4
    12f0:	00003400 	andeq	r3, r0, r0, lsl #8
    12f4:	71000300 	mrsvc	r0, LR_irq
    12f8:	00009f7f 	andeq	r9, r0, pc, ror pc
	...
    1304:	00100000 	andseq	r0, r0, r0
    1308:	001c0000 	andseq	r0, ip, r0
    130c:	00010000 	andeq	r0, r1, r0
    1310:	0000245c 	andeq	r2, r0, ip, asr r4
    1314:	00003400 	andeq	r3, r0, r0, lsl #8
    1318:	52000100 	andpl	r0, r0, #0
	...
    1324:	00030300 	andeq	r0, r3, r0, lsl #6
    1328:	000094a4 	andeq	r9, r0, r4, lsr #9
    132c:	000094a4 	andeq	r9, r0, r4, lsr #9
    1330:	a4500001 	ldrbge	r0, [r0], #-1
    1334:	d0000094 	mulle	r0, r4, r0
    1338:	04000094 	streq	r0, [r0], #-148	; 0xffffff6c
    133c:	5001f300 	andpl	pc, r1, r0, lsl #6
    1340:	0000009f 	muleq	r0, pc, r0	; <UNPREDICTABLE>
    1344:	00000000 	andeq	r0, r0, r0
    1348:	03030000 	movweq	r0, #12288	; 0x3000
    134c:	0094a400 	addseq	sl, r4, r0, lsl #8
    1350:	0094a400 	addseq	sl, r4, r0, lsl #8
    1354:	51000100 	mrspl	r0, (UNDEF: 16)
    1358:	000094a4 	andeq	r9, r0, r4, lsr #9
    135c:	000094d0 	ldrdeq	r9, [r0], -r0
    1360:	01f30004 	mvnseq	r0, r4
    1364:	00009f51 	andeq	r9, r0, r1, asr pc
    1368:	00000000 	andeq	r0, r0, r0
    136c:	03000000 	movweq	r0, #0
    1370:	00000003 	andeq	r0, r0, r3
    1374:	000094a4 	andeq	r9, r0, r4, lsr #9
    1378:	000094a4 	andeq	r9, r0, r4, lsr #9
    137c:	a4520001 	ldrbge	r0, [r2], #-1
    1380:	ac000094 	stcge	0, cr0, [r0], {148}	; 0x94
    1384:	01000094 	swpeq	r0, r4, [r0]	; <UNPREDICTABLE>
    1388:	94ac5200 	strtls	r5, [ip], #512	; 0x200
    138c:	94d00000 	ldrbls	r0, [r0], #0
    1390:	00030000 	andeq	r0, r3, r0
    1394:	009f0172 	addseq	r0, pc, r2, ror r1	; <UNPREDICTABLE>
    1398:	00000000 	andeq	r0, r0, r0
    139c:	02000000 	andeq	r0, r0, #0, 0
    13a0:	00000101 	andeq	r0, r0, r1, lsl #2
    13a4:	a4000000 	strge	r0, [r0], #-0
    13a8:	b0000094 	mullt	r0, r4, r0
    13ac:	01000094 	swpeq	r0, r4, [r0]	; <UNPREDICTABLE>
    13b0:	94b05000 	ldrtls	r5, [r0], #0
    13b4:	94b40000 	ldrtls	r0, [r4], #0
    13b8:	00030000 	andeq	r0, r3, r0
    13bc:	b49f0170 	ldrlt	r0, [pc], #368	; 13c4 <__code_start__-0x6c3c>
    13c0:	c4000094 	strgt	r0, [r0], #-148	; 0xffffff6c
    13c4:	01000094 	swpeq	r0, r4, [r0]	; <UNPREDICTABLE>
    13c8:	94c85000 	strbls	r5, [r8], #0
    13cc:	94cc0000 	strbls	r0, [ip], #0
    13d0:	00010000 	andeq	r0, r1, r0
    13d4:	00000050 	andeq	r0, r0, r0, asr r0
    13d8:	00000000 	andeq	r0, r0, r0
    13dc:	00000200 	andeq	r0, r0, r0, lsl #4
    13e0:	a4000000 	strge	r0, [r0], #-0
    13e4:	b4000094 	strlt	r0, [r0], #-148	; 0xffffff6c
    13e8:	01000094 	swpeq	r0, r4, [r0]	; <UNPREDICTABLE>
    13ec:	94b45100 	ldrtls	r5, [r4], #256	; 0x100
    13f0:	94b80000 	ldrtls	r0, [r8], #0
    13f4:	00030000 	andeq	r0, r3, r0
    13f8:	b89f0171 	ldmlt	pc, {r0, r4, r5, r6, r8}	; <UNPREDICTABLE>
    13fc:	d0000094 	mulle	r0, r4, r0
    1400:	01000094 	swpeq	r0, r4, [r0]	; <UNPREDICTABLE>
    1404:	00005100 	andeq	r5, r0, r0, lsl #2
    1408:	00000000 	andeq	r0, r0, r0
	...

Disassembly of section .debug_aranges:

00000000 <.debug_aranges>:
   0:	0000001c 	andeq	r0, r0, ip, lsl r0
   4:	00000002 	andeq	r0, r0, r2
   8:	00040000 	andeq	r0, r4, r0
   c:	00000000 	andeq	r0, r0, r0
  10:	00008034 	andeq	r8, r0, r4, lsr r0
  14:	0000025c 	andeq	r0, r0, ip, asr r2
	...
  20:	0000001c 	andeq	r0, r0, ip, lsl r0
  24:	058e0002 	streq	r0, [lr, #2]
  28:	00040000 	andeq	r0, r4, r0
  2c:	00000000 	andeq	r0, r0, r0
  30:	00008360 	andeq	r8, r0, r0, ror #6
  34:	000001cc 	andeq	r0, r0, ip, asr #3
	...
  40:	0000001c 	andeq	r0, r0, ip, lsl r0
  44:	0b2e0002 	bleq	b80054 <__bss_end__+0xb7617c>
  48:	00040000 	andeq	r0, r4, r0
  4c:	00000000 	andeq	r0, r0, r0
  50:	0000852c 	andeq	r8, r0, ip, lsr #10
  54:	0000005c 	andeq	r0, r0, ip, asr r0
	...
  60:	0000001c 	andeq	r0, r0, ip, lsl r0
  64:	109c0002 	addsne	r0, ip, r2
  68:	00040000 	andeq	r0, r4, r0
  6c:	00000000 	andeq	r0, r0, r0
  70:	00008588 	andeq	r8, r0, r8, lsl #11
  74:	00000058 	andeq	r0, r0, r8, asr r0
	...
  80:	0000001c 	andeq	r0, r0, ip, lsl r0
  84:	123d0002 	eorsne	r0, sp, #2, 0
  88:	00040000 	andeq	r0, r4, r0
  8c:	00000000 	andeq	r0, r0, r0
  90:	000085e0 	andeq	r8, r0, r0, ror #11
  94:	00000034 	andeq	r0, r0, r4, lsr r0
	...
  a0:	0000001c 	andeq	r0, r0, ip, lsl r0
  a4:	13340002 	teqne	r4, #2, 0
  a8:	00040000 	andeq	r0, r4, r0
  ac:	00000000 	andeq	r0, r0, r0
  b0:	00008614 	andeq	r8, r0, r4, lsl r6
  b4:	0000062c 	andeq	r0, r0, ip, lsr #12
	...
  c0:	0000001c 	andeq	r0, r0, ip, lsl r0
  c4:	1c3c0002 	ldcne	0, cr0, [ip], #-8
  c8:	00040000 	andeq	r0, r4, r0
  cc:	00000000 	andeq	r0, r0, r0
  d0:	00008c40 	andeq	r8, r0, r0, asr #24
  d4:	0000002c 	andeq	r0, r0, ip, lsr #32
	...
  e0:	0000001c 	andeq	r0, r0, ip, lsl r0
  e4:	1d6f0002 	stclne	0, cr0, [pc, #-8]!	; e4 <__code_start__-0x7f1c>
  e8:	00040000 	andeq	r0, r4, r0
  ec:	00000000 	andeq	r0, r0, r0
  f0:	00008c6c 	andeq	r8, r0, ip, ror #24
  f4:	00000030 	andeq	r0, r0, r0, lsr r0
	...
 100:	0000001c 	andeq	r0, r0, ip, lsl r0
 104:	1ecc0002 	cdpne	0, 12, cr0, cr12, cr2, {0}
 108:	00040000 	andeq	r0, r4, r0
 10c:	00000000 	andeq	r0, r0, r0
 110:	00008c9c 	muleq	r0, ip, ip
 114:	00000004 	andeq	r0, r0, r4
	...
 120:	0000001c 	andeq	r0, r0, ip, lsl r0
 124:	1f9e0002 	svcne	0x009e0002
 128:	00040000 	andeq	r0, r4, r0
 12c:	00000000 	andeq	r0, r0, r0
 130:	00008ca0 	andeq	r8, r0, r0, lsr #25
 134:	0000007c 	andeq	r0, r0, ip, ror r0
	...
 140:	0000001c 	andeq	r0, r0, ip, lsl r0
 144:	21c20002 	biccs	r0, r2, r2
 148:	00040000 	andeq	r0, r4, r0
 14c:	00000000 	andeq	r0, r0, r0
 150:	00008d1c 	andeq	r8, r0, ip, lsl sp
 154:	0000009c 	muleq	r0, ip, r0
	...
 160:	0000001c 	andeq	r0, r0, ip, lsl r0
 164:	243e0002 	ldrtcs	r0, [lr], #-2
 168:	00040000 	andeq	r0, r4, r0
 16c:	00000000 	andeq	r0, r0, r0
 170:	00008dd0 	ldrdeq	r8, [r0], -r0
 174:	000002cc 	andeq	r0, r0, ip, asr #5
	...
 180:	0000001c 	andeq	r0, r0, ip, lsl r0
 184:	2de00002 	stclcs	0, cr0, [r0, #8]!
 188:	00040000 	andeq	r0, r4, r0
 18c:	00000000 	andeq	r0, r0, r0
 190:	0000909c 	muleq	r0, ip, r0
 194:	000000e8 	andeq	r0, r0, r8, ror #1
	...
 1a0:	0000001c 	andeq	r0, r0, ip, lsl r0
 1a4:	319f0002 	orrscc	r0, pc, r2
 1a8:	00040000 	andeq	r0, r4, r0
 1ac:	00000000 	andeq	r0, r0, r0
 1b0:	00009184 	andeq	r9, r0, r4, lsl #3
 1b4:	000002b0 			; <UNDEFINED> instruction: 0x000002b0
	...
 1c0:	0000001c 	andeq	r0, r0, ip, lsl r0
 1c4:	38460002 	stmdacc	r6, {r1}^
 1c8:	00040000 	andeq	r0, r4, r0
 1cc:	00000000 	andeq	r0, r0, r0
 1d0:	00009434 	andeq	r9, r0, r4, lsr r4
 1d4:	0000003c 	andeq	r0, r0, ip, lsr r0
	...
 1e0:	0000001c 	andeq	r0, r0, ip, lsl r0
 1e4:	39930002 	ldmibcc	r3, {r1}
 1e8:	00040000 	andeq	r0, r4, r0
 1ec:	00000000 	andeq	r0, r0, r0
 1f0:	00009470 	andeq	r9, r0, r0, ror r4
 1f4:	00000034 	andeq	r0, r0, r4, lsr r0
	...
 200:	0000001c 	andeq	r0, r0, ip, lsl r0
 204:	3ace0002 	bcc	ff380214 <__bss_end__+0xff37633c>
 208:	00040000 	andeq	r0, r4, r0
 20c:	00000000 	andeq	r0, r0, r0
 210:	000094a4 	andeq	r9, r0, r4, lsr #9
 214:	0000002c 	andeq	r0, r0, ip, lsr #32
	...

Disassembly of section .debug_line:

00000000 <.debug_line>:
       0:	00000238 	andeq	r0, r0, r8, lsr r2
       4:	009c0003 	addseq	r0, ip, r3
       8:	01020000 	mrseq	r0, (UNDEF: 2)
       c:	000d0efb 	strdeq	r0, [sp], -fp
      10:	01010101 	tsteq	r1, r1, lsl #2
      14:	01000000 	mrseq	r0, (UNDEF: 0)
      18:	2f010000 	svccs	0x00010000
      1c:	72657355 	rsbvc	r7, r5, #1409286145	; 0x54000001
      20:	64612f73 	strbtvs	r2, [r1], #-3955	; 0xfffff08d
      24:	6e616972 			; <UNDEFINED> instruction: 0x6e616972
      28:	7472616d 	ldrbtvc	r6, [r2], #-365	; 0xfffffe93
      2c:	7a656e69 	bvc	195b9d8 <__bss_end__+0x1951b00>
      30:	6f72702f 	svcvs	0x0072702f
      34:	7463656a 	strbtvc	r6, [r3], #-1386	; 0xfffffa96
      38:	73632f73 	cmnvc	r3, #460	; 0x1cc
      3c:	65303431 	ldrvs	r3, [r0, #-1073]!	; 0xfffffbcf
      40:	7331322d 	teqvc	r1, #-805306366	; 0xd0000002
      44:	6c2f7270 	sfmvs	f7, 4, [pc], #-448	; fffffe8c <__bss_end__+0xffff5fb4>
      48:	69706269 	ldmdbvs	r0!, {r0, r3, r5, r6, r9, sp, lr}^
      4c:	636e692f 	cmnvs	lr, #770048	; 0xbc000
      50:	6564756c 	strbvs	r7, [r4, #-1388]!	; 0xfffffa94
      54:	70670000 	rsbvc	r0, r7, r0
      58:	2e666f72 	mcrcs	15, 3, r6, cr6, cr2, {3}
      5c:	00000063 	andeq	r0, r0, r3, rrx
      60:	69707200 	ldmdbvs	r0!, {r9, ip, sp, lr}^
      64:	0100682e 	tsteq	r0, lr, lsr #16
      68:	70720000 	rsbsvc	r0, r2, r0
      6c:	72612d69 	rsbvc	r2, r1, #6720	; 0x1a40
      70:	6d69746d 	cfstrdvs	mvd7, [r9, #-436]!	; 0xfffffe4c
      74:	682e7265 	stmdavs	lr!, {r0, r2, r5, r6, r9, ip, sp, lr}
      78:	00000100 	andeq	r0, r0, r0, lsl #2
      7c:	2d697072 	stclcs	0, cr7, [r9, #-456]!	; 0xfffffe38
      80:	65746e69 	ldrbvs	r6, [r4, #-3689]!	; 0xfffff197
      84:	70757272 	rsbsvc	r7, r5, r2, ror r2
      88:	682e7374 	stmdavs	lr!, {r2, r4, r5, r6, r8, r9, ip, sp, lr}
      8c:	00000100 	andeq	r0, r0, r0, lsl #2
      90:	656d6974 	strbvs	r6, [sp, #-2420]!	; 0xfffff68c
      94:	6e692d72 	mcrvs	13, 3, r2, cr9, cr2, {3}
      98:	72726574 	rsbsvc	r6, r2, #116, 10	; 0x1d000000
      9c:	2e747075 	mrccs	0, 3, r7, cr4, cr5, {3}
      a0:	00000068 	andeq	r0, r0, r8, rrx
      a4:	24050000 	strcs	r0, [r5], #-0
      a8:	34020500 	strcc	r0, [r2], #-1280	; 0xfffffb00
      ac:	03000080 	movweq	r0, #128	; 0x80
      b0:	05050127 	streq	r0, [r5, #-295]	; 0xfffffed9
      b4:	06190513 			; <UNDEFINED> instruction: 0x06190513
      b8:	06050501 	streq	r0, [r5], -r1, lsl #10
      bc:	060c0567 	streq	r0, [ip], -r7, ror #10
      c0:	052e2e01 	streq	r2, [lr, #-3585]!	; 0xfffff1ff
      c4:	01052e13 	tsteq	r5, r3, lsl lr
      c8:	062a054b 	strteq	r0, [sl], -fp, asr #10
      cc:	0501064f 	streq	r0, [r1, #-1615]	; 0xfffff9b1
      d0:	054d0605 	strbeq	r0, [sp, #-1541]	; 0xfffff9fb
      d4:	0e05010a 	adfeqs	f0, f5, #2.0
      d8:	05050106 	streq	r0, [r5, #-262]	; 0xfffffefa
      dc:	060d052e 	streq	r0, [sp], -lr, lsr #10
      e0:	00230530 	eoreq	r0, r3, r0, lsr r5
      e4:	b8020402 	stmdalt	r2, {r1, sl}
      e8:	02002405 	andeq	r2, r0, #83886080	; 0x5000000
      ec:	01060204 	tsteq	r6, r4, lsl #4
      f0:	02001505 	andeq	r1, r0, #20971520	; 0x1400000
      f4:	2e060104 	adfcss	f0, f6, f4
      f8:	02001705 	andeq	r1, r0, #1310720	; 0x140000
      fc:	01060104 	tsteq	r6, r4, lsl #2
     100:	02000505 	andeq	r0, r0, #20971520	; 0x1400000
     104:	054a0104 	strbeq	r0, [sl, #-260]	; 0xfffffefc
     108:	054b0609 	strbeq	r0, [fp, #-1545]	; 0xfffff9f7
     10c:	05010614 	streq	r0, [r1, #-1556]	; 0xfffff9ec
     110:	2205820c 	andcs	r8, r5, #12, 4	; 0xc0000000
     114:	9e680306 	cdpls	3, 6, cr0, cr8, cr6, {0}
     118:	052f0505 	streq	r0, [pc, #-1285]!	; fffffc1b <__bss_end__+0xffff5d43>
     11c:	05010611 	streq	r0, [r1, #-1553]	; 0xfffff9ef
     120:	05052e0f 	streq	r2, [r5, #-3599]	; 0xfffff1f1
     124:	1f054b06 	svcne	0x00054b06
     128:	30050106 	andcc	r0, r5, r6, lsl #2
     12c:	820f054a 	andhi	r0, pc, #310378496	; 0x12800000
     130:	2f060505 	svccs	0x00060505
     134:	061e054b 	ldreq	r0, [lr], -fp, asr #10
     138:	660f0501 	strvs	r0, [pc], -r1, lsl #10
     13c:	2f060505 	svccs	0x00060505
     140:	010a054b 	tsteq	sl, fp, asr #10
     144:	01060e05 	tsteq	r6, r5, lsl #28
     148:	02001505 	andeq	r1, r0, #20971520	; 0x1400000
     14c:	2e060104 	adfcss	f0, f6, f4
     150:	02001705 	andeq	r1, r0, #1310720	; 0x140000
     154:	01060104 	tsteq	r6, r4, lsl #2
     158:	02000505 	andeq	r0, r0, #20971520	; 0x1400000
     15c:	054a0104 	strbeq	r0, [sl, #-260]	; 0xfffffefc
     160:	04020028 	streq	r0, [r2], #-40	; 0xffffffd8
     164:	054a0603 	strbeq	r0, [sl, #-1539]	; 0xfffff9fd
     168:	0402002f 	streq	r0, [r2], #-47	; 0xffffffd1
     16c:	05010603 	streq	r0, [r1, #-1539]	; 0xfffff9fd
     170:	04020033 	streq	r0, [r2], #-51	; 0xffffffcd
     174:	23054a03 	movwcs	r4, #23043	; 0x5a03
     178:	03040200 	movweq	r0, #16896	; 0x4200
     17c:	24054a06 	strcs	r4, [r5], #-2566	; 0xfffff5fa
     180:	03040200 	movweq	r0, #16896	; 0x4200
     184:	02000106 	andeq	r0, r0, #-2147483647	; 0x80000001
     188:	002e0304 	eoreq	r0, lr, r4, lsl #6
     18c:	2e030402 	cdpcs	4, 0, cr0, cr3, cr2, {0}
     190:	13060505 	movwne	r0, #25861	; 0x6505
     194:	13060105 	movwne	r0, #24837	; 0x6105
     198:	03062405 	movweq	r2, #25605	; 0x6405
     19c:	0106d620 	tsteq	r6, r0, lsr #12
     1a0:	4b060505 	blmi	1815bc <__bss_end__+0x1776e4>
     1a4:	0618052f 	ldreq	r0, [r8], -pc, lsr #10
     1a8:	06050501 	streq	r0, [r5], -r1, lsl #10
     1ac:	0607054e 	streq	r0, [r7], -lr, asr #10
     1b0:	06050501 	streq	r0, [r5], -r1, lsl #10
     1b4:	064a0903 	strbeq	r0, [sl], -r3, lsl #18
     1b8:	052f064a 	streq	r0, [pc, #-1610]!	; fffffb76 <__bss_end__+0xffff5c9e>
     1bc:	05010608 	streq	r0, [r1, #-1544]	; 0xfffff9f8
     1c0:	4c840605 	stcmi	6, cr0, [r4], {5}
     1c4:	06140513 			; <UNDEFINED> instruction: 0x06140513
     1c8:	06050501 	streq	r0, [r5], -r1, lsl #10
     1cc:	0617052f 	ldreq	r0, [r7], -pc, lsr #10
     1d0:	2e280501 	cfsh64cs	mvdx0, mvdx8, #1
     1d4:	01040200 	mrseq	r0, R12_usr
     1d8:	000c052e 	andeq	r0, ip, lr, lsr #10
     1dc:	2e040402 	cdpcs	4, 0, cr0, cr4, cr2, {0}
     1e0:	02000505 	andeq	r0, r0, #20971520	; 0x1400000
     1e4:	4b060404 	blmi	1811fc <__bss_end__+0x177324>
     1e8:	02000e05 	andeq	r0, r0, #80	; 0x50
     1ec:	01060404 	tsteq	r6, r4, lsl #8
     1f0:	02000105 	andeq	r0, r0, #1073741825	; 0x40000001
     1f4:	05310404 	ldreq	r0, [r1, #-1028]!	; 0xfffffbfc
     1f8:	05860610 	streq	r0, [r6, #1552]	; 0x610
     1fc:	4b304b05 	blmi	c12e18 <__bss_end__+0xc08f40>
     200:	694c4c30 	stmdbvs	ip, {r4, r5, sl, fp, lr}^
     204:	2f4b312f 	svccs	0x004b312f
     208:	0e05134d 	cdpeq	3, 0, cr1, cr5, cr13, {2}
     20c:	0a051106 	beq	14462c <__bss_end__+0x13a754>
     210:	060d052f 	streq	r0, [sp], -pc, lsr #10
     214:	450a0533 	strmi	r0, [sl, #-1331]	; 0xfffffacd
     218:	01060e05 	tsteq	r6, r5, lsl #28
     21c:	054a0a05 	strbeq	r0, [sl, #-2565]	; 0xfffff5fb
     220:	f44b0609 	vst1.8	{d16-d18}, [fp], r9
     224:	01060d05 	tsteq	r6, r5, lsl #26
     228:	2f060905 	svccs	0x00060905
     22c:	01061105 	tsteq	r6, r5, lsl #2
     230:	059e0b05 	ldreq	r0, [lr, #2821]	; 0xb05
     234:	02690605 	rsbeq	r0, r9, #5242880	; 0x500000
     238:	01010010 	tsteq	r1, r0, lsl r0
     23c:	00000139 	andeq	r0, r0, r9, lsr r1
     240:	007c0003 	rsbseq	r0, ip, r3
     244:	01020000 	mrseq	r0, (UNDEF: 2)
     248:	000d0efb 	strdeq	r0, [sp], -fp
     24c:	01010101 	tsteq	r1, r1, lsl #2
     250:	01000000 	mrseq	r0, (UNDEF: 0)
     254:	2f010000 	svccs	0x00010000
     258:	72657355 	rsbvc	r7, r5, #1409286145	; 0x54000001
     25c:	64612f73 	strbtvs	r2, [r1], #-3955	; 0xfffff08d
     260:	6e616972 			; <UNDEFINED> instruction: 0x6e616972
     264:	7472616d 	ldrbtvc	r6, [r2], #-365	; 0xfffffe93
     268:	7a656e69 	bvc	195bc14 <__bss_end__+0x1951d3c>
     26c:	6f72702f 	svcvs	0x0072702f
     270:	7463656a 	strbtvc	r6, [r3], #-1386	; 0xfffffa96
     274:	73632f73 	cmnvc	r3, #460	; 0x1cc
     278:	65303431 	ldrvs	r3, [r0, #-1073]!	; 0xfffffbcf
     27c:	7331322d 	teqvc	r1, #-805306366	; 0xd0000002
     280:	6c2f7270 	sfmvs	f7, 4, [pc], #-448	; c8 <__code_start__-0x7f38>
     284:	69706269 	ldmdbvs	r0!, {r0, r3, r5, r6, r9, sp, lr}^
     288:	636e692f 	cmnvs	lr, #770048	; 0xbc000
     28c:	6564756c 	strbvs	r7, [r4, #-1388]!	; 0xfffffa94
     290:	6e690000 	cdpvs	0, 6, cr0, cr9, cr0, {0}
     294:	72726574 	rsbsvc	r6, r2, #116, 10	; 0x1d000000
     298:	73747075 	cmnvc	r4, #117, 0	; 0x75
     29c:	632e632d 			; <UNDEFINED> instruction: 0x632e632d
     2a0:	00000000 	andeq	r0, r0, r0
     2a4:	2e697072 	mcrcs	0, 3, r7, cr9, cr2, {3}
     2a8:	00010068 	andeq	r0, r1, r8, rrx
     2ac:	69707200 	ldmdbvs	r0!, {r9, ip, sp, lr}^
     2b0:	746e692d 	strbtvc	r6, [lr], #-2349	; 0xfffff6d3
     2b4:	75727265 	ldrbvc	r7, [r2, #-613]!	; 0xfffffd9b
     2b8:	2e737470 	mrccs	4, 3, r7, cr3, cr0, {3}
     2bc:	00010068 	andeq	r0, r1, r8, rrx
     2c0:	15050000 	strne	r0, [r5, #-0]
     2c4:	60020500 	andvs	r0, r2, r0, lsl #10
     2c8:	16000083 	strne	r0, [r0], -r3, lsl #1
     2cc:	67310505 	ldrvs	r0, [r1, -r5, lsl #10]!
     2d0:	16133567 	ldrne	r3, [r3], -r7, ror #10
     2d4:	14061205 	strne	r1, [r6], #-517	; 0xfffffdfb
     2d8:	84060505 	strhi	r0, [r6], #-1285	; 0xfffffafb
     2dc:	05010905 	streq	r0, [r1, #-2309]	; 0xfffff6fb
     2e0:	0501060d 	streq	r0, [r1, #-1549]	; 0xfffff9f3
     2e4:	04020014 	streq	r0, [r2], #-20	; 0xffffffec
     2e8:	052e0601 	streq	r0, [lr, #-1537]!	; 0xfffff9ff
     2ec:	04020005 	streq	r0, [r2], #-5
     2f0:	05010601 	streq	r0, [r1, #-1537]	; 0xfffff9ff
     2f4:	04020009 	streq	r0, [r2], #-9
     2f8:	054b0603 	strbeq	r0, [fp, #-1539]	; 0xfffff9fd
     2fc:	04020015 	streq	r0, [r2], #-21	; 0xffffffeb
     300:	05010603 	streq	r0, [r1, #-1539]	; 0xfffff9fd
     304:	04020010 	streq	r0, [r2], #-16
     308:	1b056603 	blne	159b1c <__bss_end__+0x14fc44>
     30c:	03040200 	movweq	r0, #16896	; 0x4200
     310:	1c052d06 	stcne	13, cr2, [r5], {6}
     314:	03040200 	movweq	r0, #16896	; 0x4200
     318:	02000106 	andeq	r0, r0, #-2147483647	; 0x80000001
     31c:	052e0304 	streq	r0, [lr, #-772]!	; 0xfffffcfc
     320:	06a40629 	strteq	r0, [r4], r9, lsr #12
     324:	06020501 	streq	r0, [r2], -r1, lsl #10
     328:	d606014b 	strle	r0, [r6], -fp, asr #2
     32c:	2d052e06 	stccs	14, cr2, [r5, #-24]	; 0xffffffe8
     330:	050106a5 	streq	r0, [r1, #-1701]	; 0xfffff95b
     334:	014b0602 	cmpeq	fp, r2, lsl #12
     338:	2e06d606 	cfmadd32cs	mvax0, mvfx13, mvfx6, mvfx6
     33c:	06a02005 	strteq	r2, [r0], r5
     340:	06020501 	streq	r0, [r2], -r1, lsl #10
     344:	d606014b 	strle	r0, [r6], -fp, asr #2
     348:	30052e06 	andcc	r2, r5, r6, lsl #28
     34c:	050106a0 	streq	r0, [r1, #-1696]	; 0xfffff960
     350:	014b0602 	cmpeq	fp, r2, lsl #12
     354:	2e06d606 	cfmadd32cs	mvax0, mvfx13, mvfx6, mvfx6
     358:	06a02905 	strteq	r2, [r0], r5, lsl #18
     35c:	06020501 	streq	r0, [r2], -r1, lsl #10
     360:	d606014b 	strle	r0, [r6], -fp, asr #2
     364:	25052e06 	strcs	r2, [r5, #-3590]	; 0xfffff1fa
     368:	050106a0 	streq	r0, [r1, #-1696]	; 0xfffff960
     36c:	014b0602 	cmpeq	fp, r2, lsl #12
     370:	2e06d606 	cfmadd32cs	mvax0, mvfx13, mvfx6, mvfx6
     374:	01000a02 	tsteq	r0, r2, lsl #20
     378:	0001ac01 	andeq	sl, r1, r1, lsl #24
     37c:	fa000300 	blx	f84 <__code_start__-0x707c>
     380:	02000000 	andeq	r0, r0, #0, 0
     384:	0d0efb01 	vstreq	d15, [lr, #-4]
     388:	01010100 	mrseq	r0, (UNDEF: 17)
     38c:	00000001 	andeq	r0, r0, r1
     390:	01000001 	tsteq	r0, r1
     394:	6573552f 	ldrbvs	r5, [r3, #-1327]!	; 0xfffffad1
     398:	612f7372 			; <UNDEFINED> instruction: 0x612f7372
     39c:	61697264 	cmnvs	r9, r4, ror #4
     3a0:	72616d6e 	rsbvc	r6, r1, #7040	; 0x1b80
     3a4:	656e6974 	strbvs	r6, [lr, #-2420]!	; 0xfffff68c
     3a8:	72702f7a 	rsbsvc	r2, r0, #488	; 0x1e8
     3ac:	63656a6f 	cmnvs	r5, #454656	; 0x6f000
     3b0:	632f7374 			; <UNDEFINED> instruction: 0x632f7374
     3b4:	30343173 	eorscc	r3, r4, r3, ror r1
     3b8:	31322d65 	teqcc	r2, r5, ror #26
     3bc:	2f727073 	svccs	0x00727073
     3c0:	7062696c 	rsbvc	r6, r2, ip, ror #18
     3c4:	6e692f69 	cdpvs	15, 6, cr2, cr9, cr9, {3}
     3c8:	64756c63 	ldrbtvs	r6, [r5], #-3171	; 0xfffff39d
     3cc:	752f0065 	strvc	r0, [pc, #-101]!	; 36f <__code_start__-0x7c91>
     3d0:	6c2f7273 	sfmvs	f7, 4, [pc], #-460	; 20c <__code_start__-0x7df4>
     3d4:	6c61636f 	stclvs	3, cr6, [r1], #-444	; 0xfffffe44
     3d8:	6c65432f 	stclvs	3, cr4, [r5], #-188	; 0xffffff44
     3dc:	2f72616c 	svccs	0x0072616c
     3e0:	2d6d7261 	sfmcs	f7, 2, [sp, #-388]!	; 0xfffffe7c
     3e4:	656e6f6e 	strbvs	r6, [lr, #-3950]!	; 0xfffff092
     3e8:	6261652d 	rsbvs	r6, r1, #188743680	; 0xb400000
     3ec:	65742d69 	ldrbvs	r2, [r4, #-3433]!	; 0xfffff297
     3f0:	392f7473 	stmdbcc	pc!, {r0, r1, r4, r5, r6, sl, ip, sp, lr}	; <UNPREDICTABLE>
     3f4:	3130322d 	teqcc	r0, sp, lsr #4
     3f8:	2d347139 	ldfcss	f7, [r4, #-228]!	; 0xffffff1c
     3fc:	30317363 	eorscc	r7, r1, r3, ror #6
     400:	6c2f6537 	cfstr32vs	mvfx6, [pc], #-220	; 32c <__code_start__-0x7cd4>
     404:	672f6269 	strvs	r6, [pc, -r9, ror #4]!
     408:	612f6363 			; <UNDEFINED> instruction: 0x612f6363
     40c:	6e2d6d72 	mcrvs	13, 1, r6, cr13, cr2, {3}
     410:	2d656e6f 	stclcs	14, cr6, [r5, #-444]!	; 0xfffffe44
     414:	69626165 	stmdbvs	r2!, {r0, r2, r5, r6, r8, sp, lr}^
     418:	322e392f 	eorcc	r3, lr, #770048	; 0xbc000
     41c:	692f312e 	stmdbvs	pc!, {r1, r2, r3, r5, r8, ip, sp}	; <UNPREDICTABLE>
     420:	756c636e 	strbvc	r6, [ip, #-878]!	; 0xfffffc92
     424:	00006564 	andeq	r6, r0, r4, ror #10
     428:	656d6974 	strbvs	r6, [sp, #-2420]!	; 0xfffff68c
     42c:	6e692d72 	mcrvs	13, 3, r2, cr9, cr2, {3}
     430:	72726574 	rsbsvc	r6, r2, #116, 10	; 0x1d000000
     434:	2e747075 	mrccs	0, 3, r7, cr4, cr5, {3}
     438:	00000063 	andeq	r0, r0, r3, rrx
     43c:	69707200 	ldmdbvs	r0!, {r9, ip, sp, lr}^
     440:	0100682e 	tsteq	r0, lr, lsr #16
     444:	70720000 	rsbsvc	r0, r2, r0
     448:	72612d69 	rsbvc	r2, r1, #6720	; 0x1a40
     44c:	6d69746d 	cfstrdvs	mvd7, [r9, #-436]!	; 0xfffffe4c
     450:	682e7265 	stmdavs	lr!, {r0, r2, r5, r6, r9, ip, sp, lr}
     454:	00000100 	andeq	r0, r0, r0, lsl #2
     458:	69647473 	stmdbvs	r4!, {r0, r1, r4, r5, r6, sl, ip, sp, lr}^
     45c:	672d746e 	strvs	r7, [sp, -lr, ror #8]!
     460:	682e6363 	stmdavs	lr!, {r0, r1, r5, r6, r8, r9, sp, lr}
     464:	00000200 	andeq	r0, r0, r0, lsl #4
     468:	2d697072 	stclcs	0, cr7, [r9, #-456]!	; 0xfffffe38
     46c:	65746e69 	ldrbvs	r6, [r4, #-3689]!	; 0xfffff197
     470:	70757272 	rsbsvc	r7, r5, r2, ror r2
     474:	682e7374 	stmdavs	lr!, {r2, r4, r5, r6, r8, r9, ip, sp, lr}
     478:	00000100 	andeq	r0, r0, r0, lsl #2
     47c:	00270500 	eoreq	r0, r7, r0, lsl #10
     480:	852c0205 	strhi	r0, [ip, #-517]!	; 0xfffffdfb
     484:	3e030000 	cdpcc	0, 0, cr0, cr3, cr0, {0}
     488:	4e050501 	cfsh32mi	mvfx0, mvfx5, #1
     48c:	01010101 	tsteq	r1, r1, lsl #2
     490:	01010101 	tsteq	r1, r1, lsl #2
     494:	01010101 	tsteq	r1, r1, lsl #2
     498:	01010101 	tsteq	r1, r1, lsl #2
     49c:	13010101 	movwne	r0, #4353	; 0x1101
     4a0:	01010101 	tsteq	r1, r1, lsl #2
     4a4:	01010101 	tsteq	r1, r1, lsl #2
     4a8:	01010101 	tsteq	r1, r1, lsl #2
     4ac:	01010101 	tsteq	r1, r1, lsl #2
     4b0:	13010101 	movwne	r0, #4353	; 0x1101
     4b4:	01010101 	tsteq	r1, r1, lsl #2
     4b8:	01010101 	tsteq	r1, r1, lsl #2
     4bc:	01010101 	tsteq	r1, r1, lsl #2
     4c0:	01010101 	tsteq	r1, r1, lsl #2
     4c4:	13010101 	movwne	r0, #4353	; 0x1101
     4c8:	01010101 	tsteq	r1, r1, lsl #2
     4cc:	01010101 	tsteq	r1, r1, lsl #2
     4d0:	01010101 	tsteq	r1, r1, lsl #2
     4d4:	01010101 	tsteq	r1, r1, lsl #2
     4d8:	13010101 	movwne	r0, #4353	; 0x1101
     4dc:	01010101 	tsteq	r1, r1, lsl #2
     4e0:	01010101 	tsteq	r1, r1, lsl #2
     4e4:	01010101 	tsteq	r1, r1, lsl #2
     4e8:	01010101 	tsteq	r1, r1, lsl #2
     4ec:	13010101 	movwne	r0, #4353	; 0x1101
     4f0:	01010101 	tsteq	r1, r1, lsl #2
     4f4:	01010101 	tsteq	r1, r1, lsl #2
     4f8:	01010101 	tsteq	r1, r1, lsl #2
     4fc:	01010101 	tsteq	r1, r1, lsl #2
     500:	13010101 	movwne	r0, #4353	; 0x1101
     504:	01310501 	teqeq	r1, r1, lsl #10
     508:	05130505 	ldreq	r0, [r3, #-1285]	; 0xfffffafb
     50c:	054b0601 	strbeq	r0, [fp, #-1537]	; 0xfffff9ff
     510:	4603062d 	strmi	r0, [r3], -sp, lsr #12
     514:	05010666 	streq	r0, [r1, #-1638]	; 0xfffff99a
     518:	324b0605 	subcc	r0, fp, #5242880	; 0x500000
     51c:	01056a6a 	tsteq	r5, sl, ror #20
     520:	661d0306 	ldrvs	r0, [sp], -r6, lsl #6
     524:	01000802 	tsteq	r0, r2, lsl #16
     528:	00011b01 	andeq	r1, r1, r1, lsl #22
     52c:	e9000300 	stmdb	r0, {r8, r9}
     530:	02000000 	andeq	r0, r0, #0, 0
     534:	0d0efb01 	vstreq	d15, [lr, #-4]
     538:	01010100 	mrseq	r0, (UNDEF: 17)
     53c:	00000001 	andeq	r0, r0, r1
     540:	01000001 	tsteq	r0, r1
     544:	6362696c 	cmnvs	r2, #108, 18	; 0x1b0000
     548:	73752f00 	cmnvc	r5, #0, 30
     54c:	6f6c2f72 	svcvs	0x006c2f72
     550:	2f6c6163 	svccs	0x006c6163
     554:	6c6c6543 	cfstr64vs	mvdx6, [ip], #-268	; 0xfffffef4
     558:	612f7261 			; <UNDEFINED> instruction: 0x612f7261
     55c:	6e2d6d72 	mcrvs	13, 1, r6, cr13, cr2, {3}
     560:	2d656e6f 	stclcs	14, cr6, [r5, #-444]!	; 0xfffffe44
     564:	69626165 	stmdbvs	r2!, {r0, r2, r5, r6, r8, sp, lr}^
     568:	7365742d 	cmnvc	r5, #754974720	; 0x2d000000
     56c:	2d392f74 	ldccs	15, cr2, [r9, #-464]!	; 0xfffffe30
     570:	39313032 	ldmdbcc	r1!, {r1, r4, r5, ip, sp}
     574:	632d3471 			; <UNDEFINED> instruction: 0x632d3471
     578:	37303173 			; <UNDEFINED> instruction: 0x37303173
     57c:	696c2f65 	stmdbvs	ip!, {r0, r2, r5, r6, r8, r9, sl, fp, sp}^
     580:	63672f62 	cmnvs	r7, #392	; 0x188
     584:	72612f63 	rsbvc	r2, r1, #396	; 0x18c
     588:	6f6e2d6d 	svcvs	0x006e2d6d
     58c:	652d656e 	strvs	r6, [sp, #-1390]!	; 0xfffffa92
     590:	2f696261 	svccs	0x00696261
     594:	2e322e39 	mrccs	14, 1, r2, cr2, cr9, {1}
     598:	6e692f31 	mcrvs	15, 3, r2, cr9, cr1, {1}
     59c:	64756c63 	ldrbtvs	r6, [r5], #-3171	; 0xfffff39d
     5a0:	552f0065 	strpl	r0, [pc, #-101]!	; 543 <__code_start__-0x7abd>
     5a4:	73726573 	cmnvc	r2, #482344960	; 0x1cc00000
     5a8:	7264612f 	rsbvc	r6, r4, #-1073741813	; 0xc000000b
     5ac:	6d6e6169 	stfvse	f6, [lr, #-420]!	; 0xfffffe5c
     5b0:	69747261 	ldmdbvs	r4!, {r0, r5, r6, r9, ip, sp, lr}^
     5b4:	2f7a656e 	svccs	0x007a656e
     5b8:	6a6f7270 	bvs	1bdcf80 <__bss_end__+0x1bd30a8>
     5bc:	73746365 	cmnvc	r4, #-1811939327	; 0x94000001
     5c0:	3173632f 	cmncc	r3, pc, lsr #6
     5c4:	2d653034 	stclcs	0, cr3, [r5, #-208]!	; 0xffffff30
     5c8:	70733132 	rsbsvc	r3, r3, r2, lsr r1
     5cc:	696c2f72 	stmdbvs	ip!, {r1, r4, r5, r6, r8, r9, sl, fp, sp}^
     5d0:	2f697062 	svccs	0x00697062
     5d4:	6c636e69 	stclvs	14, cr6, [r3], #-420	; 0xfffffe5c
     5d8:	00656475 	rsbeq	r6, r5, r5, ror r4
     5dc:	69727000 	ldmdbvs	r2!, {ip, sp, lr}^
     5e0:	2e6b746e 	cdpcs	4, 6, cr7, cr11, cr14, {3}
     5e4:	00010063 	andeq	r0, r1, r3, rrx
     5e8:	64747300 	ldrbtvs	r7, [r4], #-768	; 0xfffffd00
     5ec:	2e677261 	cdpcs	2, 6, cr7, cr7, cr1, {3}
     5f0:	00020068 	andeq	r0, r2, r8, rrx
     5f4:	69707200 	ldmdbvs	r0!, {r9, ip, sp, lr}^
     5f8:	0300682e 	movweq	r6, #2094	; 0x82e
     5fc:	623c0000 	eorsvs	r0, ip, #0, 0
     600:	746c6975 	strbtvc	r6, [ip], #-2421	; 0xfffff68b
     604:	3e6e692d 	vmulcc.f16	s13, s28, s27	; <UNPREDICTABLE>
     608:	00000000 	andeq	r0, r0, r0
     60c:	702d6176 	eorvc	r6, sp, r6, ror r1
     610:	746e6972 	strbtvc	r6, [lr], #-2418	; 0xfffff68e
     614:	00682e6b 	rsbeq	r2, r8, fp, ror #28
     618:	00000001 	andeq	r0, r0, r1
     61c:	05002205 	streq	r2, [r0, #-517]	; 0xfffffdfb
     620:	00858802 	addeq	r8, r5, r2, lsl #16
     624:	01061700 	tsteq	r6, r0, lsl #14
     628:	68060505 	stmdavs	r6, {r0, r2, r8, sl}
     62c:	09051413 	stmdbeq	r5, {r0, r1, r4, sl, ip}
     630:	0612054b 	ldreq	r0, [r2], -fp, asr #10
     634:	06050501 	streq	r0, [r5], -r1, lsl #10
     638:	660616bb 			; <UNDEFINED> instruction: 0x660616bb
     63c:	01053406 	tsteq	r5, r6, lsl #8
     640:	02661306 	rsbeq	r1, r6, #402653184	; 0x18000000
     644:	01010008 	tsteq	r1, r8
     648:	000000b3 	strheq	r0, [r0], -r3
     64c:	00650003 	rsbeq	r0, r5, r3
     650:	01020000 	mrseq	r0, (UNDEF: 2)
     654:	000d0efb 	strdeq	r0, [sp], -fp
     658:	01010101 	tsteq	r1, r1, lsl #2
     65c:	01000000 	mrseq	r0, (UNDEF: 0)
     660:	6c010000 	stcvs	0, cr0, [r1], {-0}
     664:	00636269 	rsbeq	r6, r3, r9, ror #4
     668:	6573552f 	ldrbvs	r5, [r3, #-1327]!	; 0xfffffad1
     66c:	612f7372 			; <UNDEFINED> instruction: 0x612f7372
     670:	61697264 	cmnvs	r9, r4, ror #4
     674:	72616d6e 	rsbvc	r6, r1, #7040	; 0x1b80
     678:	656e6974 	strbvs	r6, [lr, #-2420]!	; 0xfffff68c
     67c:	72702f7a 	rsbsvc	r2, r0, #488	; 0x1e8
     680:	63656a6f 	cmnvs	r5, #454656	; 0x6f000
     684:	632f7374 			; <UNDEFINED> instruction: 0x632f7374
     688:	30343173 	eorscc	r3, r4, r3, ror r1
     68c:	31322d65 	teqcc	r2, r5, ror #26
     690:	2f727073 	svccs	0x00727073
     694:	7062696c 	rsbvc	r6, r2, ip, ror #18
     698:	6e692f69 	cdpvs	15, 6, cr2, cr9, cr9, {3}
     69c:	64756c63 	ldrbtvs	r6, [r5], #-3171	; 0xfffff39d
     6a0:	70000065 	andvc	r0, r0, r5, rrx
     6a4:	2e6b7475 	mcrcs	4, 3, r7, cr11, cr5, {3}
     6a8:	00010063 	andeq	r0, r1, r3, rrx
     6ac:	69707200 	ldmdbvs	r0!, {r9, ip, sp, lr}^
     6b0:	0200682e 	andeq	r6, r0, #3014656	; 0x2e0000
     6b4:	05000000 	streq	r0, [r0, #-0]
     6b8:	02050022 	andeq	r0, r5, #34, 0	; 0x22
     6bc:	000085e0 	andeq	r8, r0, r0, ror #11
     6c0:	05010615 	streq	r0, [r1, #-1557]	; 0xfffff9eb
     6c4:	054b0605 	strbeq	r0, [fp, #-1541]	; 0xfffff9fb
     6c8:	0402000b 	streq	r0, [r2], #-11
     6cc:	05050101 	streq	r0, [r5, #-257]	; 0xfffffeff
     6d0:	01040200 	mrseq	r0, R12_usr
     6d4:	09052e06 	stmdbeq	r5, {r1, r2, r9, sl, fp, sp}
     6d8:	02040200 	andeq	r0, r4, #0, 4
     6dc:	0f054b06 	svceq	0x00054b06
     6e0:	02040200 	andeq	r0, r4, #0, 4
     6e4:	00100565 	andseq	r0, r0, r5, ror #10
     6e8:	06020402 	streq	r0, [r2], -r2, lsl #8
     6ec:	04020001 	streq	r0, [r2], #-1
     6f0:	05052e02 	streq	r2, [r5, #-3586]	; 0xfffff1fe
     6f4:	01053206 	tsteq	r5, r6, lsl #4
     6f8:	06021306 	streq	r1, [r2], -r6, lsl #6
     6fc:	c5010100 	strgt	r0, [r1, #-256]	; 0xffffff00
     700:	03000005 	movweq	r0, #5
     704:	0000ff00 	andeq	pc, r0, r0, lsl #30
     708:	fb010200 	blx	40f12 <__bss_end__+0x3703a>
     70c:	01000d0e 	tsteq	r0, lr, lsl #26
     710:	00010101 	andeq	r0, r1, r1, lsl #2
     714:	00010000 	andeq	r0, r1, r0
     718:	696c0100 	stmdbvs	ip!, {r8}^
     71c:	2f006362 	svccs	0x00006362
     720:	2f727375 	svccs	0x00727375
     724:	61636f6c 	cmnvs	r3, ip, ror #30
     728:	65432f6c 	strbvs	r2, [r3, #-3948]	; 0xfffff094
     72c:	72616c6c 	rsbvc	r6, r1, #108, 24	; 0x6c00
     730:	6d72612f 	ldfvse	f6, [r2, #-188]!	; 0xffffff44
     734:	6e6f6e2d 	cdpvs	14, 6, cr6, cr15, cr13, {1}
     738:	61652d65 	cmnvs	r5, r5, ror #26
     73c:	742d6962 	strtvc	r6, [sp], #-2402	; 0xfffff69e
     740:	2f747365 	svccs	0x00747365
     744:	30322d39 	eorscc	r2, r2, r9, lsr sp
     748:	34713931 	ldrbtcc	r3, [r1], #-2353	; 0xfffff6cf
     74c:	3173632d 	cmncc	r3, sp, lsr #6
     750:	2f653730 	svccs	0x00653730
     754:	2f62696c 	svccs	0x0062696c
     758:	2f636367 	svccs	0x00636367
     75c:	2d6d7261 	sfmcs	f7, 2, [sp, #-388]!	; 0xfffffe7c
     760:	656e6f6e 	strbvs	r6, [lr, #-3950]!	; 0xfffff092
     764:	6261652d 	rsbvs	r6, r1, #188743680	; 0xb400000
     768:	2e392f69 	cdpcs	15, 3, cr2, cr9, cr9, {3}
     76c:	2f312e32 	svccs	0x00312e32
     770:	6c636e69 	stclvs	14, cr6, [r3], #-420	; 0xfffffe5c
     774:	00656475 	rsbeq	r6, r5, r5, ror r4
     778:	6573552f 	ldrbvs	r5, [r3, #-1327]!	; 0xfffffad1
     77c:	612f7372 			; <UNDEFINED> instruction: 0x612f7372
     780:	61697264 	cmnvs	r9, r4, ror #4
     784:	72616d6e 	rsbvc	r6, r1, #7040	; 0x1b80
     788:	656e6974 	strbvs	r6, [lr, #-2420]!	; 0xfffff68c
     78c:	72702f7a 	rsbsvc	r2, r0, #488	; 0x1e8
     790:	63656a6f 	cmnvs	r5, #454656	; 0x6f000
     794:	632f7374 			; <UNDEFINED> instruction: 0x632f7374
     798:	30343173 	eorscc	r3, r4, r3, ror r1
     79c:	31322d65 	teqcc	r2, r5, ror #26
     7a0:	2f727073 	svccs	0x00727073
     7a4:	7062696c 	rsbvc	r6, r2, ip, ror #18
     7a8:	6e692f69 	cdpvs	15, 6, cr2, cr9, cr9, {3}
     7ac:	64756c63 	ldrbtvs	r6, [r5], #-3171	; 0xfffff39d
     7b0:	76000065 	strvc	r0, [r0], -r5, rrx
     7b4:	72702d61 	rsbsvc	r2, r0, #6208	; 0x1840
     7b8:	6b746e69 	blvs	1d1c164 <__bss_end__+0x1d1228c>
     7bc:	0100632e 	tsteq	r0, lr, lsr #6
     7c0:	74730000 	ldrbtvc	r0, [r3], #-0
     7c4:	746e6964 	strbtvc	r6, [lr], #-2404	; 0xfffff69c
     7c8:	6363672d 	cmnvs	r3, #11796480	; 0xb40000
     7cc:	0200682e 	andeq	r6, r0, #3014656	; 0x2e0000
     7d0:	70720000 	rsbsvc	r0, r2, r0
     7d4:	00682e69 	rsbeq	r2, r8, r9, ror #28
     7d8:	72000003 	andvc	r0, r0, #3, 0
     7dc:	692d6970 	pushvs	{r4, r5, r6, r8, fp, sp, lr}
     7e0:	7265746e 	rsbvc	r7, r5, #1845493760	; 0x6e000000
     7e4:	2e6c616e 	powcsez	f6, f4, #0.5
     7e8:	00030068 	andeq	r0, r3, r8, rrx
     7ec:	64747300 	ldrbtvs	r7, [r4], #-768	; 0xfffffd00
     7f0:	2e677261 	cdpcs	2, 6, cr7, cr7, cr1, {3}
     7f4:	00020068 	andeq	r0, r2, r8, rrx
     7f8:	75623c00 	strbvc	r3, [r2, #-3072]!	; 0xfffff400
     7fc:	2d746c69 	ldclcs	12, cr6, [r4, #-420]!	; 0xfffffe5c
     800:	003e6e69 	eorseq	r6, lr, r9, ror #28
     804:	00000000 	andeq	r0, r0, r0
     808:	05001b05 	streq	r1, [r0, #-2821]	; 0xfffff4fb
     80c:	00861402 	addeq	r1, r6, r2, lsl #8
     810:	01260300 			; <UNDEFINED> instruction: 0x01260300
     814:	05011d05 	streq	r1, [r1, #-3333]	; 0xfffff2fb
     818:	0501062d 	streq	r0, [r1, #-1581]	; 0xfffff9d3
     81c:	054a2e01 	strbeq	r2, [sl, #-3585]	; 0xfffff1ff
     820:	05510633 	ldrbeq	r0, [r1, #-1587]	; 0xfffff9cd
     824:	06051302 	streq	r1, [r5], -r2, lsl #6
     828:	02050106 	andeq	r0, r5, #-2147483647	; 0x80000001
     82c:	08053006 	stmdaeq	r5, {r1, r2, ip, sp}
     830:	01040200 	mrseq	r0, R12_usr
     834:	00020501 	andeq	r0, r2, r1, lsl #10
     838:	06010402 	streq	r0, [r1], -r2, lsl #8
     83c:	00030501 	andeq	r0, r3, r1, lsl #10
     840:	06020402 	streq	r0, [r2], -r2, lsl #8
     844:	0008052f 	andeq	r0, r8, pc, lsr #10
     848:	06020402 	streq	r0, [r2], -r2, lsl #8
     84c:	00150501 	andseq	r0, r5, r1, lsl #10
     850:	06020402 	streq	r0, [r2], -r2, lsl #8
     854:	00180549 	andseq	r0, r8, r9, asr #10
     858:	06020402 	streq	r0, [r2], -r2, lsl #8
     85c:	04020001 	streq	r0, [r2], #-1
     860:	02052e02 	andeq	r2, r5, #2, 28
     864:	05053006 	streq	r3, [r5, #-6]
     868:	02050106 	andeq	r0, r5, #-2147483647	; 0x80000001
     86c:	01054b06 	tsteq	r5, r6, lsl #22
     870:	3e051306 	cdpcc	3, 0, cr1, cr5, cr6, {0}
     874:	02053106 	andeq	r3, r5, #-2147483647	; 0x80000001
     878:	060e0514 			; <UNDEFINED> instruction: 0x060e0514
     87c:	2e060501 	cfsh32cs	mvfx0, mvfx6, #1
     880:	2f060205 	svccs	0x00060205
     884:	01060405 	tsteq	r6, r5, lsl #8
     888:	2f060305 	svccs	0x00060305
     88c:	01061105 	tsteq	r6, r5, lsl #2
     890:	052e0905 	streq	r0, [lr, #-2309]!	; 0xfffff6fb
     894:	15300602 	ldrne	r0, [r0, #-1538]!	; 0xfffff9fe
     898:	01060705 	tsteq	r6, r5, lsl #14
     89c:	052e0205 	streq	r0, [lr, #-517]!	; 0xfffffdfb
     8a0:	0402000b 	streq	r0, [r2], #-11
     8a4:	052e0601 	streq	r0, [lr, #-1537]!	; 0xfffff9ff
     8a8:	04020002 	streq	r0, [r2], #-2
     8ac:	05010601 	streq	r0, [r1, #-1537]	; 0xfffff9ff
     8b0:	04020003 	streq	r0, [r2], #-3
     8b4:	052f0603 	streq	r0, [pc, #-1539]!	; 2b9 <__code_start__-0x7d47>
     8b8:	0402000c 	streq	r0, [r2], #-12
     8bc:	05010603 	streq	r0, [r1, #-1539]	; 0xfffff9fd
     8c0:	0402000a 	streq	r0, [r2], #-10
     8c4:	17052e03 	strne	r2, [r5, -r3, lsl #28]
     8c8:	03040200 	movweq	r0, #16896	; 0x4200
     8cc:	02002d06 	andeq	r2, r0, #384	; 0x180
     8d0:	01060304 	tsteq	r6, r4, lsl #6
     8d4:	30060205 	andcc	r0, r6, r5, lsl #4
     8d8:	01060905 	tsteq	r6, r5, lsl #18
     8dc:	0602052e 	streq	r0, [r2], -lr, lsr #10
     8e0:	06010530 			; <UNDEFINED> instruction: 0x06010530
     8e4:	06490513 			; <UNDEFINED> instruction: 0x06490513
     8e8:	05010631 	streq	r0, [r1, #-1585]	; 0xfffff9cf
     8ec:	05a00602 	streq	r0, [r0, #1538]!	; 0x602
     8f0:	05010604 	streq	r0, [r1, #-1540]	; 0xfffff9fc
     8f4:	052f0603 	streq	r0, [pc, #-1539]!	; 2f9 <__code_start__-0x7d07>
     8f8:	05010609 	streq	r0, [r1, #-1545]	; 0xfffff9f7
     8fc:	13300602 	teqne	r0, #2097152	; 0x200000
     900:	01060b05 	tsteq	r6, r5, lsl #22
     904:	30060205 	andcc	r0, r6, r5, lsl #4
     908:	04052e06 	streq	r2, [r5], #-3590	; 0xfffff1fa
     90c:	15240206 	strne	r0, [r4, #-518]!	; 0xfffffdfa
     910:	060f0513 			; <UNDEFINED> instruction: 0x060f0513
     914:	06052e01 	streq	r2, [r5], -r1, lsl #28
     918:	0605054a 	streq	r0, [r5], -sl, asr #10
     91c:	0905134b 	stmdbeq	r5, {r0, r1, r3, r6, r8, r9, ip}
     920:	05050106 	streq	r0, [r5, #-262]	; 0xfffffefa
     924:	0b052f06 	bleq	14c544 <__bss_end__+0x14266c>
     928:	0d051006 	stceq	0, cr1, [r5, #-24]	; 0xffffffe8
     92c:	01040200 	mrseq	r0, R12_usr
     930:	0004052c 	andeq	r0, r4, ip, lsr #10
     934:	06010402 	streq	r0, [r1], -r2, lsl #8
     938:	00050534 	andeq	r0, r5, r4, lsr r5
     93c:	13010402 	movwne	r0, #5122	; 0x1402
     940:	02001b05 	andeq	r1, r0, #5120	; 0x1400
     944:	01060104 	tsteq	r6, r4, lsl #2
     948:	02000705 	andeq	r0, r0, #1310720	; 0x140000
     94c:	05d60104 	ldrbeq	r0, [r6, #260]	; 0x104
     950:	04020018 	streq	r0, [r2], #-24	; 0xffffffe8
     954:	0a052e01 	beq	14c160 <__bss_end__+0x142288>
     958:	01040200 	mrseq	r0, R12_usr
     95c:	000b054a 	andeq	r0, fp, sl, asr #10
     960:	06010402 	streq	r0, [r1], -r2, lsl #8
     964:	000e052f 	andeq	r0, lr, pc, lsr #10
     968:	06010402 	streq	r0, [r1], -r2, lsl #8
     96c:	0004052e 	andeq	r0, r4, lr, lsr #10
     970:	2e010402 	cdpcs	4, 0, cr0, cr1, cr2, {0}
     974:	06054b06 	streq	r4, [r5], -r6, lsl #22
     978:	05050106 	streq	r0, [r5, #-262]	; 0xfffffefa
     97c:	0a052f06 	beq	14c59c <__bss_end__+0x1426c4>
     980:	07050106 	streq	r0, [r5, -r6, lsl #2]
     984:	0d052e4a 	stceq	14, cr2, [r5, #-296]	; 0xfffffed8
     988:	4a2e7603 	bmi	b9e19c <__bss_end__+0xb942c4>
     98c:	050d0b05 	streq	r0, [sp, #-2821]	; 0xfffff4fb
     990:	0402000d 	streq	r0, [r2], #-13
     994:	14030601 	strne	r0, [r3], #-1537	; 0xfffff9ff
     998:	0011052e 	andseq	r0, r1, lr, lsr #10
     99c:	13010402 	movwne	r0, #5122	; 0x1402
     9a0:	02002d05 	andeq	r2, r0, #320	; 0x140
     9a4:	01060104 	tsteq	r6, r4, lsl #2
     9a8:	02002a05 	andeq	r2, r0, #20480	; 0x5000
     9ac:	052e0104 	streq	r0, [lr, #-260]!	; 0xfffffefc
     9b0:	04020016 	streq	r0, [r2], #-22	; 0xffffffea
     9b4:	14054a01 	strne	r4, [r5], #-2561	; 0xfffff5ff
     9b8:	01040200 	mrseq	r0, R12_usr
     9bc:	0d054b06 	vstreq	d4, [r5, #-24]	; 0xffffffe8
     9c0:	01040200 	mrseq	r0, R12_usr
     9c4:	02000106 	andeq	r0, r0, #-2147483647	; 0x80000001
     9c8:	064a0104 	strbeq	r0, [sl], -r4, lsl #2
     9cc:	0612052f 	ldreq	r0, [r2], -pc, lsr #10
     9d0:	0d054a01 	vstreq	s8, [r5, #-4]
     9d4:	12052f06 	andne	r2, r5, #6, 30
     9d8:	19050106 	stmdbne	r5, {r1, r2, r8}
     9dc:	04054b06 	streq	r4, [r5], #-2822	; 0xfffff4fa
     9e0:	02040200 	andeq	r0, r4, #0, 4
     9e4:	00011103 	andeq	r1, r1, r3, lsl #2
     9e8:	01020402 	tsteq	r2, r2, lsl #8
     9ec:	02000205 	andeq	r0, r0, #1342177280	; 0x50000000
     9f0:	05150204 	ldreq	r0, [r5, #-516]	; 0xfffffdfc
     9f4:	04020009 	streq	r0, [r2], #-9
     9f8:	00010602 	andeq	r0, r1, r2, lsl #12
     9fc:	4a020402 	bmi	81a0c <__bss_end__+0x77b34>
     a00:	02000105 	andeq	r0, r0, #1073741825	; 0x40000001
     a04:	059f0204 	ldreq	r0, [pc, #516]	; c10 <__code_start__-0x73f0>
     a08:	6e030604 	cfmadd32vs	mvax0, mvfx0, mvfx3, mvfx4
     a0c:	0609054a 	streq	r0, [r9], -sl, asr #10
     a10:	06040501 	streq	r0, [r4], -r1, lsl #10
     a14:	0606052f 	streq	r0, [r6], -pc, lsr #10
     a18:	2f040511 	svccs	0x00040511
     a1c:	63030b05 	movwvs	r0, #15109	; 0x3b05
     a20:	0019052e 	andseq	r0, r9, lr, lsr #10
     a24:	06010402 	streq	r0, [r1], -r2, lsl #8
     a28:	052e2403 	streq	r2, [lr, #-1027]!	; 0xfffffbfd
     a2c:	0402001a 	streq	r0, [r2], #-26	; 0xffffffe6
     a30:	28051301 	stmdacs	r5, {r0, r8, r9, ip}
     a34:	01040200 	mrseq	r0, R12_usr
     a38:	25050106 	strcs	r0, [r5, #-262]	; 0xfffffefa
     a3c:	01040200 	mrseq	r0, R12_usr
     a40:	001f052e 	andseq	r0, pc, lr, lsr #10
     a44:	4a010402 	bmi	41a54 <__bss_end__+0x37b7c>
     a48:	02000b05 	andeq	r0, r0, #5120	; 0x1400
     a4c:	4b060104 	blmi	180e64 <__bss_end__+0x176f8c>
     a50:	02000405 	andeq	r0, r0, #83886080	; 0x5000000
     a54:	01060104 	tsteq	r6, r4, lsl #2
     a58:	01040200 	mrseq	r0, R12_usr
     a5c:	0402004a 	streq	r0, [r2], #-74	; 0xffffffb6
     a60:	004e0601 	subeq	r0, lr, r1, lsl #12
     a64:	01010402 	tsteq	r1, r2, lsl #8
     a68:	01040200 	mrseq	r0, R12_usr
     a6c:	04020001 	streq	r0, [r2], #-1
     a70:	02000101 	andeq	r0, r0, #1073741824	; 0x40000000
     a74:	2e060104 	adfcss	f0, f6, f4
     a78:	01040200 	mrseq	r0, R12_usr
     a7c:	04020066 	streq	r0, [r2], #-102	; 0xffffff9a
     a80:	02002e01 	andeq	r2, r0, #1, 28
     a84:	4a060104 	bmi	180e9c <__bss_end__+0x176fc4>
     a88:	a6034805 	strge	r4, [r3], -r5, lsl #16
     a8c:	0520087f 	streq	r0, [r0, #-2175]!	; 0xfffff781
     a90:	06011305 	streq	r1, [r1], -r5, lsl #6
     a94:	0402002e 	streq	r0, [r2], #-46	; 0xffffffd2
     a98:	002e0602 	eoreq	r0, lr, r2, lsl #12
     a9c:	01020402 	tsteq	r2, r2, lsl #8
     aa0:	02040200 	andeq	r0, r4, #0, 4
     aa4:	00110513 	andseq	r0, r1, r3, lsl r5
     aa8:	06020402 	streq	r0, [r2], -r2, lsl #8
     aac:	00050501 	andeq	r0, r5, r1, lsl #10
     ab0:	06020402 	streq	r0, [r2], -r2, lsl #8
     ab4:	0007054b 	andeq	r0, r7, fp, asr #10
     ab8:	06020402 	streq	r0, [r2], -r2, lsl #8
     abc:	06090501 	streq	r0, [r9], -r1, lsl #10
     ac0:	060e054b 	streq	r0, [lr], -fp, asr #10
     ac4:	00480501 	subeq	r0, r8, r1, lsl #10
     ac8:	62010402 	andvs	r0, r1, #33554432	; 0x2000000
     acc:	02000505 	andeq	r0, r0, #20971520	; 0x1400000
     ad0:	4b060104 	blmi	180ee8 <__bss_end__+0x177010>
     ad4:	01040200 	mrseq	r0, R12_usr
     ad8:	04020001 	streq	r0, [r2], #-1
     adc:	009e0601 	addseq	r0, lr, r1, lsl #12
     ae0:	2e010402 	cdpcs	4, 0, cr0, cr1, cr2, {0}
     ae4:	01040200 	mrseq	r0, R12_usr
     ae8:	40052e06 	andmi	r2, r5, r6, lsl #28
     aec:	d600e103 	strle	lr, [r0], -r3, lsl #2
     af0:	02050106 	andeq	r0, r5, #-2147483647	; 0x80000001
     af4:	1e059f06 	cdpne	15, 0, cr9, cr5, cr6, {0}
     af8:	12050106 	andne	r0, r5, #-2147483647	; 0x80000001
     afc:	0605052e 	streq	r0, [r5], -lr, lsr #10
     b00:	1402052f 	strne	r0, [r2], #-1327	; 0xfffffad1
     b04:	01060905 	tsteq	r6, r5, lsl #18
     b08:	4b060505 	blmi	181f24 <__bss_end__+0x17804c>
     b0c:	05130205 	ldreq	r0, [r3, #-517]	; 0xfffffdfb
     b10:	050d0608 	streq	r0, [sp, #-1544]	; 0xfffff9f8
     b14:	04053302 	streq	r3, [r5], #-770	; 0xfffffcfe
     b18:	0f054c06 	svceq	0x00054c06
     b1c:	09050106 	stmdbeq	r5, {r1, r2, r8}
     b20:	0608052e 	streq	r0, [r8], -lr, lsr #10
     b24:	0602052c 	streq	r0, [r2], -ip, lsr #10
     b28:	000d052e 	andeq	r0, sp, lr, lsr #10
     b2c:	4a010402 	bmi	41b3c <__bss_end__+0x37c64>
     b30:	4b060305 	blmi	18174c <__bss_end__+0x177874>
     b34:	01060505 	tsteq	r6, r5, lsl #10
     b38:	4d060805 	stcmi	8, cr0, [r6, #-20]	; 0xffffffec
     b3c:	01060e05 	tsteq	r6, r5, lsl #28
     b40:	052e0a05 	streq	r0, [lr, #-2565]!	; 0xfffff5fb
     b44:	052f0604 	streq	r0, [pc, #-1540]!	; 548 <__code_start__-0x7ab8>
     b48:	05010609 	streq	r0, [r1, #-1545]	; 0xfffff9f7
     b4c:	052f0604 	streq	r0, [pc, #-1540]!	; 550 <__code_start__-0x7ab0>
     b50:	2e010607 	cfmadd32cs	mvax0, mvfx0, mvfx1, mvfx7
     b54:	30060405 	andcc	r0, r6, r5, lsl #8
     b58:	01060705 	tsteq	r6, r5, lsl #14
     b5c:	30060405 	andcc	r0, r6, r5, lsl #8
     b60:	0d051413 	cfstrseq	mvf1, [r5, #-76]	; 0xffffffb4
     b64:	09051006 	stmdbeq	r5, {r1, r2, ip}
     b68:	12053006 	andne	r3, r5, #6, 0
     b6c:	0a050106 	beq	140f8c <__bss_end__+0x1370b4>
     b70:	6609052e 	strvs	r0, [r9], -lr, lsr #10
     b74:	4b060505 	blmi	181f90 <__bss_end__+0x1780b8>
     b78:	01061205 	tsteq	r6, r5, lsl #4
     b7c:	052e1605 	streq	r1, [lr, #-1541]!	; 0xfffff9fb
     b80:	05052e0b 	streq	r2, [r5, #-3595]	; 0xfffff1f5
     b84:	08052f06 	stmdaeq	r5, {r1, r2, r8, r9, sl, fp, sp}
     b88:	052e0106 	streq	r0, [lr, #-262]!	; 0xfffffefa
     b8c:	01300604 	teqeq	r0, r4, lsl #12
     b90:	0015014a 	andseq	r0, r5, sl, asr #2
     b94:	02010402 	andeq	r0, r1, #33554432	; 0x2000000
     b98:	02000f36 	andeq	r0, r0, #216	; 0xd8
     b9c:	00010104 	andeq	r0, r1, r4, lsl #2
     ba0:	d6010402 	strle	r0, [r1], -r2, lsl #8
     ba4:	01331105 	teqeq	r3, r5, lsl #2
     ba8:	02040200 	andeq	r0, r4, #0, 4
     bac:	040200ba 	streq	r0, [r2], #-186	; 0xffffff46
     bb0:	02000102 	andeq	r0, r0, #-2147483648	; 0x80000000
     bb4:	05130204 	ldreq	r0, [r3, #-516]	; 0xfffffdfc
     bb8:	04020015 	streq	r0, [r2], #-21	; 0xffffffeb
     bbc:	05010602 	streq	r0, [r1, #-1538]	; 0xfffff9fe
     bc0:	04020011 	streq	r0, [r2], #-17	; 0xffffffef
     bc4:	052f0602 	streq	r0, [pc, #-1538]!	; 5ca <__code_start__-0x7a36>
     bc8:	0402001a 	streq	r0, [r2], #-26	; 0xffffffe6
     bcc:	05010602 	streq	r0, [r1, #-1538]	; 0xfffff9fe
     bd0:	04020011 	streq	r0, [r2], #-17	; 0xffffffef
     bd4:	00d70602 	sbcseq	r0, r7, r2, lsl #12
     bd8:	13020402 	movwne	r0, #9218	; 0x2402
     bdc:	02000505 	andeq	r0, r0, #20971520	; 0x1400000
     be0:	05170204 	ldreq	r0, [r7, #-516]	; 0xfffffdfc
     be4:	04020009 	streq	r0, [r2], #-9
     be8:	00010602 	andeq	r0, r1, r2, lsl #12
     bec:	d6020402 	strle	r0, [r2], -r2, lsl #8
     bf0:	02000505 	andeq	r0, r0, #20971520	; 0x1400000
     bf4:	30060204 	andcc	r0, r6, r4, lsl #4
     bf8:	02040200 	andeq	r0, r4, #0, 4
     bfc:	1105ba06 	tstne	r5, r6, lsl #20
     c00:	02040200 	andeq	r0, r4, #0, 4
     c04:	02002f06 	andeq	r2, r0, #6, 30
     c08:	00670204 	rsbeq	r0, r7, r4, lsl #4
     c0c:	03010402 	movweq	r0, #5122	; 0x1402
     c10:	02002e73 	andeq	r2, r0, #1840	; 0x730
     c14:	00010104 	andeq	r0, r1, r4, lsl #2
     c18:	d6010402 	strle	r0, [r1], -r2, lsl #8
     c1c:	12030505 	andne	r0, r3, #20971520	; 0x1400000
     c20:	2e9e012e 	fmlcsep	f0, f6, #0.5
     c24:	05010e03 	streq	r0, [r1, #-3587]	; 0xfffff1fd
     c28:	05010609 	streq	r0, [r1, #-1545]	; 0xfffff9f7
     c2c:	75080605 	strvc	r0, [r8, #-1541]	; 0xfffff9fb
     c30:	04050106 	streq	r0, [r5], #-262	; 0xfffffefa
     c34:	01180306 	tsteq	r8, r6, lsl #6
     c38:	01060705 	tsteq	r6, r5, lsl #14
     c3c:	31060405 	tstcc	r6, r5, lsl #8
     c40:	67030505 	strvs	r0, [r3, -r5, lsl #10]
     c44:	061c052e 	ldreq	r0, [ip], -lr, lsr #10
     c48:	82090501 	andhi	r0, r9, #4194304	; 0x400000
     c4c:	f3060505 	vrshl.u8	d0, d5, d6
     c50:	061c0531 			; <UNDEFINED> instruction: 0x061c0531
     c54:	82090501 	andhi	r0, r9, #4194304	; 0x400000
     c58:	f3060505 	vrshl.u8	d0, d5, d6
     c5c:	061b0530 			; <UNDEFINED> instruction: 0x061b0530
     c60:	82090501 	andhi	r0, r9, #4194304	; 0x400000
     c64:	f3060505 	vrshl.u8	d0, d5, d6
     c68:	06070530 			; <UNDEFINED> instruction: 0x06070530
     c6c:	06050501 	streq	r0, [r5], -r1, lsl #10
     c70:	09053083 	stmdbeq	r5, {r0, r1, r7, ip, sp}
     c74:	05050106 	streq	r0, [r5, #-262]	; 0xfffffefa
     c78:	05750806 	ldrbeq	r0, [r5, #-2054]!	; 0xfffff7fa
     c7c:	22053011 	andcs	r3, r5, #17, 0
     c80:	05050106 	streq	r0, [r5, #-262]	; 0xfffffefa
     c84:	11054b06 	tstne	r5, r6, lsl #22
     c88:	83050583 	movwhi	r0, #21891	; 0x5583
     c8c:	2e069e01 	cdpcs	14, 0, cr9, cr6, cr1, {0}
     c90:	0e051906 	vmlaeq.f16	s2, s10, s12	; <UNPREDICTABLE>
     c94:	0a050106 	beq	1410b4 <__bss_end__+0x1371dc>
     c98:	052d062e 	streq	r0, [sp, #-1582]!	; 0xfffff9d2
     c9c:	05010604 	streq	r0, [r1, #-1540]	; 0xfffff9fc
     ca0:	04020013 	streq	r0, [r2], #-19	; 0xffffffed
     ca4:	10054a01 	andne	r4, r5, r1, lsl #20
     ca8:	01040200 	mrseq	r0, R12_usr
     cac:	0402002e 	streq	r0, [r2], #-46	; 0xffffffd2
     cb0:	02056601 	andeq	r6, r5, #1048576	; 0x100000
     cb4:	07051606 	streq	r1, [r5, -r6, lsl #12]
     cb8:	02050106 	andeq	r0, r5, #-2147483647	; 0x80000001
     cbc:	01054b06 	tsteq	r5, r6, lsl #22
     cc0:	02661306 	rsbeq	r1, r6, #402653184	; 0x18000000
     cc4:	01010014 	tsteq	r1, r4, lsl r0
     cc8:	0000008d 	andeq	r0, r0, sp, lsl #1
     ccc:	00720003 	rsbseq	r0, r2, r3
     cd0:	01020000 	mrseq	r0, (UNDEF: 2)
     cd4:	000d0efb 	strdeq	r0, [sp], -fp
     cd8:	01010101 	tsteq	r1, r1, lsl #2
     cdc:	01000000 	mrseq	r0, (UNDEF: 0)
     ce0:	73010000 	movwvc	r0, #4096	; 0x1000
     ce4:	66666174 			; <UNDEFINED> instruction: 0x66666174
     ce8:	6372732d 	cmnvs	r2, #-1275068416	; 0xb4000000
     cec:	73552f00 	cmpvc	r5, #0, 30
     cf0:	2f737265 	svccs	0x00737265
     cf4:	69726461 	ldmdbvs	r2!, {r0, r5, r6, sl, sp, lr}^
     cf8:	616d6e61 	cmnvs	sp, r1, ror #28
     cfc:	6e697472 	mcrvs	4, 3, r7, cr9, cr2, {3}
     d00:	702f7a65 	eorvc	r7, pc, r5, ror #20
     d04:	656a6f72 	strbvs	r6, [sl, #-3954]!	; 0xfffff08e
     d08:	2f737463 	svccs	0x00737463
     d0c:	34317363 	ldrtcc	r7, [r1], #-867	; 0xfffffc9d
     d10:	322d6530 	eorcc	r6, sp, #48, 10	; 0xc000000
     d14:	72707331 	rsbsvc	r7, r0, #-1006632960	; 0xc4000000
     d18:	62696c2f 	rsbvs	r6, r9, #12032	; 0x2f00
     d1c:	692f6970 	stmdbvs	pc!, {r4, r5, r6, r8, fp, sp, lr}	; <UNPREDICTABLE>
     d20:	756c636e 	strbvc	r6, [ip, #-878]!	; 0xfffffc92
     d24:	00006564 	andeq	r6, r0, r4, ror #10
     d28:	61656c63 	cmnvs	r5, r3, ror #24
     d2c:	65722d6e 	ldrbvs	r2, [r2, #-3438]!	; 0xfffff292
     d30:	746f6f62 	strbtvc	r6, [pc], #-3938	; d38 <__code_start__-0x72c8>
     d34:	0100632e 	tsteq	r0, lr, lsr #6
     d38:	70720000 	rsbsvc	r0, r2, r0
     d3c:	00682e69 	rsbeq	r2, r8, r9, ror #28
     d40:	00000002 	andeq	r0, r0, r2
     d44:	05001905 	streq	r1, [r0, #-2309]	; 0xfffff6fb
     d48:	008c4002 	addeq	r4, ip, r2
     d4c:	05051500 	streq	r1, [r5, #-1280]	; 0xfffffb00
     d50:	4b2f832f 	blmi	be1a14 <__bss_end__+0xbd7b3c>
     d54:	01000602 	tsteq	r0, r2, lsl #12
     d58:	0000a201 	andeq	sl, r0, r1, lsl #4
     d5c:	6c000300 	stcvs	3, cr0, [r0], {-0}
     d60:	02000000 	andeq	r0, r0, #0, 0
     d64:	0d0efb01 	vstreq	d15, [lr, #-4]
     d68:	01010100 	mrseq	r0, (UNDEF: 17)
     d6c:	00000001 	andeq	r0, r0, r1
     d70:	01000001 	tsteq	r0, r1
     d74:	66617473 			; <UNDEFINED> instruction: 0x66617473
     d78:	72732d66 	rsbsvc	r2, r3, #6528	; 0x1980
     d7c:	552f0063 	strpl	r0, [pc, #-99]!	; d21 <__code_start__-0x72df>
     d80:	73726573 	cmnvc	r2, #482344960	; 0x1cc00000
     d84:	7264612f 	rsbvc	r6, r4, #-1073741813	; 0xc000000b
     d88:	6d6e6169 	stfvse	f6, [lr, #-420]!	; 0xfffffe5c
     d8c:	69747261 	ldmdbvs	r4!, {r0, r5, r6, r9, ip, sp, lr}^
     d90:	2f7a656e 	svccs	0x007a656e
     d94:	6a6f7270 	bvs	1bdd75c <__bss_end__+0x1bd3884>
     d98:	73746365 	cmnvc	r4, #-1811939327	; 0x94000001
     d9c:	3173632f 	cmncc	r3, pc, lsr #6
     da0:	2d653034 	stclcs	0, cr3, [r5, #-208]!	; 0xffffff30
     da4:	70733132 	rsbsvc	r3, r3, r2, lsr r1
     da8:	696c2f72 	stmdbvs	ip!, {r1, r4, r5, r6, r8, r9, sl, fp, sp}^
     dac:	2f697062 	svccs	0x00697062
     db0:	6c636e69 	stclvs	14, cr6, [r3], #-420	; 0xfffffe5c
     db4:	00656475 	rsbeq	r6, r5, r5, ror r4
     db8:	74736300 	ldrbtvc	r6, [r3], #-768	; 0xfffffd00
     dbc:	2e747261 	cdpcs	2, 7, cr7, cr4, cr1, {3}
     dc0:	00010063 	andeq	r0, r1, r3, rrx
     dc4:	69707200 	ldmdbvs	r0!, {r9, ip, sp, lr}^
     dc8:	0200682e 	andeq	r6, r0, #3014656	; 0x2e0000
     dcc:	05000000 	streq	r0, [r0, #-0]
     dd0:	02050010 	andeq	r0, r5, #16, 0
     dd4:	00008c6c 	andeq	r8, r0, ip, ror #24
     dd8:	2f050514 	svccs	0x00050514
     ddc:	05130205 	ldreq	r0, [r3, #-517]	; 0xfffffdfb
     de0:	13301405 	teqne	r0, #83886080	; 0x5000000
     de4:	060a0514 			; <UNDEFINED> instruction: 0x060a0514
     de8:	0531060f 	ldreq	r0, [r1, #-1551]!	; 0xfffff9f1
     dec:	10054b09 	andne	r4, r5, r9, lsl #22
     df0:	054a0106 	strbeq	r0, [sl, #-262]	; 0xfffffefa
     df4:	05300605 	ldreq	r0, [r0, #-1541]!	; 0xfffff9fb
     df8:	06022f02 	streq	r2, [r2], -r2, lsl #30
     dfc:	8b010100 	blhi	41204 <__bss_end__+0x3732c>
     e00:	03000000 	movweq	r0, #0
     e04:	00007300 	andeq	r7, r0, r0, lsl #6
     e08:	fb010200 	blx	41612 <__bss_end__+0x3773a>
     e0c:	01000d0e 	tsteq	r0, lr, lsl #26
     e10:	00010101 	andeq	r0, r1, r1, lsl #2
     e14:	00010000 	andeq	r0, r1, r0
     e18:	74730100 	ldrbtvc	r0, [r3], #-256	; 0xffffff00
     e1c:	2d666661 	stclcs	6, cr6, [r6, #-388]!	; 0xfffffe7c
     e20:	00637273 	rsbeq	r7, r3, r3, ror r2
     e24:	6573552f 	ldrbvs	r5, [r3, #-1327]!	; 0xfffffad1
     e28:	612f7372 			; <UNDEFINED> instruction: 0x612f7372
     e2c:	61697264 	cmnvs	r9, r4, ror #4
     e30:	72616d6e 	rsbvc	r6, r1, #7040	; 0x1b80
     e34:	656e6974 	strbvs	r6, [lr, #-2420]!	; 0xfffff68c
     e38:	72702f7a 	rsbsvc	r2, r0, #488	; 0x1e8
     e3c:	63656a6f 	cmnvs	r5, #454656	; 0x6f000
     e40:	632f7374 			; <UNDEFINED> instruction: 0x632f7374
     e44:	30343173 	eorscc	r3, r4, r3, ror r1
     e48:	31322d65 	teqcc	r2, r5, ror #26
     e4c:	2f727073 	svccs	0x00727073
     e50:	7062696c 	rsbvc	r6, r2, ip, ror #18
     e54:	6e692f69 	cdpvs	15, 6, cr2, cr9, cr9, {3}
     e58:	64756c63 	ldrbtvs	r6, [r5], #-3171	; 0xfffff39d
     e5c:	63000065 	movwvs	r0, #101	; 0x65
     e60:	6f747375 	svcvs	0x00747375
     e64:	6f6c2d6d 	svcvs	0x006c2d6d
     e68:	72656461 	rsbvc	r6, r5, #1627389952	; 0x61000000
     e6c:	0100632e 	tsteq	r0, lr, lsr #6
     e70:	70720000 	rsbsvc	r0, r2, r0
     e74:	00682e69 	rsbeq	r2, r8, r9, ror #28
     e78:	00000002 	andeq	r0, r0, r2
     e7c:	05001a05 	streq	r1, [r0, #-2565]	; 0xfffff5fb
     e80:	008c9c02 	addeq	r9, ip, r2, lsl #24
     e84:	01051500 	tsteq	r5, r0, lsl #10
     e88:	00020214 	andeq	r0, r2, r4, lsl r2
     e8c:	00dc0101 	sbcseq	r0, ip, r1, lsl #2
     e90:	00030000 	andeq	r0, r3, r0
     e94:	0000006c 	andeq	r0, r0, ip, rrx
     e98:	0efb0102 	cdpeq	1, 15, cr0, cr11, cr2, {0}
     e9c:	0101000d 	tsteq	r1, sp
     ea0:	00000101 	andeq	r0, r0, r1, lsl #2
     ea4:	00000100 	andeq	r0, r0, r0, lsl #2
     ea8:	61747301 	cmnvs	r4, r1, lsl #6
     eac:	732d6666 			; <UNDEFINED> instruction: 0x732d6666
     eb0:	2f006372 	svccs	0x00006372
     eb4:	72657355 	rsbvc	r7, r5, #1409286145	; 0x54000001
     eb8:	64612f73 	strbtvs	r2, [r1], #-3955	; 0xfffff08d
     ebc:	6e616972 			; <UNDEFINED> instruction: 0x6e616972
     ec0:	7472616d 	ldrbtvc	r6, [r2], #-365	; 0xfffffe93
     ec4:	7a656e69 	bvc	195c870 <__bss_end__+0x1952998>
     ec8:	6f72702f 	svcvs	0x0072702f
     ecc:	7463656a 	strbtvc	r6, [r3], #-1386	; 0xfffffa96
     ed0:	73632f73 	cmnvc	r3, #460	; 0x1cc
     ed4:	65303431 	ldrvs	r3, [r0, #-1073]!	; 0xfffffbcf
     ed8:	7331322d 	teqvc	r1, #-805306366	; 0xd0000002
     edc:	6c2f7270 	sfmvs	f7, 4, [pc], #-448	; d24 <__code_start__-0x72dc>
     ee0:	69706269 	ldmdbvs	r0!, {r0, r3, r5, r6, r9, sp, lr}^
     ee4:	636e692f 	cmnvs	lr, #770048	; 0xbc000
     ee8:	6564756c 	strbvs	r7, [r4, #-1388]!	; 0xfffffa94
     eec:	65720000 	ldrbvs	r0, [r2, #-0]!
     ef0:	746f6f62 	strbtvc	r6, [pc], #-3938	; ef8 <__code_start__-0x7108>
     ef4:	0100632e 	tsteq	r0, lr, lsr #6
     ef8:	70720000 	rsbsvc	r0, r2, r0
     efc:	00682e69 	rsbeq	r2, r8, r9, ror #28
     f00:	00000002 	andeq	r0, r0, r2
     f04:	05001905 	streq	r1, [r0, #-2309]	; 0xfffff6fb
     f08:	008ca002 	addeq	sl, ip, r2
     f0c:	010d0300 	mrseq	r0, SP_mon
     f10:	13130505 	tstne	r3, #20971520	; 0x1400000
     f14:	06130531 			; <UNDEFINED> instruction: 0x06130531
     f18:	2f010501 	svccs	0x00010501
     f1c:	85061b05 	strhi	r1, [r6, #-2821]	; 0xfffff4fb
     f20:	14130505 	ldrne	r0, [r3], #-1285	; 0xfffffafb
     f24:	052f0905 	streq	r0, [pc, #-2309]!	; 627 <__code_start__-0x79d9>
     f28:	05010616 	streq	r0, [r1, #-1558]	; 0xfffff9ea
     f2c:	05052e0e 	streq	r2, [r5, #-3598]	; 0xfffff1f2
     f30:	01052f06 	tsteq	r5, r6, lsl #30
     f34:	17052f06 	strne	r2, [r5, -r6, lsl #30]
     f38:	05053006 	streq	r3, [r5, #-6]
     f3c:	0608052f 	streq	r0, [r8], -pc, lsr #10
     f40:	2e070501 	cfsh32cs	mvfx0, mvfx7, #1
     f44:	03060505 	movweq	r0, #25861	; 0x6505
     f48:	4d2f4a0b 	vstmdbmi	pc!, {s8-s18}
     f4c:	15131313 	ldrne	r1, [r3, #-787]	; 0xfffffced
     f50:	04020067 	streq	r0, [r2], #-103	; 0xffffff99
     f54:	0d056701 	stceq	7, cr6, [r5, #-4]
     f58:	01040200 	mrseq	r0, R12_usr
     f5c:	000a0501 	andeq	r0, sl, r1, lsl #10
     f60:	01010402 	tsteq	r1, r2, lsl #8
     f64:	6a030905 	bvs	c3380 <__bss_end__+0xb94a8>
     f68:	000c022e 	andeq	r0, ip, lr, lsr #4
     f6c:	00fd0101 	rscseq	r0, sp, r1, lsl #2
     f70:	00030000 	andeq	r0, r3, r0
     f74:	0000006b 	andeq	r0, r0, fp, rrx
     f78:	0efb0102 	cdpeq	1, 15, cr0, cr11, cr2, {0}
     f7c:	0101000d 	tsteq	r1, sp
     f80:	00000101 	andeq	r0, r0, r1, lsl #2
     f84:	00000100 	andeq	r0, r0, r0, lsl #2
     f88:	61747301 	cmnvs	r4, r1, lsl #6
     f8c:	732d6666 			; <UNDEFINED> instruction: 0x732d6666
     f90:	2f006372 	svccs	0x00006372
     f94:	72657355 	rsbvc	r7, r5, #1409286145	; 0x54000001
     f98:	64612f73 	strbtvs	r2, [r1], #-3955	; 0xfffff08d
     f9c:	6e616972 			; <UNDEFINED> instruction: 0x6e616972
     fa0:	7472616d 	ldrbtvc	r6, [r2], #-365	; 0xfffffe93
     fa4:	7a656e69 	bvc	195c950 <__bss_end__+0x1952a78>
     fa8:	6f72702f 	svcvs	0x0072702f
     fac:	7463656a 	strbtvc	r6, [r3], #-1386	; 0xfffffa96
     fb0:	73632f73 	cmnvc	r3, #460	; 0x1cc
     fb4:	65303431 	ldrvs	r3, [r0, #-1073]!	; 0xfffffbcf
     fb8:	7331322d 	teqvc	r1, #-805306366	; 0xd0000002
     fbc:	6c2f7270 	sfmvs	f7, 4, [pc], #-448	; e04 <__code_start__-0x71fc>
     fc0:	69706269 	ldmdbvs	r0!, {r0, r3, r5, r6, r9, sp, lr}^
     fc4:	636e692f 	cmnvs	lr, #770048	; 0xbc000
     fc8:	6564756c 	strbvs	r7, [r4, #-1388]!	; 0xfffffa94
     fcc:	69740000 	ldmdbvs	r4!, {}^	; <UNPREDICTABLE>
     fd0:	2e72656d 	cdpcs	5, 7, cr6, cr2, cr13, {3}
     fd4:	00010063 	andeq	r0, r1, r3, rrx
     fd8:	69707200 	ldmdbvs	r0!, {r9, ip, sp, lr}^
     fdc:	0200682e 	andeq	r6, r0, #3014656	; 0x2e0000
     fe0:	05000000 	streq	r0, [r0, #-0]
     fe4:	02050023 	andeq	r0, r5, #35, 0	; 0x23
     fe8:	00008d1c 	andeq	r8, r0, ip, lsl sp
     fec:	14050516 	strne	r0, [r5], #-1302	; 0xfffffaea
     ff0:	05010a05 	streq	r0, [r1, #-2565]	; 0xfffff5fb
     ff4:	05010610 	streq	r0, [r1, #-1552]	; 0xfffff9f0
     ff8:	09052e0a 	stmdbeq	r5, {r1, r3, r9, sl, fp, sp}
     ffc:	10054b06 	andne	r4, r5, r6, lsl #22
    1000:	23052d06 	movwcs	r2, #23814	; 0x5d06
    1004:	4a0a0306 	bmi	281c24 <__bss_end__+0x277d4c>
    1008:	052f0505 	streq	r0, [pc, #-1285]!	; b0b <__code_start__-0x74f5>
    100c:	0501060c 	streq	r0, [r1, #-1548]	; 0xfffff9f4
    1010:	1f054b01 	svcne	0x00054b01
    1014:	05054d06 	streq	r4, [r5, #-3334]	; 0xfffff2fa
    1018:	12052f31 	andne	r2, r5, #196	; 0xc4
    101c:	05050106 	streq	r0, [r5, #-262]	; 0xfffffefa
    1020:	052f4b06 	streq	r4, [pc, #-2822]!	; 522 <__code_start__-0x7ade>
    1024:	05130601 	ldreq	r0, [r3, #-1537]	; 0xfffff9ff
    1028:	064c061c 			; <UNDEFINED> instruction: 0x064c061c
    102c:	06050501 	streq	r0, [r5], -r1, lsl #10
    1030:	0613054b 	ldreq	r0, [r3], -fp, asr #10
    1034:	05052e01 	streq	r2, [r5, #-3585]	; 0xfffff1ff
    1038:	09052f06 	stmdbeq	r5, {r1, r2, r8, r9, sl, fp, sp}
    103c:	06170513 			; <UNDEFINED> instruction: 0x06170513
    1040:	06090501 	streq	r0, [r9], -r1, lsl #10
    1044:	0611052f 	ldreq	r0, [r1], -pc, lsr #10
    1048:	2e0c0501 	cfsh32cs	mvfx0, mvfx12, #1
    104c:	6b061c05 	blvs	188068 <__bss_end__+0x17e190>
    1050:	05050106 	streq	r0, [r5, #-262]	; 0xfffffefa
    1054:	4a062f06 	bmi	18cc74 <__bss_end__+0x182d9c>
    1058:	054b0105 	strbeq	r0, [fp, #-261]	; 0xfffffefb
    105c:	062f061e 			; <UNDEFINED> instruction: 0x062f061e
    1060:	06050501 	streq	r0, [r5], -r1, lsl #10
    1064:	054a062f 	strbeq	r0, [sl, #-1583]	; 0xfffff9d1
    1068:	02024b01 	andeq	r4, r2, #1024	; 0x400
    106c:	03010100 	movweq	r0, #4352	; 0x1100
    1070:	03000003 	movweq	r0, #3
    1074:	0000d700 	andeq	sp, r0, r0, lsl #14
    1078:	fb010200 	blx	41882 <__bss_end__+0x379aa>
    107c:	01000d0e 	tsteq	r0, lr, lsl #26
    1080:	00010101 	andeq	r0, r1, r1, lsl #2
    1084:	00010000 	andeq	r0, r1, r0
    1088:	72730100 	rsbsvc	r0, r3, #0
    108c:	552f0063 	strpl	r0, [pc, #-99]!	; 1031 <__code_start__-0x6fcf>
    1090:	73726573 	cmnvc	r2, #482344960	; 0x1cc00000
    1094:	7264612f 	rsbvc	r6, r4, #-1073741813	; 0xc000000b
    1098:	6d6e6169 	stfvse	f6, [lr, #-420]!	; 0xfffffe5c
    109c:	69747261 	ldmdbvs	r4!, {r0, r5, r6, r9, ip, sp, lr}^
    10a0:	2f7a656e 	svccs	0x007a656e
    10a4:	6a6f7270 	bvs	1bdda6c <__bss_end__+0x1bd3b94>
    10a8:	73746365 	cmnvc	r4, #-1811939327	; 0x94000001
    10ac:	3173632f 	cmncc	r3, pc, lsr #6
    10b0:	2d653034 	stclcs	0, cr3, [r5, #-208]!	; 0xffffff30
    10b4:	70733132 	rsbsvc	r3, r3, r2, lsr r1
    10b8:	696c2f72 	stmdbvs	ip!, {r1, r4, r5, r6, r8, r9, sl, fp, sp}^
    10bc:	2f697062 	svccs	0x00697062
    10c0:	6c636e69 	stclvs	14, cr6, [r3], #-420	; 0xfffffe5c
    10c4:	00656475 	rsbeq	r6, r5, r5, ror r4
    10c8:	7273752f 	rsbsvc	r7, r3, #197132288	; 0xbc00000
    10cc:	636f6c2f 	cmnvs	pc, #12032	; 0x2f00
    10d0:	432f6c61 			; <UNDEFINED> instruction: 0x432f6c61
    10d4:	616c6c65 	cmnvs	ip, r5, ror #24
    10d8:	72612f72 	rsbvc	r2, r1, #456	; 0x1c8
    10dc:	6f6e2d6d 	svcvs	0x006e2d6d
    10e0:	652d656e 	strvs	r6, [sp, #-1390]!	; 0xfffffa92
    10e4:	2d696261 	sfmcs	f6, 2, [r9, #-388]!	; 0xfffffe7c
    10e8:	74736574 	ldrbtvc	r6, [r3], #-1396	; 0xfffffa8c
    10ec:	322d392f 	eorcc	r3, sp, #770048	; 0xbc000
    10f0:	71393130 	teqvc	r9, r0, lsr r1
    10f4:	73632d34 	cmnvc	r3, #52, 26	; 0xd00
    10f8:	65373031 	ldrvs	r3, [r7, #-49]!	; 0xffffffcf
    10fc:	62696c2f 	rsbvs	r6, r9, #12032	; 0x2f00
    1100:	6363672f 	cmnvs	r3, #12320768	; 0xbc0000
    1104:	6d72612f 	ldfvse	f6, [r2, #-188]!	; 0xffffff44
    1108:	6e6f6e2d 	cdpvs	14, 6, cr6, cr15, cr13, {1}
    110c:	61652d65 	cmnvs	r5, r5, ror #26
    1110:	392f6962 	stmdbcc	pc!, {r1, r5, r6, r8, fp, sp, lr}	; <UNPREDICTABLE>
    1114:	312e322e 			; <UNDEFINED> instruction: 0x312e322e
    1118:	636e692f 	cmnvs	lr, #770048	; 0xbc000
    111c:	6564756c 	strbvs	r7, [r4, #-1388]!	; 0xfffffa94
    1120:	61750000 	cmnvs	r5, r0
    1124:	632e7472 			; <UNDEFINED> instruction: 0x632e7472
    1128:	00000100 	andeq	r0, r0, r0, lsl #2
    112c:	2e697072 	mcrcs	0, 3, r7, cr9, cr2, {3}
    1130:	00020068 	andeq	r0, r2, r8, rrx
    1134:	64747300 	ldrbtvs	r7, [r4], #-768	; 0xfffffd00
    1138:	2d746e69 	ldclcs	14, cr6, [r4, #-420]!	; 0xfffffe5c
    113c:	2e636367 	cdpcs	3, 6, cr6, cr3, cr7, {3}
    1140:	00030068 	andeq	r0, r3, r8, rrx
    1144:	69706700 	ldmdbvs	r0!, {r8, r9, sl, sp, lr}^
    1148:	00682e6f 	rsbeq	r2, r8, pc, ror #28
    114c:	00000002 	andeq	r0, r0, r2
    1150:	05002005 	streq	r2, [r0, #-5]
    1154:	008dd002 	addeq	sp, sp, r2
    1158:	01de0300 	bicseq	r0, lr, r0, lsl #6
    115c:	4b050501 	blmi	142568 <__bss_end__+0x138690>
    1160:	01061405 	tsteq	r6, r5, lsl #8
    1164:	67060505 	strvs	r0, [r6, -r5, lsl #10]
    1168:	01061205 	tsteq	r6, r5, lsl #4
    116c:	4b060505 	blmi	182588 <__bss_end__+0x1786b0>
    1170:	05130205 	ldreq	r0, [r3, #-517]	; 0xfffffdfb
    1174:	05130601 	ldreq	r0, [r3, #-1537]	; 0xfffff9ff
    1178:	49030616 	stmdbmi	r3, {r1, r2, r4, r9, sl}
    117c:	2f0505ba 	svccs	0x000505ba
    1180:	01061405 	tsteq	r6, r5, lsl #8
    1184:	68060505 	stmdavs	r6, {r0, r2, r8, sl}
    1188:	3e056967 	vmlscc.f16	s12, s10, s15	; <UNPREDICTABLE>
    118c:	1e050106 	adfnes	f0, f5, f6
    1190:	4a1c052e 	bmi	702650 <__bss_end__+0x6f8778>
    1194:	2f060505 	svccs	0x00060505
    1198:	01061305 	tsteq	r6, r5, lsl #6
    119c:	052e2f05 	streq	r2, [lr, #-3845]!	; 0xfffff0fb
    11a0:	4d830605 	stcmi	6, cr0, [r3, #20]
    11a4:	01063f05 	tsteq	r6, r5, lsl #30
    11a8:	052e1f05 	streq	r1, [lr, #-3845]!	; 0xfffff0fb
    11ac:	05054a1d 	streq	r4, [r5, #-2589]	; 0xfffff5e3
    11b0:	13052f06 	movwne	r2, #24326	; 0x5f06
    11b4:	33050106 	movwcc	r0, #20742	; 0x5106
    11b8:	0605052e 	streq	r0, [r5], -lr, lsr #10
    11bc:	0633052f 	ldrteq	r0, [r3], -pc, lsr #10
    11c0:	06050501 	streq	r0, [r5], -r1, lsl #10
    11c4:	3e054d67 	cdpcc	13, 0, cr4, cr5, cr7, {3}
    11c8:	1e050106 	adfnes	f0, f5, f6
    11cc:	4a1c052e 	bmi	70268c <__bss_end__+0x6f87b4>
    11d0:	2f060505 	svccs	0x00060505
    11d4:	01061305 	tsteq	r6, r5, lsl #6
    11d8:	052e3405 	streq	r3, [lr, #-1029]!	; 0xfffffbfb
    11dc:	052f0605 	streq	r0, [pc, #-1541]!	; bdf <__code_start__-0x7421>
    11e0:	05010634 	streq	r0, [r1, #-1588]	; 0xfffff9cc
    11e4:	4d670605 	stclmi	6, cr0, [r7, #-20]!	; 0xffffffec
    11e8:	01063e05 	tsteq	r6, r5, lsl #28
    11ec:	052e1e05 	streq	r1, [lr, #-3589]!	; 0xfffff1fb
    11f0:	05054a1c 	streq	r4, [r5, #-2588]	; 0xfffff5e4
    11f4:	13052f06 	movwne	r2, #24326	; 0x5f06
    11f8:	35050106 	strcc	r0, [r5, #-262]	; 0xfffffefa
    11fc:	0605052e 	streq	r0, [r5], -lr, lsr #10
    1200:	0635052f 	ldrteq	r0, [r5], -pc, lsr #10
    1204:	06050501 	streq	r0, [r5], -r1, lsl #10
    1208:	3f055067 	svccc	0x00055067
    120c:	1f050106 	svcne	0x00050106
    1210:	4a1d052e 	bmi	7426d0 <__bss_end__+0x7387f8>
    1214:	2f060505 	svccs	0x00060505
    1218:	01061305 	tsteq	r6, r5, lsl #6
    121c:	052e2e05 	streq	r2, [lr, #-3589]!	; 0xfffff1fb
    1220:	4d670605 	stclmi	6, cr0, [r7, #-20]!	; 0xffffffec
    1224:	01063e05 	tsteq	r6, r5, lsl #28
    1228:	052e1e05 	streq	r1, [lr, #-3589]!	; 0xfffff1fb
    122c:	05054a1c 	streq	r4, [r5, #-2588]	; 0xfffff5e4
    1230:	13052f06 	movwne	r2, #24326	; 0x5f06
    1234:	31050106 	tstcc	r5, r6, lsl #2
    1238:	0605052e 	streq	r0, [r5], -lr, lsr #10
    123c:	3f054d83 	svccc	0x00054d83
    1240:	1f050106 	svcne	0x00050106
    1244:	4a1d052e 	bmi	742704 <__bss_end__+0x73882c>
    1248:	2f060505 	svccs	0x00060505
    124c:	01061305 	tsteq	r6, r5, lsl #6
    1250:	052e3305 	streq	r3, [lr, #-773]!	; 0xfffffcfb
    1254:	052f0605 	streq	r0, [pc, #-1541]!	; c57 <__code_start__-0x73a9>
    1258:	05010633 	streq	r0, [r1, #-1587]	; 0xfffff9cd
    125c:	05670605 	strbeq	r0, [r7, #-1541]!	; 0xfffff9fb
    1260:	054b0601 	strbeq	r0, [fp, #-1537]	; 0xfffff9ff
    1264:	0c030615 	stceq	6, cr0, [r3], {21}
    1268:	2f050582 	svccs	0x00050582
    126c:	01061405 	tsteq	r6, r5, lsl #8
    1270:	67060505 	strvs	r0, [r6, -r5, lsl #10]
    1274:	02000905 	andeq	r0, r0, #81920	; 0x14000
    1278:	05130104 	ldreq	r0, [r3, #-260]	; 0xfffffefc
    127c:	0402000b 	streq	r0, [r2], #-11
    1280:	0d051101 	stfeqs	f1, [r5, #-4]
    1284:	01040200 	mrseq	r0, R12_usr
    1288:	0b050106 	bleq	1416a8 <__bss_end__+0x1377d0>
    128c:	01040200 	mrseq	r0, R12_usr
    1290:	0605052e 	streq	r0, [r5], -lr, lsr #10
    1294:	0632054c 	ldrteq	r0, [r2], -ip, asr #10
    1298:	4a120501 	bmi	4826a4 <__bss_end__+0x4787cc>
    129c:	4b060505 	blmi	1826b8 <__bss_end__+0x1787e0>
    12a0:	05130205 	ldreq	r0, [r3, #-517]	; 0xfffffdfb
    12a4:	05130601 	ldreq	r0, [r3, #-1537]	; 0xfffff9ff
    12a8:	05850619 	streq	r0, [r5, #1561]	; 0x619
    12ac:	14054b05 	strne	r4, [r5], #-2821	; 0xfffff4fb
    12b0:	05050106 	streq	r0, [r5, #-262]	; 0xfffffefa
    12b4:	12056706 	andne	r6, r5, #1572864	; 0x180000
    12b8:	05050106 	streq	r0, [r5, #-262]	; 0xfffffefa
    12bc:	02054b06 	andeq	r4, r5, #6144	; 0x1800
    12c0:	060f0513 			; <UNDEFINED> instruction: 0x060f0513
    12c4:	4b010501 	blmi	426d0 <__bss_end__+0x387f8>
    12c8:	be061c05 	cdplt	12, 0, cr1, cr6, cr5, {0}
    12cc:	05050106 	streq	r0, [r5, #-262]	; 0xfffffefa
    12d0:	14054b06 	strne	r4, [r5], #-2822	; 0xfffff4fa
    12d4:	05050106 	streq	r0, [r5, #-262]	; 0xfffffefa
    12d8:	09056706 	stmdbeq	r5, {r1, r2, r8, r9, sl, sp, lr}
    12dc:	01040200 	mrseq	r0, R12_usr
    12e0:	000b0513 	andeq	r0, fp, r3, lsl r5
    12e4:	11010402 	tstne	r1, r2, lsl #8
    12e8:	02000d05 	andeq	r0, r0, #320	; 0x140
    12ec:	01060104 	tsteq	r6, r4, lsl #2
    12f0:	02000b05 	andeq	r0, r0, #5120	; 0x1400
    12f4:	052e0104 	streq	r0, [lr, #-260]!	; 0xfffffefc
    12f8:	054c0605 	strbeq	r0, [ip, #-1541]	; 0xfffff9fb
    12fc:	05010625 	streq	r0, [r1, #-1573]	; 0xfffff9db
    1300:	01054a05 	tsteq	r5, r5, lsl #20
    1304:	06190567 	ldreq	r0, [r9], -r7, ror #10
    1308:	2f05056b 	svccs	0x0005056b
    130c:	01060c05 	tsteq	r6, r5, lsl #24
    1310:	052f0105 	streq	r0, [pc, #-261]!	; 1213 <__code_start__-0x6ded>
    1314:	0531061b 	ldreq	r0, [r1, #-1563]!	; 0xfffff9e5
    1318:	09052f05 	stmdbeq	r5, {r0, r2, r8, r9, sl, fp, sp}
    131c:	07050106 	streq	r0, [r5, -r6, lsl #2]
    1320:	0605052e 	streq	r0, [r5], -lr, lsr #10
    1324:	060c054c 	streq	r0, [ip], -ip, asr #10
    1328:	49100501 	ldmdbmi	r0, {r0, r8, sl}
    132c:	05300105 	ldreq	r0, [r0, #-261]!	; 0xfffffefb
    1330:	0531061c 	ldreq	r0, [r1, #-1564]!	; 0xfffff9e4
    1334:	14054b05 	strne	r4, [r5], #-2821	; 0xfffff4fb
    1338:	05050106 	streq	r0, [r5, #-262]	; 0xfffffefa
    133c:	12056706 	andne	r6, r5, #1572864	; 0x180000
    1340:	0e050106 	adfeqs	f0, f5, f6
    1344:	0605054a 	streq	r0, [r5], -sl, asr #10
    1348:	1302052f 	movwne	r0, #9519	; 0x252f
    134c:	13060105 	movwne	r0, #24837	; 0x6105
    1350:	bc061a05 			; <UNDEFINED> instruction: 0xbc061a05
    1354:	02000905 	andeq	r0, r0, #81920	; 0x14000
    1358:	05300104 	ldreq	r0, [r0, #-260]!	; 0xfffffefc
    135c:	0402000a 	streq	r0, [r2], #-10
    1360:	0c051101 	stfeqs	f1, [r5], {1}
    1364:	01040200 	mrseq	r0, R12_usr
    1368:	0a050106 	beq	141788 <__bss_end__+0x1378b0>
    136c:	01040200 	mrseq	r0, R12_usr
    1370:	0006022e 	andeq	r0, r6, lr, lsr #4
    1374:	01890101 	orreq	r0, r9, r1, lsl #2
    1378:	00030000 	andeq	r0, r3, r0
    137c:	000000d7 	ldrdeq	r0, [r0], -r7
    1380:	0efb0102 	cdpeq	1, 15, cr0, cr11, cr2, {0}
    1384:	0101000d 	tsteq	r1, sp
    1388:	00000101 	andeq	r0, r0, r1, lsl #2
    138c:	00000100 	andeq	r0, r0, r0, lsl #2
    1390:	63727301 	cmnvs	r2, #67108864	; 0x4000000
    1394:	73552f00 	cmpvc	r5, #0, 30
    1398:	2f737265 	svccs	0x00737265
    139c:	69726461 	ldmdbvs	r2!, {r0, r5, r6, sl, sp, lr}^
    13a0:	616d6e61 	cmnvs	sp, r1, ror #28
    13a4:	6e697472 	mcrvs	4, 3, r7, cr9, cr2, {3}
    13a8:	702f7a65 	eorvc	r7, pc, r5, ror #20
    13ac:	656a6f72 	strbvs	r6, [sl, #-3954]!	; 0xfffff08e
    13b0:	2f737463 	svccs	0x00737463
    13b4:	34317363 	ldrtcc	r7, [r1], #-867	; 0xfffffc9d
    13b8:	322d6530 	eorcc	r6, sp, #48, 10	; 0xc000000
    13bc:	72707331 	rsbsvc	r7, r0, #-1006632960	; 0xc4000000
    13c0:	62696c2f 	rsbvs	r6, r9, #12032	; 0x2f00
    13c4:	692f6970 	stmdbvs	pc!, {r4, r5, r6, r8, fp, sp, lr}	; <UNPREDICTABLE>
    13c8:	756c636e 	strbvc	r6, [ip, #-878]!	; 0xfffffc92
    13cc:	2f006564 	svccs	0x00006564
    13d0:	2f727375 	svccs	0x00727375
    13d4:	61636f6c 	cmnvs	r3, ip, ror #30
    13d8:	65432f6c 	strbvs	r2, [r3, #-3948]	; 0xfffff094
    13dc:	72616c6c 	rsbvc	r6, r1, #108, 24	; 0x6c00
    13e0:	6d72612f 	ldfvse	f6, [r2, #-188]!	; 0xffffff44
    13e4:	6e6f6e2d 	cdpvs	14, 6, cr6, cr15, cr13, {1}
    13e8:	61652d65 	cmnvs	r5, r5, ror #26
    13ec:	742d6962 	strtvc	r6, [sp], #-2402	; 0xfffff69e
    13f0:	2f747365 	svccs	0x00747365
    13f4:	30322d39 	eorscc	r2, r2, r9, lsr sp
    13f8:	34713931 	ldrbtcc	r3, [r1], #-2353	; 0xfffff6cf
    13fc:	3173632d 	cmncc	r3, sp, lsr #6
    1400:	2f653730 	svccs	0x00653730
    1404:	2f62696c 	svccs	0x0062696c
    1408:	2f636367 	svccs	0x00636367
    140c:	2d6d7261 	sfmcs	f7, 2, [sp, #-388]!	; 0xfffffe7c
    1410:	656e6f6e 	strbvs	r6, [lr, #-3950]!	; 0xfffff092
    1414:	6261652d 	rsbvs	r6, r1, #188743680	; 0xb400000
    1418:	2e392f69 	cdpcs	15, 3, cr2, cr9, cr9, {3}
    141c:	2f312e32 	svccs	0x00312e32
    1420:	6c636e69 	stclvs	14, cr6, [r3], #-420	; 0xfffffe5c
    1424:	00656475 	rsbeq	r6, r5, r5, ror r4
    1428:	69706700 	ldmdbvs	r0!, {r8, r9, sl, sp, lr}^
    142c:	00632e6f 	rsbeq	r2, r3, pc, ror #28
    1430:	72000001 	andvc	r0, r0, #1, 0
    1434:	682e6970 	stmdavs	lr!, {r4, r5, r6, r8, fp, sp, lr}
    1438:	00000200 	andeq	r0, r0, r0, lsl #4
    143c:	69647473 	stmdbvs	r4!, {r0, r1, r4, r5, r6, sl, ip, sp, lr}^
    1440:	672d746e 	strvs	r7, [sp, -lr, ror #8]!
    1444:	682e6363 	stmdavs	lr!, {r0, r1, r5, r6, r8, r9, sp, lr}
    1448:	00000300 	andeq	r0, r0, r0, lsl #6
    144c:	6f697067 	svcvs	0x00697067
    1450:	0200682e 	andeq	r6, r0, #3014656	; 0x2e0000
    1454:	05000000 	streq	r0, [r0, #-0]
    1458:	02050036 	andeq	r0, r5, #54, 0	; 0x36
    145c:	0000909c 	muleq	r0, ip, r0
    1460:	06011303 	streq	r1, [r1], -r3, lsl #6
    1464:	06050501 	streq	r0, [r5], -r1, lsl #10
    1468:	06280567 	strteq	r0, [r8], -r7, ror #10
    146c:	66220501 	strtvs	r0, [r2], -r1, lsl #10
    1470:	054a0e05 	strbeq	r0, [sl, #-3589]	; 0xfffff1fb
    1474:	052f0605 	streq	r0, [pc, #-1541]!	; e77 <__code_start__-0x7189>
    1478:	2e010618 	mcrcs	6, 0, r0, cr1, cr8, {0}
    147c:	2f060505 	svccs	0x00060505
    1480:	01061f05 	tsteq	r6, r5, lsl #30
    1484:	054a0e05 	strbeq	r0, [sl, #-3589]	; 0xfffff1fb
    1488:	052f0605 	streq	r0, [pc, #-1541]!	; e8b <__code_start__-0x7175>
    148c:	0501061d 	streq	r0, [r1, #-1565]	; 0xfffff9e3
    1490:	054a4a05 	strbeq	r4, [sl, #-2565]	; 0xfffff5fb
    1494:	24052f01 	strcs	r2, [r5], #-3841	; 0xfffff0ff
    1498:	4a0a0306 	bmi	2820b8 <__bss_end__+0x2781e0>
    149c:	05050106 	streq	r0, [r5, #-262]	; 0xfffffefa
    14a0:	01052f06 	tsteq	r5, r6, lsl #30
    14a4:	20054b06 	andcs	r4, r5, r6, lsl #22
    14a8:	01063106 	tsteq	r6, r6, lsl #2
    14ac:	2f060505 	svccs	0x00060505
    14b0:	01056606 	tsteq	r5, r6, lsl #12
    14b4:	0621052f 	strteq	r0, [r1], -pc, lsr #10
    14b8:	0501064d 	streq	r0, [r1, #-1613]	; 0xfffff9b3
    14bc:	062f0605 	strteq	r0, [pc], -r5, lsl #12
    14c0:	2f010566 	svccs	0x00010566
    14c4:	4d062b05 	vstrmi	d2, [r6, #-20]	; 0xffffffec
    14c8:	05050106 	streq	r0, [r5, #-262]	; 0xfffffefa
    14cc:	07052f06 	streq	r2, [r5, -r6, lsl #30]
    14d0:	08050106 	stmdaeq	r5, {r1, r2, r8}
    14d4:	2e064b06 	vmlacs.f64	d4, d6, d6
    14d8:	01053006 	tsteq	r5, r6
    14dc:	23052f06 	movwcs	r2, #24326	; 0x5f06
    14e0:	01063506 	tsteq	r6, r6, lsl #10
    14e4:	2f060505 	svccs	0x00060505
    14e8:	4b060105 	blmi	181904 <__bss_end__+0x177a2c>
    14ec:	31061d05 	tstcc	r6, r5, lsl #26
    14f0:	05050106 	streq	r0, [r5, #-262]	; 0xfffffefa
    14f4:	0c054d06 	stceq	13, cr4, [r5], {6}
    14f8:	052e0106 	streq	r0, [lr, #-262]!	; 0xfffffefa
    14fc:	08022f01 	stmdaeq	r2, {r0, r8, r9, sl, fp, sp}
    1500:	e5010100 	str	r0, [r1, #-256]	; 0xffffff00
    1504:	03000002 	movweq	r0, #2
    1508:	00006700 	andeq	r6, r0, r0, lsl #14
    150c:	fb010200 	blx	41d16 <__bss_end__+0x37e3e>
    1510:	01000d0e 	tsteq	r0, lr, lsl #26
    1514:	00010101 	andeq	r0, r1, r1, lsl #2
    1518:	00010000 	andeq	r0, r1, r0
    151c:	72730100 	rsbsvc	r0, r3, #0
    1520:	552f0063 	strpl	r0, [pc, #-99]!	; 14c5 <__code_start__-0x6b3b>
    1524:	73726573 	cmnvc	r2, #482344960	; 0x1cc00000
    1528:	7264612f 	rsbvc	r6, r4, #-1073741813	; 0xc000000b
    152c:	6d6e6169 	stfvse	f6, [lr, #-420]!	; 0xfffffe5c
    1530:	69747261 	ldmdbvs	r4!, {r0, r5, r6, r9, ip, sp, lr}^
    1534:	2f7a656e 	svccs	0x007a656e
    1538:	6a6f7270 	bvs	1bddf00 <__bss_end__+0x1bd4028>
    153c:	73746365 	cmnvc	r4, #-1811939327	; 0x94000001
    1540:	3173632f 	cmncc	r3, pc, lsr #6
    1544:	2d653034 	stclcs	0, cr3, [r5, #-208]!	; 0xffffff30
    1548:	70733132 	rsbsvc	r3, r3, r2, lsr r1
    154c:	696c2f72 	stmdbvs	ip!, {r1, r4, r5, r6, r8, r9, sl, fp, sp}^
    1550:	2f697062 	svccs	0x00697062
    1554:	6c636e69 	stclvs	14, cr6, [r3], #-420	; 0xfffffe5c
    1558:	00656475 	rsbeq	r6, r5, r5, ror r4
    155c:	616d6b00 	cmnvs	sp, r0, lsl #22
    1560:	636f6c6c 	cmnvs	pc, #108, 24	; 0x6c00
    1564:	0100632e 	tsteq	r0, lr, lsr #6
    1568:	70720000 	rsbsvc	r0, r2, r0
    156c:	00682e69 	rsbeq	r2, r8, r9, ror #28
    1570:	00000002 	andeq	r0, r0, r2
    1574:	05002005 	streq	r2, [r0, #-5]
    1578:	00918402 	addseq	r8, r1, r2, lsl #8
    157c:	01350300 	teqeq	r5, r0, lsl #6
    1580:	05050106 	streq	r0, [r5, #-262]	; 0xfffffefa
    1584:	00014b06 	andeq	r4, r1, r6, lsl #22
    1588:	4a020402 	bmi	82598 <__bss_end__+0x786c0>
    158c:	02040200 	andeq	r0, r4, #0, 4
    1590:	04020001 	streq	r0, [r2], #-1
    1594:	02001302 	andeq	r1, r0, #134217728	; 0x8000000
    1598:	00010204 	andeq	r0, r1, r4, lsl #4
    159c:	82020402 	andhi	r0, r2, #33554432	; 0x2000000
    15a0:	02040200 	andeq	r0, r4, #0, 4
    15a4:	000b0513 	andeq	r0, fp, r3, lsl r5
    15a8:	06020402 	streq	r0, [r2], -r2, lsl #8
    15ac:	00050501 	andeq	r0, r5, r1, lsl #10
    15b0:	06020402 	streq	r0, [r2], -r2, lsl #8
    15b4:	0018054b 	andseq	r0, r8, fp, asr #10
    15b8:	03020402 	movweq	r0, #9218	; 0x2402
    15bc:	0505016a 	streq	r0, [r5, #-362]	; 0xfffffe96
    15c0:	02040200 	andeq	r0, r4, #0, 4
    15c4:	04020013 	streq	r0, [r2], #-19	; 0xffffffed
    15c8:	02000102 	andeq	r0, r0, #-2147483648	; 0x80000000
    15cc:	01060204 	tsteq	r6, r4, lsl #4
    15d0:	02040200 	andeq	r0, r4, #0, 4
    15d4:	02000f06 	andeq	r0, r0, #6, 30
    15d8:	00150204 	andseq	r0, r5, r4, lsl #4
    15dc:	01020402 	tsteq	r2, r2, lsl #8
    15e0:	02040200 	andeq	r0, r4, #0, 4
    15e4:	000e0513 	andeq	r0, lr, r3, lsl r5
    15e8:	06020402 	streq	r0, [r2], -r2, lsl #8
    15ec:	00160501 	andseq	r0, r6, r1, lsl #10
    15f0:	2e020402 	cdpcs	4, 0, cr0, cr2, cr2, {0}
    15f4:	02040200 	andeq	r0, r4, #0, 4
    15f8:	000f052e 	andeq	r0, pc, lr, lsr #10
    15fc:	03020402 	movweq	r0, #9218	; 0x2402
    1600:	05050114 	streq	r0, [r5, #-276]	; 0xfffffeec
    1604:	02040200 	andeq	r0, r4, #0, 4
    1608:	01054b06 	tsteq	r5, r6, lsl #22
    160c:	02040200 	andeq	r0, r4, #0, 4
    1610:	05051306 	streq	r1, [r5, #-774]	; 0xfffffcfa
    1614:	01040200 	mrseq	r0, R12_usr
    1618:	02004506 	andeq	r4, r0, #25165824	; 0x1800000
    161c:	00010104 	andeq	r0, r1, r4, lsl #2
    1620:	06010402 	streq	r0, [r1], -r2, lsl #8
    1624:	040200ba 	streq	r0, [r2], #-186	; 0xffffff46
    1628:	002e0601 	eoreq	r0, lr, r1, lsl #12
    162c:	2f010402 	svccs	0x00010402
    1630:	01040200 	mrseq	r0, R12_usr
    1634:	0402002e 	streq	r0, [r2], #-46	; 0xffffffd2
    1638:	3c05d601 	stccc	6, cr13, [r5], {1}
    163c:	06f20a03 	ldrbteq	r0, [r2], r3, lsl #20
    1640:	06050501 	streq	r0, [r5], -r1, lsl #10
    1644:	2e06014b 	adfcssm	f0, f6, #3.0
    1648:	02040200 	andeq	r0, r4, #0, 4
    164c:	02002e06 	andeq	r2, r0, #96	; 0x60
    1650:	00010204 	andeq	r0, r1, r4, lsl #4
    1654:	13020402 	movwne	r0, #9218	; 0x2402
    1658:	02040200 	andeq	r0, r4, #0, 4
    165c:	01138201 	tsteq	r3, r1, lsl #4
    1660:	5c031805 	stcpl	8, cr1, [r3], {5}
    1664:	13050501 	movwne	r0, #21761	; 0x5501
    1668:	01061105 	tsteq	r6, r5, lsl #2
    166c:	0305052e 	movweq	r0, #21806	; 0x552e
    1670:	02000123 	andeq	r0, r0, #-1073741816	; 0xc0000008
    1674:	4a060204 	bmi	181e8c <__bss_end__+0x177fb4>
    1678:	02040200 	andeq	r0, r4, #0, 4
    167c:	00080513 	andeq	r0, r8, r3, lsl r5
    1680:	06020402 	streq	r0, [r2], -r2, lsl #8
    1684:	06050501 	streq	r0, [r5], -r1, lsl #10
    1688:	0619054e 	ldreq	r0, [r9], -lr, asr #10
    168c:	06180501 	ldreq	r0, [r8], -r1, lsl #10
    1690:	054a5a03 	strbeq	r5, [sl, #-2563]	; 0xfffff5fd
    1694:	05011305 	streq	r1, [r1, #-773]	; 0xfffffcfb
    1698:	05050e18 	streq	r0, [r5, #-3608]	; 0xfffff1e8
    169c:	06110513 			; <UNDEFINED> instruction: 0x06110513
    16a0:	05052e01 	streq	r2, [r5, #-3585]	; 0xfffff1ff
    16a4:	014a0615 	cmpeq	sl, r5, lsl r6
    16a8:	060e0513 			; <UNDEFINED> instruction: 0x060e0513
    16ac:	16052e01 	strne	r2, [r5], -r1, lsl #28
    16b0:	0f052e2e 	svceq	0x00052e2e
    16b4:	05012403 	streq	r2, [r1, #-1027]	; 0xfffffbfd
    16b8:	054b0605 	strbeq	r0, [fp, #-1541]	; 0xfffff9fb
    16bc:	0501060c 	streq	r0, [r1, #-1548]	; 0xfffff9f4
    16c0:	05053001 	streq	r3, [r5, #-1]
    16c4:	01040200 	mrseq	r0, R12_usr
    16c8:	4a760306 	bmi	1d822e8 <__bss_end__+0x1d78410>
    16cc:	01040200 	mrseq	r0, R12_usr
    16d0:	04020001 	streq	r0, [r2], #-1
    16d4:	009e0601 	addseq	r0, lr, r1, lsl #12
    16d8:	2e010402 	cdpcs	4, 0, cr0, cr1, cr2, {0}
    16dc:	01040200 	mrseq	r0, R12_usr
    16e0:	02002e06 	andeq	r2, r0, #96	; 0x60
    16e4:	002f0104 	eoreq	r0, pc, r4, lsl #2
    16e8:	2e010402 	cdpcs	4, 0, cr0, cr1, cr2, {0}
    16ec:	01040200 	mrseq	r0, R12_usr
    16f0:	040200d6 	streq	r0, [r2], #-214	; 0xffffff2a
    16f4:	02002f01 	andeq	r2, r0, #1, 30
    16f8:	002e0104 	eoreq	r0, lr, r4, lsl #2
    16fc:	d6010402 	strle	r0, [r1], -r2, lsl #8
    1700:	05300905 	ldreq	r0, [r0, #-2309]!	; 0xfffff6fb
    1704:	2e010610 	mcrcs	6, 0, r0, cr1, cr0, {0}
    1708:	03060505 	movweq	r0, #25861	; 0x6505
    170c:	06012e5e 			; <UNDEFINED> instruction: 0x06012e5e
    1710:	062e822e 	strteq	r8, [lr], -lr, lsr #4
    1714:	032d052e 			; <UNDEFINED> instruction: 0x032d052e
    1718:	0674083c 			; <UNDEFINED> instruction: 0x0674083c
    171c:	06050501 	streq	r0, [r5], -r1, lsl #10
    1720:	0200014b 	andeq	r0, r0, #-1073741806	; 0xc0000012
    1724:	00820204 	addeq	r0, r2, r4, lsl #4
    1728:	13020402 	movwne	r0, #9218	; 0x2402
    172c:	02000c05 	andeq	r0, r0, #1280	; 0x500
    1730:	01060204 	tsteq	r6, r4, lsl #4
    1734:	02000505 	andeq	r0, r0, #20971520	; 0x1400000
    1738:	67060204 	strvs	r0, [r6, -r4, lsl #4]
    173c:	02001105 	andeq	r1, r0, #1073741825	; 0x40000001
    1740:	01060204 	tsteq	r6, r4, lsl #4
    1744:	02000505 	andeq	r0, r0, #20971520	; 0x1400000
    1748:	2f060204 	svccs	0x00060204
    174c:	02000f05 	andeq	r0, r0, #5, 30
    1750:	01060204 	tsteq	r6, r4, lsl #4
    1754:	02000505 	andeq	r0, r0, #20971520	; 0x1400000
    1758:	2f060204 	svccs	0x00060204
    175c:	02040200 	andeq	r0, r4, #0, 4
    1760:	00180501 	andseq	r0, r8, r1, lsl #10
    1764:	03020402 	movweq	r0, #9218	; 0x2402
    1768:	05017fb8 	streq	r7, [r1, #-4024]	; 0xfffff048
    176c:	04020005 	streq	r0, [r2], #-5
    1770:	18051302 	stmdane	r5, {r1, r8, r9, ip}
    1774:	02040200 	andeq	r0, r4, #0, 4
    1778:	0005050e 	andeq	r0, r5, lr, lsl #10
    177c:	13020402 	movwne	r0, #9218	; 0x2402
    1780:	02040200 	andeq	r0, r4, #0, 4
    1784:	02000106 	andeq	r0, r0, #-2147483647	; 0x80000001
    1788:	ca030204 	bgt	c1fa0 <__bss_end__+0xb80c8>
    178c:	01050100 	mrseq	r0, (UNDEF: 21)
    1790:	0005054b 	andeq	r0, r5, fp, asr #10
    1794:	06010402 	streq	r0, [r1], -r2, lsl #8
    1798:	04020045 	streq	r0, [r2], #-69	; 0xffffffbb
    179c:	02002e01 	andeq	r2, r0, #1, 28
    17a0:	00d60104 	sbcseq	r0, r6, r4, lsl #2
    17a4:	32010402 	andcc	r0, r1, #33554432	; 0x2000000
    17a8:	01040200 	mrseq	r0, R12_usr
    17ac:	0402002e 	streq	r0, [r2], #-46	; 0xffffffd2
    17b0:	1905d601 	stmdbne	r5, {r0, r9, sl, ip, lr, pc}
    17b4:	05f27103 	ldrbeq	r7, [r2, #259]!	; 0x103
    17b8:	08051305 	stmdaeq	r5, {r0, r2, r8, r9, ip}
    17bc:	07050106 	streq	r0, [r5, -r6, lsl #2]
    17c0:	4919054a 	ldmdbmi	r9, {r1, r3, r6, r8, sl}
    17c4:	31060505 	tstcc	r6, r5, lsl #10
    17c8:	4b060105 	blmi	181be4 <__bss_end__+0x177d0c>
    17cc:	03061605 	movweq	r1, #26117	; 0x6605
    17d0:	05056613 	streq	r6, [r5, #-1555]	; 0xfffff9ed
    17d4:	060f0513 			; <UNDEFINED> instruction: 0x060f0513
    17d8:	67010501 	strvs	r0, [r1, -r1, lsl #10]
    17dc:	51061e05 	tstpl	r6, r5, lsl #28
    17e0:	05130505 	ldreq	r0, [r3, #-1285]	; 0xfffffafb
    17e4:	02130601 	andseq	r0, r3, #1048576	; 0x100000
    17e8:	01010008 	tsteq	r1, r8
    17ec:	000000a6 	andeq	r0, r0, r6, lsr #1
    17f0:	00680003 	rsbeq	r0, r8, r3
    17f4:	01020000 	mrseq	r0, (UNDEF: 2)
    17f8:	000d0efb 	strdeq	r0, [sp], -fp
    17fc:	01010101 	tsteq	r1, r1, lsl #2
    1800:	01000000 	mrseq	r0, (UNDEF: 0)
    1804:	6c010000 	stcvs	0, cr0, [r1], {-0}
    1808:	00636269 	rsbeq	r6, r3, r9, ror #4
    180c:	6573552f 	ldrbvs	r5, [r3, #-1327]!	; 0xfffffad1
    1810:	612f7372 			; <UNDEFINED> instruction: 0x612f7372
    1814:	61697264 	cmnvs	r9, r4, ror #4
    1818:	72616d6e 	rsbvc	r6, r1, #7040	; 0x1b80
    181c:	656e6974 	strbvs	r6, [lr, #-2420]!	; 0xfffff68c
    1820:	72702f7a 	rsbsvc	r2, r0, #488	; 0x1e8
    1824:	63656a6f 	cmnvs	r5, #454656	; 0x6f000
    1828:	632f7374 			; <UNDEFINED> instruction: 0x632f7374
    182c:	30343173 	eorscc	r3, r4, r3, ror r1
    1830:	31322d65 	teqcc	r2, r5, ror #26
    1834:	2f727073 	svccs	0x00727073
    1838:	7062696c 	rsbvc	r6, r2, ip, ror #18
    183c:	6e692f69 	cdpvs	15, 6, cr2, cr9, cr9, {3}
    1840:	64756c63 	ldrbtvs	r6, [r5], #-3171	; 0xfffff39d
    1844:	70000065 	andvc	r0, r0, r5, rrx
    1848:	68637475 	stmdavs	r3!, {r0, r2, r4, r5, r6, sl, ip, sp, lr}^
    184c:	632e7261 			; <UNDEFINED> instruction: 0x632e7261
    1850:	00000100 	andeq	r0, r0, r0, lsl #2
    1854:	2e697072 	mcrcs	0, 3, r7, cr9, cr2, {3}
    1858:	00020068 	andeq	r0, r2, r8, rrx
    185c:	24050000 	strcs	r0, [r5], #-0
    1860:	34020500 	strcc	r0, [r2], #-1280	; 0xfffffb00
    1864:	14000094 	strne	r0, [r0], #-148	; 0xffffff6c
    1868:	26050106 	strcs	r0, [r5], -r6, lsl #2
    186c:	34054a06 	strcc	r4, [r5], #-2566	; 0xfffff5fa
    1870:	0601052e 	streq	r0, [r1], -lr, lsr #10
    1874:	061b0501 	ldreq	r0, [fp], -r1, lsl #10
    1878:	1305054f 	movwne	r0, #21839	; 0x554f
    187c:	01061105 	tsteq	r6, r5, lsl #2
    1880:	05670105 	strbeq	r0, [r7, #-261]!	; 0xfffffefb
    1884:	05670623 	strbeq	r0, [r7, #-1571]!	; 0xfffff9dd
    1888:	11051305 	tstne	r5, r5, lsl #6
    188c:	01050106 	tsteq	r5, r6, lsl #2
    1890:	0004024b 	andeq	r0, r4, fp, asr #4
    1894:	00f20101 	rscseq	r0, r2, r1, lsl #2
    1898:	00030000 	andeq	r0, r3, r0
    189c:	00000067 	andeq	r0, r0, r7, rrx
    18a0:	0efb0102 	cdpeq	1, 15, cr0, cr11, cr2, {0}
    18a4:	0101000d 	tsteq	r1, sp
    18a8:	00000101 	andeq	r0, r0, r1, lsl #2
    18ac:	00000100 	andeq	r0, r0, r0, lsl #2
    18b0:	62696c01 	rsbvs	r6, r9, #256	; 0x100
    18b4:	552f0063 	strpl	r0, [pc, #-99]!	; 1859 <__code_start__-0x67a7>
    18b8:	73726573 	cmnvc	r2, #482344960	; 0x1cc00000
    18bc:	7264612f 	rsbvc	r6, r4, #-1073741813	; 0xc000000b
    18c0:	6d6e6169 	stfvse	f6, [lr, #-420]!	; 0xfffffe5c
    18c4:	69747261 	ldmdbvs	r4!, {r0, r5, r6, r9, ip, sp, lr}^
    18c8:	2f7a656e 	svccs	0x007a656e
    18cc:	6a6f7270 	bvs	1bde294 <__bss_end__+0x1bd43bc>
    18d0:	73746365 	cmnvc	r4, #-1811939327	; 0x94000001
    18d4:	3173632f 	cmncc	r3, pc, lsr #6
    18d8:	2d653034 	stclcs	0, cr3, [r5, #-208]!	; 0xffffff30
    18dc:	70733132 	rsbsvc	r3, r3, r2, lsr r1
    18e0:	696c2f72 	stmdbvs	ip!, {r1, r4, r5, r6, r8, r9, sl, fp, sp}^
    18e4:	2f697062 	svccs	0x00697062
    18e8:	6c636e69 	stclvs	14, cr6, [r3], #-420	; 0xfffffe5c
    18ec:	00656475 	rsbeq	r6, r5, r5, ror r4
    18f0:	72747300 	rsbsvc	r7, r4, #0, 6
    18f4:	2e746163 	rpwcssz	f6, f4, f3
    18f8:	00010063 	andeq	r0, r1, r3, rrx
    18fc:	69707200 	ldmdbvs	r0!, {r9, ip, sp, lr}^
    1900:	0200682e 	andeq	r6, r0, #3014656	; 0x2e0000
    1904:	05000000 	streq	r0, [r0, #-0]
    1908:	0205002c 	andeq	r0, r5, #44, 0	; 0x2c
    190c:	00009470 	andeq	r9, r0, r0, ror r4
    1910:	13050515 	movwne	r0, #21781	; 0x5515
    1914:	060b0513 			; <UNDEFINED> instruction: 0x060b0513
    1918:	00050511 	andeq	r0, r5, r1, lsl r5
    191c:	06010402 	streq	r0, [r1], -r2, lsl #8
    1920:	04020030 	streq	r0, [r2], #-48	; 0xffffffd0
    1924:	09051501 	stmdbeq	r5, {r0, r8, sl, ip}
    1928:	01040200 	mrseq	r0, R12_usr
    192c:	00100513 	andseq	r0, r0, r3, lsl r5
    1930:	06010402 	streq	r0, [r1], -r2, lsl #8
    1934:	000b052e 	andeq	r0, fp, lr, lsr #10
    1938:	2e010402 	cdpcs	4, 0, cr0, cr1, cr2, {0}
    193c:	01040200 	mrseq	r0, R12_usr
    1940:	05052f06 	streq	r2, [r5, #-3846]	; 0xfffff0fa
    1944:	01040200 	mrseq	r0, R12_usr
    1948:	4e060106 	adfmis	f0, f6, f6
    194c:	01060805 	tsteq	r6, r5, lsl #16
    1950:	02000505 	andeq	r0, r0, #20971520	; 0x1400000
    1954:	2f060104 	svccs	0x00060104
    1958:	02000905 	andeq	r0, r0, #81920	; 0x14000
    195c:	05130104 	ldreq	r0, [r3, #-260]	; 0xfffffefc
    1960:	0402000b 	streq	r0, [r2], #-11
    1964:	05010601 	streq	r0, [r1, #-1537]	; 0xfffff9ff
    1968:	04020009 	streq	r0, [r2], #-9
    196c:	054b0601 	strbeq	r0, [fp, #-1537]	; 0xfffff9ff
    1970:	0402000f 	streq	r0, [r2], #-15
    1974:	05010601 	streq	r0, [r1, #-1537]	; 0xfffff9ff
    1978:	0402000d 	streq	r0, [r2], #-13
    197c:	052f0601 	streq	r0, [pc, #-1537]!	; 1383 <__code_start__-0x6c7d>
    1980:	04020005 	streq	r0, [r2], #-5
    1984:	02010601 	andeq	r0, r1, #1048576	; 0x100000
    1988:	01010006 	tsteq	r1, r6
    198c:	00000109 	andeq	r0, r0, r9, lsl #2
    1990:	00cd0003 	sbceq	r0, sp, r3
    1994:	01020000 	mrseq	r0, (UNDEF: 2)
    1998:	000d0efb 	strdeq	r0, [sp], -fp
    199c:	01010101 	tsteq	r1, r1, lsl #2
    19a0:	01000000 	mrseq	r0, (UNDEF: 0)
    19a4:	6c010000 	stcvs	0, cr0, [r1], {-0}
    19a8:	00636269 	rsbeq	r6, r3, r9, ror #4
    19ac:	6573552f 	ldrbvs	r5, [r3, #-1327]!	; 0xfffffad1
    19b0:	612f7372 			; <UNDEFINED> instruction: 0x612f7372
    19b4:	61697264 	cmnvs	r9, r4, ror #4
    19b8:	72616d6e 	rsbvc	r6, r1, #7040	; 0x1b80
    19bc:	656e6974 	strbvs	r6, [lr, #-2420]!	; 0xfffff68c
    19c0:	72702f7a 	rsbsvc	r2, r0, #488	; 0x1e8
    19c4:	63656a6f 	cmnvs	r5, #454656	; 0x6f000
    19c8:	632f7374 			; <UNDEFINED> instruction: 0x632f7374
    19cc:	30343173 	eorscc	r3, r4, r3, ror r1
    19d0:	31322d65 	teqcc	r2, r5, ror #26
    19d4:	2f727073 	svccs	0x00727073
    19d8:	7062696c 	rsbvc	r6, r2, ip, ror #18
    19dc:	6e692f69 	cdpvs	15, 6, cr2, cr9, cr9, {3}
    19e0:	64756c63 	ldrbtvs	r6, [r5], #-3171	; 0xfffff39d
    19e4:	752f0065 	strvc	r0, [pc, #-101]!	; 1987 <__code_start__-0x6679>
    19e8:	6c2f7273 	sfmvs	f7, 4, [pc], #-460	; 1824 <__code_start__-0x67dc>
    19ec:	6c61636f 	stclvs	3, cr6, [r1], #-444	; 0xfffffe44
    19f0:	6c65432f 	stclvs	3, cr4, [r5], #-188	; 0xffffff44
    19f4:	2f72616c 	svccs	0x0072616c
    19f8:	2d6d7261 	sfmcs	f7, 2, [sp, #-388]!	; 0xfffffe7c
    19fc:	656e6f6e 	strbvs	r6, [lr, #-3950]!	; 0xfffff092
    1a00:	6261652d 	rsbvs	r6, r1, #188743680	; 0xb400000
    1a04:	65742d69 	ldrbvs	r2, [r4, #-3433]!	; 0xfffff297
    1a08:	392f7473 	stmdbcc	pc!, {r0, r1, r4, r5, r6, sl, ip, sp, lr}	; <UNPREDICTABLE>
    1a0c:	3130322d 	teqcc	r0, sp, lsr #4
    1a10:	2d347139 	ldfcss	f7, [r4, #-228]!	; 0xffffff1c
    1a14:	30317363 	eorscc	r7, r1, r3, ror #6
    1a18:	6c2f6537 	cfstr32vs	mvfx6, [pc], #-220	; 1944 <__code_start__-0x66bc>
    1a1c:	672f6269 	strvs	r6, [pc, -r9, ror #4]!
    1a20:	612f6363 			; <UNDEFINED> instruction: 0x612f6363
    1a24:	6e2d6d72 	mcrvs	13, 1, r6, cr13, cr2, {3}
    1a28:	2d656e6f 	stclcs	14, cr6, [r5, #-444]!	; 0xfffffe44
    1a2c:	69626165 	stmdbvs	r2!, {r0, r2, r5, r6, r8, sp, lr}^
    1a30:	322e392f 	eorcc	r3, lr, #770048	; 0xbc000
    1a34:	692f312e 	stmdbvs	pc!, {r1, r2, r3, r5, r8, ip, sp}	; <UNPREDICTABLE>
    1a38:	756c636e 	strbvc	r6, [ip, #-878]!	; 0xfffffc92
    1a3c:	00006564 	andeq	r6, r0, r4, ror #10
    1a40:	6e727473 	mrcvs	4, 3, r7, cr2, cr3, {3}
    1a44:	2e706d63 	cdpcs	13, 7, cr6, cr0, cr3, {3}
    1a48:	00010063 	andeq	r0, r1, r3, rrx
    1a4c:	69707200 	ldmdbvs	r0!, {r9, ip, sp, lr}^
    1a50:	0200682e 	andeq	r6, r0, #3014656	; 0x2e0000
    1a54:	74730000 	ldrbtvc	r0, [r3], #-0
    1a58:	66656464 	strbtvs	r6, [r5], -r4, ror #8
    1a5c:	0300682e 	movweq	r6, #2094	; 0x82e
    1a60:	05000000 	streq	r0, [r0, #-0]
    1a64:	02050039 	andeq	r0, r5, #57, 0	; 0x39
    1a68:	000094a4 	andeq	r9, r0, r4, lsr #9
    1a6c:	13050515 	movwne	r0, #21781	; 0x5515
    1a70:	010a0513 	tsteq	sl, r3, lsl r5
    1a74:	054a0106 	strbeq	r0, [sl, #-262]	; 0xfffffefa
    1a78:	052f0609 	streq	r0, [pc, #-1545]!	; 1477 <__code_start__-0x6b89>
    1a7c:	0501060c 	streq	r0, [r1, #-1548]	; 0xfffff9f4
    1a80:	0b052e13 	bleq	14d2d4 <__bss_end__+0x1433fc>
    1a84:	060d052e 	streq	r0, [sp], -lr, lsr #10
    1a88:	061b054b 	ldreq	r0, [fp], -fp, asr #10
    1a8c:	0c052e01 	stceq	14, cr2, [r5], {1}
    1a90:	2f010530 	svccs	0x00010530
    1a94:	01000202 	tsteq	r0, r2, lsl #4
    1a98:	Address 0x0000000000001a98 is out of bounds.


Disassembly of section .debug_str:

00000000 <.debug_str>:
   0:	5f515249 	svcpl	0x00515249
   4:	65736142 	ldrbvs	r6, [r3, #-322]!	; 0xfffffebe
   8:	72617500 	rsbvc	r7, r1, #0, 10
   c:	6e695f74 	mcrvs	15, 3, r5, cr9, cr4, {3}
  10:	72007469 	andvc	r7, r0, #1761607680	; 0x69000000
  14:	615f6970 	cmpvs	pc, r0, ror r9	; <UNPREDICTABLE>
  18:	745f6d72 	ldrbvc	r6, [pc], #-3442	; 20 <__code_start__-0x7fe0>
  1c:	72656d69 	rsbvc	r6, r5, #6720	; 0x1a40
  20:	6100745f 	tstvs	r0, pc, asr r4
  24:	745f6d72 	ldrbvc	r6, [pc], #-3442	; 2c <__code_start__-0x7fd4>
  28:	72656d69 	rsbvc	r6, r5, #6720	; 0x1a40
  2c:	6e6f435f 	mcrvs	3, 3, r4, cr15, cr15, {2}
  30:	6c6f7274 	sfmvs	f7, 2, [pc], #-464	; fffffe68 <__bss_end__+0xffff5f90>
  34:	6d726100 	ldfvse	f6, [r2, #-0]
  38:	6d69745f 	cfstrdvs	mvd7, [r9, #-380]!	; 0xfffffe84
  3c:	425f7265 	subsmi	r7, pc, #1342177286	; 0x50000006
  40:	00657361 	rsbeq	r7, r5, r1, ror #6
  44:	61736944 	cmnvs	r3, r4, asr #18
  48:	5f656c62 	svcpl	0x00656c62
  4c:	73515249 	cmpvc	r1, #-1879048188	; 0x90000004
  50:	7300325f 	movwvc	r3, #607	; 0x25f
  54:	74726f68 	ldrbtvc	r6, [r2], #-3944	; 0xfffff098
  58:	746e6920 	strbtvc	r6, [lr], #-2336	; 0xfffff6e0
  5c:	72706700 	rsbsvc	r6, r0, #0, 14
  60:	695f666f 	ldmdbvs	pc, {r0, r1, r2, r3, r5, r6, r9, sl, sp, lr}^	; <UNPREDICTABLE>
  64:	0074696e 	rsbseq	r6, r4, lr, ror #18
  68:	5f697072 	svcpl	0x00697072
  6c:	63747570 	cmnvs	r4, #112, 10	; 0x1c000000
  70:	00726168 	rsbseq	r6, r2, r8, ror #2
  74:	65646f63 	strbvs	r6, [r4, #-3939]!	; 0xfffff09d
  78:	6e656c5f 	mcrvs	12, 3, r6, cr5, cr15, {2}
  7c:	635f5f00 	cmpvs	pc, #0, 30
  80:	5f65646f 	svcpl	0x0065646f
  84:	72617473 	rsbvc	r7, r1, #1929379840	; 0x73000000
  88:	005f5f74 	subseq	r5, pc, r4, ror pc	; <UNPREDICTABLE>
  8c:	33545550 	cmpcc	r4, #80, 10	; 0x14000000
  90:	49460032 	stmdbmi	r6, {r1, r4, r5}^
  94:	6f635f51 	svcvs	0x00635f51
  98:	6f72746e 	svcvs	0x0072746e
  9c:	7261006c 	rsbvc	r0, r1, #108, 0	; 0x6c
  a0:	69745f6d 	ldmdbvs	r4!, {r0, r2, r3, r5, r6, r8, r9, sl, fp, ip, lr}^
  a4:	5f72656d 	svcpl	0x0072656d
  a8:	64616f4c 	strbtvs	r6, [r1], #-3916	; 0xfffff0b4
  ac:	646e6900 	strbtvs	r6, [lr], #-2304	; 0xfffff700
  b0:	74007865 	strvc	r7, [r0], #-2149	; 0xfffff79b
  b4:	72656d69 	rsbvc	r6, r5, #6720	; 0x1a40
  b8:	746e695f 	strbtvc	r6, [lr], #-2399	; 0xfffff6a1
  bc:	75727265 	ldrbvc	r7, [r2, #-613]!	; 0xfffffd9b
  c0:	695f7470 	ldmdbvs	pc, {r4, r5, r6, sl, ip, sp, lr}^	; <UNPREDICTABLE>
  c4:	0074696e 	rsbseq	r6, r4, lr, ror #18
  c8:	5f515249 	svcpl	0x00515249
  cc:	646e6570 	strbtvs	r6, [lr], #-1392	; 0xfffffa90
  d0:	5f676e69 	svcpl	0x00676e69
  d4:	6e450032 	mcrvs	0, 2, r0, cr5, cr2, {1}
  d8:	656c6261 	strbvs	r6, [ip, #-609]!	; 0xfffffd9f
  dc:	5152495f 	cmppl	r2, pc, asr r9
  e0:	00315f73 	eorseq	r5, r1, r3, ror pc
  e4:	72657469 	rsbvc	r7, r5, #1761607680	; 0x69000000
  e8:	72706700 	rsbsvc	r6, r0, #0, 14
  ec:	645f666f 	ldrbvs	r6, [pc], #-1647	; f4 <__code_start__-0x7f0c>
  f0:	00706d75 	rsbseq	r6, r0, r5, ror sp
  f4:	676e6f6c 	strbvs	r6, [lr, -ip, ror #30]!
  f8:	6e6f6c20 	cdpvs	12, 6, cr6, cr15, cr0, {1}
  fc:	6e692067 	cdpvs	0, 6, cr2, cr9, cr7, {3}
 100:	65700074 	ldrbvs	r0, [r0, #-116]!	; 0xffffff8c
 104:	646f6972 	strbtvs	r6, [pc], #-2418	; 10c <__code_start__-0x7ef4>
 108:	6d617300 	stclvs	3, cr7, [r1, #-0]
 10c:	73656c70 	cmnvc	r5, #112, 24	; 0x7000
 110:	656c6300 	strbvs	r6, [ip, #-768]!	; 0xfffffd00
 114:	725f6e61 	subsvc	r6, pc, #1552	; 0x610
 118:	6f6f6265 	svcvs	0x006f6265
 11c:	6e690074 	mcrvs	0, 3, r0, cr9, cr4, {3}
 120:	6e695f74 	mcrvs	15, 3, r5, cr9, cr4, {3}
 124:	2f007469 	svccs	0x00007469
 128:	72657355 	rsbvc	r7, r5, #1409286145	; 0x54000001
 12c:	64612f73 	strbtvs	r2, [r1], #-3955	; 0xfffff08d
 130:	6e616972 			; <UNDEFINED> instruction: 0x6e616972
 134:	7472616d 	ldrbtvc	r6, [r2], #-365	; 0xfffffe93
 138:	7a656e69 	bvc	195bae4 <__bss_end__+0x1951c0c>
 13c:	6f72702f 	svcvs	0x0072702f
 140:	7463656a 	strbtvc	r6, [r3], #-1386	; 0xfffffa96
 144:	73632f73 	cmnvc	r3, #460	; 0x1cc
 148:	65303431 	ldrvs	r3, [r0, #-1073]!	; 0xfffffbcf
 14c:	7331322d 	teqvc	r1, #-805306366	; 0xd0000002
 150:	6c2f7270 	sfmvs	f7, 4, [pc], #-448	; ffffff98 <__bss_end__+0xffff60c0>
 154:	2f736261 	svccs	0x00736261
 158:	6e692d37 	mcrvs	13, 3, r2, cr9, cr7, {1}
 15c:	72726574 	rsbsvc	r6, r2, #116, 10	; 0x1d000000
 160:	73747075 	cmnvc	r4, #117, 0	; 0x75
 164:	672d322f 	strvs	r3, [sp, -pc, lsr #4]!
 168:	666f7270 			; <UNDEFINED> instruction: 0x666f7270
 16c:	6d726100 	ldfvse	f6, [r2, #-0]
 170:	6d69745f 	cfstrdvs	mvd7, [r9, #-380]!	; 0xfffffe84
 174:	495f7265 	ldmdbmi	pc, {r0, r2, r5, r6, r9, ip, sp, lr}^	; <UNPREDICTABLE>
 178:	6c435152 	stfvse	f5, [r3], {82}	; 0x52
 17c:	00726165 	rsbseq	r6, r2, r5, ror #2
 180:	62616e45 	rsbvs	r6, r1, #1104	; 0x450
 184:	495f656c 	ldmdbmi	pc, {r2, r3, r5, r6, r8, sl, sp, lr}^	; <UNPREDICTABLE>
 188:	5f735152 	svcpl	0x00735152
 18c:	72610032 	rsbvc	r0, r1, #50, 0	; 0x32
 190:	69745f6d 	ldmdbvs	r4!, {r0, r2, r3, r5, r6, r8, r9, sl, fp, ip, lr}^
 194:	5f72656d 	svcpl	0x0072656d
 198:	756c6156 	strbvc	r6, [ip, #-342]!	; 0xfffffeaa
 19c:	6f630065 	svcvs	0x00630065
 1a0:	625f6564 	subsvs	r6, pc, #100, 10	; 0x19000000
 1a4:	00657361 	rsbeq	r7, r5, r1, ror #6
 1a8:	69736e75 	ldmdbvs	r3!, {r0, r2, r4, r5, r6, r9, sl, fp, sp, lr}^
 1ac:	64656e67 	strbtvs	r6, [r5], #-3687	; 0xfffff199
 1b0:	61686320 	cmnvs	r8, r0, lsr #6
 1b4:	69440072 	stmdbvs	r4, {r1, r4, r5, r6}^
 1b8:	6c626173 	stfvse	f6, [r2], #-460	; 0xfffffe34
 1bc:	61425f65 	cmpvs	r2, r5, ror #30
 1c0:	5f636973 	svcpl	0x00636973
 1c4:	73515249 	cmpvc	r1, #-1879048188	; 0x90000004
 1c8:	6e6f6c00 	cdpvs	12, 6, cr6, cr15, cr0, {0}
 1cc:	6f6c2067 	svcvs	0x006c2067
 1d0:	7520676e 	strvc	r6, [r0, #-1902]!	; 0xfffff892
 1d4:	6769736e 	strbvs	r7, [r9, -lr, ror #6]!
 1d8:	2064656e 	rsbcs	r6, r4, lr, ror #10
 1dc:	00746e69 	rsbseq	r6, r4, r9, ror #28
 1e0:	6d746f6e 	ldclvs	15, cr6, [r4, #-440]!	; 0xfffffe48
 1e4:	006e6961 	rsbeq	r6, lr, r1, ror #18
 1e8:	726f6873 	rsbvc	r6, pc, #7536640	; 0x730000
 1ec:	6e752074 	mrcvs	0, 3, r2, cr5, cr4, {3}
 1f0:	6e676973 			; <UNDEFINED> instruction: 0x6e676973
 1f4:	69206465 	stmdbvs	r0!, {r0, r2, r5, r6, sl, sp, lr}
 1f8:	6100746e 	tstvs	r0, lr, ror #8
 1fc:	745f6d72 	ldrbvc	r6, [pc], #-3442	; 204 <__code_start__-0x7dfc>
 200:	72656d69 	rsbvc	r6, r5, #6720	; 0x1a40
 204:	6c65525f 	sfmvs	f5, 2, [r5], #-380	; 0xfffffe84
 208:	0064616f 	rsbeq	r6, r4, pc, ror #2
 20c:	33544547 	cmpcc	r4, #297795584	; 0x11c00000
 210:	4e470032 	mcrmi	0, 2, r0, cr7, cr2, {1}
 214:	39432055 	stmdbcc	r3, {r0, r2, r4, r6, sp}^
 218:	2e392039 	mrccs	0, 1, r2, cr9, cr9, {1}
 21c:	20312e32 	eorscs	r2, r1, r2, lsr lr
 220:	39313032 	ldmdbcc	r1!, {r1, r4, r5, ip, sp}
 224:	35323031 	ldrcc	r3, [r2, #-49]!	; 0xffffffcf
 228:	65722820 	ldrbvs	r2, [r2, #-2080]!	; 0xfffff7e0
 22c:	7361656c 	cmnvc	r1, #108, 10	; 0x1b000000
 230:	5b202965 	blpl	80a7cc <__bss_end__+0x8008f4>
 234:	2f4d5241 	svccs	0x004d5241
 238:	2d6d7261 	sfmcs	f7, 2, [sp, #-388]!	; 0xfffffe7c
 23c:	72622d39 	rsbvc	r2, r2, #3648	; 0xe40
 240:	68636e61 	stmdavs	r3!, {r0, r5, r6, r9, sl, fp, sp, lr}^
 244:	76657220 	strbtvc	r7, [r5], -r0, lsr #4
 248:	6f697369 	svcvs	0x00697369
 24c:	3732206e 	ldrcc	r2, [r2, -lr, rrx]!
 250:	39393537 	ldmdbcc	r9!, {r0, r1, r2, r4, r5, r8, sl, ip, sp}
 254:	6d2d205d 	stcvs	0, cr2, [sp, #-372]!	; 0xfffffe8c
 258:	3d757063 	ldclcc	0, cr7, [r5, #-396]!	; 0xfffffe74
 25c:	316d7261 	cmncc	sp, r1, ror #4
 260:	6a363731 	bvs	d8df2c <__bss_end__+0xd84054>
 264:	732d667a 			; <UNDEFINED> instruction: 0x732d667a
 268:	746d2d20 	strbtvc	r2, [sp], #-3360	; 0xfffff2e0
 26c:	3d656e75 	stclcc	14, cr6, [r5, #-468]!	; 0xfffffe2c
 270:	316d7261 	cmncc	sp, r1, ror #4
 274:	6a363731 	bvs	d8df40 <__bss_end__+0xd84068>
 278:	732d667a 			; <UNDEFINED> instruction: 0x732d667a
 27c:	666d2d20 	strbtvs	r2, [sp], -r0, lsr #26
 280:	74616f6c 	strbtvc	r6, [r1], #-3948	; 0xfffff094
 284:	6962612d 	stmdbvs	r2!, {r0, r2, r3, r5, r8, sp, lr}^
 288:	666f733d 			; <UNDEFINED> instruction: 0x666f733d
 28c:	6d2d2074 	stcvs	0, cr2, [sp, #-464]!	; 0xfffffe30
 290:	206d7261 	rsbcs	r7, sp, r1, ror #4
 294:	72616d2d 	rsbvc	r6, r1, #2880	; 0xb40
 298:	613d6863 	teqvs	sp, r3, ror #16
 29c:	36766d72 			; <UNDEFINED> instruction: 0x36766d72
 2a0:	2d207a6b 	vstmdbcs	r0!, {s14-s120}
 2a4:	62646767 	rsbvs	r6, r4, #27000832	; 0x19c0000
 2a8:	674f2d20 	strbvs	r2, [pc, -r0, lsr #26]
 2ac:	74732d20 	ldrbtvc	r2, [r3], #-3360	; 0xfffff2e0
 2b0:	6e673d64 	cdpvs	13, 6, cr3, cr7, cr4, {3}
 2b4:	20393975 	eorscs	r3, r9, r5, ror r9
 2b8:	7266662d 	rsbvc	r6, r6, #47185920	; 0x2d00000
 2bc:	74736565 	ldrbtvc	r6, [r3], #-1381	; 0xfffffa9b
 2c0:	69646e61 	stmdbvs	r4!, {r0, r5, r6, r9, sl, fp, sp, lr}^
 2c4:	6100676e 	tstvs	r0, lr, ror #14
 2c8:	745f6d72 	ldrbvc	r6, [pc], #-3442	; 2d0 <__code_start__-0x7d30>
 2cc:	72656d69 	rsbvc	r6, r5, #6720	; 0x1a40
 2d0:	6572465f 	ldrbvs	r4, [r2, #-1631]!	; 0xfffff9a1
 2d4:	6e755265 	cdpvs	2, 7, cr5, cr5, cr5, {3}
 2d8:	676e696e 	strbvs	r6, [lr, -lr, ror #18]!
 2dc:	6e756f43 	cdpvs	15, 7, cr6, cr5, cr3, {2}
 2e0:	00726574 	rsbseq	r6, r2, r4, ror r5
 2e4:	6f635f5f 	svcvs	0x00635f5f
 2e8:	655f6564 	ldrbvs	r6, [pc, #-1380]	; fffffd8c <__bss_end__+0xffff5eb4>
 2ec:	5f5f646e 	svcpl	0x005f646e
 2f0:	76656400 	strbtvc	r6, [r5], -r0, lsl #8
 2f4:	7261625f 	rsbvc	r6, r1, #-268435451	; 0xf0000005
 2f8:	72656972 	rsbvc	r6, r5, #1867776	; 0x1c8000
 2fc:	73616c00 	cmnvc	r1, #0, 24
 300:	6c635f74 	stclvs	15, cr5, [r3], #-464	; 0xfffffe30
 304:	7067006b 	rsbvc	r0, r7, fp, rrx
 308:	2e666f72 	mcrcs	15, 3, r6, cr6, cr2, {3}
 30c:	69440063 	stmdbvs	r4, {r0, r1, r5, r6}^
 310:	6c626173 	stfvse	f6, [r2], #-460	; 0xfffffe34
 314:	52495f65 	subpl	r5, r9, #404	; 0x194
 318:	315f7351 	cmpcc	pc, r1, asr r3	; <UNPREDICTABLE>
 31c:	616e4500 	cmnvs	lr, r0, lsl #10
 320:	5f656c62 	svcpl	0x00656c62
 324:	69736142 	ldmdbvs	r3!, {r1, r6, r8, sp, lr}^
 328:	52495f63 	subpl	r5, r9, #396	; 0x18c
 32c:	6d007351 	stcvs	3, cr7, [r0, #-324]	; 0xfffffebc
 330:	765f6e69 	ldrbvc	r6, [pc], -r9, ror #28
 334:	6b006c61 	blvs	1b4c0 <__bss_end__+0x115e8>
 338:	6c6c616d 	stfvse	f6, [ip], #-436	; 0xfffffe4c
 33c:	6100636f 	tstvs	r0, pc, ror #6
 340:	745f6d72 	ldrbvc	r6, [pc], #-3442	; 348 <__code_start__-0x7cb8>
 344:	72656d69 	rsbvc	r6, r5, #6720	; 0x1a40
 348:	5741525f 	smlsldpl	r5, r1, pc, r2	; <UNPREDICTABLE>
 34c:	00515249 	subseq	r5, r1, r9, asr #4
 350:	5f6d7261 	svcpl	0x006d7261
 354:	656d6974 	strbvs	r6, [sp, #-2420]!	; 0xfffff68c
 358:	72505f72 	subsvc	r5, r0, #456	; 0x1c8
 35c:	76694465 	strbtvc	r4, [r9], -r5, ror #8
 360:	72656469 	rsbvc	r6, r5, #1761607680	; 0x69000000
 364:	72706700 	rsbsvc	r6, r0, #0, 14
 368:	695f666f 	ldmdbvs	pc, {r0, r1, r2, r3, r5, r6, r9, sl, sp, lr}^	; <UNPREDICTABLE>
 36c:	6b00636e 	blvs	1912c <__bss_end__+0xf254>
 370:	6c6c616d 	stfvse	f6, [ip], #-436	; 0xfffffe4c
 374:	695f636f 	ldmdbvs	pc, {r0, r1, r2, r3, r5, r6, r8, r9, sp, lr}^	; <UNPREDICTABLE>
 378:	0074696e 	rsbseq	r6, r4, lr, ror #18
 37c:	5f515249 	svcpl	0x00515249
 380:	646e6570 	strbtvs	r6, [lr], #-1392	; 0xfffffa90
 384:	5f676e69 	svcpl	0x00676e69
 388:	52490031 	subpl	r0, r9, #49, 0	; 0x31
 38c:	61625f51 	cmnvs	r2, r1, asr pc
 390:	5f636973 	svcpl	0x00636973
 394:	646e6570 	strbtvs	r6, [lr], #-1392	; 0xfffffa90
 398:	00676e69 	rsbeq	r6, r7, r9, ror #28
 39c:	656d6974 	strbvs	r6, [sp, #-2420]!	; 0xfffff68c
 3a0:	65675f72 	strbvs	r5, [r7, #-3954]!	; 0xfffff08e
 3a4:	73755f74 	cmnvc	r5, #116, 30	; 0x1d0
 3a8:	61006365 	tstvs	r0, r5, ror #6
 3ac:	745f6d72 	ldrbvc	r6, [pc], #-3442	; 3b4 <__code_start__-0x7c4c>
 3b0:	72656d69 	rsbvc	r6, r5, #6720	; 0x1a40
 3b4:	73614d5f 	cmnvc	r1, #6080	; 0x17c0
 3b8:	4964656b 	stmdbmi	r4!, {r0, r1, r3, r5, r6, r8, sl, sp, lr}^
 3bc:	73005152 	movwvc	r5, #338	; 0x152
 3c0:	65747379 	ldrbvs	r7, [r4, #-889]!	; 0xfffffc87
 3c4:	6e655f6d 	cdpvs	15, 6, cr5, cr5, cr13, {3}
 3c8:	656c6261 	strbvs	r6, [ip, #-609]!	; 0xfffffd9f
 3cc:	746e695f 	strbtvc	r6, [lr], #-2399	; 0xfffff6a1
 3d0:	75727265 	ldrbvc	r7, [r2, #-613]!	; 0xfffffd9b
 3d4:	00737470 	rsbseq	r7, r3, r0, ror r4
 3d8:	65646e75 	strbvs	r6, [r4, #-3701]!	; 0xfffff18b
 3dc:	656e6966 	strbvs	r6, [lr, #-2406]!	; 0xfffff69a
 3e0:	6e695f64 	cdpvs	15, 6, cr5, cr9, cr4, {3}
 3e4:	75727473 	ldrbvc	r7, [r2, #-1139]!	; 0xfffffb8d
 3e8:	6f697463 	svcvs	0x00697463
 3ec:	65765f6e 	ldrbvs	r5, [r6, #-3950]!	; 0xfffff092
 3f0:	726f7463 	rsbvc	r7, pc, #1660944384	; 0x63000000
 3f4:	6e695f00 	cdpvs	15, 6, cr5, cr9, cr0, {0}
 3f8:	72726574 	rsbsvc	r6, r2, #116, 10	; 0x1d000000
 3fc:	5f747075 	svcpl	0x00747075
 400:	6c626174 	stfvse	f6, [r2], #-464	; 0xfffffe30
 404:	695f0065 	ldmdbvs	pc, {r0, r2, r5, r6}^	; <UNPREDICTABLE>
 408:	7265746e 	rsbvc	r7, r5, #1845493760	; 0x6e000000
 40c:	74707572 	ldrbtvc	r7, [r0], #-1394	; 0xfffffa8e
 410:	6261745f 	rsbvs	r7, r1, #1593835520	; 0x5f000000
 414:	655f656c 	ldrbvs	r6, [pc, #-1388]	; fffffeb0 <__bss_end__+0xffff5fd8>
 418:	5f00646e 	svcpl	0x0000646e
 41c:	4e55465f 	mrcmi	6, 2, r4, cr5, cr15, {2}
 420:	4f495443 	svcmi	0x00495443
 424:	005f5f4e 	subseq	r5, pc, lr, asr #30
 428:	61746164 	cmnvs	r4, r4, ror #2
 42c:	6f62615f 	svcvs	0x0062615f
 430:	765f7472 			; <UNDEFINED> instruction: 0x765f7472
 434:	6f746365 	svcvs	0x00746365
 438:	72700072 	rsbsvc	r0, r0, #114, 0	; 0x72
 43c:	74656665 	strbtvc	r6, [r5], #-1637	; 0xfffff99b
 440:	615f6863 	cmpvs	pc, r3, ror #16
 444:	74726f62 	ldrbtvc	r6, [r2], #-3938	; 0xfffff09e
 448:	6365765f 	cmnvs	r5, #99614720	; 0x5f00000
 44c:	00726f74 	rsbseq	r6, r2, r4, ror pc
 450:	65746e69 	ldrbvs	r6, [r4, #-3689]!	; 0xfffff197
 454:	70757272 	rsbsvc	r7, r5, r2, ror r2
 458:	632d7374 			; <UNDEFINED> instruction: 0x632d7374
 45c:	7200632e 	andvc	r6, r0, #-1207959552	; 0xb8000000
 460:	74657365 	strbtvc	r7, [r5], #-869	; 0xfffffc9b
 464:	6365765f 	cmnvs	r5, #99614720	; 0x5f00000
 468:	00726f74 	rsbseq	r6, r2, r4, ror pc
 46c:	74666f73 	strbtvc	r6, [r6], #-3955	; 0xfffff08d
 470:	65726177 	ldrbvs	r6, [r2, #-375]!	; 0xfffffe89
 474:	746e695f 	strbtvc	r6, [lr], #-2399	; 0xfffff6a1
 478:	75727265 	ldrbvc	r7, [r2, #-613]!	; 0xfffffd9b
 47c:	765f7470 			; <UNDEFINED> instruction: 0x765f7470
 480:	6f746365 	svcvs	0x00746365
 484:	61660072 	smcvs	24578	; 0x6002
 488:	695f7473 	ldmdbvs	pc, {r0, r1, r4, r5, r6, sl, ip, sp, lr}^	; <UNPREDICTABLE>
 48c:	7265746e 	rsbvc	r7, r5, #1845493760	; 0x6e000000
 490:	74707572 	ldrbtvc	r7, [r0], #-1394	; 0xfffffa8e
 494:	6365765f 	cmnvs	r5, #99614720	; 0x5f00000
 498:	00726f74 	rsbseq	r6, r2, r4, ror pc
 49c:	5f746573 	svcpl	0x00746573
 4a0:	006c6c61 	rsbeq	r6, ip, r1, ror #24
 4a4:	6e756f63 	cdpvs	15, 7, cr6, cr5, cr3, {3}
 4a8:	5f726574 	svcpl	0x00726574
 4ac:	73657270 	cmnvc	r5, #112, 4
 4b0:	656c6163 	strbvs	r6, [ip, #-355]!	; 0xfffffe9d
 4b4:	6f630072 	svcvs	0x00630072
 4b8:	65746e75 	ldrbvs	r6, [r4, #-3701]!	; 0xfffff18b
 4bc:	6e655f72 	mcrvs	15, 3, r5, cr5, cr2, {3}
 4c0:	656c6261 	strbvs	r6, [ip, #-609]!	; 0xfffffd9f
 4c4:	68730064 	ldmdavs	r3!, {r2, r5, r6}^
 4c8:	00746669 	rsbseq	r6, r4, r9, ror #12
 4cc:	5f657375 	svcpl	0x00657375
 4d0:	69623233 	stmdbvs	r2!, {r0, r1, r4, r5, r9, ip, sp}^
 4d4:	6f635f74 	svcvs	0x00635f74
 4d8:	65746e75 	ldrbvs	r6, [r4, #-3701]!	; 0xfffff18b
 4dc:	636e0072 	cmnvs	lr, #114, 0	; 0x72
 4e0:	656c6379 	strbvs	r6, [ip, #-889]!	; 0xfffffc87
 4e4:	69740073 	ldmdbvs	r4!, {r0, r1, r4, r5, r6}^
 4e8:	2d72656d 	cfldr64cs	mvdx6, [r2, #-436]!	; 0xfffffe4c
 4ec:	65746e69 	ldrbvs	r6, [r4, #-3689]!	; 0xfffff197
 4f0:	70757272 	rsbsvc	r7, r5, r2, ror r2
 4f4:	00632e74 	rsbeq	r2, r3, r4, ror lr
 4f8:	746e6975 	strbtvc	r6, [lr], #-2421	; 0xfffff68b
 4fc:	745f3233 	ldrbvc	r3, [pc], #-563	; 504 <__code_start__-0x7afc>
 500:	69707200 	ldmdbvs	r0!, {r9, ip, sp, lr}^
 504:	6d72615f 	ldfvse	f6, [r2, #-380]!	; 0xfffffe84
 508:	6d69745f 	cfstrdvs	mvd7, [r9, #-380]!	; 0xfffffe84
 50c:	635f7265 	cmpvs	pc, #1342177286	; 0x50000006
 510:	5f6c7274 	svcpl	0x006c7274
 514:	69740074 	ldmdbvs	r4!, {r2, r4, r5, r6}^
 518:	5f72656d 	svcpl	0x0072656d
 51c:	62616e65 	rsbvs	r6, r1, #1616	; 0x650
 520:	0064656c 	rsbeq	r6, r4, ip, ror #10
 524:	656d6974 	strbvs	r6, [sp, #-2420]!	; 0xfffff68c
 528:	68635f72 	stmdavs	r3!, {r1, r4, r5, r6, r8, r9, sl, fp, ip, lr}^
 52c:	5f6b6365 	svcpl	0x006b6365
 530:	7366666f 	cmnvc	r6, #116391936	; 0x6f00000
 534:	00737465 	rsbseq	r7, r3, r5, ror #8
 538:	5f746e69 	svcpl	0x00746e69
 53c:	62616e65 	rsbvs	r6, r1, #1616	; 0x650
 540:	0064656c 	rsbeq	r6, r4, ip, ror #10
 544:	73677261 	cmnvc	r7, #268435462	; 0x10000006
 548:	5f617600 	svcpl	0x00617600
 54c:	6e697270 	mcrvs	2, 3, r7, cr9, cr0, {3}
 550:	5f006b74 	svcpl	0x00006b74
 554:	756e675f 	strbvc	r6, [lr, #-1887]!	; 0xfffff8a1
 558:	61765f63 	cmnvs	r6, r3, ror #30
 55c:	73696c5f 	cmnvc	r9, #24320	; 0x5f00
 560:	696c0074 	stmdbvs	ip!, {r2, r4, r5, r6}^
 564:	702f6362 	eorvc	r6, pc, r2, ror #6
 568:	746e6972 	strbtvc	r6, [lr], #-2418	; 0xfffff68e
 56c:	00632e6b 	rsbeq	r2, r3, fp, ror #28
 570:	70615f5f 	rsbvc	r5, r1, pc, asr pc
 574:	765f5f00 	ldrbvc	r5, [pc], -r0, lsl #30
 578:	696c5f61 	stmdbvs	ip!, {r0, r5, r6, r8, r9, sl, fp, ip, lr}^
 57c:	2f007473 	svccs	0x00007473
 580:	72657355 	rsbvc	r7, r5, #1409286145	; 0x54000001
 584:	64612f73 	strbtvs	r2, [r1], #-3955	; 0xfffff08d
 588:	6e616972 			; <UNDEFINED> instruction: 0x6e616972
 58c:	7472616d 	ldrbtvc	r6, [r2], #-365	; 0xfffffe93
 590:	7a656e69 	bvc	195bf3c <__bss_end__+0x1952064>
 594:	6f72702f 	svcvs	0x0072702f
 598:	7463656a 	strbtvc	r6, [r3], #-1386	; 0xfffffa96
 59c:	73632f73 	cmnvc	r3, #460	; 0x1cc
 5a0:	65303431 	ldrvs	r3, [r0, #-1073]!	; 0xfffffbcf
 5a4:	7331322d 	teqvc	r1, #-805306366	; 0xd0000002
 5a8:	6c2f7270 	sfmvs	f7, 4, [pc], #-448	; 3f0 <__code_start__-0x7c10>
 5ac:	69706269 	ldmdbvs	r0!, {r0, r3, r5, r6, r9, sp, lr}^
 5b0:	746e6900 	strbtvc	r6, [lr], #-2304	; 0xfffff700
 5b4:	616e7265 	cmnvs	lr, r5, ror #4
 5b8:	75705f6c 	ldrbvc	r5, [r0, #-3948]!	; 0xfffff094
 5bc:	6c006b74 			; <UNDEFINED> instruction: 0x6c006b74
 5c0:	2f636269 	svccs	0x00636269
 5c4:	6b747570 	blvs	1d1db8c <__bss_end__+0x1d13cb4>
 5c8:	6900632e 	stmdbvs	r0, {r1, r2, r3, r5, r8, r9, sp, lr}
 5cc:	67696473 			; <UNDEFINED> instruction: 0x67696473
 5d0:	75007469 	strvc	r7, [r0, #-1129]	; 0xfffffb97
 5d4:	36746e69 	ldrbtcc	r6, [r4], -r9, ror #28
 5d8:	00745f34 	rsbseq	r5, r4, r4, lsr pc
 5dc:	73625f5f 	cmnvc	r2, #380	; 0x17c
 5e0:	74735f73 	ldrbtvc	r5, [r3], #-3955	; 0xfffff08d
 5e4:	5f747261 	svcpl	0x00747261
 5e8:	6977005f 	ldmdbvs	r7!, {r0, r1, r2, r3, r4, r6}^
 5ec:	00687464 	rsbeq	r7, r8, r4, ror #8
 5f0:	61645f5f 	cmnvs	r4, pc, asr pc
 5f4:	655f6174 	ldrbvs	r6, [pc, #-372]	; 488 <__code_start__-0x7b78>
 5f8:	5f5f646e 	svcpl	0x005f646e
 5fc:	74757000 	ldrbtvc	r7, [r5], #-0
 600:	70665f63 	rsbvc	r5, r6, r3, ror #30
 604:	625f5f00 	subsvs	r5, pc, #0, 30
 608:	655f7373 	ldrbvs	r7, [pc, #-883]	; 29d <__code_start__-0x7d63>
 60c:	5f5f646e 	svcpl	0x005f646e
 610:	685f5f00 	ldmdavs	pc, {r8, r9, sl, fp, ip, lr}^	; <UNPREDICTABLE>
 614:	5f706165 	svcpl	0x00706165
 618:	72617473 	rsbvc	r7, r1, #1929379840	; 0x73000000
 61c:	005f5f74 	subseq	r5, pc, r4, ror pc	; <UNPREDICTABLE>
 620:	5f697072 	svcpl	0x00697072
 624:	5f746573 	svcpl	0x00746573
 628:	7074756f 	rsbsvc	r7, r4, pc, ror #10
 62c:	66007475 			; <UNDEFINED> instruction: 0x66007475
 630:	735f746d 	cmpvc	pc, #1828716544	; 0x6d000000
 634:	74726174 	ldrbtvc	r6, [r2], #-372	; 0xfffffe8c
 638:	62696c00 	rsbvs	r6, r9, #0, 24
 63c:	61762f63 	cmnvs	r6, r3, ror #30
 640:	6972702d 	ldmdbvs	r2!, {r0, r2, r3, r5, ip, sp, lr}^
 644:	2e6b746e 	cdpcs	4, 6, cr7, cr11, cr14, {3}
 648:	74730063 	ldrbtvc	r0, [r3], #-99	; 0xffffff9d
 64c:	74616372 	strbtvc	r6, [r1], #-882	; 0xfffffc8e
 650:	67656e00 	strbvs	r6, [r5, -r0, lsl #28]!
 654:	6500705f 	strvs	r7, [r0, #-95]	; 0xffffffa1
 658:	0074696d 	rsbseq	r6, r4, sp, ror #18
 65c:	73747570 	cmnvc	r4, #112, 10	; 0x1c000000
 660:	0070665f 	rsbseq	r6, r0, pc, asr r6
 664:	65766572 	ldrbvs	r6, [r6, #-1394]!	; 0xfffffa8e
 668:	00657372 	rsbeq	r7, r5, r2, ror r3
 66c:	61645f5f 	cmnvs	r4, pc, asr pc
 670:	735f6174 	cmpvc	pc, #29
 674:	74726174 	ldrbtvc	r6, [r2], #-372	; 0xfffffe8c
 678:	5f005f5f 	svcpl	0x00005f5f
 67c:	6f72705f 	svcvs	0x0072705f
 680:	6e655f67 	cdpvs	15, 6, cr5, cr5, cr7, {3}
 684:	005f5f64 	subseq	r5, pc, r4, ror #30
 688:	316d756e 	cmncc	sp, lr, ror #10
 68c:	72747300 	rsbsvc	r7, r4, #0, 6
 690:	706d636e 	rsbvc	r6, sp, lr, ror #6
 694:	67697300 	strbvs	r7, [r9, -r0, lsl #6]!
 698:	5f64656e 	svcpl	0x0064656e
 69c:	70720070 	rsbsvc	r0, r2, r0, ror r0
 6a0:	65725f69 	ldrbvs	r5, [r2, #-3945]!	; 0xfffff097
 6a4:	746f6f62 	strbtvc	r6, [pc], #-3938	; 6ac <__code_start__-0x7954>
 6a8:	6c656400 	cfstrdvs	mvd6, [r5], #-0
 6ac:	6d5f7961 	vldrvs.16	s15, [pc, #-194]	; 5f2 <__code_start__-0x7a0e>	; <UNPREDICTABLE>
 6b0:	74730073 	ldrbtvc	r0, [r3], #-115	; 0xffffff8d
 6b4:	2d666661 	stclcs	6, cr6, [r6, #-388]!	; 0xfffffe7c
 6b8:	2f637273 	svccs	0x00637273
 6bc:	61656c63 	cmnvs	r5, r3, ror #24
 6c0:	65722d6e 	ldrbvs	r2, [r2, #-3438]!	; 0xfffff292
 6c4:	746f6f62 	strbtvc	r6, [pc], #-3938	; 6cc <__code_start__-0x7934>
 6c8:	7500632e 	strvc	r6, [r0, #-814]	; 0xfffffcd2
 6cc:	5f747261 	svcpl	0x00747261
 6d0:	73756c66 	cmnvc	r5, #26112	; 0x6600
 6d4:	78745f68 	ldmdavc	r4!, {r3, r5, r6, r8, r9, sl, fp, ip, lr}^
 6d8:	73635f00 	cmnvc	r3, #0, 30
 6dc:	74726174 	ldrbtvc	r6, [r2], #-372	; 0xfffffe8c
 6e0:	73736200 	cmnvc	r3, #0, 4
 6e4:	646e655f 	strbtvs	r6, [lr], #-1375	; 0xfffffaa1
 6e8:	73756300 	cmnvc	r5, #0, 6
 6ec:	5f6d6f74 	svcpl	0x006d6f74
 6f0:	64616f6c 	strbtvs	r6, [r1], #-3948	; 0xfffff094
 6f4:	73007265 	movwvc	r7, #613	; 0x265
 6f8:	66666174 			; <UNDEFINED> instruction: 0x66666174
 6fc:	6372732d 	cmnvs	r2, #-1275068416	; 0xb4000000
 700:	7473632f 	ldrbtvc	r6, [r3], #-815	; 0xfffffcd1
 704:	2e747261 	cdpcs	2, 7, cr7, cr4, cr1, {3}
 708:	74730063 	ldrbtvc	r0, [r3], #-99	; 0xffffff9d
 70c:	2d666661 	stclcs	6, cr6, [r6, #-388]!	; 0xfffffe7c
 710:	2f637273 	svccs	0x00637273
 714:	74737563 	ldrbtvc	r7, [r3], #-1379	; 0xfffffa9d
 718:	6c2d6d6f 	stcvs	13, cr6, [sp], #-444	; 0xfffffe44
 71c:	6564616f 	strbvs	r6, [r4, #-367]!	; 0xfffffe91
 720:	00632e72 	rsbeq	r2, r3, r2, ror lr
 724:	575f4d50 			; <UNDEFINED> instruction: 0x575f4d50
 728:	00474f44 	subeq	r4, r7, r4, asr #30
 72c:	5f746573 	svcpl	0x00746573
 730:	72657375 	rsbvc	r7, r5, #-738197503	; 0xd4000001
 734:	76656c5f 			; <UNDEFINED> instruction: 0x76656c5f
 738:	50006c65 	andpl	r6, r0, r5, ror #24
 73c:	41505f4d 	cmpmi	r0, sp, asr #30
 740:	4f575353 	svcmi	0x00575353
 744:	61004452 	tstvs	r0, r2, asr r4
 748:	73755f74 	cmnvc	r5, #116, 30	; 0x1d0
 74c:	6c5f7265 	lfmvs	f7, 2, [pc], {101}	; 0x65
 750:	6c657665 	stclvs	6, cr7, [r5], #-404	; 0xfffffe6c
 754:	61747300 	cmnvs	r4, r0, lsl #6
 758:	732d6666 			; <UNDEFINED> instruction: 0x732d6666
 75c:	722f6372 	eorvc	r6, pc, #-939524095	; 0xc8000001
 760:	6f6f6265 	svcvs	0x006f6265
 764:	00632e74 	rsbeq	r2, r3, r4, ror lr
 768:	525f4d50 	subspl	r4, pc, #80, 26	; 0x1400
 76c:	00435453 	subeq	r5, r3, r3, asr r4
 770:	72737063 	rsbsvc	r7, r3, #99, 0	; 0x63
 774:	5f4d5000 	svcpl	0x004d5000
 778:	43545352 	cmpmi	r4, #1207959553	; 0x48000001
 77c:	4352575f 	cmpmi	r2, #24903680	; 0x17c0000
 780:	465f4746 	ldrbmi	r4, [pc], -r6, asr #14
 784:	5f4c4c55 	svcpl	0x004c4c55
 788:	45534552 	ldrbmi	r4, [r3, #-1362]	; 0xfffffaae
 78c:	65640054 	strbvs	r0, [r4, #-84]!	; 0xffffffac
 790:	5f79616c 	svcpl	0x0079616c
 794:	6c637963 			; <UNDEFINED> instruction: 0x6c637963
 798:	74007365 	strvc	r7, [r0], #-869	; 0xfffffc9b
 79c:	736b6369 	cmnvc	fp, #-1543503871	; 0xa4000001
 7a0:	6c656400 	cfstrdvs	mvd6, [r5], #-0
 7a4:	735f7961 	cmpvc	pc, #1589248	; 0x184000
 7a8:	64006365 	strvs	r6, [r0], #-869	; 0xfffffc9b
 7ac:	79616c65 	stmdbvc	r1!, {r0, r2, r5, r6, sl, fp, sp, lr}^
 7b0:	0073755f 	rsbseq	r7, r3, pc, asr r5
 7b4:	656d6974 	strbvs	r6, [sp, #-2420]!	; 0xfffff68c
 7b8:	65675f72 	strbvs	r5, [r7, #-3954]!	; 0xfffff08e
 7bc:	73755f74 	cmnvc	r5, #116, 30	; 0x1d0
 7c0:	725f6365 	subsvc	r6, pc, #-1811939327	; 0x94000001
 7c4:	73007761 	movwvc	r7, #1889	; 0x761
 7c8:	66666174 			; <UNDEFINED> instruction: 0x66666174
 7cc:	6372732d 	cmnvs	r2, #-1275068416	; 0xb4000000
 7d0:	6d69742f 	cfstrdvs	mvd7, [r9, #-188]!	; 0xffffff44
 7d4:	632e7265 			; <UNDEFINED> instruction: 0x632e7265
 7d8:	61747300 	cmnvs	r4, r0, lsl #6
 7dc:	74725f74 	ldrbtvc	r5, [r2], #-3956	; 0xfffff08c
 7e0:	6e630073 	mcrvs	0, 3, r0, cr3, cr3, {3}
 7e4:	725f6c74 	subsvc	r6, pc, #116, 24	; 0x7400
 7e8:	6e655f78 	mcrvs	15, 3, r5, cr5, cr8, {3}
 7ec:	656c6261 	strbvs	r6, [ip, #-609]!	; 0xfffffd9f
 7f0:	61756d00 	cmnvs	r5, r0, lsl #26
 7f4:	725f7472 	subsvc	r7, pc, #1912602624	; 0x72000000
 7f8:	73696765 	cmnvc	r9, #26476544	; 0x1940000
 7fc:	73726574 	cmnvc	r2, #116, 10	; 0x1d000000
 800:	61747300 	cmnvs	r4, r0, lsl #6
 804:	78745f74 	ldmdavc	r4!, {r2, r4, r5, r6, r8, r9, sl, fp, ip, lr}^
 808:	6176615f 	cmnvs	r6, pc, asr r1
 80c:	62616c69 	rsbvs	r6, r1, #26880	; 0x6900
 810:	7300656c 	movwvc	r6, #1388	; 0x56c
 814:	752f6372 	strvc	r6, [pc, #-882]!	; 4aa <__code_start__-0x7b56>
 818:	2e747261 	cdpcs	2, 7, cr7, cr4, cr1, {3}
 81c:	6e630063 	cdpvs	0, 6, cr0, cr3, cr3, {3}
 820:	745f6c74 	ldrbvc	r6, [pc], #-3188	; 828 <__code_start__-0x77d8>
 824:	6e655f78 	mcrvs	15, 3, r5, cr5, cr8, {3}
 828:	656c6261 	strbvs	r6, [ip, #-609]!	; 0xfffffd9f
 82c:	61747300 	cmnvs	r4, r0, lsl #6
 830:	78745f74 	ldmdavc	r4!, {r2, r4, r5, r6, r8, r9, sl, fp, ip, lr}^
 834:	6c64695f 			; <UNDEFINED> instruction: 0x6c64695f
 838:	75610065 	strbvc	r0, [r1, #-101]!	; 0xffffff9b
 83c:	626e6578 	rsbvs	r6, lr, #120, 10	; 0x1e000000
 840:	7261755f 	rsbvc	r7, r1, #398458880	; 0x17c00000
 844:	736c0074 	cmnvc	ip, #116, 0	; 0x74
 848:	78725f72 	ldmdavc	r2!, {r1, r4, r5, r6, r8, r9, sl, fp, ip, lr}^
 84c:	65766f5f 	ldrbvs	r6, [r6, #-3935]!	; 0xfffff0a1
 850:	6e757272 	mrcvs	2, 3, r7, cr5, cr2, {3}
 854:	72636c00 	rsbvc	r6, r3, #0, 24
 858:	7461645f 	strbtvc	r6, [r1], #-1119	; 0xfffffba1
 85c:	69735f61 	ldmdbvs	r3!, {r0, r5, r6, r8, r9, sl, fp, ip, lr}^
 860:	6c00657a 	cfstr32vs	mvfx6, [r0], {122}	; 0x7a
 864:	65727273 	ldrbvs	r7, [r2, #-627]!	; 0xfffffd8d
 868:	50470067 	subpl	r0, r7, r7, rrx
 86c:	465f4f49 	ldrbmi	r4, [pc], -r9, asr #30
 870:	5f434e55 	svcpl	0x00434e55
 874:	5054554f 	subspl	r5, r4, pc, asr #10
 878:	6c005455 	cfstrsvs	mvf5, [r0], {85}	; 0x55
 87c:	65727263 	ldrbvs	r7, [r2, #-611]!	; 0xfffffd9d
 880:	69665f67 	stmdbvs	r6!, {r0, r1, r2, r5, r6, r8, r9, sl, fp, ip, lr}^
 884:	73646c65 	cmnvc	r4, #25856	; 0x6500
 888:	61747300 	cmnvs	r4, r0, lsl #6
 88c:	78725f74 	ldmdavc	r2!, {r2, r4, r5, r6, r8, r9, sl, fp, ip, lr}^
 890:	6176615f 	cmnvs	r6, pc, asr r1
 894:	62616c69 	rsbvs	r6, r1, #26880	; 0x6900
 898:	7300656c 	movwvc	r6, #1388	; 0x56c
 89c:	5f746174 	svcpl	0x00746174
 8a0:	73756e75 	cmnvc	r5, #1872	; 0x750
 8a4:	6c006465 	cfstrsvs	mvf6, [r0], {101}	; 0x65
 8a8:	65727273 	ldrbvs	r7, [r2, #-627]!	; 0xfffffd8d
 8ac:	69665f67 	stmdbvs	r6!, {r0, r1, r2, r5, r6, r8, r9, sl, fp, ip, lr}^
 8b0:	73646c65 	cmnvc	r4, #25856	; 0x6500
 8b4:	72617500 	rsbvc	r7, r1, #0, 10
 8b8:	65675f74 	strbvs	r5, [r7, #-3956]!	; 0xfffff08c
 8bc:	615f6374 	cmpvs	pc, r4, ror r3	; <UNPREDICTABLE>
 8c0:	636e7973 	cmnvs	lr, #1884160	; 0x1cc000
 8c4:	49504700 	ldmdbmi	r0, {r8, r9, sl, lr}^
 8c8:	55465f4f 	strbpl	r5, [r6, #-3919]	; 0xfffff0b1
 8cc:	415f434e 	cmpmi	pc, lr, asr #6
 8d0:	0030544c 	eorseq	r5, r0, ip, asr #8
 8d4:	4f495047 	svcmi	0x00495047
 8d8:	4e55465f 	mrcmi	6, 2, r4, cr5, cr15, {2}
 8dc:	4c415f43 	mcrrmi	15, 4, r5, r1, cr3
 8e0:	47003154 	smlsdmi	r0, r4, r1, r3
 8e4:	5f4f4950 	svcpl	0x004f4950
 8e8:	434e5546 	movtmi	r5, #58694	; 0xe546
 8ec:	544c415f 	strbpl	r4, [ip], #-351	; 0xfffffea1
 8f0:	50470032 	subpl	r0, r7, r2, lsr r0
 8f4:	465f4f49 	ldrbmi	r4, [pc], -r9, asr #30
 8f8:	5f434e55 	svcpl	0x00434e55
 8fc:	33544c41 	cmpcc	r4, #16640	; 0x4100
 900:	49504700 	ldmdbmi	r0, {r8, r9, sl, lr}^
 904:	55465f4f 	strbpl	r5, [r6, #-3919]	; 0xfffff0b1
 908:	415f434e 	cmpmi	pc, lr, asr #6
 90c:	0034544c 	eorseq	r5, r4, ip, asr #8
 910:	4f495047 	svcmi	0x00495047
 914:	4e55465f 	mrcmi	6, 2, r4, cr5, cr15, {2}
 918:	4c415f43 	mcrrmi	15, 4, r5, r1, cr3
 91c:	75003554 	strvc	r3, [r0, #-1364]	; 0xfffffaac
 920:	5f747261 	svcpl	0x00747261
 924:	5f6e6163 	svcpl	0x006e6163
 928:	63747570 	cmnvs	r4, #112, 10	; 0x1c000000
 92c:	6e697500 	cdpvs	5, 6, cr7, cr9, cr0, {0}
 930:	745f3874 	ldrbvc	r3, [pc], #-2164	; 938 <__code_start__-0x76c8>
 934:	72656900 	rsbvc	r6, r5, #0, 18
 938:	00676572 	rsbeq	r6, r7, r2, ror r5
 93c:	5f726569 	svcpl	0x00726569
 940:	695f7874 	ldmdbvs	pc, {r2, r4, r5, r6, fp, ip, sp, lr}^	; <UNPREDICTABLE>
 944:	7265746e 	rsbvc	r7, r5, #1845493760	; 0x6e000000
 948:	74707572 	ldrbtvc	r7, [r0], #-1394	; 0xfffffa8e
 94c:	75616200 	strbvc	r6, [r1, #-512]!	; 0xfffffe00
 950:	61725f64 	cmnvs	r2, r4, ror #30
 954:	69006574 	stmdbvs	r0, {r2, r4, r5, r6, r8, sl, sp, lr}
 958:	6765726f 	strbvs	r7, [r5, -pc, ror #4]!
 95c:	6900745f 	stmdbvs	r0, {r0, r1, r2, r3, r4, r6, sl, ip, sp, lr}
 960:	675f7269 	ldrbvs	r7, [pc, -r9, ror #4]
 964:	73007061 	movwvc	r7, #97	; 0x61
 968:	5f746174 	svcpl	0x00746174
 96c:	00737463 	rsbseq	r7, r3, r3, ror #8
 970:	65787561 	ldrbvs	r7, [r8, #-1377]!	; 0xfffffa9f
 974:	755f626e 	ldrbvc	r6, [pc, #-622]	; 70e <__code_start__-0x78f2>
 978:	6573756e 	ldrbvs	r7, [r3, #-1390]!	; 0xfffffa92
 97c:	6e630064 	cdpvs	0, 6, cr0, cr3, cr4, {3}
 980:	65726c74 	ldrbvs	r6, [r2, #-3188]!	; 0xfffff38c
 984:	74730067 	ldrbtvc	r0, [r3], #-103	; 0xffffff99
 988:	65727461 	ldrbvs	r7, [r2, #-1121]!	; 0xfffffb9f
 98c:	69690067 	stmdbvs	r9!, {r0, r1, r2, r5, r6}^
 990:	67657272 			; <UNDEFINED> instruction: 0x67657272
 994:	6569665f 	strbvs	r6, [r9, #-1631]!	; 0xfffff9a1
 998:	0073646c 	rsbseq	r6, r3, ip, ror #8
 99c:	74617473 	strbtvc	r7, [r1], #-1139	; 0xfffffb8d
 9a0:	5f78745f 	svcpl	0x0078745f
 9a4:	6c6c7566 	cfstr64vs	mvdx7, [ip], #-408	; 0xfffffe68
 9a8:	72617500 	rsbvc	r7, r1, #0, 10
 9ac:	65675f74 	strbvs	r5, [r7, #-3956]!	; 0xfffff08c
 9b0:	69006374 	stmdbvs	r0, {r2, r4, r5, r6, r8, r9, sp, lr}
 9b4:	755f7265 	ldrbvc	r7, [pc, #-613]	; 757 <__code_start__-0x78a9>
 9b8:	6573756e 	ldrbvs	r7, [r3, #-1390]!	; 0xfffffa92
 9bc:	74730064 	ldrbtvc	r0, [r3], #-100	; 0xffffff9c
 9c0:	65727461 	ldrbvs	r7, [r2, #-1121]!	; 0xfffffb9f
 9c4:	00745f67 	rsbseq	r5, r4, r7, ror #30
 9c8:	64756162 	ldrbtvs	r6, [r5], #-354	; 0xfffffe9e
 9cc:	7365725f 	cmnvc	r5, #-268435451	; 0xf0000005
 9d0:	65767265 	ldrbvs	r7, [r6, #-613]!	; 0xfffffd9b
 9d4:	736c0064 	cmnvc	ip, #100, 0	; 0x64
 9d8:	78745f72 	ldmdavc	r4!, {r1, r4, r5, r6, r8, r9, sl, fp, ip, lr}^
 9dc:	7461645f 	strbtvc	r6, [r1], #-1119	; 0xfffffba1
 9e0:	65725f61 	ldrbvs	r5, [r2, #-3937]!	; 0xfffff09f
 9e4:	00796461 	rsbseq	r6, r9, r1, ror #8
 9e8:	65787561 	ldrbvs	r7, [r8, #-1377]!	; 0xfffffa9f
 9ec:	665f626e 	ldrbvs	r6, [pc], -lr, ror #4
 9f0:	646c6569 	strbtvs	r6, [ip], #-1385	; 0xfffffa97
 9f4:	736c0073 	cmnvc	ip, #115, 0	; 0x73
 9f8:	61675f72 	smcvs	30194	; 0x75f2
 9fc:	69690070 	stmdbvs	r9!, {r4, r5, r6}^
 a00:	78725f72 	ldmdavc	r2!, {r1, r4, r5, r6, r8, r9, sl, fp, ip, lr}^
 a04:	6669665f 			; <UNDEFINED> instruction: 0x6669665f
 a08:	6c635f6f 	stclvs	15, cr5, [r3], #-444	; 0xfffffe44
 a0c:	00726165 	rsbseq	r6, r2, r5, ror #2
 a10:	69787561 	ldmdbvs	r8!, {r0, r5, r6, r8, sl, ip, sp, lr}^
 a14:	47007172 	smlsdxmi	r0, r2, r1, r7
 a18:	5f4f4950 	svcpl	0x004f4950
 a1c:	434e5546 	movtmi	r5, #58694	; 0xe546
 a20:	504e495f 	subpl	r4, lr, pc, asr r9
 a24:	61005455 	tstvs	r0, r5, asr r4
 a28:	72697875 	rsbvc	r7, r9, #7667712	; 0x750000
 a2c:	69665f71 	stmdbvs	r6!, {r0, r4, r5, r6, r8, r9, sl, fp, ip, lr}^
 a30:	73646c65 	cmnvc	r4, #25856	; 0x6500
 a34:	72696900 	rsbvc	r6, r9, #0, 18
 a38:	5f78745f 	svcpl	0x0078745f
 a3c:	6f666966 	svcvs	0x00666966
 a40:	656c635f 	strbvs	r6, [ip, #-863]!	; 0xfffffca1
 a44:	69007261 	stmdbvs	r0, {r0, r5, r6, r9, ip, sp, lr}
 a48:	61645f6f 	cmnvs	r4, pc, ror #30
 a4c:	6d006174 	stfvss	f6, [r0, #-464]	; 0xfffffe30
 a50:	65727263 	ldrbvs	r7, [r2, #-611]!	; 0xfffffd9d
 a54:	6e755f67 	cdpvs	15, 7, cr5, cr5, cr7, {3}
 a58:	64657375 	strbtvs	r7, [r5], #-885	; 0xfffffc8b
 a5c:	72617500 	rsbvc	r7, r1, #0, 10
 a60:	61685f74 	smcvs	34292	; 0x85f4
 a64:	61645f73 	smcvs	17907	; 0x45f3
 a68:	6d006174 	stfvss	f6, [r0, #-464]	; 0xfffffe30
 a6c:	65727273 	ldrbvs	r7, [r2, #-627]!	; 0xfffffd8d
 a70:	6e755f67 	cdpvs	15, 7, cr5, cr5, cr7, {3}
 a74:	64657375 	strbtvs	r7, [r5], #-885	; 0xfffffc8b
 a78:	72696900 	rsbvc	r6, r9, #0, 18
 a7c:	00676572 	rsbeq	r6, r7, r2, ror r5
 a80:	64756162 	ldrbtvs	r6, [r5], #-354	; 0xfffffe9e
 a84:	00676572 	rsbeq	r6, r7, r2, ror r5
 a88:	74617473 	strbtvc	r7, [r1], #-1139	; 0xfffffb8d
 a8c:	5f676572 	svcpl	0x00676572
 a90:	6c656966 			; <UNDEFINED> instruction: 0x6c656966
 a94:	6c007364 	stcvs	3, cr7, [r0], {100}	; 0x64
 a98:	745f7273 	ldrbvc	r7, [pc], #-627	; aa0 <__code_start__-0x7560>
 a9c:	766f5f78 	uqsub16vc	r5, pc, r8	; <UNPREDICTABLE>
 aa0:	75727265 	ldrbvc	r7, [r2, #-613]!	; 0xfffffd9b
 aa4:	6569006e 	strbvs	r0, [r9, #-110]!	; 0xffffff92
 aa8:	78725f72 	ldmdavc	r2!, {r1, r4, r5, r6, r8, r9, sl, fp, ip, lr}^
 aac:	746e695f 	strbtvc	r6, [lr], #-2399	; 0xfffff6a1
 ab0:	75727265 	ldrbvc	r7, [r2, #-613]!	; 0xfffffd9b
 ab4:	67007470 	smlsdxvs	r0, r0, r4, r7
 ab8:	5f6f6970 	svcpl	0x006f6970
 abc:	5f746573 	svcpl	0x00746573
 ac0:	636e7566 	cmnvs	lr, #427819008	; 0x19800000
 ac4:	6e6f6974 			; <UNDEFINED> instruction: 0x6e6f6974
 ac8:	61747300 	cmnvs	r4, r0, lsl #6
 acc:	78725f74 	ldmdavc	r2!, {r2, r4, r5, r6, r8, r9, sl, fp, ip, lr}^
 ad0:	6c64695f 			; <UNDEFINED> instruction: 0x6c64695f
 ad4:	756d0065 	strbvc	r0, [sp, #-101]!	; 0xffffff9b
 ad8:	5f747261 	svcpl	0x00747261
 adc:	69676572 	stmdbvs	r7!, {r1, r4, r5, r6, r8, sl, sp, lr}^
 ae0:	72657473 	rsbvc	r7, r5, #1929379840	; 0x73000000
 ae4:	00745f73 	rsbseq	r5, r4, r3, ror pc
 ae8:	69787561 	ldmdbvs	r8!, {r0, r5, r6, r8, sl, ip, sp, lr}^
 aec:	755f7172 	ldrbvc	r7, [pc, #-370]	; 982 <__code_start__-0x767e>
 af0:	6573756e 	ldrbvs	r7, [r3, #-1390]!	; 0xfffffa92
 af4:	6e630064 	cdpvs	0, 6, cr0, cr3, cr4, {3}
 af8:	755f6c74 	ldrbvc	r6, [pc, #-3188]	; fffffe8c <__bss_end__+0xffff5fb4>
 afc:	6573756e 	ldrbvs	r7, [r3, #-1390]!	; 0xfffffa92
 b00:	61750064 	cmnvs	r5, r4, rrx
 b04:	635f7472 	cmpvs	pc, #1912602624	; 0x72000000
 b08:	675f6e61 	ldrbvs	r6, [pc, -r1, ror #28]
 b0c:	00637465 	rsbeq	r7, r3, r5, ror #8
 b10:	74726175 	ldrbtvc	r6, [r2], #-373	; 0xfffffe8b
 b14:	5f78745f 	svcpl	0x0078745f
 b18:	655f7369 	ldrbvs	r7, [pc, #-873]	; 7b7 <__code_start__-0x7849>
 b1c:	7974706d 	ldmdbvc	r4!, {r0, r2, r3, r5, r6, ip, sp, lr}^
 b20:	72636c00 	rsbvc	r6, r3, #0, 24
 b24:	00676572 	rsbeq	r6, r7, r2, ror r5
 b28:	5f726969 	svcpl	0x00726969
 b2c:	65736572 	ldrbvs	r6, [r3, #-1394]!	; 0xfffffa8e
 b30:	64657672 	strbtvs	r7, [r5], #-1650	; 0xfffff98e
 b34:	726f6900 	rsbvc	r6, pc, #0, 18
 b38:	73006765 	movwvc	r6, #1893	; 0x765
 b3c:	5f746174 	svcpl	0x00746174
 b40:	645f7874 	ldrbvs	r7, [pc], #-2164	; b48 <__code_start__-0x74b8>
 b44:	00656e6f 	rsbeq	r6, r5, pc, ror #28
 b48:	5f787561 	svcpl	0x00787561
 b4c:	72617473 	rsbvc	r7, r1, #1929379840	; 0x73000000
 b50:	63730074 	cmnvs	r3, #116, 0	; 0x74
 b54:	63746172 	cmnvs	r4, #-2147483620	; 0x8000001c
 b58:	67657268 	strbvs	r7, [r5, -r8, ror #4]!
 b5c:	756e755f 	strbvc	r7, [lr, #-1375]!	; 0xfffffaa1
 b60:	00646573 	rsbeq	r6, r4, r3, ror r5
 b64:	65787561 	ldrbvs	r7, [r8, #-1377]!	; 0xfffffa9f
 b68:	6200626e 	andvs	r6, r0, #-536870906	; 0xe0000006
 b6c:	72647561 	rsbvc	r7, r4, #406847488	; 0x18400000
 b70:	665f6765 	ldrbvs	r6, [pc], -r5, ror #14
 b74:	646c6569 	strbtvs	r6, [ip], #-1385	; 0xfffffa97
 b78:	6f690073 	svcvs	0x00690073
 b7c:	7365725f 	cmnvc	r5, #-268435451	; 0xf0000005
 b80:	65767265 	ldrbvs	r7, [r6, #-613]!	; 0xfffffd9b
 b84:	6e630064 	cdpvs	0, 6, cr0, cr3, cr4, {3}
 b88:	65726c74 	ldrbvs	r6, [r2, #-3188]!	; 0xfffff38c
 b8c:	69665f67 	stmdbvs	r6!, {r0, r1, r2, r5, r6, r8, r9, sl, fp, ip, lr}^
 b90:	73646c65 	cmnvc	r4, #25856	; 0x6500
 b94:	72617500 	rsbvc	r7, r1, #0, 10
 b98:	75705f74 	ldrbvc	r5, [r0, #-3956]!	; 0xfffff08c
 b9c:	73006374 	movwvc	r6, #884	; 0x374
 ba0:	5f746174 	svcpl	0x00746174
 ba4:	655f7874 	ldrbvs	r7, [pc, #-2164]	; 338 <__code_start__-0x7cc8>
 ba8:	7974706d 	ldmdbvc	r4!, {r0, r2, r3, r5, r6, ip, sp, lr}^
 bac:	72736c00 	rsbsvc	r6, r3, #0, 24
 bb0:	5f78725f 	svcpl	0x0078725f
 bb4:	61746164 	cmnvs	r4, r4, ror #2
 bb8:	6165725f 	cmnvs	r5, pc, asr r2
 bbc:	69007964 	stmdbvs	r0, {r2, r5, r6, r8, fp, ip, sp, lr}
 bc0:	65727265 	ldrbvs	r7, [r2, #-613]!	; 0xfffffd9b
 bc4:	69665f67 	stmdbvs	r6!, {r0, r1, r2, r5, r6, r8, r9, sl, fp, ip, lr}^
 bc8:	73646c65 	cmnvc	r4, #25856	; 0x6500
 bcc:	72736c00 	rsbsvc	r6, r3, #0, 24
 bd0:	7365725f 	cmnvc	r5, #-268435451	; 0xf0000005
 bd4:	65767265 	ldrbvs	r7, [r6, #-613]!	; 0xfffffd9b
 bd8:	736c0064 	cmnvc	ip, #100, 0	; 0x64
 bdc:	67657272 			; <UNDEFINED> instruction: 0x67657272
 be0:	6900745f 	stmdbvs	r0, {r0, r1, r2, r3, r4, r6, sl, ip, sp, lr}
 be4:	6765726f 	strbvs	r7, [r5, -pc, ror #4]!
 be8:	6569665f 	strbvs	r6, [r9, #-1631]!	; 0xfffff9a1
 bec:	0073646c 	rsbseq	r6, r3, ip, ror #8
 bf0:	5f72636c 	svcpl	0x0072636c
 bf4:	65736572 	ldrbvs	r6, [r3, #-1394]!	; 0xfffffa8e
 bf8:	64657672 	strbtvs	r7, [r5], #-1650	; 0xfffff98e
 bfc:	61747300 	cmnvs	r4, r0, lsl #6
 c00:	78725f74 	ldmdavc	r2!, {r2, r4, r5, r6, r8, r9, sl, fp, ip, lr}^
 c04:	65766f5f 	ldrbvs	r6, [r6, #-3935]!	; 0xfffff0a1
 c08:	6e757272 	mrcvs	2, 3, r7, cr5, cr2, {3}
 c0c:	72696900 	rsbvc	r6, r9, #0, 18
 c10:	746e695f 	strbtvc	r6, [lr], #-2399	; 0xfffff6a1
 c14:	75727265 	ldrbvc	r7, [r2, #-613]!	; 0xfffffd9b
 c18:	705f7470 	subsvc	r7, pc, r0, ror r4	; <UNPREDICTABLE>
 c1c:	69646e65 	stmdbvs	r4!, {r0, r2, r5, r6, r9, sl, fp, sp, lr}^
 c20:	6700676e 	strvs	r6, [r0, -lr, ror #14]
 c24:	5f6f6970 	svcpl	0x006f6970
 c28:	30726c63 	rsbscc	r6, r2, r3, ror #24
 c2c:	69706700 	ldmdbvs	r0!, {r8, r9, sl, sp, lr}^
 c30:	65735f6f 	ldrbvs	r5, [r3, #-3951]!	; 0xfffff091
 c34:	63003074 	movwvs	r3, #116	; 0x74
 c38:	65727275 	ldrbvs	r7, [r2, #-629]!	; 0xfffffd8b
 c3c:	6700746e 	strvs	r7, [r0, -lr, ror #8]
 c40:	5f6f6970 	svcpl	0x006f6970
 c44:	74697277 	strbtvc	r7, [r9], #-631	; 0xfffffd89
 c48:	70670065 	rsbvc	r0, r7, r5, rrx
 c4c:	725f6f69 	subsvc	r6, pc, #420	; 0x1a4
 c50:	00646165 	rsbeq	r6, r4, r5, ror #2
 c54:	6f697067 	svcvs	0x00697067
 c58:	7465735f 	strbtvc	r7, [r5], #-863	; 0xfffffca1
 c5c:	706e695f 	rsbvc	r6, lr, pc, asr r9
 c60:	67007475 	smlsdxvs	r0, r5, r4, r7
 c64:	5f6f6970 	svcpl	0x006f6970
 c68:	5f746573 	svcpl	0x00746573
 c6c:	0066666f 	rsbeq	r6, r6, pc, ror #12
 c70:	6f697067 	svcvs	0x00697067
 c74:	7465735f 	strbtvc	r7, [r5], #-863	; 0xfffffca1
 c78:	74756f5f 	ldrbtvc	r6, [r5], #-3935	; 0xfffff0a1
 c7c:	00747570 	rsbseq	r7, r4, r0, ror r5
 c80:	6f697067 	svcvs	0x00697067
 c84:	6e75665f 	mrcvs	6, 3, r6, cr5, cr15, {2}
 c88:	00745f63 	rsbseq	r5, r4, r3, ror #30
 c8c:	72646461 	rsbvc	r6, r4, #1627389952	; 0x61000000
 c90:	00737365 	rsbseq	r7, r3, r5, ror #6
 c94:	6f697067 	svcvs	0x00697067
 c98:	76656c5f 			; <UNDEFINED> instruction: 0x76656c5f
 c9c:	70670030 	rsbvc	r0, r7, r0, lsr r0
 ca0:	735f6f69 	cmpvc	pc, #420	; 0x1a4
 ca4:	00306c65 	eorseq	r6, r0, r5, ror #24
 ca8:	2f637273 	svccs	0x00637273
 cac:	6f697067 	svcvs	0x00697067
 cb0:	6700632e 	strvs	r6, [r0, -lr, lsr #6]
 cb4:	5f6f6970 	svcpl	0x006f6970
 cb8:	5f746573 	svcpl	0x00746573
 cbc:	69006e6f 	stmdbvs	r0, {r0, r1, r2, r3, r5, r6, r9, sl, fp, sp, lr}
 cc0:	6c615f73 	stclvs	15, cr5, [r1], #-460	; 0xfffffe34
 cc4:	656e6769 	strbvs	r6, [lr, #-1897]!	; 0xfffff897
 cc8:	6d6b0064 	stclvs	0, cr0, [fp, #-400]!	; 0xfffffe70
 ccc:	6f6c6c61 	svcvs	0x006c6c61
 cd0:	6e695f63 	cdpvs	15, 6, cr5, cr9, cr3, {3}
 cd4:	735f7469 	cmpvc	pc, #1761607680	; 0x69000000
 cd8:	735f7465 	cmpvc	pc, #1694498816	; 0x65000000
 cdc:	74726174 	ldrbtvc	r6, [r2], #-372	; 0xfffffe8c
 ce0:	696c6100 	stmdbvs	ip!, {r8, sp, lr}^
 ce4:	656d6e67 	strbvs	r6, [sp, #-3687]!	; 0xfffff199
 ce8:	6b00746e 	blvs	1dea8 <__bss_end__+0x13fd0>
 cec:	65657266 	strbvs	r7, [r5, #-614]!	; 0xfffffd9a
 cf0:	6c6c615f 	stfvse	f6, [ip], #-380	; 0xfffffe84
 cf4:	5f736900 	svcpl	0x00736900
 cf8:	32776f70 	rsbscc	r6, r7, #112, 30	; 0x1c0
 cfc:	6c6c6100 	stfvse	f6, [ip], #-0
 d00:	735f636f 	cmpvc	pc, #-1140850687	; 0xbc000001
 d04:	74726174 	ldrbtvc	r6, [r2], #-372	; 0xfffffe8c
 d08:	69707200 	ldmdbvs	r0!, {r9, ip, sp, lr}^
 d0c:	7365725f 	cmnvc	r5, #-268435451	; 0xf0000005
 d10:	705f7465 	subsvc	r7, pc, r5, ror #8
 d14:	00637475 	rsbeq	r7, r3, r5, ror r4
 d18:	6e756f72 	mrcvs	15, 3, r6, cr5, cr2, {3}
 d1c:	00707564 	rsbseq	r7, r0, r4, ror #10
 d20:	62756f64 	rsbsvs	r6, r5, #100, 30	; 0x190
 d24:	6100656c 	tstvs	r0, ip, ror #10
 d28:	636f6c6c 	cmnvs	pc, #108, 24	; 0x6c00
 d2c:	706f745f 	rsbvc	r7, pc, pc, asr r4	; <UNPREDICTABLE>
 d30:	696e6900 	stmdbvs	lr!, {r8, fp, sp, lr}^
 d34:	00705f74 	rsbseq	r5, r0, r4, ror pc
 d38:	6c616d6b 	stclvs	13, cr6, [r1], #-428	; 0xfffffe54
 d3c:	5f636f6c 	svcpl	0x00636f6c
 d40:	70616568 	rsbvc	r6, r1, r8, ror #10
 d44:	7274705f 	rsbsvc	r7, r4, #95, 0	; 0x5f
 d48:	616d6b00 	cmnvs	sp, r0, lsl #22
 d4c:	636f6c6c 	cmnvs	pc, #108, 24	; 0x6c00
 d50:	696c615f 	stmdbvs	ip!, {r0, r1, r2, r3, r4, r6, r8, sp, lr}^
 d54:	64656e67 	strbtvs	r6, [r5], #-3687	; 0xfffff199
 d58:	5f736900 	svcpl	0x00736900
 d5c:	67696c61 	strbvs	r6, [r9, -r1, ror #24]!
 d60:	5f64656e 	svcpl	0x0064656e
 d64:	00727470 	rsbseq	r7, r2, r0, ror r4
 d68:	2f637273 	svccs	0x00637273
 d6c:	6c616d6b 	stclvs	13, cr6, [r1], #-428	; 0xfffffe54
 d70:	2e636f6c 	cdpcs	15, 6, cr6, cr3, cr12, {3}
 d74:	626e0063 	rsbvs	r0, lr, #99, 0	; 0x63
 d78:	73657479 	cmnvc	r5, #2030043136	; 0x79000000
 d7c:	64615f00 	strbtvs	r5, [r1], #-3840	; 0xfffff100
 d80:	69007264 	stmdbvs	r0, {r2, r5, r6, r9, ip, sp, lr}
 d84:	7265746e 	rsbvc	r7, r5, #1845493760	; 0x6e000000
 d88:	5f6c616e 	svcpl	0x006c616e
 d8c:	63747570 	cmnvs	r4, #112, 10	; 0x1c000000
 d90:	00726168 	rsbseq	r6, r2, r8, ror #2
 d94:	5f697072 	svcpl	0x00697072
 d98:	5f746573 	svcpl	0x00746573
 d9c:	63747570 	cmnvs	r4, #112, 10	; 0x1c000000
 da0:	62696c00 	rsbvs	r6, r9, #0, 24
 da4:	75702f63 	ldrbvc	r2, [r0, #-3939]!	; 0xfffff09d
 da8:	61686374 	smcvs	34356	; 0x8634
 dac:	00632e72 	rsbeq	r2, r3, r2, ror lr
 db0:	6362696c 	cmnvs	r2, #108, 18	; 0x1b0000
 db4:	7274732f 	rsbsvc	r7, r4, #-1140850688	; 0xbc000000
 db8:	2e746163 	rpwcssz	f6, f4, f3
 dbc:	65640063 	strbvs	r0, [r4, #-99]!	; 0xffffff9d
 dc0:	73007473 	movwvc	r7, #1139	; 0x473
 dc4:	5f657a69 	svcpl	0x00657a69
 dc8:	696c0074 	stmdbvs	ip!, {r2, r4, r5, r6}^
 dcc:	732f6362 			; <UNDEFINED> instruction: 0x732f6362
 dd0:	636e7274 	cmnvs	lr, #116, 4	; 0x40000007
 dd4:	632e706d 			; <UNDEFINED> instruction: 0x632e706d
	...

Disassembly of section .debug_frame:

00000000 <.debug_frame>:
   0:	0000000c 	andeq	r0, r0, ip
   4:	ffffffff 			; <UNDEFINED> instruction: 0xffffffff
   8:	7c020001 	stcvc	0, cr0, [r2], {1}
   c:	000d0c0e 	andeq	r0, sp, lr, lsl #24
  10:	0000000c 	andeq	r0, r0, ip
  14:	00000000 	andeq	r0, r0, r0
  18:	00008034 	andeq	r8, r0, r4, lsr r0
  1c:	00000028 	andeq	r0, r0, r8, lsr #32
  20:	00000018 	andeq	r0, r0, r8, lsl r0
  24:	00000000 	andeq	r0, r0, r0
  28:	0000805c 	andeq	r8, r0, ip, asr r0
  2c:	00000060 	andeq	r0, r0, r0, rrx
  30:	84100e42 	ldrhi	r0, [r0], #-3650	; 0xfffff1be
  34:	86038504 	strhi	r8, [r3], -r4, lsl #10
  38:	00018e02 	andeq	r8, r1, r2, lsl #28
  3c:	00000014 	andeq	r0, r0, r4, lsl r0
  40:	00000000 	andeq	r0, r0, r0
  44:	000080bc 	strheq	r8, [r0], -ip
  48:	00000094 	muleq	r0, r4, r0
  4c:	84080e42 	strhi	r0, [r8], #-3650	; 0xfffff1be
  50:	00018e02 	andeq	r8, r1, r2, lsl #28
  54:	00000018 	andeq	r0, r0, r8, lsl r0
  58:	00000000 	andeq	r0, r0, r0
  5c:	00008150 	andeq	r8, r0, r0, asr r1
  60:	0000006c 	andeq	r0, r0, ip, rrx
  64:	84100e42 	ldrhi	r0, [r0], #-3650	; 0xfffff1be
  68:	86038504 	strhi	r8, [r3], -r4, lsl #10
  6c:	00018e02 	andeq	r8, r1, r2, lsl #28
  70:	00000018 	andeq	r0, r0, r8, lsl r0
  74:	00000000 	andeq	r0, r0, r0
  78:	000081bc 			; <UNDEFINED> instruction: 0x000081bc
  7c:	000000d4 	ldrdeq	r0, [r0], -r4
  80:	84080e42 	strhi	r0, [r8], #-3650	; 0xfffff1be
  84:	42018e02 	andmi	r8, r1, #2, 28
  88:	0000100e 	andeq	r1, r0, lr
  8c:	0000000c 	andeq	r0, r0, ip
  90:	ffffffff 			; <UNDEFINED> instruction: 0xffffffff
  94:	7c020001 	stcvc	0, cr0, [r2], {1}
  98:	000d0c0e 	andeq	r0, sp, lr, lsl #24
  9c:	00000014 	andeq	r0, r0, r4, lsl r0
  a0:	0000008c 	andeq	r0, r0, ip, lsl #1
  a4:	00008360 	andeq	r8, r0, r0, ror #6
  a8:	00000064 	andeq	r0, r0, r4, rrx
  ac:	84080e42 	strhi	r0, [r8], #-3650	; 0xfffff1be
  b0:	00018e02 	andeq	r8, r1, r2, lsl #28
  b4:	00000014 	andeq	r0, r0, r4, lsl r0
  b8:	0000008c 	andeq	r0, r0, ip, lsl #1
  bc:	000083c4 	andeq	r8, r0, r4, asr #7
  c0:	0000003c 	andeq	r0, r0, ip, lsr r0
  c4:	8e040e42 	cdphi	14, 0, cr0, cr4, cr2, {2}
  c8:	100e4201 	andne	r4, lr, r1, lsl #4
  cc:	00000014 	andeq	r0, r0, r4, lsl r0
  d0:	0000008c 	andeq	r0, r0, ip, lsl #1
  d4:	00008400 	andeq	r8, r0, r0, lsl #8
  d8:	0000003c 	andeq	r0, r0, ip, lsr r0
  dc:	8e040e42 	cdphi	14, 0, cr0, cr4, cr2, {2}
  e0:	100e4201 	andne	r4, lr, r1, lsl #4
  e4:	00000014 	andeq	r0, r0, r4, lsl r0
  e8:	0000008c 	andeq	r0, r0, ip, lsl #1
  ec:	0000843c 	andeq	r8, r0, ip, lsr r4
  f0:	0000003c 	andeq	r0, r0, ip, lsr r0
  f4:	8e040e42 	cdphi	14, 0, cr0, cr4, cr2, {2}
  f8:	100e4201 	andne	r4, lr, r1, lsl #4
  fc:	00000014 	andeq	r0, r0, r4, lsl r0
 100:	0000008c 	andeq	r0, r0, ip, lsl #1
 104:	00008478 	andeq	r8, r0, r8, ror r4
 108:	0000003c 	andeq	r0, r0, ip, lsr r0
 10c:	8e040e42 	cdphi	14, 0, cr0, cr4, cr2, {2}
 110:	100e4201 	andne	r4, lr, r1, lsl #4
 114:	00000014 	andeq	r0, r0, r4, lsl r0
 118:	0000008c 	andeq	r0, r0, ip, lsl #1
 11c:	000084b4 			; <UNDEFINED> instruction: 0x000084b4
 120:	0000003c 	andeq	r0, r0, ip, lsr r0
 124:	8e040e42 	cdphi	14, 0, cr0, cr4, cr2, {2}
 128:	100e4201 	andne	r4, lr, r1, lsl #4
 12c:	00000014 	andeq	r0, r0, r4, lsl r0
 130:	0000008c 	andeq	r0, r0, ip, lsl #1
 134:	000084f0 	strdeq	r8, [r0], -r0
 138:	0000003c 	andeq	r0, r0, ip, lsr r0
 13c:	8e040e42 	cdphi	14, 0, cr0, cr4, cr2, {2}
 140:	100e4201 	andne	r4, lr, r1, lsl #4
 144:	0000000c 	andeq	r0, r0, ip
 148:	ffffffff 			; <UNDEFINED> instruction: 0xffffffff
 14c:	7c020001 	stcvc	0, cr0, [r2], {1}
 150:	000d0c0e 	andeq	r0, sp, lr, lsl #24
 154:	00000018 	andeq	r0, r0, r8, lsl r0
 158:	00000144 	andeq	r0, r0, r4, asr #2
 15c:	0000852c 	andeq	r8, r0, ip, lsr #10
 160:	0000001c 	andeq	r0, r0, ip, lsl r0
 164:	8e040e42 	cdphi	14, 0, cr0, cr4, cr2, {2}
 168:	200e4201 	andcs	r4, lr, r1, lsl #4
 16c:	00040e46 	andeq	r0, r4, r6, asr #28
 170:	00000014 	andeq	r0, r0, r4, lsl r0
 174:	00000144 	andeq	r0, r0, r4, asr #2
 178:	00008548 	andeq	r8, r0, r8, asr #10
 17c:	00000040 	andeq	r0, r0, r0, asr #32
 180:	84080e42 	strhi	r0, [r8], #-3650	; 0xfffff1be
 184:	00018e02 	andeq	r8, r1, r2, lsl #28
 188:	0000000c 	andeq	r0, r0, ip
 18c:	ffffffff 			; <UNDEFINED> instruction: 0xffffffff
 190:	7c020001 	stcvc	0, cr0, [r2], {1}
 194:	000d0c0e 	andeq	r0, sp, lr, lsl #24
 198:	00000034 	andeq	r0, r0, r4, lsr r0
 19c:	00000188 	andeq	r0, r0, r8, lsl #3
 1a0:	00008588 	andeq	r8, r0, r8, lsl #11
 1a4:	00000058 	andeq	r0, r0, r8, asr r0
 1a8:	80100e42 	andshi	r0, r0, r2, asr #28
 1ac:	82038104 	andhi	r8, r3, #1
 1b0:	42018302 	andmi	r8, r1, #134217728	; 0x8000000
 1b4:	07841c0e 	streq	r1, [r4, lr, lsl #24]
 1b8:	058e0685 	streq	r0, [lr, #1669]	; 0x685
 1bc:	5c280e42 	stcpl	14, cr0, [r8], #-264	; 0xfffffef8
 1c0:	ce421c0e 	cdpgt	12, 4, cr1, cr2, cr14, {0}
 1c4:	100ec4c5 	andne	ip, lr, r5, asr #9
 1c8:	c1c2c342 	bicgt	ip, r2, r2, asr #6
 1cc:	00000ec0 	andeq	r0, r0, r0, asr #29
 1d0:	0000000c 	andeq	r0, r0, ip
 1d4:	ffffffff 			; <UNDEFINED> instruction: 0xffffffff
 1d8:	7c020001 	stcvc	0, cr0, [r2], {1}
 1dc:	000d0c0e 	andeq	r0, sp, lr, lsl #24
 1e0:	00000014 	andeq	r0, r0, r4, lsl r0
 1e4:	000001d0 	ldrdeq	r0, [r0], -r0	; <UNPREDICTABLE>
 1e8:	000085e0 	andeq	r8, r0, r0, ror #11
 1ec:	00000034 	andeq	r0, r0, r4, lsr r0
 1f0:	84080e42 	strhi	r0, [r8], #-3650	; 0xfffff1be
 1f4:	00018e02 	andeq	r8, r1, r2, lsl #28
 1f8:	0000000c 	andeq	r0, r0, ip
 1fc:	ffffffff 			; <UNDEFINED> instruction: 0xffffffff
 200:	7c020001 	stcvc	0, cr0, [r2], {1}
 204:	000d0c0e 	andeq	r0, sp, lr, lsl #24
 208:	0000000c 	andeq	r0, r0, ip
 20c:	000001f8 	strdeq	r0, [r0], -r8
 210:	00008614 	andeq	r8, r0, r4, lsl r6
 214:	00000014 	andeq	r0, r0, r4, lsl r0
 218:	0000000c 	andeq	r0, r0, ip
 21c:	000001f8 	strdeq	r0, [r0], -r8
 220:	00008628 	andeq	r8, r0, r8, lsr #12
 224:	00000024 	andeq	r0, r0, r4, lsr #32
 228:	0000000c 	andeq	r0, r0, ip
 22c:	000001f8 	strdeq	r0, [r0], -r8
 230:	0000864c 	andeq	r8, r0, ip, asr #12
 234:	00000038 	andeq	r0, r0, r8, lsr r0
 238:	00000024 	andeq	r0, r0, r4, lsr #32
 23c:	000001f8 	strdeq	r0, [r0], -r8
 240:	00008684 	andeq	r8, r0, r4, lsl #13
 244:	000001b4 			; <UNDEFINED> instruction: 0x000001b4
 248:	84140e42 	ldrhi	r0, [r4], #-3650	; 0xfffff1be
 24c:	86048505 	strhi	r8, [r4], -r5, lsl #10
 250:	8e028703 	cdphi	7, 0, cr8, cr2, cr3, {0}
 254:	600e4201 	andvs	r4, lr, r1, lsl #4
 258:	0e0a9a02 	vmlaeq.f32	s18, s20, s4
 25c:	000b4214 	andeq	r4, fp, r4, lsl r2
 260:	00000014 	andeq	r0, r0, r4, lsl r0
 264:	000001f8 	strdeq	r0, [r0], -r8
 268:	00008838 	andeq	r8, r0, r8, lsr r8
 26c:	00000064 	andeq	r0, r0, r4, rrx
 270:	8e040e54 	mcrhi	14, 0, r0, cr4, cr4, {2}
 274:	100e4201 	andne	r4, lr, r1, lsl #4
 278:	0000002c 	andeq	r0, r0, ip, lsr #32
 27c:	000001f8 	strdeq	r0, [r0], -r8
 280:	0000889c 	muleq	r0, ip, r8
 284:	000003a4 	andeq	r0, r0, r4, lsr #7
 288:	84240e42 	strthi	r0, [r4], #-3650	; 0xfffff1be
 28c:	86088509 	strhi	r8, [r8], -r9, lsl #10
 290:	88068707 	stmdahi	r6, {r0, r1, r2, r8, r9, sl, pc}
 294:	8a048905 	bhi	1226b0 <__bss_end__+0x1187d8>
 298:	8e028b03 	vmlahi.f64	d8, d2, d3
 29c:	b80e4201 	stmdalt	lr, {r0, r9, lr}
 2a0:	01b80302 			; <UNDEFINED> instruction: 0x01b80302
 2a4:	0000240e 	andeq	r2, r0, lr, lsl #8
 2a8:	0000000c 	andeq	r0, r0, ip
 2ac:	ffffffff 			; <UNDEFINED> instruction: 0xffffffff
 2b0:	7c020001 	stcvc	0, cr0, [r2], {1}
 2b4:	000d0c0e 	andeq	r0, sp, lr, lsl #24
 2b8:	00000014 	andeq	r0, r0, r4, lsl r0
 2bc:	000002a8 	andeq	r0, r0, r8, lsr #5
 2c0:	00008c40 	andeq	r8, r0, r0, asr #24
 2c4:	0000002c 	andeq	r0, r0, ip, lsr #32
 2c8:	84080e42 	strhi	r0, [r8], #-3650	; 0xfffff1be
 2cc:	00018e02 	andeq	r8, r1, r2, lsl #28
 2d0:	0000000c 	andeq	r0, r0, ip
 2d4:	ffffffff 			; <UNDEFINED> instruction: 0xffffffff
 2d8:	7c020001 	stcvc	0, cr0, [r2], {1}
 2dc:	000d0c0e 	andeq	r0, sp, lr, lsl #24
 2e0:	00000014 	andeq	r0, r0, r4, lsl r0
 2e4:	000002d0 	ldrdeq	r0, [r0], -r0	; <UNPREDICTABLE>
 2e8:	00008c6c 	andeq	r8, r0, ip, ror #24
 2ec:	00000030 	andeq	r0, r0, r0, lsr r0
 2f0:	84080e42 	strhi	r0, [r8], #-3650	; 0xfffff1be
 2f4:	00018e02 	andeq	r8, r1, r2, lsl #28
 2f8:	0000000c 	andeq	r0, r0, ip
 2fc:	ffffffff 			; <UNDEFINED> instruction: 0xffffffff
 300:	7c020001 	stcvc	0, cr0, [r2], {1}
 304:	000d0c0e 	andeq	r0, sp, lr, lsl #24
 308:	0000000c 	andeq	r0, r0, ip
 30c:	000002f8 	strdeq	r0, [r0], -r8
 310:	00008c9c 	muleq	r0, ip, ip
 314:	00000004 	andeq	r0, r0, r4
 318:	0000000c 	andeq	r0, r0, ip
 31c:	ffffffff 			; <UNDEFINED> instruction: 0xffffffff
 320:	7c020001 	stcvc	0, cr0, [r2], {1}
 324:	000d0c0e 	andeq	r0, sp, lr, lsl #24
 328:	0000000c 	andeq	r0, r0, ip
 32c:	00000318 	andeq	r0, r0, r8, lsl r3
 330:	00008ca0 	andeq	r8, r0, r0, lsr #25
 334:	00000018 	andeq	r0, r0, r8, lsl r0
 338:	0000000c 	andeq	r0, r0, ip
 33c:	00000318 	andeq	r0, r0, r8, lsl r3
 340:	00008cb8 			; <UNDEFINED> instruction: 0x00008cb8
 344:	00000014 	andeq	r0, r0, r4, lsl r0
 348:	00000014 	andeq	r0, r0, r4, lsl r0
 34c:	00000318 	andeq	r0, r0, r8, lsl r3
 350:	00008ccc 	andeq	r8, r0, ip, asr #25
 354:	00000050 	andeq	r0, r0, r0, asr r0
 358:	84080e42 	strhi	r0, [r8], #-3650	; 0xfffff1be
 35c:	00018e02 	andeq	r8, r1, r2, lsl #28
 360:	0000000c 	andeq	r0, r0, ip
 364:	ffffffff 			; <UNDEFINED> instruction: 0xffffffff
 368:	7c020001 	stcvc	0, cr0, [r2], {1}
 36c:	000d0c0e 	andeq	r0, sp, lr, lsl #24
 370:	0000000c 	andeq	r0, r0, ip
 374:	00000360 	andeq	r0, r0, r0, ror #6
 378:	00008d1c 	andeq	r8, r0, ip, lsl sp
 37c:	00000018 	andeq	r0, r0, r8, lsl r0
 380:	00000014 	andeq	r0, r0, r4, lsl r0
 384:	00000360 	andeq	r0, r0, r0, ror #6
 388:	00008d34 	andeq	r8, r0, r4, lsr sp
 38c:	00000014 	andeq	r0, r0, r4, lsl r0
 390:	84080e42 	strhi	r0, [r8], #-3650	; 0xfffff1be
 394:	00018e02 	andeq	r8, r1, r2, lsl #28
 398:	00000014 	andeq	r0, r0, r4, lsl r0
 39c:	00000360 	andeq	r0, r0, r0, ror #6
 3a0:	00008d48 	andeq	r8, r0, r8, asr #26
 3a4:	0000001c 	andeq	r0, r0, ip, lsl r0
 3a8:	84080e42 	strhi	r0, [r8], #-3650	; 0xfffff1be
 3ac:	00018e02 	andeq	r8, r1, r2, lsl #28
 3b0:	00000018 	andeq	r0, r0, r8, lsl r0
 3b4:	00000360 	andeq	r0, r0, r0, ror #6
 3b8:	00008d64 	andeq	r8, r0, r4, ror #26
 3bc:	00000024 	andeq	r0, r0, r4, lsr #32
 3c0:	84100e42 	ldrhi	r0, [r0], #-3650	; 0xfffff1be
 3c4:	86038504 	strhi	r8, [r3], -r4, lsl #10
 3c8:	00018e02 	andeq	r8, r1, r2, lsl #28
 3cc:	00000014 	andeq	r0, r0, r4, lsl r0
 3d0:	00000360 	andeq	r0, r0, r0, ror #6
 3d4:	00008d88 	andeq	r8, r0, r8, lsl #27
 3d8:	00000018 	andeq	r0, r0, r8, lsl r0
 3dc:	84080e42 	strhi	r0, [r8], #-3650	; 0xfffff1be
 3e0:	00018e02 	andeq	r8, r1, r2, lsl #28
 3e4:	00000014 	andeq	r0, r0, r4, lsl r0
 3e8:	00000360 	andeq	r0, r0, r0, ror #6
 3ec:	00008da0 	andeq	r8, r0, r0, lsr #27
 3f0:	00000018 	andeq	r0, r0, r8, lsl r0
 3f4:	84080e42 	strhi	r0, [r8], #-3650	; 0xfffff1be
 3f8:	00018e02 	andeq	r8, r1, r2, lsl #28
 3fc:	0000000c 	andeq	r0, r0, ip
 400:	ffffffff 			; <UNDEFINED> instruction: 0xffffffff
 404:	7c020001 	stcvc	0, cr0, [r2], {1}
 408:	000d0c0e 	andeq	r0, sp, lr, lsl #24
 40c:	00000018 	andeq	r0, r0, r8, lsl r0
 410:	000003fc 	strdeq	r0, [r0], -ip
 414:	00008dd0 	ldrdeq	r8, [r0], -r0
 418:	00000034 	andeq	r0, r0, r4, lsr r0
 41c:	8e040e42 	cdphi	14, 0, cr0, cr4, cr2, {2}
 420:	100e4201 	andne	r4, lr, r1, lsl #4
 424:	00040e4e 	andeq	r0, r4, lr, asr #28
 428:	00000018 	andeq	r0, r0, r8, lsl r0
 42c:	000003fc 	strdeq	r0, [r0], -ip
 430:	00008e04 	andeq	r8, r0, r4, lsl #28
 434:	00000168 	andeq	r0, r0, r8, ror #2
 438:	84100e42 	ldrhi	r0, [r0], #-3650	; 0xfffff1be
 43c:	86038504 	strhi	r8, [r3], -r4, lsl #10
 440:	00018e02 	andeq	r8, r1, r2, lsl #28
 444:	00000014 	andeq	r0, r0, r4, lsl r0
 448:	000003fc 	strdeq	r0, [r0], -ip
 44c:	00008f6c 	andeq	r8, r0, ip, ror #30
 450:	0000003c 	andeq	r0, r0, ip, lsr r0
 454:	84080e42 	strhi	r0, [r8], #-3650	; 0xfffff1be
 458:	00018e02 	andeq	r8, r1, r2, lsl #28
 45c:	00000018 	andeq	r0, r0, r8, lsl r0
 460:	000003fc 	strdeq	r0, [r0], -ip
 464:	00008fa8 	andeq	r8, r0, r8, lsr #31
 468:	0000003c 	andeq	r0, r0, ip, lsr r0
 46c:	8e040e42 	cdphi	14, 0, cr0, cr4, cr2, {2}
 470:	100e4201 	andne	r4, lr, r1, lsl #4
 474:	00040e52 	andeq	r0, r4, r2, asr lr
 478:	00000014 	andeq	r0, r0, r4, lsl r0
 47c:	000003fc 	strdeq	r0, [r0], -ip
 480:	00008fe4 	andeq	r8, r0, r4, ror #31
 484:	00000040 	andeq	r0, r0, r0, asr #32
 488:	84080e42 	strhi	r0, [r8], #-3650	; 0xfffff1be
 48c:	00018e02 	andeq	r8, r1, r2, lsl #28
 490:	00000014 	andeq	r0, r0, r4, lsl r0
 494:	000003fc 	strdeq	r0, [r0], -ip
 498:	00009024 	andeq	r9, r0, r4, lsr #32
 49c:	0000000c 	andeq	r0, r0, ip
 4a0:	84080e42 	strhi	r0, [r8], #-3650	; 0xfffff1be
 4a4:	00018e02 	andeq	r8, r1, r2, lsl #28
 4a8:	00000014 	andeq	r0, r0, r4, lsl r0
 4ac:	000003fc 	strdeq	r0, [r0], -ip
 4b0:	00009030 	andeq	r9, r0, r0, lsr r0
 4b4:	00000020 	andeq	r0, r0, r0, lsr #32
 4b8:	84080e42 	strhi	r0, [r8], #-3650	; 0xfffff1be
 4bc:	00018e02 	andeq	r8, r1, r2, lsl #28
 4c0:	00000018 	andeq	r0, r0, r8, lsl r0
 4c4:	000003fc 	strdeq	r0, [r0], -ip
 4c8:	00009050 	andeq	r9, r0, r0, asr r0
 4cc:	00000038 	andeq	r0, r0, r8, lsr r0
 4d0:	8e040e42 	cdphi	14, 0, cr0, cr4, cr2, {2}
 4d4:	100e4201 	andne	r4, lr, r1, lsl #4
 4d8:	00040e50 	andeq	r0, r4, r0, asr lr
 4dc:	00000014 	andeq	r0, r0, r4, lsl r0
 4e0:	000003fc 	strdeq	r0, [r0], -ip
 4e4:	00009088 	andeq	r9, r0, r8, lsl #1
 4e8:	00000014 	andeq	r0, r0, r4, lsl r0
 4ec:	84080e42 	strhi	r0, [r8], #-3650	; 0xfffff1be
 4f0:	00018e02 	andeq	r8, r1, r2, lsl #28
 4f4:	0000000c 	andeq	r0, r0, ip
 4f8:	ffffffff 			; <UNDEFINED> instruction: 0xffffffff
 4fc:	7c020001 	stcvc	0, cr0, [r2], {1}
 500:	000d0c0e 	andeq	r0, sp, lr, lsl #24
 504:	0000001c 	andeq	r0, r0, ip, lsl r0
 508:	000004f4 	strdeq	r0, [r0], -r4
 50c:	0000909c 	muleq	r0, ip, r0
 510:	00000054 	andeq	r0, r0, r4, asr r0
 514:	84180e42 	ldrhi	r0, [r8], #-3650	; 0xfffff1be
 518:	86058506 	strhi	r8, [r5], -r6, lsl #10
 51c:	88038704 	stmdahi	r3, {r2, r8, r9, sl, pc}
 520:	00018e02 	andeq	r8, r1, r2, lsl #28
 524:	00000014 	andeq	r0, r0, r4, lsl r0
 528:	000004f4 	strdeq	r0, [r0], -r4
 52c:	000090f0 	strdeq	r9, [r0], -r0
 530:	00000010 	andeq	r0, r0, r0, lsl r0
 534:	84080e42 	strhi	r0, [r8], #-3650	; 0xfffff1be
 538:	00018e02 	andeq	r8, r1, r2, lsl #28
 53c:	00000014 	andeq	r0, r0, r4, lsl r0
 540:	000004f4 	strdeq	r0, [r0], -r4
 544:	00009100 	andeq	r9, r0, r0, lsl #2
 548:	0000001c 	andeq	r0, r0, ip, lsl r0
 54c:	84080e42 	strhi	r0, [r8], #-3650	; 0xfffff1be
 550:	00018e02 	andeq	r8, r1, r2, lsl #28
 554:	00000014 	andeq	r0, r0, r4, lsl r0
 558:	000004f4 	strdeq	r0, [r0], -r4
 55c:	0000911c 	andeq	r9, r0, ip, lsl r1
 560:	0000001c 	andeq	r0, r0, ip, lsl r0
 564:	84080e42 	strhi	r0, [r8], #-3650	; 0xfffff1be
 568:	00018e02 	andeq	r8, r1, r2, lsl #28
 56c:	00000014 	andeq	r0, r0, r4, lsl r0
 570:	000004f4 	strdeq	r0, [r0], -r4
 574:	00009138 	andeq	r9, r0, r8, lsr r1
 578:	0000001c 	andeq	r0, r0, ip, lsl r0
 57c:	84080e42 	strhi	r0, [r8], #-3650	; 0xfffff1be
 580:	00018e02 	andeq	r8, r1, r2, lsl #28
 584:	00000014 	andeq	r0, r0, r4, lsl r0
 588:	000004f4 	strdeq	r0, [r0], -r4
 58c:	00009154 	andeq	r9, r0, r4, asr r1
 590:	00000010 	andeq	r0, r0, r0, lsl r0
 594:	84080e42 	strhi	r0, [r8], #-3650	; 0xfffff1be
 598:	00018e02 	andeq	r8, r1, r2, lsl #28
 59c:	00000014 	andeq	r0, r0, r4, lsl r0
 5a0:	000004f4 	strdeq	r0, [r0], -r4
 5a4:	00009164 	andeq	r9, r0, r4, ror #2
 5a8:	00000020 	andeq	r0, r0, r0, lsr #32
 5ac:	84080e42 	strhi	r0, [r8], #-3650	; 0xfffff1be
 5b0:	00018e02 	andeq	r8, r1, r2, lsl #28
 5b4:	0000000c 	andeq	r0, r0, ip
 5b8:	ffffffff 			; <UNDEFINED> instruction: 0xffffffff
 5bc:	7c020001 	stcvc	0, cr0, [r2], {1}
 5c0:	000d0c0e 	andeq	r0, sp, lr, lsl #24
 5c4:	0000001c 	andeq	r0, r0, ip, lsl r0
 5c8:	000005b4 			; <UNDEFINED> instruction: 0x000005b4
 5cc:	00009184 	andeq	r9, r0, r4, lsl #3
 5d0:	000000a0 	andeq	r0, r0, r0, lsr #1
 5d4:	8e040e42 	cdphi	14, 0, cr0, cr4, cr2, {2}
 5d8:	100e4201 	andne	r4, lr, r1, lsl #4
 5dc:	040e0a5a 	streq	r0, [lr], #-2650	; 0xfffff5a6
 5e0:	00000b42 	andeq	r0, r0, r2, asr #22
 5e4:	0000001c 	andeq	r0, r0, ip, lsl r0
 5e8:	000005b4 			; <UNDEFINED> instruction: 0x000005b4
 5ec:	00009224 	andeq	r9, r0, r4, lsr #4
 5f0:	00000124 	andeq	r0, r0, r4, lsr #2
 5f4:	8e040e42 	cdphi	14, 0, cr0, cr4, cr2, {2}
 5f8:	100e4201 	andne	r4, lr, r1, lsl #4
 5fc:	040e0a6e 	streq	r0, [lr], #-2670	; 0xfffff592
 600:	00000b42 	andeq	r0, r0, r2, asr #22
 604:	0000001c 	andeq	r0, r0, ip, lsl r0
 608:	000005b4 			; <UNDEFINED> instruction: 0x000005b4
 60c:	00009348 	andeq	r9, r0, r8, asr #6
 610:	000000a0 	andeq	r0, r0, r0, lsr #1
 614:	8e040e42 	cdphi	14, 0, cr0, cr4, cr2, {2}
 618:	100e4201 	andne	r4, lr, r1, lsl #4
 61c:	040e0a58 	streq	r0, [lr], #-2648	; 0xfffff5a8
 620:	00000b42 	andeq	r0, r0, r2, asr #22
 624:	00000014 	andeq	r0, r0, r4, lsl r0
 628:	000005b4 			; <UNDEFINED> instruction: 0x000005b4
 62c:	000093e8 	andeq	r9, r0, r8, ror #7
 630:	00000028 	andeq	r0, r0, r8, lsr #32
 634:	84080e4a 	strhi	r0, [r8], #-3658	; 0xfffff1b6
 638:	00018e02 	andeq	r8, r1, r2, lsl #28
 63c:	0000000c 	andeq	r0, r0, ip
 640:	000005b4 			; <UNDEFINED> instruction: 0x000005b4
 644:	00009410 	andeq	r9, r0, r0, lsl r4
 648:	00000014 	andeq	r0, r0, r4, lsl r0
 64c:	0000000c 	andeq	r0, r0, ip
 650:	000005b4 			; <UNDEFINED> instruction: 0x000005b4
 654:	00009424 	andeq	r9, r0, r4, lsr #8
 658:	00000010 	andeq	r0, r0, r0, lsl r0
 65c:	0000000c 	andeq	r0, r0, ip
 660:	ffffffff 			; <UNDEFINED> instruction: 0xffffffff
 664:	7c020001 	stcvc	0, cr0, [r2], {1}
 668:	000d0c0e 	andeq	r0, sp, lr, lsl #24
 66c:	00000014 	andeq	r0, r0, r4, lsl r0
 670:	0000065c 	andeq	r0, r0, ip, asr r6
 674:	00009434 	andeq	r9, r0, r4, lsr r4
 678:	00000014 	andeq	r0, r0, r4, lsl r0
 67c:	84080e42 	strhi	r0, [r8], #-3650	; 0xfffff1be
 680:	00018e02 	andeq	r8, r1, r2, lsl #28
 684:	0000000c 	andeq	r0, r0, ip
 688:	0000065c 	andeq	r0, r0, ip, asr r6
 68c:	00009448 	andeq	r9, r0, r8, asr #8
 690:	00000018 	andeq	r0, r0, r8, lsl r0
 694:	0000000c 	andeq	r0, r0, ip
 698:	0000065c 	andeq	r0, r0, ip, asr r6
 69c:	00009460 	andeq	r9, r0, r0, ror #8
 6a0:	00000010 	andeq	r0, r0, r0, lsl r0
 6a4:	0000000c 	andeq	r0, r0, ip
 6a8:	ffffffff 			; <UNDEFINED> instruction: 0xffffffff
 6ac:	7c020001 	stcvc	0, cr0, [r2], {1}
 6b0:	000d0c0e 	andeq	r0, sp, lr, lsl #24
 6b4:	0000000c 	andeq	r0, r0, ip
 6b8:	000006a4 	andeq	r0, r0, r4, lsr #13
 6bc:	00009470 	andeq	r9, r0, r0, ror r4
 6c0:	00000034 	andeq	r0, r0, r4, lsr r0
 6c4:	0000000c 	andeq	r0, r0, ip
 6c8:	ffffffff 			; <UNDEFINED> instruction: 0xffffffff
 6cc:	7c020001 	stcvc	0, cr0, [r2], {1}
 6d0:	000d0c0e 	andeq	r0, sp, lr, lsl #24
 6d4:	0000000c 	andeq	r0, r0, ip
 6d8:	000006c4 	andeq	r0, r0, r4, asr #13
 6dc:	000094a4 	andeq	r9, r0, r4, lsr #9
 6e0:	0000002c 	andeq	r0, r0, ip, lsr #32

Disassembly of section .debug_ranges:

00000000 <.debug_ranges>:
   0:	000003b8 			; <UNDEFINED> instruction: 0x000003b8
   4:	000004a4 	andeq	r0, r0, r4, lsr #9
   8:	000004ac 	andeq	r0, r0, ip, lsr #9
   c:	000005d0 	ldrdeq	r0, [r0], -r0	; <UNPREDICTABLE>
	...
  18:	00008ca0 	andeq	r8, r0, r0, lsr #25
  1c:	00008d1c 	andeq	r8, r0, ip, lsl sp
	...
  28:	00000028 	andeq	r0, r0, r8, lsr #32
  2c:	00000028 	andeq	r0, r0, r8, lsr #32
  30:	00000028 	andeq	r0, r0, r8, lsr #32
  34:	00000030 	andeq	r0, r0, r0, lsr r0
	...
  40:	000000dc 	ldrdeq	r0, [r0], -ip
  44:	000000f4 	strdeq	r0, [r0], -r4
  48:	00000178 	andeq	r0, r0, r8, ror r1
  4c:	000001c4 	andeq	r0, r0, r4, asr #3
	...
  58:	000001f0 	strdeq	r0, [r0], -r0	; <UNPREDICTABLE>
  5c:	000001f0 	strdeq	r0, [r0], -r0	; <UNPREDICTABLE>
  60:	000001f0 	strdeq	r0, [r0], -r0	; <UNPREDICTABLE>
  64:	000001f0 	strdeq	r0, [r0], -r0	; <UNPREDICTABLE>
	...
  70:	000094a4 	andeq	r9, r0, r4, lsr #9
  74:	000094d0 	ldrdeq	r9, [r0], -r0
	...
