
0-gpio-write.elf:     file format elf32-littlearm


Disassembly of section .text:

00008000 <__code_start__>:
    8000:	e3a00013 	mov	r0, #19, 0
    8004:	e3800080 	orr	r0, r0, #128, 0	; 0x80
    8008:	e129f000 	msr	CPSR_fc, r0
    800c:	e3a01000 	mov	r1, #0, 0
    8010:	ee071f95 	mcr	15, 0, r1, cr7, cr5, {4}
    8014:	e3a0d302 	mov	sp, #134217728	; 0x8000000
    8018:	e3a0b000 	mov	fp, #0, 0
    801c:	eb00023d 	bl	8918 <_cstart>
    8020:	eb000254 	bl	8978 <rpi_reboot>

00008024 <PUT32>:
    8024:	e5801000 	str	r1, [r0]
    8028:	e12fff1e 	bx	lr

0000802c <GET32>:
    802c:	e5900000 	ldr	r0, [r0]
    8030:	e12fff1e 	bx	lr

00008034 <notmain>:
    8034:	e92d4010 	push	{r4, lr}
    8038:	eb000297 	bl	8a9c <uart_init>
    803c:	e59f4030 	ldr	r4, [pc, #48]	; 8074 <notmain+0x40>
    8040:	e1a01004 	mov	r1, r4
    8044:	e59f002c 	ldr	r0, [pc, #44]	; 8078 <notmain+0x44>
    8048:	eb000079 	bl	8234 <printk>
    804c:	e3a00000 	mov	r0, #0, 0
    8050:	eb000018 	bl	80b8 <trace_start>
    8054:	e3a01001 	mov	r1, #1, 0
    8058:	e3a00014 	mov	r0, #20, 0
    805c:	eb000318 	bl	8cc4 <gpio_write>
    8060:	eb00002b 	bl	8114 <trace_stop>
    8064:	e1a01004 	mov	r1, r4
    8068:	e59f000c 	ldr	r0, [pc, #12]	; 807c <notmain+0x48>
    806c:	eb000070 	bl	8234 <printk>
    8070:	eb00021d 	bl	88ec <clean_reboot>
    8074:	00008db0 			; <UNDEFINED> instruction: 0x00008db0
    8078:	00008dc4 	andeq	r8, r0, r4, asr #27
    807c:	00008ddc 	ldrdeq	r8, [r0], -ip

00008080 <emit_put32>:
    8080:	e92d4010 	push	{r4, lr}
    8084:	e1a02001 	mov	r2, r1
    8088:	e1a01000 	mov	r1, r0
    808c:	e59f0004 	ldr	r0, [pc, #4]	; 8098 <emit_put32+0x18>
    8090:	eb000067 	bl	8234 <printk>
    8094:	e8bd8010 	pop	{r4, pc}
    8098:	00008de8 	andeq	r8, r0, r8, ror #27

0000809c <emit_get32>:
    809c:	e92d4010 	push	{r4, lr}
    80a0:	e1a02001 	mov	r2, r1
    80a4:	e1a01000 	mov	r1, r0
    80a8:	e59f0004 	ldr	r0, [pc, #4]	; 80b4 <emit_get32+0x18>
    80ac:	eb000060 	bl	8234 <printk>
    80b0:	e8bd8010 	pop	{r4, pc}
    80b4:	00008dfc 	strdeq	r8, [r0], -ip

000080b8 <trace_start>:
    80b8:	e59f3040 	ldr	r3, [pc, #64]	; 8100 <trace_start+0x48>
    80bc:	e5933000 	ldr	r3, [r3]
    80c0:	e3530000 	cmp	r3, #0, 0
    80c4:	1a000003 	bne	80d8 <trace_start+0x20>
    80c8:	e59f3030 	ldr	r3, [pc, #48]	; 8100 <trace_start+0x48>
    80cc:	e3a02001 	mov	r2, #1, 0
    80d0:	e5832000 	str	r2, [r3]
    80d4:	e12fff1e 	bx	lr
    80d8:	e52de004 	push	{lr}		; (str lr, [sp, #-4]!)
    80dc:	e24dd00c 	sub	sp, sp, #12, 0
    80e0:	e59f301c 	ldr	r3, [pc, #28]	; 8104 <trace_start+0x4c>
    80e4:	e58d3000 	str	r3, [sp]
    80e8:	e3a0302f 	mov	r3, #47, 0	; 0x2f
    80ec:	e59f2014 	ldr	r2, [pc, #20]	; 8108 <trace_start+0x50>
    80f0:	e59f1014 	ldr	r1, [pc, #20]	; 810c <trace_start+0x54>
    80f4:	e59f0014 	ldr	r0, [pc, #20]	; 8110 <trace_start+0x58>
    80f8:	eb00004d 	bl	8234 <printk>
    80fc:	eb0001fa 	bl	88ec <clean_reboot>
    8100:	00008f94 	muleq	r0, r4, pc	; <UNPREDICTABLE>
    8104:	00008e34 	andeq	r8, r0, r4, lsr lr
    8108:	00008e5c 	andeq	r8, r0, ip, asr lr
    810c:	00008e10 	andeq	r8, r0, r0, lsl lr
    8110:	00008e20 	andeq	r8, r0, r0, lsr #28

00008114 <trace_stop>:
    8114:	e59f3040 	ldr	r3, [pc, #64]	; 815c <trace_stop+0x48>
    8118:	e5933000 	ldr	r3, [r3]
    811c:	e3530001 	cmp	r3, #1, 0
    8120:	1a000003 	bne	8134 <trace_stop+0x20>
    8124:	e59f3030 	ldr	r3, [pc, #48]	; 815c <trace_stop+0x48>
    8128:	e3a02000 	mov	r2, #0, 0
    812c:	e5832000 	str	r2, [r3]
    8130:	e12fff1e 	bx	lr
    8134:	e52de004 	push	{lr}		; (str lr, [sp, #-4]!)
    8138:	e24dd00c 	sub	sp, sp, #12, 0
    813c:	e59f301c 	ldr	r3, [pc, #28]	; 8160 <trace_stop+0x4c>
    8140:	e58d3000 	str	r3, [sp]
    8144:	e3a03036 	mov	r3, #54, 0	; 0x36
    8148:	e59f2014 	ldr	r2, [pc, #20]	; 8164 <trace_stop+0x50>
    814c:	e59f1014 	ldr	r1, [pc, #20]	; 8168 <trace_stop+0x54>
    8150:	e59f0014 	ldr	r0, [pc, #20]	; 816c <trace_stop+0x58>
    8154:	eb000036 	bl	8234 <printk>
    8158:	eb0001e3 	bl	88ec <clean_reboot>
    815c:	00008f94 	muleq	r0, r4, pc	; <UNPREDICTABLE>
    8160:	00008e48 	andeq	r8, r0, r8, asr #28
    8164:	00008e68 	andeq	r8, r0, r8, ror #28
    8168:	00008e10 	andeq	r8, r0, r0, lsl lr
    816c:	00008e20 	andeq	r8, r0, r0, lsr #28

00008170 <__wrap_PUT32>:
    8170:	e92d4070 	push	{r4, r5, r6, lr}
    8174:	e1a04000 	mov	r4, r0
    8178:	e1a05001 	mov	r5, r1
    817c:	e59f3044 	ldr	r3, [pc, #68]	; 81c8 <__wrap_PUT32+0x58>
    8180:	e5933000 	ldr	r3, [r3]
    8184:	e3530001 	cmp	r3, #1, 0
    8188:	0a000003 	beq	819c <__wrap_PUT32+0x2c>
    818c:	e1a01005 	mov	r1, r5
    8190:	e1a00004 	mov	r0, r4
    8194:	ebffffa2 	bl	8024 <PUT32>
    8198:	e8bd8070 	pop	{r4, r5, r6, pc}
    819c:	e59f3028 	ldr	r3, [pc, #40]	; 81cc <__wrap_PUT32+0x5c>
    81a0:	e5933000 	ldr	r3, [r3]
    81a4:	e3530000 	cmp	r3, #0, 0
    81a8:	1afffff7 	bne	818c <__wrap_PUT32+0x1c>
    81ac:	e59f6018 	ldr	r6, [pc, #24]	; 81cc <__wrap_PUT32+0x5c>
    81b0:	e3a03001 	mov	r3, #1, 0
    81b4:	e5863000 	str	r3, [r6]
    81b8:	ebffffb0 	bl	8080 <emit_put32>
    81bc:	e3a03000 	mov	r3, #0, 0
    81c0:	e5863000 	str	r3, [r6]
    81c4:	eafffff0 	b	818c <__wrap_PUT32+0x1c>
    81c8:	00008f94 	muleq	r0, r4, pc	; <UNPREDICTABLE>
    81cc:	00009398 	muleq	r0, r8, r3

000081d0 <__wrap_GET32>:
    81d0:	e92d4070 	push	{r4, r5, r6, lr}
    81d4:	e1a05000 	mov	r5, r0
    81d8:	ebffff93 	bl	802c <GET32>
    81dc:	e1a04000 	mov	r4, r0
    81e0:	e59f3044 	ldr	r3, [pc, #68]	; 822c <__wrap_GET32+0x5c>
    81e4:	e5933000 	ldr	r3, [r3]
    81e8:	e3530001 	cmp	r3, #1, 0
    81ec:	0a000001 	beq	81f8 <__wrap_GET32+0x28>
    81f0:	e1a00004 	mov	r0, r4
    81f4:	e8bd8070 	pop	{r4, r5, r6, pc}
    81f8:	e59f3030 	ldr	r3, [pc, #48]	; 8230 <__wrap_GET32+0x60>
    81fc:	e5933000 	ldr	r3, [r3]
    8200:	e3530000 	cmp	r3, #0, 0
    8204:	1afffff9 	bne	81f0 <__wrap_GET32+0x20>
    8208:	e59f6020 	ldr	r6, [pc, #32]	; 8230 <__wrap_GET32+0x60>
    820c:	e3a03001 	mov	r3, #1, 0
    8210:	e5863000 	str	r3, [r6]
    8214:	e1a01000 	mov	r1, r0
    8218:	e1a00005 	mov	r0, r5
    821c:	ebffff9e 	bl	809c <emit_get32>
    8220:	e3a03000 	mov	r3, #0, 0
    8224:	e5863000 	str	r3, [r6]
    8228:	eafffff0 	b	81f0 <__wrap_GET32+0x20>
    822c:	00008f94 	muleq	r0, r4, pc	; <UNPREDICTABLE>
    8230:	00009398 	muleq	r0, r8, r3

00008234 <printk>:
    8234:	e92d000f 	push	{r0, r1, r2, r3}
    8238:	e92d4030 	push	{r4, r5, lr}
    823c:	e24dd00c 	sub	sp, sp, #12, 0
    8240:	e28d301c 	add	r3, sp, #28, 0
    8244:	e58d3004 	str	r3, [sp, #4]
    8248:	e59f5034 	ldr	r5, [pc, #52]	; 8284 <printk+0x50>
    824c:	e59d2018 	ldr	r2, [sp, #24]
    8250:	e3a01b01 	mov	r1, #1024	; 0x400
    8254:	e1a00005 	mov	r0, r5
    8258:	eb0000ba 	bl	8548 <va_printk>
    825c:	e1a04000 	mov	r4, r0
    8260:	e59f3020 	ldr	r3, [pc, #32]	; 8288 <printk+0x54>
    8264:	e5933000 	ldr	r3, [r3]
    8268:	e1a00005 	mov	r0, r5
    826c:	e12fff33 	blx	r3
    8270:	e1a00004 	mov	r0, r4
    8274:	e28dd00c 	add	sp, sp, #12, 0
    8278:	e8bd4030 	pop	{r4, r5, lr}
    827c:	e28dd010 	add	sp, sp, #16, 0
    8280:	e12fff1e 	bx	lr
    8284:	00008f98 	muleq	r0, r8, pc	; <UNPREDICTABLE>
    8288:	00008f8c 	andeq	r8, r0, ip, lsl #31

0000828c <internal_putk>:
    828c:	e92d4010 	push	{r4, lr}
    8290:	e1a04000 	mov	r4, r0
    8294:	e5d40000 	ldrb	r0, [r4]
    8298:	e3500000 	cmp	r0, #0, 0
    829c:	0a000004 	beq	82b4 <internal_putk+0x28>
    82a0:	e59f3014 	ldr	r3, [pc, #20]	; 82bc <internal_putk+0x30>
    82a4:	e5933000 	ldr	r3, [r3]
    82a8:	e12fff33 	blx	r3
    82ac:	e2844001 	add	r4, r4, #1, 0
    82b0:	eafffff7 	b	8294 <internal_putk+0x8>
    82b4:	e3a00001 	mov	r0, #1, 0
    82b8:	e8bd8010 	pop	{r4, pc}
    82bc:	00008f90 	muleq	r0, r0, pc	; <UNPREDICTABLE>

000082c0 <isdigit>:
    82c0:	e2400030 	sub	r0, r0, #48, 0	; 0x30
    82c4:	e3500009 	cmp	r0, #9, 0
    82c8:	83a00000 	movhi	r0, #0, 0
    82cc:	93a00001 	movls	r0, #1, 0
    82d0:	e12fff1e 	bx	lr

000082d4 <pad>:
    82d4:	e0401001 	sub	r1, r0, r1
    82d8:	e1510002 	cmp	r1, r2
    82dc:	b3a03020 	movlt	r3, #32, 0
    82e0:	b4c03001 	strblt	r3, [r0], #1
    82e4:	b2811001 	addlt	r1, r1, #1, 0
    82e8:	bafffffa 	blt	82d8 <pad+0x4>
    82ec:	e3a03000 	mov	r3, #0, 0
    82f0:	e5c03000 	strb	r3, [r0]
    82f4:	e12fff1e 	bx	lr

000082f8 <reverse>:
    82f8:	e042c003 	sub	ip, r2, r3
    82fc:	e28cc001 	add	ip, ip, #1, 0
    8300:	e15c0001 	cmp	ip, r1
    8304:	c04cc001 	subgt	ip, ip, r1
    8308:	c083300c 	addgt	r3, r3, ip
    830c:	e2421001 	sub	r1, r2, #1, 0
    8310:	e1a02000 	mov	r2, r0
    8314:	e1510003 	cmp	r1, r3
    8318:	2451c001 	ldrbcs	ip, [r1], #-1
    831c:	24c2c001 	strbcs	ip, [r2], #1
    8320:	2afffffb 	bcs	8314 <reverse+0x1c>
    8324:	e3a03000 	mov	r3, #0, 0
    8328:	e5c23000 	strb	r3, [r2]
    832c:	e12fff1e 	bx	lr

00008330 <emit>:
    8330:	e92d40f0 	push	{r4, r5, r6, r7, lr}
    8334:	e24dd04c 	sub	sp, sp, #76, 0	; 0x4c
    8338:	e1a05001 	mov	r5, r1
    833c:	e1a04002 	mov	r4, r2
    8340:	e59d2060 	ldr	r2, [sp, #96]	; 0x60
    8344:	e1520004 	cmp	r2, r4
    8348:	c2442001 	subgt	r2, r4, #1, 0
    834c:	e1a0c003 	mov	ip, r3
    8350:	e2400002 	sub	r0, r0, #2, 0
    8354:	e350000e 	cmp	r0, #14, 0
    8358:	979ff100 	ldrls	pc, [pc, r0, lsl #2]
    835c:	ea000050 	b	84a4 <emit+0x174>
    8360:	0000847c 	andeq	r8, r0, ip, ror r4
    8364:	000084a4 	andeq	r8, r0, r4, lsr #9
    8368:	000084a4 	andeq	r8, r0, r4, lsr #9
    836c:	000084a4 	andeq	r8, r0, r4, lsr #9
    8370:	000084a4 	andeq	r8, r0, r4, lsr #9
    8374:	000084a4 	andeq	r8, r0, r4, lsr #9
    8378:	00008470 	andeq	r8, r0, r0, ror r4
    837c:	000084a4 	andeq	r8, r0, r4, lsr #9
    8380:	0000839c 	muleq	r0, ip, r3
    8384:	000084a4 	andeq	r8, r0, r4, lsr #9
    8388:	000084a4 	andeq	r8, r0, r4, lsr #9
    838c:	000084a4 	andeq	r8, r0, r4, lsr #9
    8390:	000084a4 	andeq	r8, r0, r4, lsr #9
    8394:	000084a4 	andeq	r8, r0, r4, lsr #9
    8398:	00008414 	andeq	r8, r0, r4, lsl r4
    839c:	e59d1064 	ldr	r1, [sp, #100]	; 0x64
    83a0:	e2511000 	subs	r1, r1, #0, 0
    83a4:	13a01001 	movne	r1, #1, 0
    83a8:	e0111fa3 	ands	r1, r1, r3, lsr #31
    83ac:	0a000016 	beq	840c <emit+0xdc>
    83b0:	e263c000 	rsb	ip, r3, #0, 0
    83b4:	e3a06001 	mov	r6, #1, 0
    83b8:	e28d0008 	add	r0, sp, #8, 0
    83bc:	e59f3100 	ldr	r3, [pc, #256]	; 84c4 <emit+0x194>
    83c0:	e0831c93 	umull	r1, r3, r3, ip
    83c4:	e1a031a3 	lsr	r3, r3, #3
    83c8:	e1a0e003 	mov	lr, r3
    83cc:	e0833103 	add	r3, r3, r3, lsl #2
    83d0:	e04c3083 	sub	r3, ip, r3, lsl #1
    83d4:	e1a01000 	mov	r1, r0
    83d8:	e2800001 	add	r0, r0, #1, 0
    83dc:	e59f70e4 	ldr	r7, [pc, #228]	; 84c8 <emit+0x198>
    83e0:	e7d73003 	ldrb	r3, [r7, r3]
    83e4:	e5c13000 	strb	r3, [r1]
    83e8:	e1a0300c 	mov	r3, ip
    83ec:	e1a0c00e 	mov	ip, lr
    83f0:	e3530009 	cmp	r3, #9, 0
    83f4:	8afffff0 	bhi	83bc <emit+0x8c>
    83f8:	e3560000 	cmp	r6, #0, 0
    83fc:	13a0302d 	movne	r3, #45, 0	; 0x2d
    8400:	15c03000 	strbne	r3, [r0]
    8404:	12810002 	addne	r0, r1, #2, 0
    8408:	ea00000f 	b	844c <emit+0x11c>
    840c:	e3a06000 	mov	r6, #0, 0
    8410:	eaffffe8 	b	83b8 <emit+0x88>
    8414:	e28d1008 	add	r1, sp, #8, 0
    8418:	e20c000f 	and	r0, ip, #15, 0
    841c:	e59fe0a8 	ldr	lr, [pc, #168]	; 84cc <emit+0x19c>
    8420:	e7de0000 	ldrb	r0, [lr, r0]
    8424:	e5c10000 	strb	r0, [r1]
    8428:	e2811001 	add	r1, r1, #1, 0
    842c:	e35c000f 	cmp	ip, #15, 0
    8430:	e1a0c22c 	lsr	ip, ip, #4
    8434:	8afffff7 	bhi	8418 <emit+0xe8>
    8438:	e1a00001 	mov	r0, r1
    843c:	e3a03078 	mov	r3, #120, 0	; 0x78
    8440:	e4c03002 	strb	r3, [r0], #2
    8444:	e3a03030 	mov	r3, #48, 0	; 0x30
    8448:	e5c13001 	strb	r3, [r1, #1]
    844c:	e28d1008 	add	r1, sp, #8, 0
    8450:	ebffff9f 	bl	82d4 <pad>
    8454:	e1a02000 	mov	r2, r0
    8458:	e28d3008 	add	r3, sp, #8, 0
    845c:	e1a01004 	mov	r1, r4
    8460:	e1a00005 	mov	r0, r5
    8464:	ebffffa3 	bl	82f8 <reverse>
    8468:	e28dd04c 	add	sp, sp, #76, 0	; 0x4c
    846c:	e8bd80f0 	pop	{r4, r5, r6, r7, pc}
    8470:	e5cd3008 	strb	r3, [sp, #8]
    8474:	e28d0009 	add	r0, sp, #9, 0
    8478:	eafffff3 	b	844c <emit+0x11c>
    847c:	e28d0008 	add	r0, sp, #8, 0
    8480:	e20c1001 	and	r1, ip, #1, 0
    8484:	e59fe044 	ldr	lr, [pc, #68]	; 84d0 <emit+0x1a0>
    8488:	e7de1001 	ldrb	r1, [lr, r1]
    848c:	e5c01000 	strb	r1, [r0]
    8490:	e2800001 	add	r0, r0, #1, 0
    8494:	e35c0001 	cmp	ip, #1, 0
    8498:	e1a0c0ac 	lsr	ip, ip, #1
    849c:	8afffff7 	bhi	8480 <emit+0x150>
    84a0:	eaffffe9 	b	844c <emit+0x11c>
    84a4:	e59f3028 	ldr	r3, [pc, #40]	; 84d4 <emit+0x1a4>
    84a8:	e58d3000 	str	r3, [sp]
    84ac:	e3a03079 	mov	r3, #121, 0	; 0x79
    84b0:	e59f2020 	ldr	r2, [pc, #32]	; 84d8 <emit+0x1a8>
    84b4:	e59f1020 	ldr	r1, [pc, #32]	; 84dc <emit+0x1ac>
    84b8:	e59f0020 	ldr	r0, [pc, #32]	; 84e0 <emit+0x1b0>
    84bc:	ebffff5c 	bl	8234 <printk>
    84c0:	eb000109 	bl	88ec <clean_reboot>
    84c4:	cccccccd 	stclgt	12, cr12, [ip], {205}	; 0xcd
    84c8:	00008e8c 	andeq	r8, r0, ip, lsl #29
    84cc:	00008e98 	muleq	r0, r8, lr
    84d0:	00008eac 	andeq	r8, r0, ip, lsr #29
    84d4:	00008e88 	andeq	r8, r0, r8, lsl #29
    84d8:	00008f5c 	andeq	r8, r0, ip, asr pc
    84dc:	00008e74 	andeq	r8, r0, r4, ror lr
    84e0:	00008e20 	andeq	r8, r0, r0, lsr #28

000084e4 <rpi_set_output>:
    84e4:	e3500000 	cmp	r0, #0, 0
    84e8:	0a000006 	beq	8508 <rpi_set_output+0x24>
    84ec:	e59f303c 	ldr	r3, [pc, #60]	; 8530 <rpi_set_output+0x4c>
    84f0:	e5830000 	str	r0, [r3]
    84f4:	e3510000 	cmp	r1, #0, 0
    84f8:	012fff1e 	bxeq	lr
    84fc:	e59f3030 	ldr	r3, [pc, #48]	; 8534 <rpi_set_output+0x50>
    8500:	e5831000 	str	r1, [r3]
    8504:	e12fff1e 	bx	lr
    8508:	e52de004 	push	{lr}		; (str lr, [sp, #-4]!)
    850c:	e24dd00c 	sub	sp, sp, #12, 0
    8510:	e59f3020 	ldr	r3, [pc, #32]	; 8538 <rpi_set_output+0x54>
    8514:	e58d3000 	str	r3, [sp]
    8518:	e3a03020 	mov	r3, #32, 0
    851c:	e59f2018 	ldr	r2, [pc, #24]	; 853c <rpi_set_output+0x58>
    8520:	e59f1018 	ldr	r1, [pc, #24]	; 8540 <rpi_set_output+0x5c>
    8524:	e59f0018 	ldr	r0, [pc, #24]	; 8544 <rpi_set_output+0x60>
    8528:	ebffff41 	bl	8234 <printk>
    852c:	eb0000ee 	bl	88ec <clean_reboot>
    8530:	00008f90 	muleq	r0, r0, pc	; <UNPREDICTABLE>
    8534:	00008f8c 	andeq	r8, r0, ip, lsl #31
    8538:	00008eb0 			; <UNDEFINED> instruction: 0x00008eb0
    853c:	00008f64 	andeq	r8, r0, r4, ror #30
    8540:	00008e74 	andeq	r8, r0, r4, ror lr
    8544:	00008e20 	andeq	r8, r0, r0, lsr #28

00008548 <va_printk>:
    8548:	e92d4ff0 	push	{r4, r5, r6, r7, r8, r9, sl, fp, lr}
    854c:	e24ddf45 	sub	sp, sp, #276	; 0x114
    8550:	e1a09000 	mov	r9, r0
    8554:	e58d2008 	str	r2, [sp, #8]
    8558:	e58d300c 	str	r3, [sp, #12]
    855c:	e2411001 	sub	r1, r1, #1, 0
    8560:	e0808001 	add	r8, r0, r1
    8564:	e3a03000 	mov	r3, #0, 0
    8568:	e5c03000 	strb	r3, [r0]
    856c:	e1a04000 	mov	r4, r0
    8570:	e1a06002 	mov	r6, r2
    8574:	ea000001 	b	8580 <va_printk+0x38>
    8578:	e2866001 	add	r6, r6, #1, 0
    857c:	e4c43001 	strb	r3, [r4], #1
    8580:	e5d63000 	ldrb	r3, [r6]
    8584:	e3530000 	cmp	r3, #0, 0
    8588:	0a0000c8 	beq	88b0 <va_printk+0x368>
    858c:	e1540008 	cmp	r4, r8
    8590:	2a0000c6 	bcs	88b0 <va_printk+0x368>
    8594:	e3530025 	cmp	r3, #37, 0	; 0x25
    8598:	1afffff6 	bne	8578 <va_printk+0x30>
    859c:	e5d62001 	ldrb	r2, [r6, #1]
    85a0:	e3520025 	cmp	r2, #37, 0	; 0x25
    85a4:	04c43001 	strbeq	r3, [r4], #1
    85a8:	02866002 	addeq	r6, r6, #2, 0
    85ac:	0afffff3 	beq	8580 <va_printk+0x38>
    85b0:	e2866001 	add	r6, r6, #1, 0
    85b4:	e3a05000 	mov	r5, #0, 0
    85b8:	e5d67000 	ldrb	r7, [r6]
    85bc:	e1a0a007 	mov	sl, r7
    85c0:	e1a00007 	mov	r0, r7
    85c4:	ebffff3d 	bl	82c0 <isdigit>
    85c8:	e3500000 	cmp	r0, #0, 0
    85cc:	0a000004 	beq	85e4 <va_printk+0x9c>
    85d0:	e0855105 	add	r5, r5, r5, lsl #2
    85d4:	e0875085 	add	r5, r7, r5, lsl #1
    85d8:	e2455030 	sub	r5, r5, #48, 0	; 0x30
    85dc:	e2866001 	add	r6, r6, #1, 0
    85e0:	eafffff4 	b	85b8 <va_printk+0x70>
    85e4:	e355001f 	cmp	r5, #31, 0
    85e8:	8a00001a 	bhi	8658 <va_printk+0x110>
    85ec:	e2477062 	sub	r7, r7, #98, 0	; 0x62
    85f0:	e3570016 	cmp	r7, #22, 0
    85f4:	979ff107 	ldrls	pc, [pc, r7, lsl #2]
    85f8:	ea000094 	b	8850 <va_printk+0x308>
    85fc:	000087d4 	ldrdeq	r8, [r0], -r4
    8600:	0000881c 	andeq	r8, r0, ip, lsl r8
    8604:	00008734 	andeq	r8, r0, r4, lsr r7
    8608:	00008850 	andeq	r8, r0, r0, asr r8
    860c:	0000871c 	andeq	r8, r0, ip, lsl r7
    8610:	00008850 	andeq	r8, r0, r0, asr r8
    8614:	00008850 	andeq	r8, r0, r0, asr r8
    8618:	00008850 	andeq	r8, r0, r0, asr r8
    861c:	00008850 	andeq	r8, r0, r0, asr r8
    8620:	00008850 	andeq	r8, r0, r0, asr r8
    8624:	00008678 	andeq	r8, r0, r8, ror r6
    8628:	00008850 	andeq	r8, r0, r0, asr r8
    862c:	00008850 	andeq	r8, r0, r0, asr r8
    8630:	00008850 	andeq	r8, r0, r0, asr r8
    8634:	000087a0 	andeq	r8, r0, r0, lsr #15
    8638:	00008850 	andeq	r8, r0, r0, asr r8
    863c:	00008850 	andeq	r8, r0, r0, asr r8
    8640:	00008808 	andeq	r8, r0, r8, lsl #16
    8644:	00008850 	andeq	r8, r0, r0, asr r8
    8648:	0000876c 	andeq	r8, r0, ip, ror #14
    864c:	00008850 	andeq	r8, r0, r0, asr r8
    8650:	00008850 	andeq	r8, r0, r0, asr r8
    8654:	000087a0 	andeq	r8, r0, r0, lsr #15
    8658:	e59f3264 	ldr	r3, [pc, #612]	; 88c4 <va_printk+0x37c>
    865c:	e58d3000 	str	r3, [sp]
    8660:	e3a03098 	mov	r3, #152, 0	; 0x98
    8664:	e59f225c 	ldr	r2, [pc, #604]	; 88c8 <va_printk+0x380>
    8668:	e59f125c 	ldr	r1, [pc, #604]	; 88cc <va_printk+0x384>
    866c:	e59f025c 	ldr	r0, [pc, #604]	; 88d0 <va_printk+0x388>
    8670:	ebfffeef 	bl	8234 <printk>
    8674:	eb00009c 	bl	88ec <clean_reboot>
    8678:	e3a02003 	mov	r2, #3, 0
    867c:	e59f1250 	ldr	r1, [pc, #592]	; 88d4 <va_printk+0x38c>
    8680:	e1a00006 	mov	r0, r6
    8684:	eb0001bd 	bl	8d80 <strncmp>
    8688:	e3500000 	cmp	r0, #0, 0
    868c:	1a00001a 	bne	86fc <va_printk+0x1b4>
    8690:	e2866002 	add	r6, r6, #2, 0
    8694:	e59d300c 	ldr	r3, [sp, #12]
    8698:	e2833007 	add	r3, r3, #7, 0
    869c:	e3c33007 	bic	r3, r3, #7, 0
    86a0:	e2832008 	add	r2, r3, #8, 0
    86a4:	e58d200c 	str	r2, [sp, #12]
    86a8:	e593b000 	ldr	fp, [r3]
    86ac:	e5933004 	ldr	r3, [r3, #4]
    86b0:	e3a0a000 	mov	sl, #0, 0
    86b4:	e58da004 	str	sl, [sp, #4]
    86b8:	e58d5000 	str	r5, [sp]
    86bc:	e3a02080 	mov	r2, #128, 0	; 0x80
    86c0:	e28d1010 	add	r1, sp, #16, 0
    86c4:	e3a00010 	mov	r0, #16, 0
    86c8:	ebffff18 	bl	8330 <emit>
    86cc:	e1a07000 	mov	r7, r0
    86d0:	e58da004 	str	sl, [sp, #4]
    86d4:	e58d5000 	str	r5, [sp]
    86d8:	e1a0300b 	mov	r3, fp
    86dc:	e3a02080 	mov	r2, #128, 0	; 0x80
    86e0:	e28d1090 	add	r1, sp, #144, 0	; 0x90
    86e4:	e3a00010 	mov	r0, #16, 0
    86e8:	ebffff10 	bl	8330 <emit>
    86ec:	e28d1092 	add	r1, sp, #146, 0	; 0x92
    86f0:	e28d0010 	add	r0, sp, #16, 0
    86f4:	eb000194 	bl	8d4c <strcat>
    86f8:	ea000019 	b	8764 <va_printk+0x21c>
    86fc:	e59f31d4 	ldr	r3, [pc, #468]	; 88d8 <va_printk+0x390>
    8700:	e58d3000 	str	r3, [sp]
    8704:	e3a0309d 	mov	r3, #157, 0	; 0x9d
    8708:	e59f21b8 	ldr	r2, [pc, #440]	; 88c8 <va_printk+0x380>
    870c:	e59f11b8 	ldr	r1, [pc, #440]	; 88cc <va_printk+0x384>
    8710:	e59f01b8 	ldr	r0, [pc, #440]	; 88d0 <va_printk+0x388>
    8714:	ebfffec6 	bl	8234 <printk>
    8718:	eb000073 	bl	88ec <clean_reboot>
    871c:	e3a030af 	mov	r3, #175, 0	; 0xaf
    8720:	e59f21a0 	ldr	r2, [pc, #416]	; 88c8 <va_printk+0x380>
    8724:	e59f11a0 	ldr	r1, [pc, #416]	; 88cc <va_printk+0x384>
    8728:	e59f01ac 	ldr	r0, [pc, #428]	; 88dc <va_printk+0x394>
    872c:	ebfffec0 	bl	8234 <printk>
    8730:	eb00006d 	bl	88ec <clean_reboot>
    8734:	e59d300c 	ldr	r3, [sp, #12]
    8738:	e2832004 	add	r2, r3, #4, 0
    873c:	e58d200c 	str	r2, [sp, #12]
    8740:	e5933000 	ldr	r3, [r3]
    8744:	e3a02001 	mov	r2, #1, 0
    8748:	e58d2004 	str	r2, [sp, #4]
    874c:	e58d5000 	str	r5, [sp]
    8750:	e3a02080 	mov	r2, #128, 0	; 0x80
    8754:	e28d1010 	add	r1, sp, #16, 0
    8758:	e3a0000a 	mov	r0, #10, 0
    875c:	ebfffef3 	bl	8330 <emit>
    8760:	e1a07000 	mov	r7, r0
    8764:	e2866001 	add	r6, r6, #1, 0
    8768:	ea00004a 	b	8898 <va_printk+0x350>
    876c:	e59d300c 	ldr	r3, [sp, #12]
    8770:	e2832004 	add	r2, r3, #4, 0
    8774:	e58d200c 	str	r2, [sp, #12]
    8778:	e5933000 	ldr	r3, [r3]
    877c:	e3a02000 	mov	r2, #0, 0
    8780:	e58d2004 	str	r2, [sp, #4]
    8784:	e58d5000 	str	r5, [sp]
    8788:	e3a02080 	mov	r2, #128, 0	; 0x80
    878c:	e28d1010 	add	r1, sp, #16, 0
    8790:	e3a0000a 	mov	r0, #10, 0
    8794:	ebfffee5 	bl	8330 <emit>
    8798:	e1a07000 	mov	r7, r0
    879c:	eafffff0 	b	8764 <va_printk+0x21c>
    87a0:	e59d300c 	ldr	r3, [sp, #12]
    87a4:	e2832004 	add	r2, r3, #4, 0
    87a8:	e58d200c 	str	r2, [sp, #12]
    87ac:	e5933000 	ldr	r3, [r3]
    87b0:	e3a02000 	mov	r2, #0, 0
    87b4:	e58d2004 	str	r2, [sp, #4]
    87b8:	e58d5000 	str	r5, [sp]
    87bc:	e3a02080 	mov	r2, #128, 0	; 0x80
    87c0:	e28d1010 	add	r1, sp, #16, 0
    87c4:	e3a00010 	mov	r0, #16, 0
    87c8:	ebfffed8 	bl	8330 <emit>
    87cc:	e1a07000 	mov	r7, r0
    87d0:	eaffffe3 	b	8764 <va_printk+0x21c>
    87d4:	e59d300c 	ldr	r3, [sp, #12]
    87d8:	e2832004 	add	r2, r3, #4, 0
    87dc:	e58d200c 	str	r2, [sp, #12]
    87e0:	e5933000 	ldr	r3, [r3]
    87e4:	e3a02000 	mov	r2, #0, 0
    87e8:	e58d2004 	str	r2, [sp, #4]
    87ec:	e58d5000 	str	r5, [sp]
    87f0:	e3a02080 	mov	r2, #128, 0	; 0x80
    87f4:	e28d1010 	add	r1, sp, #16, 0
    87f8:	e3a00002 	mov	r0, #2, 0
    87fc:	ebfffecb 	bl	8330 <emit>
    8800:	e1a07000 	mov	r7, r0
    8804:	eaffffd6 	b	8764 <va_printk+0x21c>
    8808:	e59d300c 	ldr	r3, [sp, #12]
    880c:	e2832004 	add	r2, r3, #4, 0
    8810:	e58d200c 	str	r2, [sp, #12]
    8814:	e5937000 	ldr	r7, [r3]
    8818:	eaffffd1 	b	8764 <va_printk+0x21c>
    881c:	e59d300c 	ldr	r3, [sp, #12]
    8820:	e2832004 	add	r2, r3, #4, 0
    8824:	e58d200c 	str	r2, [sp, #12]
    8828:	e5933000 	ldr	r3, [r3]
    882c:	e3a02000 	mov	r2, #0, 0
    8830:	e58d2004 	str	r2, [sp, #4]
    8834:	e58d5000 	str	r5, [sp]
    8838:	e3a02080 	mov	r2, #128, 0	; 0x80
    883c:	e28d1010 	add	r1, sp, #16, 0
    8840:	e3a00008 	mov	r0, #8, 0
    8844:	ebfffeb9 	bl	8330 <emit>
    8848:	e1a07000 	mov	r7, r0
    884c:	eaffffc4 	b	8764 <va_printk+0x21c>
    8850:	e3a03000 	mov	r3, #0, 0
    8854:	e5c63001 	strb	r3, [r6, #1]
    8858:	e1a0200a 	mov	r2, sl
    885c:	e1a0100a 	mov	r1, sl
    8860:	e59f0078 	ldr	r0, [pc, #120]	; 88e0 <va_printk+0x398>
    8864:	ebfffe72 	bl	8234 <printk>
    8868:	e59f3074 	ldr	r3, [pc, #116]	; 88e4 <va_printk+0x39c>
    886c:	e5933000 	ldr	r3, [r3]
    8870:	e59d0008 	ldr	r0, [sp, #8]
    8874:	e12fff33 	blx	r3
    8878:	e3a030d3 	mov	r3, #211, 0	; 0xd3
    887c:	e59f2044 	ldr	r2, [pc, #68]	; 88c8 <va_printk+0x380>
    8880:	e59f1044 	ldr	r1, [pc, #68]	; 88cc <va_printk+0x384>
    8884:	e59f005c 	ldr	r0, [pc, #92]	; 88e8 <va_printk+0x3a0>
    8888:	ebfffe69 	bl	8234 <printk>
    888c:	eb000016 	bl	88ec <clean_reboot>
    8890:	e2877001 	add	r7, r7, #1, 0
    8894:	e4c43001 	strb	r3, [r4], #1
    8898:	e1540008 	cmp	r4, r8
    889c:	2affff37 	bcs	8580 <va_printk+0x38>
    88a0:	e5d73000 	ldrb	r3, [r7]
    88a4:	e3530000 	cmp	r3, #0, 0
    88a8:	1afffff8 	bne	8890 <va_printk+0x348>
    88ac:	eaffff33 	b	8580 <va_printk+0x38>
    88b0:	e3a03000 	mov	r3, #0, 0
    88b4:	e4c43001 	strb	r3, [r4], #1
    88b8:	e0440009 	sub	r0, r4, r9
    88bc:	e28ddf45 	add	sp, sp, #276	; 0x114
    88c0:	e8bd8ff0 	pop	{r4, r5, r6, r7, r8, r9, sl, fp, pc}
    88c4:	00008eb8 			; <UNDEFINED> instruction: 0x00008eb8
    88c8:	00008f74 	andeq	r8, r0, r4, ror pc
    88cc:	00008e74 	andeq	r8, r0, r4, ror lr
    88d0:	00008e20 	andeq	r8, r0, r0, lsr #28
    88d4:	00008ec4 	andeq	r8, r0, r4, asr #29
    88d8:	00008ec8 	andeq	r8, r0, r8, asr #29
    88dc:	00008ee4 	andeq	r8, r0, r4, ror #29
    88e0:	00008f0c 	andeq	r8, r0, ip, lsl #30
    88e4:	00008f8c 	andeq	r8, r0, ip, lsl #31
    88e8:	00008f3c 	andeq	r8, r0, ip, lsr pc

000088ec <clean_reboot>:
    88ec:	e92d4010 	push	{r4, lr}
    88f0:	e59f3018 	ldr	r3, [pc, #24]	; 8910 <clean_reboot+0x24>
    88f4:	e5933000 	ldr	r3, [r3]
    88f8:	e59f0014 	ldr	r0, [pc, #20]	; 8914 <clean_reboot+0x28>
    88fc:	e12fff33 	blx	r3
    8900:	eb0000c3 	bl	8c14 <uart_flush_tx>
    8904:	e3a0000a 	mov	r0, #10, 0
    8908:	eb000049 	bl	8a34 <delay_ms>
    890c:	eb000019 	bl	8978 <rpi_reboot>
    8910:	00008f8c 	andeq	r8, r0, ip, lsl #31
    8914:	00008f80 	andeq	r8, r0, r0, lsl #31

00008918 <_cstart>:
    8918:	e92d4010 	push	{r4, lr}
    891c:	eb000009 	bl	8948 <custom_loader>
    8920:	e59f3018 	ldr	r3, [pc, #24]	; 8940 <_cstart+0x28>
    8924:	e59f2018 	ldr	r2, [pc, #24]	; 8944 <_cstart+0x2c>
    8928:	e1530002 	cmp	r3, r2
    892c:	33a02000 	movcc	r2, #0, 0
    8930:	34832004 	strcc	r2, [r3], #4
    8934:	3afffffa 	bcc	8924 <_cstart+0xc>
    8938:	ebfffdbd 	bl	8034 <notmain>
    893c:	ebffffea 	bl	88ec <clean_reboot>
    8940:	00008f94 	muleq	r0, r4, pc	; <UNPREDICTABLE>
    8944:	000093a0 	andeq	r9, r0, r0, lsr #7

00008948 <custom_loader>:
    8948:	e12fff1e 	bx	lr

0000894c <at_user_level>:
    894c:	e10f0000 	mrs	r0, CPSR
    8950:	e200001f 	and	r0, r0, #31, 0
    8954:	e3500010 	cmp	r0, #16, 0
    8958:	13a00000 	movne	r0, #0, 0
    895c:	03a00001 	moveq	r0, #1, 0
    8960:	e12fff1e 	bx	lr

00008964 <set_user_level>:
    8964:	e10f3000 	mrs	r3, CPSR
    8968:	e3c3301f 	bic	r3, r3, #31, 0
    896c:	e3833010 	orr	r3, r3, #16, 0
    8970:	e129f003 	msr	CPSR_fc, r3
    8974:	e12fff1e 	bx	lr

00008978 <rpi_reboot>:
    8978:	e92d4010 	push	{r4, lr}
    897c:	ebfffff2 	bl	894c <at_user_level>
    8980:	e3500000 	cmp	r0, #0, 0
    8984:	1a000009 	bne	89b0 <rpi_reboot+0x38>
    8988:	eb0000a1 	bl	8c14 <uart_flush_tx>
    898c:	e3a0000a 	mov	r0, #10, 0
    8990:	eb000027 	bl	8a34 <delay_ms>
    8994:	e59f101c 	ldr	r1, [pc, #28]	; 89b8 <rpi_reboot+0x40>
    8998:	e59f001c 	ldr	r0, [pc, #28]	; 89bc <rpi_reboot+0x44>
    899c:	ebfffdf3 	bl	8170 <__wrap_PUT32>
    89a0:	e59f1018 	ldr	r1, [pc, #24]	; 89c0 <rpi_reboot+0x48>
    89a4:	e59f0018 	ldr	r0, [pc, #24]	; 89c4 <rpi_reboot+0x4c>
    89a8:	ebfffdf0 	bl	8170 <__wrap_PUT32>
    89ac:	eafffffe 	b	89ac <rpi_reboot+0x34>
    89b0:	ebffffeb 	bl	8964 <set_user_level>
    89b4:	eafffff3 	b	8988 <rpi_reboot+0x10>
    89b8:	5a000001 	bpl	89c4 <rpi_reboot+0x4c>
    89bc:	20100024 	andscs	r0, r0, r4, lsr #32
    89c0:	5a000020 	bpl	8a48 <delay_ms+0x14>
    89c4:	2010001c 	andscs	r0, r0, ip, lsl r0

000089c8 <delay_cycles>:
    89c8:	e2403001 	sub	r3, r0, #1, 0
    89cc:	e3500000 	cmp	r0, #0, 0
    89d0:	012fff1e 	bxeq	lr
    89d4:	e2811000 	add	r1, r1, #0, 0
    89d8:	e1a00003 	mov	r0, r3
    89dc:	eafffff9 	b	89c8 <delay_cycles>

000089e0 <timer_get_usec_raw>:
    89e0:	e92d4010 	push	{r4, lr}
    89e4:	e59f0004 	ldr	r0, [pc, #4]	; 89f0 <timer_get_usec_raw+0x10>
    89e8:	ebfffdf8 	bl	81d0 <__wrap_GET32>
    89ec:	e8bd8010 	pop	{r4, pc}
    89f0:	20003004 	andcs	r3, r0, r4

000089f4 <timer_get_usec>:
    89f4:	e92d4010 	push	{r4, lr}
    89f8:	eb000019 	bl	8a64 <dev_barrier>
    89fc:	ebfffff7 	bl	89e0 <timer_get_usec_raw>
    8a00:	e1a04000 	mov	r4, r0
    8a04:	eb000016 	bl	8a64 <dev_barrier>
    8a08:	e1a00004 	mov	r0, r4
    8a0c:	e8bd8010 	pop	{r4, pc}

00008a10 <delay_us>:
    8a10:	e92d4070 	push	{r4, r5, r6, lr}
    8a14:	e1a05000 	mov	r5, r0
    8a18:	ebfffff5 	bl	89f4 <timer_get_usec>
    8a1c:	e1a04000 	mov	r4, r0
    8a20:	ebfffff3 	bl	89f4 <timer_get_usec>
    8a24:	e0400004 	sub	r0, r0, r4
    8a28:	e1500005 	cmp	r0, r5
    8a2c:	3afffffb 	bcc	8a20 <delay_us+0x10>
    8a30:	e8bd8070 	pop	{r4, r5, r6, pc}

00008a34 <delay_ms>:
    8a34:	e92d4010 	push	{r4, lr}
    8a38:	e0603280 	rsb	r3, r0, r0, lsl #5
    8a3c:	e0800103 	add	r0, r0, r3, lsl #2
    8a40:	e1a00180 	lsl	r0, r0, #3
    8a44:	ebfffff1 	bl	8a10 <delay_us>
    8a48:	e8bd8010 	pop	{r4, pc}

00008a4c <delay_sec>:
    8a4c:	e92d4010 	push	{r4, lr}
    8a50:	e0603280 	rsb	r3, r0, r0, lsl #5
    8a54:	e0800103 	add	r0, r0, r3, lsl #2
    8a58:	e1a00180 	lsl	r0, r0, #3
    8a5c:	ebfffff4 	bl	8a34 <delay_ms>
    8a60:	e8bd8010 	pop	{r4, pc}

00008a64 <dev_barrier>:
    8a64:	ea000002 	b	8a74 <dsb>

00008a68 <dmb>:
    8a68:	e3a00000 	mov	r0, #0, 0
    8a6c:	ee070fba 	mcr	15, 0, r0, cr7, cr10, {5}
    8a70:	e12fff1e 	bx	lr

00008a74 <dsb>:
    8a74:	ee070f9a 	mcr	15, 0, r0, cr7, cr10, {4}
    8a78:	e12fff1e 	bx	lr

00008a7c <or_in32>:
    8a7c:	e92d4070 	push	{r4, r5, r6, lr}
    8a80:	e1a04000 	mov	r4, r0
    8a84:	e1a05001 	mov	r5, r1
    8a88:	ebfffd67 	bl	802c <GET32>
    8a8c:	e1801005 	orr	r1, r0, r5
    8a90:	e1a00004 	mov	r0, r4
    8a94:	ebfffd62 	bl	8024 <PUT32>
    8a98:	e8bd8070 	pop	{r4, r5, r6, pc}

00008a9c <uart_init>:
    8a9c:	e92d4010 	push	{r4, lr}
    8aa0:	e3a01002 	mov	r1, #2, 0
    8aa4:	e3a0000e 	mov	r0, #14, 0
    8aa8:	eb00005e 	bl	8c28 <gpio_set_function>
    8aac:	e3a01002 	mov	r1, #2, 0
    8ab0:	e3a0000f 	mov	r0, #15, 0
    8ab4:	eb00005b 	bl	8c28 <gpio_set_function>
    8ab8:	ebffffe9 	bl	8a64 <dev_barrier>
    8abc:	e3a01001 	mov	r1, #1, 0
    8ac0:	e59f0064 	ldr	r0, [pc, #100]	; 8b2c <uart_init+0x90>
    8ac4:	ebffffec 	bl	8a7c <or_in32>
    8ac8:	ebffffe5 	bl	8a64 <dev_barrier>
    8acc:	e59f405c 	ldr	r4, [pc, #92]	; 8b30 <uart_init+0x94>
    8ad0:	e3a01000 	mov	r1, #0, 0
    8ad4:	e1a00004 	mov	r0, r4
    8ad8:	ebfffd51 	bl	8024 <PUT32>
    8adc:	e3a01000 	mov	r1, #0, 0
    8ae0:	e59f004c 	ldr	r0, [pc, #76]	; 8b34 <uart_init+0x98>
    8ae4:	ebfffd4e 	bl	8024 <PUT32>
    8ae8:	e3a01003 	mov	r1, #3, 0
    8aec:	e59f0044 	ldr	r0, [pc, #68]	; 8b38 <uart_init+0x9c>
    8af0:	ebfffd4b 	bl	8024 <PUT32>
    8af4:	e3a01000 	mov	r1, #0, 0
    8af8:	e59f003c 	ldr	r0, [pc, #60]	; 8b3c <uart_init+0xa0>
    8afc:	ebfffd48 	bl	8024 <PUT32>
    8b00:	e3a010c7 	mov	r1, #199, 0	; 0xc7
    8b04:	e59f0034 	ldr	r0, [pc, #52]	; 8b40 <uart_init+0xa4>
    8b08:	ebfffd45 	bl	8024 <PUT32>
    8b0c:	e59f1030 	ldr	r1, [pc, #48]	; 8b44 <uart_init+0xa8>
    8b10:	e59f0030 	ldr	r0, [pc, #48]	; 8b48 <uart_init+0xac>
    8b14:	ebfffd42 	bl	8024 <PUT32>
    8b18:	e3a01003 	mov	r1, #3, 0
    8b1c:	e1a00004 	mov	r0, r4
    8b20:	ebfffd3f 	bl	8024 <PUT32>
    8b24:	ebffffce 	bl	8a64 <dev_barrier>
    8b28:	e8bd8010 	pop	{r4, pc}
    8b2c:	20215004 	eorcs	r5, r1, r4
    8b30:	20215060 	eorcs	r5, r1, r0, rrx
    8b34:	20215044 	eorcs	r5, r1, r4, asr #32
    8b38:	2021504c 	eorcs	r5, r1, ip, asr #32
    8b3c:	20215050 	eorcs	r5, r1, r0, asr r0
    8b40:	20215048 	eorcs	r5, r1, r8, asr #32
    8b44:	0000010e 	andeq	r0, r0, lr, lsl #2
    8b48:	20215068 	eorcs	r5, r1, r8, rrx

00008b4c <uart_can_getc>:
    8b4c:	e92d4010 	push	{r4, lr}
    8b50:	e59f0008 	ldr	r0, [pc, #8]	; 8b60 <uart_can_getc+0x14>
    8b54:	ebfffd34 	bl	802c <GET32>
    8b58:	e2000001 	and	r0, r0, #1, 0
    8b5c:	e8bd8010 	pop	{r4, pc}
    8b60:	20215064 	eorcs	r5, r1, r4, rrx

00008b64 <uart_can_putc>:
    8b64:	e92d4010 	push	{r4, lr}
    8b68:	e59f0010 	ldr	r0, [pc, #16]	; 8b80 <uart_can_putc+0x1c>
    8b6c:	ebfffd2e 	bl	802c <GET32>
    8b70:	e3100002 	tst	r0, #2, 0
    8b74:	13a00001 	movne	r0, #1, 0
    8b78:	03a00000 	moveq	r0, #0, 0
    8b7c:	e8bd8010 	pop	{r4, pc}
    8b80:	20215064 	eorcs	r5, r1, r4, rrx

00008b84 <uart_getc>:
    8b84:	e92d4010 	push	{r4, lr}
    8b88:	ebffffb5 	bl	8a64 <dev_barrier>
    8b8c:	ebffffee 	bl	8b4c <uart_can_getc>
    8b90:	e3500000 	cmp	r0, #0, 0
    8b94:	0afffffc 	beq	8b8c <uart_getc+0x8>
    8b98:	e59f0010 	ldr	r0, [pc, #16]	; 8bb0 <uart_getc+0x2c>
    8b9c:	ebfffd22 	bl	802c <GET32>
    8ba0:	e6ef4070 	uxtb	r4, r0
    8ba4:	ebffffae 	bl	8a64 <dev_barrier>
    8ba8:	e1a00004 	mov	r0, r4
    8bac:	e8bd8010 	pop	{r4, pc}
    8bb0:	20215040 	eorcs	r5, r1, r0, asr #32

00008bb4 <uart_putc>:
    8bb4:	e92d4010 	push	{r4, lr}
    8bb8:	e1a04000 	mov	r4, r0
    8bbc:	ebffffa8 	bl	8a64 <dev_barrier>
    8bc0:	ebffffe7 	bl	8b64 <uart_can_putc>
    8bc4:	e3500000 	cmp	r0, #0, 0
    8bc8:	0afffffc 	beq	8bc0 <uart_putc+0xc>
    8bcc:	e6ef1074 	uxtb	r1, r4
    8bd0:	e59f0008 	ldr	r0, [pc, #8]	; 8be0 <uart_putc+0x2c>
    8bd4:	ebfffd12 	bl	8024 <PUT32>
    8bd8:	ebffffa1 	bl	8a64 <dev_barrier>
    8bdc:	e8bd8010 	pop	{r4, pc}
    8be0:	20215040 	eorcs	r5, r1, r0, asr #32

00008be4 <uart_has_data>:
    8be4:	e92d4010 	push	{r4, lr}
    8be8:	ebffff9d 	bl	8a64 <dev_barrier>
    8bec:	ebffffd6 	bl	8b4c <uart_can_getc>
    8bf0:	e8bd8010 	pop	{r4, pc}

00008bf4 <uart_tx_is_empty>:
    8bf4:	e92d4010 	push	{r4, lr}
    8bf8:	ebffff99 	bl	8a64 <dev_barrier>
    8bfc:	e59f000c 	ldr	r0, [pc, #12]	; 8c10 <uart_tx_is_empty+0x1c>
    8c00:	ebfffd09 	bl	802c <GET32>
    8c04:	e1a004a0 	lsr	r0, r0, #9
    8c08:	e2000001 	and	r0, r0, #1, 0
    8c0c:	e8bd8010 	pop	{r4, pc}
    8c10:	20215064 	eorcs	r5, r1, r4, rrx

00008c14 <uart_flush_tx>:
    8c14:	e92d4010 	push	{r4, lr}
    8c18:	ebfffff5 	bl	8bf4 <uart_tx_is_empty>
    8c1c:	e3500000 	cmp	r0, #0, 0
    8c20:	0afffffc 	beq	8c18 <uart_flush_tx+0x4>
    8c24:	e8bd8010 	pop	{r4, pc}

00008c28 <gpio_set_function>:
    8c28:	e92d41f0 	push	{r4, r5, r6, r7, r8, lr}
    8c2c:	e1a04000 	mov	r4, r0
    8c30:	e1a06001 	mov	r6, r1
    8c34:	e59f503c 	ldr	r5, [pc, #60]	; 8c78 <gpio_set_function+0x50>
    8c38:	e0853095 	umull	r3, r5, r5, r0
    8c3c:	e1a051a5 	lsr	r5, r5, #3
    8c40:	e2857302 	add	r7, r5, #134217728	; 0x8000000
    8c44:	e2877702 	add	r7, r7, #524288	; 0x80000
    8c48:	e1a07107 	lsl	r7, r7, #2
    8c4c:	e1a00007 	mov	r0, r7
    8c50:	ebfffd5e 	bl	81d0 <__wrap_GET32>
    8c54:	e0855105 	add	r5, r5, r5, lsl #2
    8c58:	e0445085 	sub	r5, r4, r5, lsl #1
    8c5c:	e0855085 	add	r5, r5, r5, lsl #1
    8c60:	e3a01007 	mov	r1, #7, 0
    8c64:	e1c01511 	bic	r1, r0, r1, lsl r5
    8c68:	e1811516 	orr	r1, r1, r6, lsl r5
    8c6c:	e1a00007 	mov	r0, r7
    8c70:	ebfffd3e 	bl	8170 <__wrap_PUT32>
    8c74:	e8bd81f0 	pop	{r4, r5, r6, r7, r8, pc}
    8c78:	cccccccd 	stclgt	12, cr12, [ip], {205}	; 0xcd

00008c7c <gpio_set_output>:
    8c7c:	e92d4010 	push	{r4, lr}
    8c80:	e3a01001 	mov	r1, #1, 0
    8c84:	ebffffe7 	bl	8c28 <gpio_set_function>
    8c88:	e8bd8010 	pop	{r4, pc}

00008c8c <gpio_set_on>:
    8c8c:	e92d4010 	push	{r4, lr}
    8c90:	e3a01001 	mov	r1, #1, 0
    8c94:	e1a01011 	lsl	r1, r1, r0
    8c98:	e59f0004 	ldr	r0, [pc, #4]	; 8ca4 <gpio_set_on+0x18>
    8c9c:	ebfffd33 	bl	8170 <__wrap_PUT32>
    8ca0:	e8bd8010 	pop	{r4, pc}
    8ca4:	2020001c 	eorcs	r0, r0, ip, lsl r0

00008ca8 <gpio_set_off>:
    8ca8:	e92d4010 	push	{r4, lr}
    8cac:	e3a01001 	mov	r1, #1, 0
    8cb0:	e1a01011 	lsl	r1, r1, r0
    8cb4:	e59f0004 	ldr	r0, [pc, #4]	; 8cc0 <gpio_set_off+0x18>
    8cb8:	ebfffd2c 	bl	8170 <__wrap_PUT32>
    8cbc:	e8bd8010 	pop	{r4, pc}
    8cc0:	20200028 	eorcs	r0, r0, r8, lsr #32

00008cc4 <gpio_write>:
    8cc4:	e92d4010 	push	{r4, lr}
    8cc8:	e3510000 	cmp	r1, #0, 0
    8ccc:	0a000001 	beq	8cd8 <gpio_write+0x14>
    8cd0:	ebffffed 	bl	8c8c <gpio_set_on>
    8cd4:	e8bd8010 	pop	{r4, pc}
    8cd8:	ebfffff2 	bl	8ca8 <gpio_set_off>
    8cdc:	e8bd8010 	pop	{r4, pc}

00008ce0 <gpio_set_input>:
    8ce0:	e92d4010 	push	{r4, lr}
    8ce4:	e3a01000 	mov	r1, #0, 0
    8ce8:	ebffffce 	bl	8c28 <gpio_set_function>
    8cec:	e8bd8010 	pop	{r4, pc}

00008cf0 <gpio_read>:
    8cf0:	e92d4010 	push	{r4, lr}
    8cf4:	e1a04000 	mov	r4, r0
    8cf8:	e59f000c 	ldr	r0, [pc, #12]	; 8d0c <gpio_read+0x1c>
    8cfc:	ebfffd33 	bl	81d0 <__wrap_GET32>
    8d00:	e3a03001 	mov	r3, #1, 0
    8d04:	e0000413 	and	r0, r0, r3, lsl r4
    8d08:	e8bd8010 	pop	{r4, pc}
    8d0c:	20200034 	eorcs	r0, r0, r4, lsr r0

00008d10 <internal_putchar>:
    8d10:	e92d4010 	push	{r4, lr}
    8d14:	e1a04000 	mov	r4, r0
    8d18:	ebffffa5 	bl	8bb4 <uart_putc>
    8d1c:	e1a00004 	mov	r0, r4
    8d20:	e8bd8010 	pop	{r4, pc}

00008d24 <rpi_reset_putc>:
    8d24:	e59f3008 	ldr	r3, [pc, #8]	; 8d34 <rpi_reset_putc+0x10>
    8d28:	e59f2008 	ldr	r2, [pc, #8]	; 8d38 <rpi_reset_putc+0x14>
    8d2c:	e5832000 	str	r2, [r3]
    8d30:	e12fff1e 	bx	lr
    8d34:	00008f90 	muleq	r0, r0, pc	; <UNPREDICTABLE>
    8d38:	00008d10 	andeq	r8, r0, r0, lsl sp

00008d3c <rpi_set_putc>:
    8d3c:	e59f3004 	ldr	r3, [pc, #4]	; 8d48 <rpi_set_putc+0xc>
    8d40:	e5830000 	str	r0, [r3]
    8d44:	e12fff1e 	bx	lr
    8d48:	00008f90 	muleq	r0, r0, pc	; <UNPREDICTABLE>

00008d4c <strcat>:
    8d4c:	e1a02000 	mov	r2, r0
    8d50:	e1a03002 	mov	r3, r2
    8d54:	e2822001 	add	r2, r2, #1, 0
    8d58:	e5d3c000 	ldrb	ip, [r3]
    8d5c:	e35c0000 	cmp	ip, #0, 0
    8d60:	1afffffa 	bne	8d50 <strcat+0x4>
    8d64:	e2433001 	sub	r3, r3, #1, 0
    8d68:	e5d12000 	ldrb	r2, [r1]
    8d6c:	e2811001 	add	r1, r1, #1, 0
    8d70:	e5e32001 	strb	r2, [r3, #1]!
    8d74:	e3520000 	cmp	r2, #0, 0
    8d78:	1afffffa 	bne	8d68 <strcat+0x1c>
    8d7c:	e12fff1e 	bx	lr

00008d80 <strncmp>:
    8d80:	e3520000 	cmp	r2, #0, 0
    8d84:	e2422001 	sub	r2, r2, #1, 0
    8d88:	0a000005 	beq	8da4 <strncmp+0x24>
    8d8c:	e4d03001 	ldrb	r3, [r0], #1
    8d90:	e4d1c001 	ldrb	ip, [r1], #1
    8d94:	e153000c 	cmp	r3, ip
    8d98:	0afffff8 	beq	8d80 <strncmp>
    8d9c:	e043000c 	sub	r0, r3, ip
    8da0:	e12fff1e 	bx	lr
    8da4:	e3a00000 	mov	r0, #0, 0
    8da8:	e12fff1e 	bx	lr

00008dac <__code_end__>:
    8dac:	00000000 	andeq	r0, r0, r0

Disassembly of section .rodata:

00008db0 <__FUNCTION__.3935-0xac>:
    8db0:	6f697067 	svcvs	0x00697067
    8db4:	6972775f 	ldmdbvs	r2!, {r0, r1, r2, r3, r4, r6, r8, r9, sl, ip, sp, lr}^
    8db8:	32286574 	eorcc	r6, r8, #116, 10	; 0x1d000000
    8dbc:	31202c30 			; <UNDEFINED> instruction: 0x31202c30
    8dc0:	00000029 	andeq	r0, r0, r9, lsr #32
    8dc4:	756f6261 	strbvc	r6, [pc, #-609]!	; 8b6b <uart_can_putc+0x7>
    8dc8:	6f742074 	svcvs	0x00742074
    8dcc:	61727420 	cmnvs	r2, r0, lsr #8
    8dd0:	203a6563 	eorscs	r6, sl, r3, ror #10
    8dd4:	3e73253c 	mrccc	5, 3, r2, cr3, cr12, {1}
    8dd8:	0000000a 	andeq	r0, r0, sl
    8ddc:	656e6f64 	strbvs	r6, [lr, #-3940]!	; 0xfffff09c
    8de0:	253c203a 	ldrcs	r2, [ip, #-58]!	; 0xffffffc6
    8de4:	000a3e73 	andeq	r3, sl, r3, ror lr
    8de8:	43415254 	movtmi	r5, #4692	; 0x1254
    8dec:	55503a45 	ldrbpl	r3, [r0, #-2629]	; 0xfffff5bb
    8df0:	28323354 	ldmdacs	r2!, {r2, r4, r6, r8, r9, ip, sp}
    8df4:	3d297825 	stccc	8, cr7, [r9, #-148]!	; 0xffffff6c
    8df8:	000a7825 	andeq	r7, sl, r5, lsr #16
    8dfc:	43415254 	movtmi	r5, #4692	; 0x1254
    8e00:	45473a45 	strbmi	r3, [r7, #-2629]	; 0xfffff5bb
    8e04:	28323354 	ldmdacs	r2!, {r2, r4, r6, r8, r9, ip, sp}
    8e08:	3d297825 	stccc	8, cr7, [r9, #-148]!	; 0xffffff6c
    8e0c:	000a7825 	andeq	r7, sl, r5, lsr #16
    8e10:	63617274 	cmnvs	r1, #116, 4	; 0x40000007
    8e14:	69732d65 	ldmdbvs	r3!, {r0, r2, r5, r6, r8, sl, fp, sp}^
    8e18:	656c706d 	strbvs	r7, [ip, #-109]!	; 0xffffff93
    8e1c:	0000632e 	andeq	r6, r0, lr, lsr #6
    8e20:	494e4150 	stmdbmi	lr, {r4, r6, r8, lr}^
    8e24:	73253a43 			; <UNDEFINED> instruction: 0x73253a43
    8e28:	3a73253a 	bcc	1cd2318 <__bss_end__+0x1cc8f78>
    8e2c:	253a6425 	ldrcs	r6, [sl, #-1061]!	; 0xfffffbdb
    8e30:	00000a73 	andeq	r0, r0, r3, ror sl
    8e34:	74617473 	strbtvc	r7, [r1], #-1139	; 0xfffffb8d
    8e38:	3d3d2065 	ldccc	0, cr2, [sp, #-404]!	; 0xfffffe6c
    8e3c:	41525420 	cmpmi	r2, r0, lsr #8
    8e40:	4f5f4543 	svcmi	0x005f4543
    8e44:	00004646 	andeq	r4, r0, r6, asr #12
    8e48:	74617473 	strbtvc	r7, [r1], #-1139	; 0xfffffb8d
    8e4c:	3d3d2065 	ldccc	0, cr2, [sp, #-404]!	; 0xfffffe6c
    8e50:	41525420 	cmpmi	r2, r0, lsr #8
    8e54:	4f5f4543 	svcmi	0x005f4543
    8e58:	0000004e 	andeq	r0, r0, lr, asr #32

00008e5c <__FUNCTION__.3935>:
    8e5c:	63617274 	cmnvs	r1, #116, 4	; 0x40000007
    8e60:	74735f65 	ldrbtvc	r5, [r3], #-3941	; 0xfffff09b
    8e64:	00747261 	rsbseq	r7, r4, r1, ror #4

00008e68 <__FUNCTION__.3939>:
    8e68:	63617274 	cmnvs	r1, #116, 4	; 0x40000007
    8e6c:	74735f65 	ldrbtvc	r5, [r3], #-3941	; 0xfffff09b
    8e70:	0000706f 	andeq	r7, r0, pc, rrx
    8e74:	6362696c 	cmnvs	r2, #108, 18	; 0x1b0000
    8e78:	2d61762f 	stclcs	6, cr7, [r1, #-188]!	; 0xffffff44
    8e7c:	6e697270 	mcrvs	2, 3, r7, cr9, cr0, {3}
    8e80:	632e6b74 			; <UNDEFINED> instruction: 0x632e6b74
    8e84:	00000000 	andeq	r0, r0, r0
    8e88:	00000030 	andeq	r0, r0, r0, lsr r0
    8e8c:	33323130 	teqcc	r2, #12
    8e90:	37363534 			; <UNDEFINED> instruction: 0x37363534
    8e94:	00003938 	andeq	r3, r0, r8, lsr r9
    8e98:	33323130 	teqcc	r2, #12
    8e9c:	37363534 			; <UNDEFINED> instruction: 0x37363534
    8ea0:	62613938 	rsbvs	r3, r1, #56, 18	; 0xe0000
    8ea4:	66656463 	strbtvs	r6, [r5], -r3, ror #8
    8ea8:	00000000 	andeq	r0, r0, r0
    8eac:	00003130 	andeq	r3, r0, r0, lsr r1
    8eb0:	63747570 	cmnvs	r4, #112, 10	; 0x1c000000
    8eb4:	0070665f 	rsbseq	r6, r0, pc, asr r6
    8eb8:	74646977 	strbtvc	r6, [r4], #-2423	; 0xfffff689
    8ebc:	203c2068 	eorscs	r2, ip, r8, rrx
    8ec0:	00003233 	andeq	r3, r0, r3, lsr r2
    8ec4:	00786c6c 	rsbseq	r6, r8, ip, ror #24
    8ec8:	6e727473 	mrcvs	4, 3, r7, cr2, cr3, {3}
    8ecc:	28706d63 	ldmdacs	r0!, {r0, r1, r5, r6, r8, sl, fp, sp, lr}^
    8ed0:	2c746d66 	ldclcs	13, cr6, [r4], #-408	; 0xfffffe68
    8ed4:	6c6c2220 	sfmvs	f2, 2, [ip], #-128	; 0xffffff80
    8ed8:	202c2278 	eorcs	r2, ip, r8, ror r2
    8edc:	3d202933 			; <UNDEFINED> instruction: 0x3d202933
    8ee0:	0030203d 	eorseq	r2, r0, sp, lsr r0
    8ee4:	494e4150 	stmdbmi	lr, {r4, r6, r8, lr}^
    8ee8:	73253a43 			; <UNDEFINED> instruction: 0x73253a43
    8eec:	3a73253a 	bcc	1cd23dc <__bss_end__+0x1cc903c>
    8ef0:	663a6425 	ldrtvs	r6, [sl], -r5, lsr #8
    8ef4:	74616f6c 	strbtvc	r6, [r1], #-3948	; 0xfffff094
    8ef8:	746f6e20 	strbtvc	r6, [pc], #-3616	; 8f00 <__FUNCTION__.3939+0x98>
    8efc:	616e6520 	cmnvs	lr, r0, lsr #10
    8f00:	64656c62 	strbtvs	r6, [r5], #-3170	; 0xfffff39e
    8f04:	0a212121 	beq	851390 <__bss_end__+0x847ff0>
    8f08:	00000000 	andeq	r0, r0, r0
    8f0c:	6e697270 	mcrvs	2, 3, r7, cr9, cr0, {3}
    8f10:	203a6b74 	eorscs	r6, sl, r4, ror fp
    8f14:	20746f6e 	rsbscs	r6, r4, lr, ror #30
    8f18:	646e6168 	strbtvs	r6, [lr], #-360	; 0xfffffe98
    8f1c:	676e696c 	strbvs	r6, [lr, -ip, ror #18]!
    8f20:	65707320 	ldrbvs	r7, [r0, #-800]!	; 0xfffffce0
    8f24:	69666963 	stmdbvs	r6!, {r0, r1, r5, r6, r8, fp, sp, lr}^
    8f28:	27207265 	strcs	r7, [r0, -r5, ror #4]!
    8f2c:	20276325 	eorcs	r6, r7, r5, lsr #6
    8f30:	63736128 	cmnvs	r3, #10
    8f34:	253d6969 	ldrcs	r6, [sp, #-2409]!	; 0xfffff697
    8f38:	000a2964 	andeq	r2, sl, r4, ror #18
    8f3c:	494e4150 	stmdbmi	lr, {r4, r6, r8, lr}^
    8f40:	73253a43 			; <UNDEFINED> instruction: 0x73253a43
    8f44:	3a73253a 	bcc	1cd2434 <__bss_end__+0x1cc9094>
    8f48:	703a6425 	eorsvc	r6, sl, r5, lsr #8
    8f4c:	746e6972 	strbtvc	r6, [lr], #-2418	; 0xfffff68e
    8f50:	7265206b 	rsbvc	r2, r5, #107, 0	; 0x6b
    8f54:	0a726f72 	beq	1ca4d24 <__bss_end__+0x1c9b984>
    8f58:	0000000a 	andeq	r0, r0, sl

00008f5c <__FUNCTION__.3978>:
    8f5c:	74696d65 	strbtvc	r6, [r9], #-3429	; 0xfffff29b
    8f60:	00000000 	andeq	r0, r0, r0

00008f64 <__FUNCTION__.3926>:
    8f64:	5f697072 	svcpl	0x00697072
    8f68:	5f746573 	svcpl	0x00746573
    8f6c:	7074756f 	rsbsvc	r7, r4, pc, ror #10
    8f70:	00007475 	andeq	r7, r0, r5, ror r4

00008f74 <__FUNCTION__.4004>:
    8f74:	705f6176 	subsvc	r6, pc, r6, ror r1	; <UNPREDICTABLE>
    8f78:	746e6972 	strbtvc	r6, [lr], #-2418	; 0xfffff68e
    8f7c:	0000006b 	andeq	r0, r0, fp, rrx
    8f80:	454e4f44 	strbmi	r4, [lr, #-3908]	; 0xfffff0bc
    8f84:	0a212121 	beq	851410 <__bss_end__+0x848070>
	...

Disassembly of section .data:

00008f8c <putk>:
    8f8c:	0000828c 	andeq	r8, r0, ip, lsl #5

00008f90 <rpi_putchar>:
    8f90:	00008d10 	andeq	r8, r0, r0, lsl sp

Disassembly of section .bss:

00008f94 <__bss_start__>:
    8f94:	00000000 	andeq	r0, r0, r0

00008f98 <buf.3918>:
	...

00009398 <within_printk_operation>:
	...

Disassembly of section .ARM.attributes:

00000000 <.ARM.attributes>:
   0:	00002a41 	andeq	r2, r0, r1, asr #20
   4:	61656100 	cmnvs	r5, r0, lsl #2
   8:	01006962 	tsteq	r0, r2, ror #18
   c:	00000020 	andeq	r0, r0, r0, lsr #32
  10:	4b5a3605 	blmi	168d82c <__bss_end__+0x168448c>
  14:	08070600 	stmdaeq	r7, {r9, sl}
  18:	12010901 	andne	r0, r1, #16384	; 0x4000
  1c:	15011404 	strne	r1, [r1, #-1028]	; 0xfffffbfc
  20:	18031701 	stmdane	r3, {r0, r8, r9, sl, ip}
  24:	22011a01 	andcs	r1, r1, #4096	; 0x1000
  28:	Address 0x0000000000000028 is out of bounds.


Disassembly of section .comment:

00000000 <.comment>:
   0:	3a434347 	bcc	10d0d24 <__bss_end__+0x10c7984>
   4:	4e472820 	cdpmi	8, 4, cr2, cr7, cr0, {1}
   8:	6f542055 	svcvs	0x00542055
   c:	20736c6f 	rsbscs	r6, r3, pc, ror #24
  10:	20726f66 	rsbscs	r6, r2, r6, ror #30
  14:	206d7241 	rsbcs	r7, sp, r1, asr #4
  18:	65626d45 	strbvs	r6, [r2, #-3397]!	; 0xfffff2bb
  1c:	64656464 	strbtvs	r6, [r5], #-1124	; 0xfffffb9c
  20:	6f725020 	svcvs	0x00725020
  24:	73736563 	cmnvc	r3, #415236096	; 0x18c00000
  28:	2073726f 	rsbscs	r7, r3, pc, ror #4
  2c:	30322d39 	eorscc	r2, r2, r9, lsr sp
  30:	712d3931 			; <UNDEFINED> instruction: 0x712d3931
  34:	616d2d34 	cmnvs	sp, r4, lsr sp
  38:	29726f6a 	ldmdbcs	r2!, {r1, r3, r5, r6, r8, r9, sl, fp, sp, lr}^
  3c:	322e3920 	eorcc	r3, lr, #32, 18	; 0x80000
  40:	3220312e 	eorcc	r3, r0, #-2147483637	; 0x8000000b
  44:	31393130 	teqcc	r9, r0, lsr r1
  48:	20353230 	eorscs	r3, r5, r0, lsr r2
  4c:	6c657228 	sfmvs	f7, 2, [r5], #-160	; 0xffffff60
  50:	65736165 	ldrbvs	r6, [r3, #-357]!	; 0xfffffe9b
  54:	415b2029 	cmpmi	fp, r9, lsr #32
  58:	612f4d52 			; <UNDEFINED> instruction: 0x612f4d52
  5c:	392d6d72 	pushcc	{r1, r4, r5, r6, r8, sl, fp, sp, lr}
  60:	6172622d 	cmnvs	r2, sp, lsr #4
  64:	2068636e 	rsbcs	r6, r8, lr, ror #6
  68:	69766572 	ldmdbvs	r6!, {r1, r4, r5, r6, r8, sl, sp, lr}^
  6c:	6e6f6973 			; <UNDEFINED> instruction: 0x6e6f6973
  70:	37373220 	ldrcc	r3, [r7, -r0, lsr #4]!
  74:	5d393935 			; <UNDEFINED> instruction: 0x5d393935
  78:	43434700 	movtmi	r4, #14080	; 0x3700
  7c:	3128203a 			; <UNDEFINED> instruction: 0x3128203a
  80:	2d393a35 	vldmdbcs	r9!, {s6-s58}
  84:	39313032 	ldmdbcc	r1!, {r1, r4, r5, ip, sp}
  88:	2d34712d 	ldfcss	f7, [r4, #-180]!	; 0xffffff4c
  8c:	75627530 	strbvc	r7, [r2, #-1328]!	; 0xfffffad0
  90:	3175746e 	cmncc	r5, lr, ror #8
  94:	2e392029 	cdpcs	0, 3, cr2, cr9, cr9, {1}
  98:	20312e32 	eorscs	r2, r1, r2, lsr lr
  9c:	39313032 	ldmdbcc	r1!, {r1, r4, r5, ip, sp}
  a0:	35323031 	ldrcc	r3, [r2, #-49]!	; 0xffffffcf
  a4:	65722820 	ldrbvs	r2, [r2, #-2080]!	; 0xfffff7e0
  a8:	7361656c 	cmnvc	r1, #108, 10	; 0x1b000000
  ac:	5b202965 	blpl	80a648 <__bss_end__+0x8012a8>
  b0:	2f4d5241 	svccs	0x004d5241
  b4:	2d6d7261 	sfmcs	f7, 2, [sp, #-388]!	; 0xfffffe7c
  b8:	72622d39 	rsbvc	r2, r2, #3648	; 0xe40
  bc:	68636e61 	stmdavs	r3!, {r0, r5, r6, r9, sl, fp, sp, lr}^
  c0:	76657220 	strbtvc	r7, [r5], -r0, lsr #4
  c4:	6f697369 	svcvs	0x00697369
  c8:	3732206e 	ldrcc	r2, [r2, -lr, rrx]!
  cc:	39393537 	ldmdbcc	r9!, {r0, r1, r2, r4, r5, r8, sl, ip, sp}
  d0:	Address 0x00000000000000d0 is out of bounds.


Disassembly of section .debug_info:

00000000 <.debug_info>:
       0:	0000019b 	muleq	r0, fp, r1
       4:	00000004 	andeq	r0, r0, r4
       8:	01040000 	mrseq	r0, (UNDEF: 4)
       c:	000000f1 	strdeq	r0, [r0], -r1
      10:	0000e20c 	andeq	lr, r0, ip, lsl #4
      14:	00001600 	andeq	r1, r0, r0, lsl #12
      18:	00803400 	addeq	r3, r0, r0, lsl #8
      1c:	00004c00 	andeq	r4, r0, r0, lsl #24
      20:	00000000 	andeq	r0, r0, r0
      24:	05040200 	streq	r0, [r4, #-512]	; 0xfffffe00
      28:	00746e69 	rsbseq	r6, r4, r9, ror #28
      2c:	b1070403 	tstlt	r7, r3, lsl #8
      30:	03000000 	movweq	r0, #0
      34:	006f0601 	rsbeq	r0, pc, r1, lsl #12
      38:	02030000 	andeq	r0, r3, #0, 0
      3c:	0000d805 	andeq	sp, r0, r5, lsl #16
      40:	05040300 	streq	r0, [r4, #-768]	; 0xfffffd00
      44:	000000c3 	andeq	r0, r0, r3, asr #1
      48:	be050803 	cdplt	8, 0, cr0, cr5, cr3, {0}
      4c:	03000000 	movweq	r0, #0
      50:	006d0801 	rsbeq	r0, sp, r1, lsl #16
      54:	02030000 	andeq	r0, r3, #0, 0
      58:	00009407 	andeq	r9, r0, r7, lsl #8
      5c:	07040300 	streq	r0, [r4, -r0, lsl #6]
      60:	000000ac 	andeq	r0, r0, ip, lsr #1
      64:	a7070803 	strge	r0, [r7, -r3, lsl #16]
      68:	04000000 	streq	r0, [r0], #-0
      6c:	00000025 	andeq	r0, r0, r5, lsr #32
      70:	0000007a 	andeq	r0, r0, sl, ror r0
      74:	00002505 	andeq	r2, r0, r5, lsl #10
      78:	cc060000 	stcgt	0, cr0, [r6], {-0}
      7c:	02000000 	andeq	r0, r0, #0, 0
      80:	00860e1c 	addeq	r0, r6, ip, lsl lr
      84:	04070000 	streq	r0, [r7], #-0
      88:	0000006b 	andeq	r0, r0, fp, rrx
      8c:	00002504 	andeq	r2, r0, r4, lsl #10
      90:	00009b00 	andeq	r9, r0, r0, lsl #22
      94:	009b0500 	addseq	r0, fp, r0, lsl #10
      98:	07000000 	streq	r0, [r0, -r0]
      9c:	0000a804 	andeq	sl, r0, r4, lsl #16
      a0:	08010300 	stmdaeq	r1, {r8, r9}
      a4:	00000076 	andeq	r0, r0, r6, ror r0
      a8:	0000a108 	andeq	sl, r0, r8, lsl #2
      ac:	03240600 			; <UNDEFINED> instruction: 0x03240600
      b0:	21020000 	mrscs	r0, (UNDEF: 2)
      b4:	0000b90e 	andeq	fp, r0, lr, lsl #18
      b8:	8c040700 	stchi	7, cr0, [r4], {-0}
      bc:	09000000 	stmdbeq	r0, {}	; <UNPREDICTABLE>
      c0:	000001a6 	andeq	r0, r0, r6, lsr #3
      c4:	34060601 	strcc	r0, [r6], #-1537	; 0xfffff9ff
      c8:	4c000080 	stcmi	0, cr0, [r0], {128}	; 0x80
      cc:	01000000 	mrseq	r0, (UNDEF: 0)
      d0:	0001569c 	muleq	r1, ip, r6
      d4:	803c0a00 	eorshi	r0, ip, r0, lsl #20
      d8:	01560000 	cmpeq	r6, r0
      dc:	4c0b0000 	stcmi	0, cr0, [fp], {-0}
      e0:	62000080 	andvs	r0, r0, #128, 0	; 0x80
      e4:	fb000001 	blx	f2 <__code_start__-0x7f0e>
      e8:	0c000000 	stceq	0, cr0, [r0], {-0}
      ec:	03055001 	movweq	r5, #20481	; 0x5001
      f0:	00008dc4 	andeq	r8, r0, r4, asr #27
      f4:	0251010c 	subseq	r0, r1, #3
      f8:	0b000074 	bleq	2d0 <__code_start__-0x7d30>
      fc:	00008054 	andeq	r8, r0, r4, asr r0
     100:	0000016e 	andeq	r0, r0, lr, ror #2
     104:	0000010e 	andeq	r0, r0, lr, lsl #2
     108:	0150010c 	cmpeq	r0, ip, lsl #2
     10c:	600b0030 	andvs	r0, fp, r0, lsr r0
     110:	7a000080 	bvc	318 <__code_start__-0x7ce8>
     114:	26000001 	strcs	r0, [r0], -r1
     118:	0c000001 	stceq	0, cr0, [r0], {1}
     11c:	44015001 	strmi	r5, [r1], #-1
     120:	0151010c 	cmpeq	r1, ip, lsl #2
     124:	640a0031 	strvs	r0, [sl], #-49	; 0xffffffcf
     128:	86000080 	strhi	r0, [r0], -r0, lsl #1
     12c:	0b000001 	bleq	138 <__code_start__-0x7ec8>
     130:	00008070 	andeq	r8, r0, r0, ror r0
     134:	00000162 	andeq	r0, r0, r2, ror #2
     138:	0000014c 	andeq	r0, r0, ip, asr #2
     13c:	0550010c 	ldrbeq	r0, [r0, #-268]	; 0xfffffef4
     140:	008ddc03 	addeq	sp, sp, r3, lsl #24
     144:	51010c00 	tstpl	r1, r0, lsl #24
     148:	00007402 	andeq	r7, r0, r2, lsl #8
     14c:	0080740a 	addeq	r7, r0, sl, lsl #8
     150:	00019200 	andeq	r9, r1, r0, lsl #4
     154:	630d0000 	movwvs	r0, #53248	; 0xd000
     158:	63000000 	movwvs	r0, #0
     15c:	02000000 	andeq	r0, r0, #0, 0
     160:	b60d0639 			; <UNDEFINED> instruction: 0xb60d0639
     164:	b6000002 	strlt	r0, [r0], -r2
     168:	02000002 	andeq	r0, r0, #2, 0
     16c:	880d0628 	stmdahi	sp, {r3, r5, r9, sl}
     170:	88000000 	stmdahi	r0, {}	; <UNPREDICTABLE>
     174:	03000000 	movweq	r0, #0
     178:	0b0d060b 	bleq	3419ac <__bss_end__+0x33860c>
     17c:	0b000000 	bleq	184 <__code_start__-0x7e7c>
     180:	04000000 	streq	r0, [r0], #-0
     184:	000d0621 	andeq	r0, sp, r1, lsr #12
     188:	00000000 	andeq	r0, r0, r0
     18c:	03000000 	movweq	r0, #0
     190:	7b0d060f 	blvc	3419d4 <__bss_end__+0x338634>
     194:	7b000000 	blvc	19c <__code_start__-0x7e64>
     198:	02000000 	andeq	r0, r0, #0, 0
     19c:	d8000667 	stmdale	r0, {r0, r1, r2, r5, r6, r9, sl}
     1a0:	04000003 	streq	r0, [r0], #-3
     1a4:	0000b200 	andeq	fp, r0, r0, lsl #4
     1a8:	f1010400 			; <UNDEFINED> instruction: 0xf1010400
     1ac:	0c000000 	stceq	0, cr0, [r0], {-0}
     1b0:	00000222 	andeq	r0, r0, r2, lsr #4
     1b4:	0000025c 	andeq	r0, r0, ip, asr r2
     1b8:	00008080 	andeq	r8, r0, r0, lsl #1
     1bc:	000001b4 			; <UNDEFINED> instruction: 0x000001b4
     1c0:	000000a4 	andeq	r0, r0, r4, lsr #1
     1c4:	69050402 	stmdbvs	r5, {r1, sl}
     1c8:	0300746e 	movweq	r7, #1134	; 0x46e
     1cc:	00b10704 	adcseq	r0, r1, r4, lsl #14
     1d0:	01030000 	mrseq	r0, (UNDEF: 3)
     1d4:	00006f06 	andeq	r6, r0, r6, lsl #30
     1d8:	05020300 	streq	r0, [r2, #-768]	; 0xfffffd00
     1dc:	000000d8 	ldrdeq	r0, [r0], -r8
     1e0:	c3050403 	movwgt	r0, #21507	; 0x5403
     1e4:	03000000 	movweq	r0, #0
     1e8:	00be0508 	adcseq	r0, lr, r8, lsl #10
     1ec:	01030000 	mrseq	r0, (UNDEF: 3)
     1f0:	00006d08 	andeq	r6, r0, r8, lsl #26
     1f4:	07020300 	streq	r0, [r2, -r0, lsl #6]
     1f8:	00000094 	muleq	r0, r4, r0
     1fc:	00023b04 	andeq	r3, r2, r4, lsl #22
     200:	19340300 	ldmdbne	r4!, {r8, r9}
     204:	00000069 	andeq	r0, r0, r9, rrx
     208:	ac070403 	cfstrsge	mvf0, [r7], {3}
     20c:	03000000 	movweq	r0, #0
     210:	00a70708 	adceq	r0, r7, r8, lsl #14
     214:	25050000 	strcs	r0, [r5, #-0]
     218:	86000000 	strhi	r0, [r0], -r0
     21c:	06000000 	streq	r0, [r0], -r0
     220:	00000025 	andeq	r0, r0, r5, lsr #32
     224:	00cc0700 	sbceq	r0, ip, r0, lsl #14
     228:	1c020000 	stcne	0, cr0, [r2], {-0}
     22c:	0000920e 	andeq	r9, r0, lr, lsl #4
     230:	77040800 	strvc	r0, [r4, -r0, lsl #16]
     234:	05000000 	streq	r0, [r0, #-0]
     238:	00000025 	andeq	r0, r0, r5, lsr #32
     23c:	000000a7 	andeq	r0, r0, r7, lsr #1
     240:	0000a706 	andeq	sl, r0, r6, lsl #14
     244:	04080000 	streq	r0, [r8], #-0
     248:	000000b4 	strheq	r0, [r0], -r4
     24c:	76080103 	strvc	r0, [r8], -r3, lsl #2
     250:	09000000 	stmdbeq	r0, {}	; <UNPREDICTABLE>
     254:	000000ad 	andeq	r0, r0, sp, lsr #1
     258:	00032407 	andeq	r2, r3, r7, lsl #8
     25c:	0e210200 	cdpeq	2, 2, cr0, cr1, cr0, {0}
     260:	000000c5 	andeq	r0, r0, r5, asr #1
     264:	00980408 	addseq	r0, r8, r8, lsl #8
     268:	440a0000 	strmi	r0, [sl], #-0
     26c:	01000002 	tsteq	r0, r2
     270:	002c0a18 	eoreq	r0, ip, r8, lsl sl
     274:	03050000 	movweq	r0, #20480	; 0x5000
     278:	00009398 	muleq	r0, r8, r3
     27c:	4f01070b 	svcmi	0x0001070b
     280:	01000000 	mrseq	r0, (UNDEF: 0)
     284:	00fe0621 	rscseq	r0, lr, r1, lsr #12
     288:	310c0000 	mrscc	r0, (UNDEF: 12)
     28c:	00000002 	andeq	r0, r0, r2
     290:	0001e40c 	andeq	lr, r1, ip, lsl #8
     294:	a30c0100 	movwge	r0, #49408	; 0xc100
     298:	02000002 	andeq	r0, r0, #2, 0
     29c:	01bb0d00 			; <UNDEFINED> instruction: 0x01bb0d00
     2a0:	26010000 	strcs	r0, [r1], -r0
     2a4:	0000250c 	andeq	r2, r0, ip, lsl #10
     2a8:	94030500 	strls	r0, [r3], #-1280	; 0xfffffb00
     2ac:	0e00008f 	cdpeq	0, 0, cr0, cr0, cr15, {4}
     2b0:	00000215 	andeq	r0, r0, r5, lsl r2
     2b4:	2c0a4e01 	stccs	14, cr4, [sl], {1}
     2b8:	d0000000 	andle	r0, r0, r0
     2bc:	64000081 	strvs	r0, [r0], #-129	; 0xffffff7f
     2c0:	01000000 	mrseq	r0, (UNDEF: 0)
     2c4:	00017b9c 	muleq	r1, ip, fp
     2c8:	01ed0f00 	mvneq	r0, r0, lsl #30
     2cc:	4e010000 	cdpmi	0, 0, cr0, cr1, cr0, {0}
     2d0:	00002c20 	andeq	r2, r0, r0, lsr #24
     2d4:	00000400 	andeq	r0, r0, r0, lsl #8
     2d8:	00000000 	andeq	r0, r0, r0
     2dc:	00761000 	rsbseq	r1, r6, r0
     2e0:	2c0e4f01 	stccs	15, cr4, [lr], {1}
     2e4:	2a000000 	bcs	2ec <__code_start__-0x7d14>
     2e8:	22000000 	andcs	r0, r0, #0, 0
     2ec:	11000000 	mrsne	r0, (UNDEF: 0)
     2f0:	000081dc 	ldrdeq	r8, [r0], -ip
     2f4:	000003ab 	andeq	r0, r0, fp, lsr #7
     2f8:	00000164 	andeq	r0, r0, r4, ror #2
     2fc:	02500112 	subseq	r0, r0, #-2147483644	; 0x80000004
     300:	13000075 	movwne	r0, #117	; 0x75
     304:	00008220 	andeq	r8, r0, r0, lsr #4
     308:	000001dd 	ldrdeq	r0, [r0], -sp
     30c:	02500112 	subseq	r0, r0, #-2147483644	; 0x80000004
     310:	01120075 	tsteq	r2, r5, ror r0
     314:	00740251 	rsbseq	r0, r4, r1, asr r2
     318:	d7140000 	ldrle	r0, [r4, -r0]
     31c:	01000001 	tsteq	r0, r1
     320:	81700644 	cmnhi	r0, r4, asr #12
     324:	00600000 	rsbeq	r0, r0, r0
     328:	9c010000 	stcls	0, cr0, [r1], {-0}
     32c:	000001dd 	ldrdeq	r0, [r0], -sp
     330:	0001ed0f 	andeq	lr, r1, pc, lsl #26
     334:	1c440100 	stfnee	f0, [r4], {-0}
     338:	0000002c 	andeq	r0, r0, ip, lsr #32
     33c:	00000066 	andeq	r0, r0, r6, rrx
     340:	0000005e 	andeq	r0, r0, lr, asr r0
     344:	6c617615 	stclvs	6, cr7, [r1], #-84	; 0xffffffac
     348:	2b440100 	blcs	1100750 <__bss_end__+0x10f73b0>
     34c:	0000002c 	andeq	r0, r0, ip, lsr #32
     350:	000000a2 	andeq	r0, r0, r2, lsr #1
     354:	0000009a 	muleq	r0, sl, r0
     358:	00819811 	addeq	r9, r1, r1, lsl r8
     35c:	0003b700 	andeq	fp, r3, r0, lsl #14
     360:	0001d300 	andeq	sp, r1, r0, lsl #6
     364:	50011200 	andpl	r1, r1, r0, lsl #4
     368:	12007402 	andne	r7, r0, #33554432	; 0x2000000
     36c:	75025101 	strvc	r5, [r2, #-257]	; 0xfffffeff
     370:	bc160000 	ldclt	0, cr0, [r6], {-0}
     374:	3d000081 	stccc	0, cr0, [r0, #-516]	; 0xfffffdfc
     378:	00000002 	andeq	r0, r0, r2
     37c:	0001c117 	andeq	ip, r1, r7, lsl r1
     380:	0d3f0100 	ldfeqs	f0, [pc, #-0]	; 388 <__code_start__-0x7c78>
     384:	0000809c 	muleq	r0, ip, r0
     388:	0000001c 	andeq	r0, r0, ip, lsl r0
     38c:	023d9c01 	eorseq	r9, sp, #256	; 0x100
     390:	ed0f0000 	stc	0, cr0, [pc, #-0]	; 398 <__code_start__-0x7c68>
     394:	01000001 	tsteq	r0, r1
     398:	005d213f 	subseq	r2, sp, pc, lsr r1
     39c:	00dc0000 	sbcseq	r0, ip, r0
     3a0:	00d60000 	sbcseq	r0, r6, r0
     3a4:	76150000 	ldrvc	r0, [r5], -r0
     3a8:	01006c61 	tsteq	r0, r1, ror #24
     3ac:	005d303f 	subseq	r3, sp, pc, lsr r0
     3b0:	010e0000 	mrseq	r0, (UNDEF: 14)
     3b4:	01080000 	mrseq	r0, (UNDEF: 8)
     3b8:	b0130000 	andslt	r0, r3, r0
     3bc:	c3000080 	movwgt	r0, #128	; 0x80
     3c0:	12000003 	andne	r0, r0, #3, 0
     3c4:	03055001 	movweq	r5, #20481	; 0x5001
     3c8:	00008dfc 	strdeq	r8, [r0], -ip
     3cc:	03510112 	cmpeq	r1, #-2147483644	; 0x80000004
     3d0:	125001f3 	subsne	r0, r0, #-1073741764	; 0xc000003c
     3d4:	f3035201 	vhsub.u8	d5, d3, d1
     3d8:	00005101 	andeq	r5, r0, r1, lsl #2
     3dc:	0001cc17 	andeq	ip, r1, r7, lsl ip
     3e0:	0d3c0100 	ldfeqs	f0, [ip, #-0]
     3e4:	00008080 	andeq	r8, r0, r0, lsl #1
     3e8:	0000001c 	andeq	r0, r0, ip, lsl r0
     3ec:	029d9c01 	addseq	r9, sp, #256	; 0x100
     3f0:	ed0f0000 	stc	0, cr0, [pc, #-0]	; 3f8 <__code_start__-0x7c08>
     3f4:	01000001 	tsteq	r0, r1
     3f8:	005d213c 	subseq	r2, sp, ip, lsr r1
     3fc:	01400000 	mrseq	r0, (UNDEF: 64)
     400:	013a0000 	teqeq	sl, r0
     404:	76150000 	ldrvc	r0, [r5], -r0
     408:	01006c61 	tsteq	r0, r1, ror #24
     40c:	005d303c 	subseq	r3, sp, ip, lsr r0
     410:	01720000 	cmneq	r2, r0
     414:	016c0000 	cmneq	ip, r0
     418:	94130000 	ldrls	r0, [r3], #-0
     41c:	c3000080 	movwgt	r0, #128	; 0x80
     420:	12000003 	andne	r0, r0, #3, 0
     424:	03055001 	movweq	r5, #20481	; 0x5001
     428:	00008de8 	andeq	r8, r0, r8, ror #27
     42c:	03510112 	cmpeq	r1, #-2147483644	; 0x80000004
     430:	125001f3 	subsne	r0, r0, #-1073741764	; 0xc000003c
     434:	f3035201 	vhsub.u8	d5, d3, d1
     438:	00005101 	andeq	r5, r0, r1, lsl #2
     43c:	00000014 	andeq	r0, r0, r4, lsl r0
     440:	06350100 	ldrteq	r0, [r5], -r0, lsl #2
     444:	00008114 	andeq	r8, r0, r4, lsl r1
     448:	0000005c 	andeq	r0, r0, ip, asr r0
     44c:	03059c01 	movweq	r9, #23553	; 0x5c01
     450:	fb180000 	blx	60045a <__bss_end__+0x5f70ba>
     454:	15000001 	strne	r0, [r0, #-1]
     458:	05000003 	streq	r0, [r0, #-3]
     45c:	008e6803 	addeq	r6, lr, r3, lsl #16
     460:	81581100 	cmphi	r8, r0, lsl #2
     464:	03c30000 	biceq	r0, r3, #0, 0
     468:	02fb0000 	rscseq	r0, fp, #0, 0
     46c:	01120000 	tsteq	r2, r0
     470:	20030550 	andcs	r0, r3, r0, asr r5
     474:	1200008e 	andne	r0, r0, #142, 0	; 0x8e
     478:	03055101 	movweq	r5, #20737	; 0x5101
     47c:	00008e10 	andeq	r8, r0, r0, lsl lr
     480:	05520112 	ldrbeq	r0, [r2, #-274]	; 0xfffffeee
     484:	008e6803 	addeq	r6, lr, r3, lsl #16
     488:	53011200 	movwpl	r1, #4608	; 0x1200
     48c:	12360802 	eorsne	r0, r6, #131072	; 0x20000
     490:	05007d02 	streq	r7, [r0, #-3330]	; 0xfffff2fe
     494:	008e4803 	addeq	r4, lr, r3, lsl #16
     498:	5c160000 	ldcpl	0, cr0, [r6], {-0}
     49c:	cf000081 	svcgt	0x00000081
     4a0:	00000003 	andeq	r0, r0, r3
     4a4:	0000b419 	andeq	fp, r0, r9, lsl r4
     4a8:	00031500 	andeq	r1, r3, r0, lsl #10
     4ac:	002c1a00 	eoreq	r1, ip, r0, lsl #20
     4b0:	000a0000 	andeq	r0, sl, r0
     4b4:	00030509 	andeq	r0, r3, r9, lsl #10
     4b8:	00881400 	addeq	r1, r8, r0, lsl #8
     4bc:	2e010000 	cdpcs	0, 0, cr0, cr1, cr0, {0}
     4c0:	0080b806 	addeq	fp, r0, r6, lsl #16
     4c4:	00005c00 	andeq	r5, r0, r0, lsl #24
     4c8:	969c0100 	ldrls	r0, [ip], r0, lsl #2
     4cc:	0f000003 	svceq	0x00000003
     4d0:	000001f2 	strdeq	r0, [r0], -r2
     4d4:	25162e01 	ldrcs	r2, [r6, #-3585]	; 0xfffff1ff
     4d8:	a2000000 	andge	r0, r0, #0, 0
     4dc:	9e000001 	cdpls	0, 0, cr0, cr0, cr1, {0}
     4e0:	18000001 	stmdane	r0, {r0}
     4e4:	000001fb 	strdeq	r0, [r0], -fp
     4e8:	000003a6 	andeq	r0, r0, r6, lsr #7
     4ec:	8e5c0305 	cdphi	3, 5, cr0, cr12, cr5, {0}
     4f0:	fc110000 	ldc2	0, cr0, [r1], {-0}
     4f4:	c3000080 	movwgt	r0, #128	; 0x80
     4f8:	8c000003 	stchi	0, cr0, [r0], {3}
     4fc:	12000003 	andne	r0, r0, #3, 0
     500:	03055001 	movweq	r5, #20481	; 0x5001
     504:	00008e20 	andeq	r8, r0, r0, lsr #28
     508:	05510112 	ldrbeq	r0, [r1, #-274]	; 0xfffffeee
     50c:	008e1003 	addeq	r1, lr, r3
     510:	52011200 	andpl	r1, r1, #0, 4
     514:	8e5c0305 	cdphi	3, 5, cr0, cr12, cr5, {0}
     518:	01120000 	tsteq	r2, r0
     51c:	2f080253 	svccs	0x00080253
     520:	007d0212 	rsbseq	r0, sp, r2, lsl r2
     524:	8e340305 	cdphi	3, 3, cr0, cr4, cr5, {0}
     528:	16000000 	strne	r0, [r0], -r0
     52c:	00008100 	andeq	r8, r0, r0, lsl #2
     530:	000003cf 	andeq	r0, r0, pc, asr #7
     534:	00b41900 	adcseq	r1, r4, r0, lsl #18
     538:	03a60000 			; <UNDEFINED> instruction: 0x03a60000
     53c:	2c1a0000 	ldccs	0, cr0, [sl], {-0}
     540:	0b000000 	bleq	548 <__code_start__-0x7ab8>
     544:	03960900 	orrseq	r0, r6, #0, 18
     548:	ae1b0000 	cdpge	0, 1, cr0, cr11, cr0, {0}
     54c:	ae000001 	cdpge	0, 0, cr0, cr0, cr1, {0}
     550:	01000001 	tsteq	r0, r1
     554:	081b0a1c 	ldmdaeq	fp, {r2, r3, r4, r9, fp}
     558:	08000002 	stmdaeq	r0, {r1}
     55c:	01000002 	tsteq	r0, r2
     560:	b61b061e 			; <UNDEFINED> instruction: 0xb61b061e
     564:	b6000002 	strlt	r0, [r0], -r2
     568:	02000002 	andeq	r0, r0, #2, 0
     56c:	7b1b0628 	blvc	6c1e14 <__bss_end__+0x6b8a74>
     570:	7b000000 	blvc	578 <__code_start__-0x7a88>
     574:	02000000 	andeq	r0, r0, #0, 0
     578:	9d000667 	stcls	6, cr0, [r0, #-412]	; 0xfffffe64
     57c:	04000001 	streq	r0, [r0], #-1
     580:	00025100 	andeq	r5, r2, r0, lsl #2
     584:	f1010400 			; <UNDEFINED> instruction: 0xf1010400
     588:	0c000000 	stceq	0, cr0, [r0], {-0}
     58c:	000002cc 	andeq	r0, r0, ip, asr #5
     590:	000002e9 	andeq	r0, r0, r9, ror #5
     594:	00008234 	andeq	r8, r0, r4, lsr r2
     598:	00000058 	andeq	r0, r0, r8, asr r0
     59c:	000002a8 	andeq	r0, r0, r8, lsr #5
     5a0:	0002bd02 	andeq	fp, r2, r2, lsl #26
     5a4:	1b280200 	blne	a00dac <__bss_end__+0x9f7a0c>
     5a8:	00000031 	andeq	r0, r0, r1, lsr r0
     5ac:	0002df03 	andeq	sp, r2, r3, lsl #30
     5b0:	00040400 	andeq	r0, r4, r0, lsl #8
     5b4:	00000048 	andeq	r0, r0, r8, asr #32
     5b8:	0002da04 	andeq	sp, r2, r4, lsl #20
     5bc:	00004800 	andeq	r4, r0, r0, lsl #16
     5c0:	05000000 	streq	r0, [r0, #-0]
     5c4:	02e10204 	rsceq	r0, r1, #4, 4	; 0x40000000
     5c8:	63020000 	movwvs	r0, #8192	; 0x2000
     5cc:	00002518 	andeq	r2, r0, r8, lsl r5
     5d0:	05040600 	streq	r0, [r4, #-1536]	; 0xfffffa00
     5d4:	00746e69 	rsbseq	r6, r4, r9, ror #28
     5d8:	b1070407 	tstlt	r7, r7, lsl #8
     5dc:	07000000 	streq	r0, [r0, -r0]
     5e0:	006f0601 	rsbeq	r0, pc, r1, lsl #12
     5e4:	02070000 	andeq	r0, r7, #0, 0
     5e8:	0000d805 	andeq	sp, r0, r5, lsl #16
     5ec:	05040700 	streq	r0, [r4, #-1792]	; 0xfffff900
     5f0:	000000c3 	andeq	r0, r0, r3, asr #1
     5f4:	be050807 	cdplt	8, 0, cr0, cr5, cr7, {0}
     5f8:	07000000 	streq	r0, [r0, -r0]
     5fc:	006d0801 	rsbeq	r0, sp, r1, lsl #16
     600:	02070000 	andeq	r0, r7, #0, 0
     604:	00009407 	andeq	r9, r0, r7, lsl #8
     608:	07040700 	streq	r0, [r4, -r0, lsl #14]
     60c:	000000ac 	andeq	r0, r0, ip, lsr #1
     610:	a7070807 	strge	r0, [r7, -r7, lsl #16]
     614:	08000000 	stmdaeq	r0, {}	; <UNPREDICTABLE>
     618:	00000056 	andeq	r0, r0, r6, asr r0
     61c:	000000ab 	andeq	r0, r0, fp, lsr #1
     620:	00005609 	andeq	r5, r0, r9, lsl #12
     624:	cc0a0000 	stcgt	0, cr0, [sl], {-0}
     628:	03000000 	movweq	r0, #0
     62c:	00b70e1c 	adcseq	r0, r7, ip, lsl lr
     630:	040b0000 	streq	r0, [fp], #-0
     634:	0000009c 	muleq	r0, ip, r0
     638:	00005608 	andeq	r5, r0, r8, lsl #12
     63c:	0000cc00 	andeq	ip, r0, r0, lsl #24
     640:	00cc0900 	sbceq	r0, ip, r0, lsl #18
     644:	0b000000 	bleq	64c <__code_start__-0x79b4>
     648:	0000d904 	andeq	sp, r0, r4, lsl #18
     64c:	08010700 	stmdaeq	r1, {r8, r9, sl}
     650:	00000076 	andeq	r0, r0, r6, ror r0
     654:	0000d20c 	andeq	sp, r0, ip, lsl #4
     658:	03240a00 			; <UNDEFINED> instruction: 0x03240a00
     65c:	21030000 	mrscs	r0, (UNDEF: 3)
     660:	0000ea0e 	andeq	lr, r0, lr, lsl #20
     664:	bd040b00 	vstrlt	d0, [r4, #-0]
     668:	0d000000 	stceq	0, cr0, [r0, #-0]
     66c:	000002b6 			; <UNDEFINED> instruction: 0x000002b6
     670:	56050601 	strpl	r0, [r5], -r1, lsl #12
     674:	34000000 	strcc	r0, [r0], #-0
     678:	58000082 	stmdapl	r0, {r1, r7}
     67c:	01000000 	mrseq	r0, (UNDEF: 0)
     680:	0001839c 	muleq	r1, ip, r3
     684:	6d660e00 	stclvs	14, cr0, [r6, #-0]
     688:	06010074 			; <UNDEFINED> instruction: 0x06010074
     68c:	0000cc18 	andeq	ip, r0, r8, lsl ip
     690:	70910200 	addsvc	r0, r1, r0, lsl #4
     694:	7562100f 	strbvc	r1, [r2, #-15]!
     698:	08010066 	stmdaeq	r1, {r1, r2, r5, r6}
     69c:	00018311 	andeq	r8, r1, r1, lsl r3
     6a0:	98030500 	stmdals	r3, {r8, sl}
     6a4:	1100008f 	smlabbne	r0, pc, r0, r0	; <UNPREDICTABLE>
     6a8:	000002ae 	andeq	r0, r0, lr, lsr #5
     6ac:	4a0d0901 	bmi	342ab8 <__bss_end__+0x339718>
     6b0:	02000000 	andeq	r0, r0, #0, 0
     6b4:	73125c91 	tstvc	r2, #37120	; 0x9100
     6b8:	0c01007a 	stceq	0, cr0, [r1], {122}	; 0x7a
     6bc:	0000560d 	andeq	r5, r0, sp, lsl #12
     6c0:	0001c900 	andeq	ip, r1, r0, lsl #18
     6c4:	0001c300 	andeq	ip, r1, r0, lsl #6
     6c8:	825c1300 	subshi	r1, ip, #0, 6
     6cc:	01940000 	orrseq	r0, r4, r0
     6d0:	01760000 	cmneq	r6, r0
     6d4:	01140000 	tsteq	r4, r0
     6d8:	00750250 	rsbseq	r0, r5, r0, asr r2
     6dc:	03510114 	cmpeq	r1, #5
     6e0:	1404000a 	strne	r0, [r4], #-10
     6e4:	91035201 	tstls	r3, r1, lsl #4
     6e8:	01140648 	tsteq	r4, r8, asr #12
     6ec:	4c910253 	lfmmi	f0, 4, [r1], {83}	; 0x53
     6f0:	82701500 	rsbshi	r1, r0, #0, 10
     6f4:	01140000 	tsteq	r4, r0
     6f8:	00750250 	rsbseq	r0, r5, r0, asr r2
     6fc:	d2160000 	andsle	r0, r6, #0, 0
     700:	94000000 	strls	r0, [r0], #-0
     704:	17000001 	strne	r0, [r0, -r1]
     708:	0000005d 	andeq	r0, r0, sp, asr r0
     70c:	180003ff 	stmdane	r0, {r0, r1, r2, r3, r4, r5, r6, r7, r8, r9}
     710:	000002b3 			; <UNDEFINED> instruction: 0x000002b3
     714:	000002b3 			; <UNDEFINED> instruction: 0x000002b3
     718:	00050205 	andeq	r0, r5, r5, lsl #4
     71c:	000000f3 	strdeq	r0, [r0], -r3
     720:	03930004 	orrseq	r0, r3, #4, 0
     724:	01040000 	mrseq	r0, (UNDEF: 4)
     728:	000000f1 	strdeq	r0, [r0], -r1
     72c:	0003290c 	andeq	r2, r3, ip, lsl #18
     730:	0002e900 	andeq	lr, r2, r0, lsl #18
     734:	00828c00 	addeq	r8, r2, r0, lsl #24
     738:	00003400 	andeq	r3, r0, r0, lsl #8
     73c:	0003c700 	andeq	ip, r3, r0, lsl #14
     740:	05040200 	streq	r0, [r4, #-512]	; 0xfffffe00
     744:	00746e69 	rsbseq	r6, r4, r9, ror #28
     748:	b1070403 	tstlt	r7, r3, lsl #8
     74c:	03000000 	movweq	r0, #0
     750:	006f0601 	rsbeq	r0, pc, r1, lsl #12
     754:	02030000 	andeq	r0, r3, #0, 0
     758:	0000d805 	andeq	sp, r0, r5, lsl #16
     75c:	05040300 	streq	r0, [r4, #-768]	; 0xfffffd00
     760:	000000c3 	andeq	r0, r0, r3, asr #1
     764:	be050803 	cdplt	8, 0, cr0, cr5, cr3, {0}
     768:	03000000 	movweq	r0, #0
     76c:	006d0801 	rsbeq	r0, sp, r1, lsl #16
     770:	02030000 	andeq	r0, r3, #0, 0
     774:	00009407 	andeq	r9, r0, r7, lsl #8
     778:	07040300 	streq	r0, [r4, -r0, lsl #6]
     77c:	000000ac 	andeq	r0, r0, ip, lsr #1
     780:	a7070803 	strge	r0, [r7, -r3, lsl #16]
     784:	04000000 	streq	r0, [r0], #-0
     788:	00000025 	andeq	r0, r0, r5, lsr #32
     78c:	0000007a 	andeq	r0, r0, sl, ror r0
     790:	00002505 	andeq	r2, r0, r5, lsl #10
     794:	cc060000 	stcgt	0, cr0, [r6], {-0}
     798:	02000000 	andeq	r0, r0, #0, 0
     79c:	00860e1c 	addeq	r0, r6, ip, lsl lr
     7a0:	04070000 	streq	r0, [r7], #-0
     7a4:	0000006b 	andeq	r0, r0, fp, rrx
     7a8:	00002504 	andeq	r2, r0, r4, lsl #10
     7ac:	00009b00 	andeq	r9, r0, r0, lsl #22
     7b0:	009b0500 	addseq	r0, fp, r0, lsl #10
     7b4:	07000000 	streq	r0, [r0, -r0]
     7b8:	0000a804 	andeq	sl, r0, r4, lsl #16
     7bc:	08010300 	stmdaeq	r1, {r8, r9}
     7c0:	00000076 	andeq	r0, r0, r6, ror r0
     7c4:	0000a108 	andeq	sl, r0, r8, lsl #2
     7c8:	03240600 			; <UNDEFINED> instruction: 0x03240600
     7cc:	21020000 	mrscs	r0, (UNDEF: 2)
     7d0:	0000b90e 	andeq	fp, r0, lr, lsl #18
     7d4:	8c040700 	stchi	7, cr0, [r4], {-0}
     7d8:	09000000 	stmdbeq	r0, {}	; <UNPREDICTABLE>
     7dc:	000000ad 	andeq	r0, r0, sp, lsr #1
     7e0:	05070c01 	streq	r0, [r7, #-3073]	; 0xfffff3ff
     7e4:	008f8c03 	addeq	r8, pc, r3, lsl #24
     7e8:	031b0a00 	tsteq	fp, #0, 20
     7ec:	04010000 	streq	r0, [r1], #-0
     7f0:	00002505 	andeq	r2, r0, r5, lsl #10
     7f4:	00828c00 	addeq	r8, r2, r0, lsl #24
     7f8:	00003400 	andeq	r3, r0, r0, lsl #8
     7fc:	0b9c0100 	bleq	fe700c04 <__bss_end__+0xfe6f7864>
     800:	04010070 	streq	r0, [r1], #-112	; 0xffffff90
     804:	00009b1f 	andeq	r9, r0, pc, lsl fp
     808:	0001f600 	andeq	pc, r1, r0, lsl #12
     80c:	0001f200 	andeq	pc, r1, r0, lsl #4
     810:	04000000 	streq	r0, [r0], #-0
     814:	04000009 	streq	r0, [r0], #-9
     818:	00043100 	andeq	r3, r4, r0, lsl #2
     81c:	f1010400 			; <UNDEFINED> instruction: 0xf1010400
     820:	0c000000 	stceq	0, cr0, [r0], {-0}
     824:	000003b2 			; <UNDEFINED> instruction: 0x000003b2
     828:	000002e9 	andeq	r0, r0, r9, ror #5
     82c:	000082c0 	andeq	r8, r0, r0, asr #5
     830:	0000062c 	andeq	r0, r0, ip, lsr #12
     834:	0000047e 	andeq	r0, r0, lr, ror r4
     838:	69050402 	stmdbvs	r5, {r1, sl}
     83c:	0300746e 	movweq	r7, #1134	; 0x46e
     840:	00b10704 	adcseq	r0, r1, r4, lsl #14
     844:	01030000 	mrseq	r0, (UNDEF: 3)
     848:	00006f06 	andeq	r6, r0, r6, lsl #30
     84c:	05020300 	streq	r0, [r2, #-768]	; 0xfffffd00
     850:	000000d8 	ldrdeq	r0, [r0], -r8
     854:	c3050403 	movwgt	r0, #21507	; 0x5403
     858:	03000000 	movweq	r0, #0
     85c:	00be0508 	adcseq	r0, lr, r8, lsl #10
     860:	01030000 	mrseq	r0, (UNDEF: 3)
     864:	00006d08 	andeq	r6, r0, r8, lsl #26
     868:	07020300 	streq	r0, [r2, -r0, lsl #6]
     86c:	00000094 	muleq	r0, r4, r0
     870:	00023b04 	andeq	r3, r2, r4, lsl #22
     874:	19340200 	ldmdbne	r4!, {r9}
     878:	00000069 	andeq	r0, r0, r9, rrx
     87c:	ac070403 	cfstrsge	mvf0, [r7], {3}
     880:	04000000 	streq	r0, [r0], #-0
     884:	0000033d 	andeq	r0, r0, sp, lsr r3
     888:	7c193702 	ldcvc	7, cr3, [r9], {2}
     88c:	03000000 	movweq	r0, #0
     890:	00a70708 	adceq	r0, r7, r8, lsl #14
     894:	25050000 	strcs	r0, [r5, #-0]
     898:	92000000 	andls	r0, r0, #0, 0
     89c:	06000000 	streq	r0, [r0], -r0
     8a0:	00000025 	andeq	r0, r0, r5, lsr #32
     8a4:	00cc0700 	sbceq	r0, ip, r0, lsl #14
     8a8:	1c030000 	stcne	0, cr0, [r3], {-0}
     8ac:	00009e0e 	andeq	r9, r0, lr, lsl #28
     8b0:	83040800 	movwhi	r0, #18432	; 0x4800
     8b4:	05000000 	streq	r0, [r0, #-0]
     8b8:	00000025 	andeq	r0, r0, r5, lsr #32
     8bc:	000000b3 	strheq	r0, [r0], -r3
     8c0:	0000b306 	andeq	fp, r0, r6, lsl #6
     8c4:	04080000 	streq	r0, [r8], #-0
     8c8:	000000c0 	andeq	r0, r0, r0, asr #1
     8cc:	76080103 	strvc	r0, [r8], -r3, lsl #2
     8d0:	09000000 	stmdbeq	r0, {}	; <UNPREDICTABLE>
     8d4:	000000b9 	strheq	r0, [r0], -r9
     8d8:	00032407 	andeq	r2, r3, r7, lsl #8
     8dc:	0e210300 	cdpeq	3, 2, cr0, cr1, cr0, {0}
     8e0:	000000d1 	ldrdeq	r0, [r0], -r1
     8e4:	00a40408 	adceq	r0, r4, r8, lsl #8
     8e8:	46070000 	strmi	r0, [r7], -r0
     8ec:	04000003 	streq	r0, [r0], #-3
     8f0:	00b90d0b 	adcseq	r0, r9, fp, lsl #26
     8f4:	d0070000 	andle	r0, r7, r0
     8f8:	04000003 	streq	r0, [r0], #-3
     8fc:	00b90d0c 	adcseq	r0, r9, ip, lsl #26
     900:	55070000 	strpl	r0, [r7, #-0]
     904:	04000003 	streq	r0, [r0], #-3
     908:	00b90d0d 	adcseq	r0, r9, sp, lsl #26
     90c:	7e070000 	cdpvc	0, 0, cr0, cr7, cr0, {0}
     910:	04000003 	streq	r0, [r0], #-3
     914:	00b90d0e 	adcseq	r0, r9, lr, lsl #26
     918:	f2070000 	vhadd.s8	d0, d7, d0
     91c:	04000003 	streq	r0, [r0], #-3
     920:	00b90d0f 	adcseq	r0, r9, pc, lsl #26
     924:	69070000 	stmdbvs	r7, {}	; <UNPREDICTABLE>
     928:	04000003 	streq	r0, [r0], #-3
     92c:	00b90d10 	adcseq	r0, r9, r0, lsl sp
     930:	01070000 	mrseq	r0, (UNDEF: 7)
     934:	04000004 	streq	r0, [r0], #-4
     938:	00b90d11 	adcseq	r0, r9, r1, lsl sp
     93c:	8a070000 	bhi	1c0944 <__bss_end__+0x1b75a4>
     940:	04000003 	streq	r0, [r0], #-3
     944:	00b90d12 	adcseq	r0, r9, r2, lsl sp
     948:	bd040000 	stclt	0, cr0, [r4, #-0]
     94c:	05000002 	streq	r0, [r0, #-2]
     950:	01431b28 	cmpeq	r3, r8, lsr #22
     954:	df0a0000 	svcle	0x000a0000
     958:	04000002 	streq	r0, [r0], #-2
     95c:	015a0006 	cmpeq	sl, r6
     960:	da0b0000 	ble	2c0968 <__bss_end__+0x2b75c8>
     964:	5a000002 	bpl	974 <__code_start__-0x768c>
     968:	00000001 	andeq	r0, r0, r1
     96c:	04040c00 	streq	r0, [r4], #-3072	; 0xfffff400
     970:	000002e1 	andeq	r0, r0, r1, ror #5
     974:	37186305 	ldrcc	r6, [r8, -r5, lsl #6]
     978:	0d000001 	stceq	0, cr0, [r0, #-4]
     97c:	000002b3 			; <UNDEFINED> instruction: 0x000002b3
     980:	25058101 	strcs	r8, [r5, #-257]	; 0xfffffeff
     984:	48000000 	stmdami	r0, {}	; <UNPREDICTABLE>
     988:	a4000085 	strge	r0, [r0], #-133	; 0xffffff7b
     98c:	01000003 	tsteq	r0, r3
     990:	00055c9c 	muleq	r5, ip, ip
     994:	75620e00 	strbvc	r0, [r2, #-3584]!	; 0xfffff200
     998:	81010066 	tsthi	r1, r6, rrx
     99c:	00055c15 	andeq	r5, r5, r5, lsl ip
     9a0:	00021a00 	andeq	r1, r2, r0, lsl #20
     9a4:	00021400 	andeq	r1, r2, r0, lsl #8
     9a8:	006e0e00 	rsbeq	r0, lr, r0, lsl #28
     9ac:	251e8101 	ldrcs	r8, [lr, #-257]	; 0xfffffeff
     9b0:	4c000000 	stcmi	0, cr0, [r0], {-0}
     9b4:	46000002 	strmi	r0, [r0], -r2
     9b8:	0e000002 	cdpeq	0, 0, cr0, cr0, cr2, {0}
     9bc:	00746d66 	rsbseq	r6, r4, r6, ror #26
     9c0:	b32d8101 			; <UNDEFINED> instruction: 0xb32d8101
     9c4:	7e000000 	cdpvc	0, 0, cr0, cr0, cr0, {0}
     9c8:	7a000002 	bvc	9d8 <__code_start__-0x7628>
     9cc:	0f000002 	svceq	0x00000002
     9d0:	000002ae 	andeq	r0, r0, lr, lsr #5
     9d4:	5c3a8101 	ldfpld	f0, [sl], #-4
     9d8:	03000001 	movweq	r0, #1
     9dc:	107dd491 			; <UNDEFINED> instruction: 0x107dd491
     9e0:	82010070 	andhi	r0, r1, #112, 0	; 0x70
     9e4:	00055c08 	andeq	r5, r5, r8, lsl #24
     9e8:	0002b000 	andeq	fp, r2, r0
     9ec:	00029c00 	andeq	r9, r2, r0, lsl #24
     9f0:	00651000 	rsbeq	r1, r5, r0
     9f4:	5c128201 	lfmpl	f0, 1, [r2], {1}
     9f8:	32000005 	andcc	r0, r0, #5, 0
     9fc:	2e000003 	cdpcs	0, 0, cr0, cr0, cr3, {0}
     a00:	10000003 	andne	r0, r0, r3
     a04:	01003078 	tsteq	r0, r8, ror r0
     a08:	005d0e83 	subseq	r0, sp, r3, lsl #29
     a0c:	035b0000 	cmpeq	fp, #0, 0
     a10:	03590000 	cmpeq	r9, #0, 0
     a14:	78110000 	ldmdavc	r1, {}	; <UNPREDICTABLE>
     a18:	83010031 	movwhi	r0, #4145	; 0x1031
     a1c:	00005d11 	andeq	r5, r0, r1, lsl sp
     a20:	03a81200 			; <UNDEFINED> instruction: 0x03a81200
     a24:	86010000 	strhi	r0, [r1], -r0
     a28:	0000b311 	andeq	fp, r0, r1, lsl r3
     a2c:	00037200 	andeq	r7, r3, r0, lsl #4
     a30:	00036e00 	andeq	r6, r3, r0, lsl #28
     a34:	01fb1300 	mvnseq	r1, r0, lsl #6
     a38:	05720000 	ldrbeq	r0, [r2, #-0]!
     a3c:	03050000 	movweq	r0, #20480	; 0x5000
     a40:	00008f74 	andeq	r8, r0, r4, ror pc
     a44:	0085b014 	addeq	fp, r5, r4, lsl r0
     a48:	00030000 	andeq	r0, r3, r0
     a4c:	00731000 	rsbseq	r1, r3, r0
     a50:	5c0a9101 	stfpld	f1, [sl], {1}
     a54:	a4000005 	strge	r0, [r0], #-5
     a58:	92000003 	andls	r0, r0, #3, 0
     a5c:	15000003 	strne	r0, [r0, #-3]
     a60:	006d756e 	rsbeq	r7, sp, lr, ror #10
     a64:	770d9101 	strvc	r9, [sp, -r1, lsl #2]
     a68:	03000005 	movweq	r0, #5
     a6c:	167dd891 			; <UNDEFINED> instruction: 0x167dd891
     a70:	0000040e 	andeq	r0, r0, lr, lsl #8
     a74:	77179101 	ldrvc	r9, [r7, -r1, lsl #2]
     a78:	03000005 	movweq	r0, #5
     a7c:	127ed891 	rsbsne	sp, lr, #9502720	; 0x910000
     a80:	00000363 	andeq	r0, r0, r3, ror #6
     a84:	2c0d9201 	sfmcs	f1, 1, [sp], {1}
     a88:	15000000 	strne	r0, [r0, #-0]
     a8c:	0f000004 	svceq	0x00000004
     a90:	17000004 	strne	r0, [r0, -r4]
     a94:	00000000 	andeq	r0, r0, r0
     a98:	00000504 	andeq	r0, r0, r4, lsl #10
     a9c:	00787815 	rsbseq	r7, r8, r5, lsl r8
     aa0:	701a9f01 	andsvc	r9, sl, r1, lsl #30
     aa4:	06000000 	streq	r0, [r0], -r0
     aa8:	5304935b 	movwpl	r9, #17243	; 0x435b
     aac:	88180493 	ldmdahi	r8, {r0, r1, r4, r7, sl}
     ab0:	d7000086 	strle	r0, [r0, -r6, lsl #1]
     ab4:	bd000008 	stclt	0, cr0, [r0, #-32]	; 0xffffffe0
     ab8:	19000002 	stmdbne	r0, {r1}
     abc:	76025001 	strvc	r5, [r2], -r1
     ac0:	51011900 	tstpl	r1, r0, lsl #18
     ac4:	8ec40305 	cdphi	3, 12, cr0, cr4, cr5, {0}
     ac8:	01190000 	tsteq	r9, r0
     acc:	00330152 	eorseq	r0, r3, r2, asr r1
     ad0:	0086cc18 	addeq	ip, r6, r8, lsl ip
     ad4:	00058700 	andeq	r8, r5, r0, lsl #14
     ad8:	0002eb00 	andeq	lr, r2, r0, lsl #22
     adc:	50011900 	andpl	r1, r1, r0, lsl #18
     ae0:	01194001 	tsteq	r9, r1
     ae4:	d0910351 	addsle	r0, r1, r1, asr r3
     ae8:	5201197d 	andpl	r1, r1, #2048000	; 0x1f4000
     aec:	19800802 	stmibne	r0, {r1, fp}
     af0:	02007d02 	andeq	r7, r0, #128	; 0x80
     af4:	02190075 	andseq	r0, r9, #117, 0	; 0x75
     af8:	7a02047d 	bvc	81cf4 <__bss_end__+0x78954>
     afc:	ec180000 	ldc	0, cr0, [r8], {-0}
     b00:	87000086 	strhi	r0, [r0, -r6, lsl #1]
     b04:	1f000005 	svcne	0x00000005
     b08:	19000003 	stmdbne	r0, {r0, r1}
     b0c:	40015001 	andmi	r5, r1, r1
     b10:	03510119 	cmpeq	r1, #1073741830	; 0x40000006
     b14:	197ed091 	ldmdbne	lr!, {r0, r4, r7, ip, lr, pc}^
     b18:	08025201 	stmdaeq	r2, {r0, r9, ip, lr}
     b1c:	53011980 	movwpl	r1, #6528	; 0x1980
     b20:	19007b02 	stmdbne	r0, {r1, r8, r9, fp, ip, sp, lr}
     b24:	02007d02 	andeq	r7, r0, #128	; 0x80
     b28:	02190075 	andseq	r0, r9, #117, 0	; 0x75
     b2c:	7a02047d 	bvc	81d28 <__bss_end__+0x78988>
     b30:	f8180000 			; <UNDEFINED> instruction: 0xf8180000
     b34:	e3000086 	movw	r0, #134	; 0x86
     b38:	3b000008 	blcc	b60 <__code_start__-0x74a0>
     b3c:	19000003 	stmdbne	r0, {r0, r1}
     b40:	91035001 	tstls	r3, r1
     b44:	01197dd0 			; <UNDEFINED> instruction: 0x01197dd0
     b48:	d2910351 	addsle	r0, r1, #1140850689	; 0x44000001
     b4c:	1818007e 	ldmdane	r8, {r1, r2, r3, r4, r5, r6}
     b50:	ef000087 	svc	0x00000087
     b54:	74000008 	strvc	r0, [r0], #-8
     b58:	19000003 	stmdbne	r0, {r0, r1}
     b5c:	03055001 	movweq	r5, #20481	; 0x5001
     b60:	00008e20 	andeq	r8, r0, r0, lsr #28
     b64:	05510119 	ldrbeq	r0, [r1, #-281]	; 0xfffffee7
     b68:	008e7403 	addeq	r7, lr, r3, lsl #8
     b6c:	52011900 	andpl	r1, r1, #0, 18
     b70:	8f740305 	svchi	0x00740305
     b74:	01190000 	tsteq	r9, r0
     b78:	9d080253 	sfmls	f0, 4, [r8, #-332]	; 0xfffffeb4
     b7c:	007d0219 	rsbseq	r0, sp, r9, lsl r2
     b80:	8ec80305 	cdphi	3, 12, cr0, cr8, cr5, {0}
     b84:	1a000000 	bne	b8c <__code_start__-0x7474>
     b88:	0000871c 	andeq	r8, r0, ip, lsl r7
     b8c:	000008fb 	strdeq	r0, [r0], -fp
     b90:	00873018 	addeq	r3, r7, r8, lsl r0
     b94:	0008ef00 	andeq	lr, r8, r0, lsl #30
     b98:	0003ac00 	andeq	sl, r3, r0, lsl #24
     b9c:	50011900 	andpl	r1, r1, r0, lsl #18
     ba0:	8ee40305 	cdphi	3, 14, cr0, cr4, cr5, {0}
     ba4:	01190000 	tsteq	r9, r0
     ba8:	74030551 	strvc	r0, [r3], #-1361	; 0xfffffaaf
     bac:	1900008e 	stmdbne	r0, {r1, r2, r3, r7}
     bb0:	03055201 	movweq	r5, #20993	; 0x5201
     bb4:	00008f74 	andeq	r8, r0, r4, ror pc
     bb8:	02530119 	subseq	r0, r3, #1073741830	; 0x40000006
     bbc:	1a00af08 	bne	2c7e4 <__bss_end__+0x23444>
     bc0:	00008734 	andeq	r8, r0, r4, lsr r7
     bc4:	000008fb 	strdeq	r0, [r0], -fp
     bc8:	00876018 	addeq	r6, r7, r8, lsl r0
     bcc:	00058700 	andeq	r8, r5, r0, lsl #14
     bd0:	0003e200 	andeq	lr, r3, r0, lsl #4
     bd4:	50011900 	andpl	r1, r1, r0, lsl #18
     bd8:	01193a01 	tsteq	r9, r1, lsl #20
     bdc:	d0910351 	addsle	r0, r1, r1, asr r3
     be0:	5201197d 	andpl	r1, r1, #2048000	; 0x1f4000
     be4:	19800802 	stmibne	r0, {r1, fp}
     be8:	02007d02 	andeq	r7, r0, #128	; 0x80
     bec:	02190075 	andseq	r0, r9, #117, 0	; 0x75
     bf0:	3101047d 	tstcc	r1, sp, ror r4
     bf4:	87981800 	ldrhi	r1, [r8, r0, lsl #16]
     bf8:	05870000 	streq	r0, [r7]
     bfc:	040f0000 	streq	r0, [pc], #-0	; c04 <__code_start__-0x73fc>
     c00:	01190000 	tsteq	r9, r0
     c04:	193a0150 	ldmdbne	sl!, {r4, r6, r8}
     c08:	91035101 	tstls	r3, r1, lsl #2
     c0c:	01197dd0 			; <UNDEFINED> instruction: 0x01197dd0
     c10:	80080252 	andhi	r0, r8, r2, asr r2
     c14:	007d0219 	rsbseq	r0, sp, r9, lsl r2
     c18:	19007502 	stmdbne	r0, {r1, r8, sl, ip, sp, lr}
     c1c:	01047d02 	tsteq	r4, r2, lsl #26
     c20:	cc180030 	ldcgt	0, cr0, [r8], {48}	; 0x30
     c24:	87000087 	strhi	r0, [r0, -r7, lsl #1]
     c28:	3c000005 	stccc	0, cr0, [r0], {5}
     c2c:	19000004 	stmdbne	r0, {r2}
     c30:	40015001 	andmi	r5, r1, r1
     c34:	03510119 	cmpeq	r1, #1073741830	; 0x40000006
     c38:	197dd091 	ldmdbne	sp!, {r0, r4, r7, ip, lr, pc}^
     c3c:	08025201 	stmdaeq	r2, {r0, r9, ip, lr}
     c40:	7d021980 	vstrvc.16	s2, [r2, #-256]	; 0xffffff00	; <UNPREDICTABLE>
     c44:	00750200 	rsbseq	r0, r5, r0, lsl #4
     c48:	047d0219 	ldrbteq	r0, [sp], #-537	; 0xfffffde7
     c4c:	18003001 	stmdane	r0, {r0, ip, sp}
     c50:	00008800 	andeq	r8, r0, r0, lsl #16
     c54:	00000587 	andeq	r0, r0, r7, lsl #11
     c58:	00000469 	andeq	r0, r0, r9, ror #8
     c5c:	01500119 	cmpeq	r0, r9, lsl r1
     c60:	51011932 	tstpl	r1, r2, lsr r9
     c64:	7dd09103 	ldfvcp	f1, [r0, #12]
     c68:	02520119 	subseq	r0, r2, #1073741830	; 0x40000006
     c6c:	02198008 	andseq	r8, r9, #8, 0
     c70:	7502007d 	strvc	r0, [r2, #-125]	; 0xffffff83
     c74:	7d021900 	vstrvc.16	s2, [r2, #-0]	; <UNPREDICTABLE>
     c78:	00300104 	eorseq	r0, r0, r4, lsl #2
     c7c:	00884818 	addeq	r4, r8, r8, lsl r8
     c80:	00058700 	andeq	r8, r5, r0, lsl #14
     c84:	00049600 	andeq	r9, r4, r0, lsl #12
     c88:	50011900 	andpl	r1, r1, r0, lsl #18
     c8c:	01193801 	tsteq	r9, r1, lsl #16
     c90:	d0910351 	addsle	r0, r1, r1, asr r3
     c94:	5201197d 	andpl	r1, r1, #2048000	; 0x1f4000
     c98:	19800802 	stmibne	r0, {r1, fp}
     c9c:	02007d02 	andeq	r7, r0, #128	; 0x80
     ca0:	02190075 	andseq	r0, r9, #117, 0	; 0x75
     ca4:	3001047d 	andcc	r0, r1, sp, ror r4
     ca8:	88681800 	stmdahi	r8!, {fp, ip}^
     cac:	08ef0000 	stmiaeq	pc!, {}^	; <UNPREDICTABLE>
     cb0:	04b90000 	ldrteq	r0, [r9], #0
     cb4:	01190000 	tsteq	r9, r0
     cb8:	0c030550 	cfstr32eq	mvfx0, [r3], {80}	; 0x50
     cbc:	1900008f 	stmdbne	r0, {r0, r1, r2, r3, r7}
     cc0:	7a025101 	bvc	950cc <__bss_end__+0x8bd2c>
     cc4:	52011900 	andpl	r1, r1, #0, 18
     cc8:	00007a02 	andeq	r7, r0, r2, lsl #20
     ccc:	0088781b 	addeq	r7, r8, fp, lsl r8
     cd0:	0004cb00 	andeq	ip, r4, r0, lsl #22
     cd4:	50011900 	andpl	r1, r1, r0, lsl #18
     cd8:	7dc89104 	stfvcp	f1, [r8, #16]
     cdc:	8c180006 	ldchi	0, cr0, [r8], {6}
     ce0:	ef000088 	svc	0x00000088
     ce4:	fa000008 	blx	d0c <__code_start__-0x72f4>
     ce8:	19000004 	stmdbne	r0, {r2}
     cec:	03055001 	movweq	r5, #20481	; 0x5001
     cf0:	00008f3c 	andeq	r8, r0, ip, lsr pc
     cf4:	05510119 	ldrbeq	r0, [r1, #-281]	; 0xfffffee7
     cf8:	008e7403 	addeq	r7, lr, r3, lsl #8
     cfc:	52011900 	andpl	r1, r1, #0, 18
     d00:	8f740305 	svchi	0x00740305
     d04:	01190000 	tsteq	r9, r0
     d08:	d3080253 	movwle	r0, #33363	; 0x8253
     d0c:	88901a00 	ldmhi	r0, {r9, fp, ip}
     d10:	08fb0000 	ldmeq	fp!, {}^	; <UNPREDICTABLE>
     d14:	18000000 	stmdane	r0, {}	; <UNPREDICTABLE>
     d18:	000085c8 	andeq	r8, r0, r8, asr #11
     d1c:	00000805 	andeq	r0, r0, r5, lsl #16
     d20:	00000518 	andeq	r0, r0, r8, lsl r5
     d24:	02500119 	subseq	r0, r0, #1073741830	; 0x40000006
     d28:	18000077 	stmdane	r0, {r0, r1, r2, r4, r5, r6}
     d2c:	00008674 	andeq	r8, r0, r4, ror r6
     d30:	000008ef 	andeq	r0, r0, pc, ror #17
     d34:	00000551 	andeq	r0, r0, r1, asr r5
     d38:	05500119 	ldrbeq	r0, [r0, #-281]	; 0xfffffee7
     d3c:	008e2003 	addeq	r2, lr, r3
     d40:	51011900 	tstpl	r1, r0, lsl #18
     d44:	8e740305 	cdphi	3, 7, cr0, cr4, cr5, {0}
     d48:	01190000 	tsteq	r9, r0
     d4c:	74030552 	strvc	r0, [r3], #-1362	; 0xfffffaae
     d50:	1900008f 	stmdbne	r0, {r0, r1, r2, r3, r7}
     d54:	08025301 	stmdaeq	r2, {r0, r8, r9, ip, lr}
     d58:	7d021998 	vstrvc.16	s2, [r2, #-304]	; 0xfffffed0	; <UNPREDICTABLE>
     d5c:	b8030500 	stmdalt	r3, {r8, sl}
     d60:	0000008e 	andeq	r0, r0, lr, lsl #1
     d64:	0086781a 	addeq	r7, r6, sl, lsl r8
     d68:	0008fb00 	andeq	pc, r8, r0, lsl #22
     d6c:	08000000 	stmdaeq	r0, {}	; <UNPREDICTABLE>
     d70:	0000b904 	andeq	fp, r0, r4, lsl #18
     d74:	00c01c00 	sbceq	r1, r0, r0, lsl #24
     d78:	05720000 	ldrbeq	r0, [r2, #-0]!
     d7c:	2c1d0000 	ldccs	0, cr0, [sp], {-0}
     d80:	09000000 	stmdbeq	r0, {}	; <UNPREDICTABLE>
     d84:	05620900 	strbeq	r0, [r2, #-2304]!	; 0xfffff700
     d88:	b91c0000 	ldmdblt	ip, {}	; <UNPREDICTABLE>
     d8c:	87000000 	strhi	r0, [r0, -r0]
     d90:	1d000005 	stcne	0, cr0, [r0, #-20]	; 0xffffffec
     d94:	0000002c 	andeq	r0, r0, ip, lsr #32
     d98:	dd1e007f 	ldcle	0, cr0, [lr, #-508]	; 0xfffffe04
     d9c:	01000003 	tsteq	r0, r3
     da0:	055c0149 	ldrbeq	r0, [ip, #-329]	; 0xfffffeb7
     da4:	83300000 	teqhi	r0, #0, 0
     da8:	01b40000 			; <UNDEFINED> instruction: 0x01b40000
     dac:	9c010000 	stcls	0, cr0, [r1], {-0}
     db0:	000006f0 	strdeq	r0, [r0], -r0	; <UNPREDICTABLE>
     db4:	00041b1f 	andeq	r1, r4, pc, lsl fp
     db8:	0f490100 	svceq	0x00490100
     dbc:	0000002c 	andeq	r0, r0, ip, lsr #32
     dc0:	00000445 	andeq	r0, r0, r5, asr #8
     dc4:	0000043f 	andeq	r0, r0, pc, lsr r4
     dc8:	7473640e 	ldrbtvc	r6, [r3], #-1038	; 0xfffffbf2
     dcc:	1b490100 	blne	12411d4 <__bss_end__+0x1237e34>
     dd0:	0000055c 	andeq	r0, r0, ip, asr r5
     dd4:	00000483 	andeq	r0, r0, r3, lsl #9
     dd8:	00000473 	andeq	r0, r0, r3, ror r4
     ddc:	01006e0e 	tsteq	r0, lr, lsl #28
     de0:	00252449 	eoreq	r2, r5, r9, asr #8
     de4:	04e70000 	strbteq	r0, [r7], #0
     de8:	04e30000 	strbteq	r0, [r3], #0
     dec:	760e0000 	strvc	r0, [lr], -r0
     df0:	01006c61 	tsteq	r0, r1, ror #24
     df4:	00252b49 	eoreq	r2, r5, r9, asr #22
     df8:	05110000 	ldreq	r0, [r1, #-0]
     dfc:	05050000 	streq	r0, [r5, #-0]
     e00:	631f0000 	tstvs	pc, #0, 0
     e04:	01000003 	tsteq	r0, r3
     e08:	00253449 	eoreq	r3, r5, r9, asr #8
     e0c:	05670000 	strbeq	r0, [r7, #-0]!
     e10:	05610000 	strbeq	r0, [r1, #-0]!
     e14:	200f0000 	andcs	r0, pc, r0
     e18:	01000004 	tsteq	r0, r4
     e1c:	00253f49 	eoreq	r3, r5, r9, asr #30
     e20:	91020000 	mrsls	r0, (UNDEF: 2)
     e24:	75621504 	strbvc	r1, [r2, #-1284]!	; 0xfffffafc
     e28:	4e010066 	cdpmi	0, 0, cr0, cr1, cr6, {3}
     e2c:	0006f007 	andeq	pc, r6, r7
     e30:	a8910300 	ldmge	r1, {r8, r9}
     e34:	0070107f 	rsbseq	r1, r0, pc, ror r0
     e38:	5c114e01 	ldcpl	14, cr4, [r1], {1}
     e3c:	b1000005 	tstlt	r0, r5
     e40:	91000005 	tstls	r0, r5
     e44:	10000005 	andne	r0, r0, r5
     e48:	4f010075 	svcmi	0x00010075
     e4c:	00002c0b 	andeq	r2, r0, fp, lsl #24
     e50:	00069700 	andeq	r9, r6, r0, lsl #14
     e54:	00068300 	andeq	r8, r6, r0, lsl #6
     e58:	01fb1300 	mvnseq	r1, r0, lsl #6
     e5c:	07100000 	ldreq	r0, [r0, -r0]
     e60:	03050000 	movweq	r0, #20480	; 0x5000
     e64:	00008f5c 	andeq	r8, r0, ip, asr pc
     e68:	00839c20 	addeq	r9, r3, r0, lsr #24
     e6c:	00007800 	andeq	r7, r0, r0, lsl #16
     e70:	00067700 	andeq	r7, r6, r0, lsl #14
     e74:	03ca1200 	biceq	r1, sl, #0, 4
     e78:	54010000 	strpl	r0, [r1], #-0
     e7c:	00002c0d 	andeq	r2, r0, sp, lsl #24
     e80:	00071800 	andeq	r1, r7, r0, lsl #16
     e84:	00071000 	andeq	r1, r7, r0
     e88:	54180000 	ldrpl	r0, [r8], #-0
     e8c:	a2000084 	andge	r0, r0, #132, 0	; 0x84
     e90:	8c000007 	stchi	0, cr0, [r0], {7}
     e94:	19000006 	stmdbne	r0, {r1, r2}
     e98:	91035101 	tstls	r3, r1, lsl #2
     e9c:	18007fa0 	stmdane	r0, {r5, r7, r8, r9, sl, fp, ip, sp, lr}
     ea0:	00008468 	andeq	r8, r0, r8, ror #8
     ea4:	00000715 	andeq	r0, r0, r5, lsl r7
     ea8:	000006ad 	andeq	r0, r0, sp, lsr #13
     eac:	02500119 	subseq	r0, r0, #1073741830	; 0x40000006
     eb0:	01190075 	tsteq	r9, r5, ror r0
     eb4:	00740251 	rsbseq	r0, r4, r1, asr r2
     eb8:	03530119 	cmpeq	r3, #1073741830	; 0x40000006
     ebc:	007fa091 			; <UNDEFINED> instruction: 0x007fa091
     ec0:	0084c018 	addeq	ip, r4, r8, lsl r0
     ec4:	0008ef00 	andeq	lr, r8, r0, lsl #30
     ec8:	0006e600 	andeq	lr, r6, r0, lsl #12
     ecc:	50011900 	andpl	r1, r1, r0, lsl #18
     ed0:	8e200305 	cdphi	3, 2, cr0, cr0, cr5, {0}
     ed4:	01190000 	tsteq	r9, r0
     ed8:	74030551 	strvc	r0, [r3], #-1361	; 0xfffffaaf
     edc:	1900008e 	stmdbne	r0, {r1, r2, r3, r7}
     ee0:	03055201 	movweq	r5, #20993	; 0x5201
     ee4:	00008f5c 	andeq	r8, r0, ip, asr pc
     ee8:	02530119 	subseq	r0, r3, #1073741830	; 0x40000006
     eec:	02197908 	andseq	r7, r9, #8, 18	; 0x20000
     ef0:	0305007d 	movweq	r0, #20605	; 0x507d
     ef4:	00008e88 	andeq	r8, r0, r8, lsl #29
     ef8:	84c41a00 	strbhi	r1, [r4], #2560	; 0xa00
     efc:	08fb0000 	ldmeq	fp!, {}^	; <UNPREDICTABLE>
     f00:	1c000000 	stcne	0, cr0, [r0], {-0}
     f04:	000000b9 	strheq	r0, [r0], -r9
     f08:	00000700 	andeq	r0, r0, r0, lsl #14
     f0c:	00002c1d 	andeq	r2, r0, sp, lsl ip
     f10:	1c003f00 	stcne	15, cr3, [r0], {-0}
     f14:	000000c0 	andeq	r0, r0, r0, asr #1
     f18:	00000710 	andeq	r0, r0, r0, lsl r7
     f1c:	00002c1d 	andeq	r2, r0, sp, lsl ip
     f20:	09000400 	stmdbeq	r0, {sl}
     f24:	00000700 	andeq	r0, r0, r0, lsl #14
     f28:	0003ea1e 	andeq	lr, r3, lr, lsl sl
     f2c:	0e380100 	rsfeqe	f0, f0, f0
     f30:	0000055c 	andeq	r0, r0, ip, asr r5
     f34:	000082f8 	strdeq	r8, [r0], -r8	; <UNPREDICTABLE>
     f38:	00000038 	andeq	r0, r0, r8, lsr r0
     f3c:	07a29c01 	streq	r9, [r2, r1, lsl #24]!
     f40:	640e0000 	strvs	r0, [lr], #-0
     f44:	01007473 	tsteq	r0, r3, ror r4
     f48:	055c1c38 	ldrbeq	r1, [ip, #-3128]	; 0xfffff3c8
     f4c:	07590000 	ldrbeq	r0, [r9, -r0]
     f50:	074f0000 	strbeq	r0, [pc, -r0]
     f54:	6e0e0000 	cdpvs	0, 0, cr0, cr14, cr0, {0}
     f58:	25380100 	ldrcs	r0, [r8, #-256]!	; 0xffffff00
     f5c:	00000025 	andeq	r0, r0, r5, lsr #32
     f60:	000007a0 	andeq	r0, r0, r0, lsr #15
     f64:	0000079c 	muleq	r0, ip, r7
     f68:	0100700e 	tsteq	r0, lr
     f6c:	055c2e38 	ldrbeq	r2, [ip, #-3640]	; 0xfffff1c8
     f70:	07c90000 	strbeq	r0, [r9, r0]
     f74:	07c10000 	strbeq	r0, [r1, r0]
     f78:	8e1f0000 	cdphi	0, 1, cr0, cr15, cr0, {0}
     f7c:	01000000 	mrseq	r0, (UNDEF: 0)
     f80:	055c3738 	ldrbeq	r3, [ip, #-1848]	; 0xfffff8c8
     f84:	08030000 	stmdaeq	r3, {}	; <UNPREDICTABLE>
     f88:	07ff0000 	ldrbeq	r0, [pc, r0]!
     f8c:	6c100000 	ldcvs	0, cr0, [r0], {-0}
     f90:	01006e65 	tsteq	r0, r5, ror #28
     f94:	0025063a 	eoreq	r0, r5, sl, lsr r6
     f98:	08290000 	stmdaeq	r9!, {}	; <UNPREDICTABLE>
     f9c:	08210000 	stmdaeq	r1!, {}	; <UNPREDICTABLE>
     fa0:	73100000 	tstvc	r0, #0, 0
     fa4:	083e0100 	ldmdaeq	lr!, {r8}
     fa8:	0000055c 	andeq	r0, r0, ip, asr r5
     fac:	00000877 	andeq	r0, r0, r7, ror r8
     fb0:	00000875 	andeq	r0, r0, r5, ror r8
     fb4:	61702100 	cmnvs	r0, r0, lsl #2
     fb8:	2e010064 	cdpcs	0, 0, cr0, cr1, cr4, {3}
     fbc:	00055c0e 	andeq	r5, r5, lr, lsl #24
     fc0:	0082d400 	addeq	sp, r2, r0, lsl #8
     fc4:	00002400 	andeq	r2, r0, r0, lsl #8
     fc8:	059c0100 	ldreq	r0, [ip, #256]	; 0x100
     fcc:	0e000008 	cdpeq	0, 0, cr0, cr0, cr8, {0}
     fd0:	2e010070 	mcrcs	0, 0, r0, cr1, cr0, {3}
     fd4:	00055c18 	andeq	r5, r5, r8, lsl ip
     fd8:	00089000 	andeq	r9, r8, r0
     fdc:	00088a00 	andeq	r8, r8, r0, lsl #20
     fe0:	041b1f00 	ldreq	r1, [fp], #-3840	; 0xfffff100
     fe4:	2e010000 	cdpcs	0, 0, cr0, cr1, cr0, {0}
     fe8:	00055c22 	andeq	r5, r5, r2, lsr #24
     fec:	0008bf00 	andeq	fp, r8, r0, lsl #30
     ff0:	0008bb00 	andeq	fp, r8, r0, lsl #22
     ff4:	03630f00 	cmneq	r3, #0, 30
     ff8:	2e010000 	cdpcs	0, 0, cr0, cr1, cr0, {0}
     ffc:	0000252c 	andeq	r2, r0, ip, lsr #10
    1000:	10520100 	subsne	r0, r2, r0, lsl #2
    1004:	006e656c 	rsbeq	r6, lr, ip, ror #10
    1008:	25062f01 	strcs	r2, [r6, #-3841]	; 0xfffff0ff
    100c:	e2000000 	and	r0, r0, #0, 0
    1010:	e0000008 	and	r0, r0, r8
    1014:	00000008 	andeq	r0, r0, r8
    1018:	0003351e 	andeq	r3, r3, lr, lsl r5
    101c:	0c270100 	stfeqs	f0, [r7], #-0
    1020:	00000025 	andeq	r0, r0, r5, lsr #32
    1024:	000082c0 	andeq	r8, r0, r0, asr #5
    1028:	00000014 	andeq	r0, r0, r4, lsl r0
    102c:	08329c01 	ldmdaeq	r2!, {r0, sl, fp, ip, pc}
    1030:	630e0000 	movwvs	r0, #57344	; 0xe000
    1034:	18270100 	stmdane	r7!, {r8}
    1038:	00000025 	andeq	r0, r0, r5, lsr #32
    103c:	000008fb 	strdeq	r0, [r0], -fp
    1040:	000008f5 	strdeq	r0, [r0], -r5
    1044:	03992200 	orrseq	r2, r9, #0, 4
    1048:	1f010000 	svcne	0x00010000
    104c:	0084e406 	addeq	lr, r4, r6, lsl #8
    1050:	00006400 	andeq	r6, r0, r0, lsl #8
    1054:	c29c0100 	addsgt	r0, ip, #0
    1058:	1f000008 	svcne	0x00000008
    105c:	00000376 	andeq	r0, r0, r6, ror r3
    1060:	9e1b1f01 	cdpls	15, 1, cr1, cr11, cr1, {0}
    1064:	2d000000 	stccs	0, cr0, [r0, #-0]
    1068:	29000009 	stmdbcs	r0, {r0, r3}
    106c:	1f000009 	svcne	0x00000009
    1070:	000003e2 	andeq	r0, r0, r2, ror #7
    1074:	d1301f01 	teqle	r0, r1, lsl #30
    1078:	52000000 	andpl	r0, r0, #0, 0
    107c:	4e000009 	cdpmi	0, 0, cr0, cr0, cr9, {0}
    1080:	13000009 	movwne	r0, #9
    1084:	000001fb 	strdeq	r0, [r0], -fp
    1088:	000008d2 	ldrdeq	r0, [r0], -r2
    108c:	8f640305 	svchi	0x00640305
    1090:	2c180000 	ldccs	0, cr0, [r8], {-0}
    1094:	ef000085 	svc	0x00000085
    1098:	b8000008 	stmdalt	r0, {r3}
    109c:	19000008 	stmdbne	r0, {r3}
    10a0:	03055001 	movweq	r5, #20481	; 0x5001
    10a4:	00008e20 	andeq	r8, r0, r0, lsr #28
    10a8:	05510119 	ldrbeq	r0, [r1, #-281]	; 0xfffffee7
    10ac:	008e7403 	addeq	r7, lr, r3, lsl #8
    10b0:	52011900 	andpl	r1, r1, #0, 18
    10b4:	8f640305 	svchi	0x00640305
    10b8:	01190000 	tsteq	r9, r0
    10bc:	20080253 	andcs	r0, r8, r3, asr r2
    10c0:	007d0219 	rsbseq	r0, sp, r9, lsl r2
    10c4:	8eb00305 	cdphi	3, 11, cr0, cr0, cr5, {0}
    10c8:	1a000000 	bne	10d0 <__code_start__-0x6f30>
    10cc:	00008530 	andeq	r8, r0, r0, lsr r5
    10d0:	000008fb 	strdeq	r0, [r0], -fp
    10d4:	00c01c00 	sbceq	r1, r0, r0, lsl #24
    10d8:	08d20000 	ldmeq	r2, {}^	; <UNPREDICTABLE>
    10dc:	2c1d0000 	ldccs	0, cr0, [sp], {-0}
    10e0:	0e000000 	cdpeq	0, 0, cr0, cr0, cr0, {0}
    10e4:	08c20900 	stmiaeq	r2, {r8, fp}^
    10e8:	13230000 			; <UNDEFINED> instruction: 0x13230000
    10ec:	13000004 	movwne	r0, #4
    10f0:	03000004 	movweq	r0, #4
    10f4:	c32305d6 			; <UNDEFINED> instruction: 0xc32305d6
    10f8:	c3000003 	movwgt	r0, #3
    10fc:	03000003 	movweq	r0, #3
    1100:	b62307d9 			; <UNDEFINED> instruction: 0xb62307d9
    1104:	b6000002 	strlt	r0, [r0], -r2
    1108:	03000002 	movweq	r0, #2
    110c:	7b230628 	blvc	8c29b4 <__bss_end__+0x8b9614>
    1110:	7b000000 	blvc	1118 <__code_start__-0x6ee8>
    1114:	03000000 	movweq	r0, #0
    1118:	2f000667 	svccs	0x00000667
    111c:	04000001 	streq	r0, [r0], #-1
    1120:	00064400 	andeq	r4, r6, r0, lsl #8
    1124:	f1010400 			; <UNDEFINED> instruction: 0xf1010400
    1128:	0c000000 	stceq	0, cr0, [r0], {-0}
    112c:	0000043d 	andeq	r0, r0, sp, lsr r4
    1130:	000002e9 	andeq	r0, r0, r9, ror #5
    1134:	000088ec 	andeq	r8, r0, ip, ror #17
    1138:	0000002c 	andeq	r0, r0, ip, lsr #32
    113c:	00000a47 	andeq	r0, r0, r7, asr #20
    1140:	69050402 	stmdbvs	r5, {r1, sl}
    1144:	0300746e 	movweq	r7, #1134	; 0x46e
    1148:	00b10704 	adcseq	r0, r1, r4, lsl #14
    114c:	01030000 	mrseq	r0, (UNDEF: 3)
    1150:	00006f06 	andeq	r6, r0, r6, lsl #30
    1154:	05020300 	streq	r0, [r2, #-768]	; 0xfffffd00
    1158:	000000d8 	ldrdeq	r0, [r0], -r8
    115c:	c3050403 	movwgt	r0, #21507	; 0x5403
    1160:	03000000 	movweq	r0, #0
    1164:	00be0508 	adcseq	r0, lr, r8, lsl #10
    1168:	01030000 	mrseq	r0, (UNDEF: 3)
    116c:	00006d08 	andeq	r6, r0, r8, lsl #26
    1170:	07020300 	streq	r0, [r2, -r0, lsl #6]
    1174:	00000094 	muleq	r0, r4, r0
    1178:	ac070403 	cfstrsge	mvf0, [r7], {3}
    117c:	03000000 	movweq	r0, #0
    1180:	00a70708 	adceq	r0, r7, r8, lsl #14
    1184:	25040000 	strcs	r0, [r4, #-0]
    1188:	7a000000 	bvc	1190 <__code_start__-0x6e70>
    118c:	05000000 	streq	r0, [r0, #-0]
    1190:	00000025 	andeq	r0, r0, r5, lsr #32
    1194:	00cc0600 	sbceq	r0, ip, r0, lsl #12
    1198:	1c020000 	stcne	0, cr0, [r2], {-0}
    119c:	0000860e 	andeq	r8, r0, lr, lsl #12
    11a0:	6b040700 	blvs	102da8 <__bss_end__+0xf9a08>
    11a4:	04000000 	streq	r0, [r0], #-0
    11a8:	00000025 	andeq	r0, r0, r5, lsr #32
    11ac:	0000009b 	muleq	r0, fp, r0
    11b0:	00009b05 	andeq	r9, r0, r5, lsl #22
    11b4:	04070000 	streq	r0, [r7], #-0
    11b8:	000000a8 	andeq	r0, r0, r8, lsr #1
    11bc:	76080103 	strvc	r0, [r8], -r3, lsl #2
    11c0:	08000000 	stmdaeq	r0, {}	; <UNPREDICTABLE>
    11c4:	000000a1 	andeq	r0, r0, r1, lsr #1
    11c8:	00032406 	andeq	r2, r3, r6, lsl #8
    11cc:	0e210200 	cdpeq	2, 2, cr0, cr1, cr0, {0}
    11d0:	000000b9 	strheq	r0, [r0], -r9
    11d4:	008c0407 	addeq	r0, ip, r7, lsl #8
    11d8:	7b090000 	blvc	2411e0 <__bss_end__+0x237e40>
    11dc:	01000000 	mrseq	r0, (UNDEF: 0)
    11e0:	88ec0604 	stmiahi	ip!, {r2, r9, sl}^
    11e4:	002c0000 	eoreq	r0, ip, r0
    11e8:	9c010000 	stcls	0, cr0, [r1], {-0}
    11ec:	0000010e 	andeq	r0, r0, lr, lsl #2
    11f0:	0089000a 	addeq	r0, r9, sl
    11f4:	0000e800 	andeq	lr, r0, r0, lsl #16
    11f8:	50010b00 	andpl	r0, r1, r0, lsl #22
    11fc:	8f800305 	svchi	0x00800305
    1200:	0c000000 	stceq	0, cr0, [r0], {-0}
    1204:	00008904 	andeq	r8, r0, r4, lsl #18
    1208:	0000010e 	andeq	r0, r0, lr, lsl #2
    120c:	00890c0d 	addeq	r0, r9, sp, lsl #24
    1210:	00011a00 	andeq	r1, r1, r0, lsl #20
    1214:	00010400 	andeq	r0, r1, r0, lsl #8
    1218:	50010b00 	andpl	r0, r1, r0, lsl #22
    121c:	0c003a01 			; <UNDEFINED> instruction: 0x0c003a01
    1220:	00008910 	andeq	r8, r0, r0, lsl r9
    1224:	00000126 	andeq	r0, r0, r6, lsr #2
    1228:	04560e00 	ldrbeq	r0, [r6], #-3584	; 0xfffff200
    122c:	04560000 	ldrbeq	r0, [r6], #-0
    1230:	46020000 	strmi	r0, [r2], -r0
    1234:	04340e06 	ldrteq	r0, [r4], #-3590	; 0xfffff1fa
    1238:	04340000 	ldrteq	r0, [r4], #-0
    123c:	51020000 	mrspl	r0, (UNDEF: 2)
    1240:	04290e06 	strteq	r0, [r9], #-3590	; 0xfffff1fa
    1244:	04290000 	strteq	r0, [r9], #-0
    1248:	64020000 	strvs	r0, [r2], #-0
    124c:	01590006 	cmpeq	r9, r6
    1250:	00040000 	andeq	r0, r4, r0
    1254:	00000704 	andeq	r0, r0, r4, lsl #14
    1258:	00f10104 	rscseq	r0, r1, r4, lsl #2
    125c:	820c0000 	andhi	r0, ip, #0, 0
    1260:	e9000004 	stmdb	r0, {r2}
    1264:	18000002 	stmdane	r0, {r1}
    1268:	30000089 	andcc	r0, r0, r9, lsl #1
    126c:	d8000000 	stmdale	r0, {}	; <UNPREDICTABLE>
    1270:	0200000a 	andeq	r0, r0, #10, 0
    1274:	6e690504 	cdpvs	5, 6, cr0, cr9, cr4, {0}
    1278:	04030074 	streq	r0, [r3], #-116	; 0xffffff8c
    127c:	0000b107 	andeq	fp, r0, r7, lsl #2
    1280:	06010300 	streq	r0, [r1], -r0, lsl #6
    1284:	0000006f 	andeq	r0, r0, pc, rrx
    1288:	d8050203 	stmdale	r5, {r0, r1, r9}
    128c:	03000000 	movweq	r0, #0
    1290:	00c30504 	sbceq	r0, r3, r4, lsl #10
    1294:	08030000 	stmdaeq	r3, {}	; <UNPREDICTABLE>
    1298:	0000be05 	andeq	fp, r0, r5, lsl #28
    129c:	08010300 	stmdaeq	r1, {r8, r9}
    12a0:	0000006d 	andeq	r0, r0, sp, rrx
    12a4:	94070203 	strls	r0, [r7], #-515	; 0xfffffdfd
    12a8:	03000000 	movweq	r0, #0
    12ac:	00ac0704 	adceq	r0, ip, r4, lsl #14
    12b0:	08030000 	stmdaeq	r3, {}	; <UNPREDICTABLE>
    12b4:	0000a707 	andeq	sl, r0, r7, lsl #14
    12b8:	00250400 	eoreq	r0, r5, r0, lsl #8
    12bc:	007a0000 	rsbseq	r0, sl, r0
    12c0:	25050000 	strcs	r0, [r5, #-0]
    12c4:	00000000 	andeq	r0, r0, r0
    12c8:	0000cc06 	andeq	ip, r0, r6, lsl #24
    12cc:	0e1c0200 	cdpeq	2, 1, cr0, cr12, cr0, {0}
    12d0:	00000086 	andeq	r0, r0, r6, lsl #1
    12d4:	006b0407 	rsbeq	r0, fp, r7, lsl #8
    12d8:	25040000 	strcs	r0, [r4, #-0]
    12dc:	9b000000 	blls	12e4 <__code_start__-0x6d1c>
    12e0:	05000000 	streq	r0, [r0, #-0]
    12e4:	0000009b 	muleq	r0, fp, r0
    12e8:	a8040700 	stmdage	r4, {r8, r9, sl}
    12ec:	03000000 	movweq	r0, #0
    12f0:	00760801 	rsbseq	r0, r6, r1, lsl #16
    12f4:	a1080000 	mrsge	r0, (UNDEF: 8)
    12f8:	06000000 	streq	r0, [r0], -r0
    12fc:	00000324 	andeq	r0, r0, r4, lsr #6
    1300:	b90e2102 	stmdblt	lr, {r1, r8, sp}
    1304:	07000000 	streq	r0, [r0, -r0]
    1308:	00008c04 	andeq	r8, r0, r4, lsl #24
    130c:	04640900 	strbteq	r0, [r4], #-2304	; 0xfffff700
    1310:	03010000 	movweq	r0, #4096	; 0x1000
    1314:	00891806 	addeq	r1, r9, r6, lsl #16
    1318:	00003000 	andeq	r3, r0, r0
    131c:	319c0100 	orrscc	r0, ip, r0, lsl #2
    1320:	06000001 	streq	r0, [r0], -r1
    1324:	00000355 	andeq	r0, r0, r5, asr r3
    1328:	25100401 	ldrcs	r0, [r0, #-1025]	; 0xfffffbff
    132c:	06000000 	streq	r0, [r0], -r0
    1330:	0000037e 	andeq	r0, r0, lr, ror r3
    1334:	251f0401 	ldrcs	r0, [pc, #-1025]	; f3b <__code_start__-0x70c5>
    1338:	0a000000 	beq	1340 <__code_start__-0x6cc0>
    133c:	000001a6 	andeq	r0, r0, r6, lsr #3
    1340:	0b070501 	bleq	1c274c <__bss_end__+0x1b93ac>
    1344:	00737362 	rsbseq	r7, r3, r2, ror #6
    1348:	310a0901 	tstcc	sl, r1, lsl #18
    134c:	79000001 	stmdbvc	r0, {r0}
    1350:	73000009 	movwvc	r0, #9
    1354:	0c000009 	stceq	0, cr0, [r0], {9}
    1358:	0000046c 	andeq	r0, r0, ip, ror #8
    135c:	310a0a01 	tstcc	sl, r1, lsl #20
    1360:	0d000001 	stceq	0, cr0, [r0, #-4]
    1364:	00008920 	andeq	r8, r0, r0, lsr #18
    1368:	00000137 	andeq	r0, r0, r7, lsr r1
    136c:	00893c0d 	addeq	r3, r9, sp, lsl #24
    1370:	00014400 	andeq	r4, r1, r0, lsl #8
    1374:	89400d00 	stmdbhi	r0, {r8, sl, fp}^
    1378:	01500000 	cmpeq	r0, r0
    137c:	07000000 	streq	r0, [r0, -r0]
    1380:	00002504 	andeq	r2, r0, r4, lsl #10
    1384:	04740e00 	ldrbteq	r0, [r4], #-3584	; 0xfffff200
    1388:	04740000 	ldrbteq	r0, [r4], #-0
    138c:	17020000 	strne	r0, [r2, -r0]
    1390:	a60f0601 	strge	r0, [pc], -r1, lsl #12
    1394:	a6000001 	strge	r0, [r0], -r1
    1398:	02000001 	andeq	r0, r0, #1, 0
    139c:	7b0f06eb 	blvc	3c2f50 <__bss_end__+0x3b9bb0>
    13a0:	7b000000 	blvc	13a8 <__code_start__-0x6c58>
    13a4:	02000000 	andeq	r0, r0, #0, 0
    13a8:	ce000667 	cfmadd32gt	mvax3, mvfx0, mvfx0, mvfx7
    13ac:	04000000 	streq	r0, [r0], #-0
    13b0:	0007e400 	andeq	lr, r7, r0, lsl #8
    13b4:	f1010400 			; <UNDEFINED> instruction: 0xf1010400
    13b8:	0c000000 	stceq	0, cr0, [r0], {-0}
    13bc:	00000495 	muleq	r0, r5, r4
    13c0:	000002e9 	andeq	r0, r0, r9, ror #5
    13c4:	00008948 	andeq	r8, r0, r8, asr #18
    13c8:	00000004 	andeq	r0, r0, r4
    13cc:	00000b7e 	andeq	r0, r0, lr, ror fp
    13d0:	69050402 	stmdbvs	r5, {r1, sl}
    13d4:	0300746e 	movweq	r7, #1134	; 0x46e
    13d8:	00b10704 	adcseq	r0, r1, r4, lsl #14
    13dc:	01030000 	mrseq	r0, (UNDEF: 3)
    13e0:	00006f06 	andeq	r6, r0, r6, lsl #30
    13e4:	05020300 	streq	r0, [r2, #-768]	; 0xfffffd00
    13e8:	000000d8 	ldrdeq	r0, [r0], -r8
    13ec:	c3050403 	movwgt	r0, #21507	; 0x5403
    13f0:	03000000 	movweq	r0, #0
    13f4:	00be0508 	adcseq	r0, lr, r8, lsl #10
    13f8:	01030000 	mrseq	r0, (UNDEF: 3)
    13fc:	00006d08 	andeq	r6, r0, r8, lsl #26
    1400:	07020300 	streq	r0, [r2, -r0, lsl #6]
    1404:	00000094 	muleq	r0, r4, r0
    1408:	ac070403 	cfstrsge	mvf0, [r7], {3}
    140c:	03000000 	movweq	r0, #0
    1410:	00a70708 	adceq	r0, r7, r8, lsl #14
    1414:	25040000 	strcs	r0, [r4, #-0]
    1418:	7a000000 	bvc	1420 <__code_start__-0x6be0>
    141c:	05000000 	streq	r0, [r0, #-0]
    1420:	00000025 	andeq	r0, r0, r5, lsr #32
    1424:	00cc0600 	sbceq	r0, ip, r0, lsl #12
    1428:	1c020000 	stcne	0, cr0, [r2], {-0}
    142c:	0000860e 	andeq	r8, r0, lr, lsl #12
    1430:	6b040700 	blvs	103038 <__bss_end__+0xf9c98>
    1434:	04000000 	streq	r0, [r0], #-0
    1438:	00000025 	andeq	r0, r0, r5, lsr #32
    143c:	0000009b 	muleq	r0, fp, r0
    1440:	00009b05 	andeq	r9, r0, r5, lsl #22
    1444:	04070000 	streq	r0, [r7], #-0
    1448:	000000a8 	andeq	r0, r0, r8, lsr #1
    144c:	76080103 	strvc	r0, [r8], -r3, lsl #2
    1450:	08000000 	stmdaeq	r0, {}	; <UNPREDICTABLE>
    1454:	000000a1 	andeq	r0, r0, r1, lsr #1
    1458:	00032406 	andeq	r2, r3, r6, lsl #8
    145c:	0e210200 	cdpeq	2, 2, cr0, cr1, cr0, {0}
    1460:	000000b9 	strheq	r0, [r0], -r9
    1464:	008c0407 	addeq	r0, ip, r7, lsl #8
    1468:	74090000 	strvc	r0, [r9], #-0
    146c:	01000004 	tsteq	r0, r4
    1470:	89480604 	stmdbhi	r8, {r2, r9, sl}^
    1474:	00040000 	andeq	r0, r4, r0
    1478:	9c010000 	stcls	0, cr0, [r1], {-0}
    147c:	00022000 	andeq	r2, r2, r0
    1480:	5d000400 	cfstrspl	mvf0, [r0, #-0]
    1484:	04000008 	streq	r0, [r0], #-8
    1488:	0000f101 	andeq	pc, r0, r1, lsl #2
    148c:	04e00c00 	strbteq	r0, [r0], #3072	; 0xc00
    1490:	02e90000 	rsceq	r0, r9, #0, 0
    1494:	00180000 	andseq	r0, r8, r0
    1498:	00000000 	andeq	r0, r0, r0
    149c:	0c0d0000 	stceq	0, cr0, [sp], {-0}
    14a0:	04020000 	streq	r0, [r2], #-0
    14a4:	746e6905 	strbtvc	r6, [lr], #-2309	; 0xfffff6fb
    14a8:	00250300 	eoreq	r0, r5, r0, lsl #6
    14ac:	04040000 	streq	r0, [r4], #-0
    14b0:	0000b107 	andeq	fp, r0, r7, lsl #2
    14b4:	06010400 	streq	r0, [r1], -r0, lsl #8
    14b8:	0000006f 	andeq	r0, r0, pc, rrx
    14bc:	d8050204 	stmdale	r5, {r2, r9}
    14c0:	04000000 	streq	r0, [r0], #-0
    14c4:	00c30504 	sbceq	r0, r3, r4, lsl #10
    14c8:	08040000 	stmdaeq	r4, {}	; <UNPREDICTABLE>
    14cc:	0000be05 	andeq	fp, r0, r5, lsl #28
    14d0:	08010400 	stmdaeq	r1, {sl}
    14d4:	0000006d 	andeq	r0, r0, sp, rrx
    14d8:	94070204 	strls	r0, [r7], #-516	; 0xfffffdfc
    14dc:	04000000 	streq	r0, [r0], #-0
    14e0:	00ac0704 	adceq	r0, ip, r4, lsl #14
    14e4:	08040000 	stmdaeq	r4, {}	; <UNPREDICTABLE>
    14e8:	0000a707 	andeq	sl, r0, r7, lsl #14
    14ec:	00250500 	eoreq	r0, r5, r0, lsl #10
    14f0:	007f0000 	rsbseq	r0, pc, r0
    14f4:	25060000 	strcs	r0, [r6, #-0]
    14f8:	00000000 	andeq	r0, r0, r0
    14fc:	0000cc07 	andeq	ip, r0, r7, lsl #24
    1500:	0e1c0200 	cdpeq	2, 1, cr0, cr12, cr0, {0}
    1504:	0000008b 	andeq	r0, r0, fp, lsl #1
    1508:	00700408 	rsbseq	r0, r0, r8, lsl #8
    150c:	25050000 	strcs	r0, [r5, #-0]
    1510:	a0000000 	andge	r0, r0, r0
    1514:	06000000 	streq	r0, [r0], -r0
    1518:	000000a0 	andeq	r0, r0, r0, lsr #1
    151c:	ad040800 	stcge	8, cr0, [r4, #-0]
    1520:	04000000 	streq	r0, [r0], #-0
    1524:	00760801 	rsbseq	r0, r6, r1, lsl #16
    1528:	a6030000 	strge	r0, [r3], -r0
    152c:	07000000 	streq	r0, [r0, -r0]
    1530:	00000324 	andeq	r0, r0, r4, lsr #6
    1534:	be0e2102 	adflte	f2, f6, f2
    1538:	08000000 	stmdaeq	r0, {}	; <UNPREDICTABLE>
    153c:	00009104 	andeq	r9, r0, r4, lsl #2
    1540:	04d50900 	ldrbeq	r0, [r5], #2304	; 0x900
    1544:	0d010000 	stceq	0, cr0, [r1, #-0]
    1548:	00003111 	andeq	r3, r0, r1, lsl r1
    154c:	04290a00 	strteq	r0, [r9], #-2560	; 0xfffff600
    1550:	1f010000 	svcne	0x00010000
    1554:	00897806 	addeq	r7, r9, r6, lsl #16
    1558:	00005000 	andeq	r5, r0, r0
    155c:	a59c0100 	ldrge	r0, [ip, #256]	; 0x100
    1560:	0b000001 	bleq	156c <__code_start__-0x6a94>
    1564:	000004f3 	strdeq	r0, [r0], -r3
    1568:	2c0f2f01 	stccs	15, cr2, [pc], {1}
    156c:	a6000000 	strge	r0, [r0], -r0
    1570:	a4000009 	strge	r0, [r0], #-9
    1574:	0b000009 	bleq	15a0 <__code_start__-0x6a60>
    1578:	000004af 	andeq	r0, r0, pc, lsr #9
    157c:	2c0f3001 	stccs	0, cr3, [pc], {1}
    1580:	c0000000 	andgt	r0, r0, r0
    1584:	be000009 	cdplt	0, 0, cr0, cr0, cr9, {0}
    1588:	0b000009 	bleq	15b4 <__code_start__-0x6a4c>
    158c:	000004c6 	andeq	r0, r0, r6, asr #9
    1590:	2c0f3101 	stfcss	f3, [pc], {1}
    1594:	da000000 	ble	159c <__code_start__-0x6a64>
    1598:	d8000009 	stmdale	r0, {r0, r3}
    159c:	0b000009 	bleq	15c8 <__code_start__-0x6a38>
    15a0:	00000500 	andeq	r0, r0, r0, lsl #10
    15a4:	2c0f3201 	sfmcs	f3, 4, [pc], {1}
    15a8:	f3000000 	vhadd.u8	d0, d0, d0
    15ac:	f1000009 	cps	#9
    15b0:	0c000009 	stceq	0, cr0, [r0], {9}
    15b4:	00008980 	andeq	r8, r0, r0, lsl #19
    15b8:	000001d0 	ldrdeq	r0, [r0], -r0	; <UNPREDICTABLE>
    15bc:	00898c0c 	addeq	r8, r9, ip, lsl #24
    15c0:	0001ff00 	andeq	pc, r1, r0, lsl #30
    15c4:	89940d00 	ldmibhi	r4, {r8, sl, fp}
    15c8:	020b0000 	andeq	r0, fp, #0, 0
    15cc:	015b0000 	cmpeq	fp, r0
    15d0:	010e0000 	mrseq	r0, (UNDEF: 14)
    15d4:	003a0150 	eorseq	r0, sl, r0, asr r1
    15d8:	0089a00d 	addeq	sl, r9, sp
    15dc:	00021700 	andeq	r1, r2, r0, lsl #14
    15e0:	00017b00 	andeq	r7, r1, r0, lsl #22
    15e4:	50010e00 	andpl	r0, r1, r0, lsl #28
    15e8:	00240c05 	eoreq	r0, r4, r5, lsl #24
    15ec:	010e2010 	tsteq	lr, r0, lsl r0
    15f0:	010c0551 	tsteq	ip, r1, asr r5
    15f4:	005a0000 	subseq	r0, sl, r0
    15f8:	0089ac0d 	addeq	sl, r9, sp, lsl #24
    15fc:	00021700 	andeq	r1, r2, r0, lsl #14
    1600:	00019b00 	andeq	r9, r1, r0, lsl #22
    1604:	50010e00 	andpl	r0, r1, r0, lsl #28
    1608:	001c0c05 	andseq	r0, ip, r5, lsl #24
    160c:	010e2010 	tsteq	lr, r0, lsl r0
    1610:	200c0551 	andcs	r0, ip, r1, asr r5
    1614:	005a0000 	subseq	r0, sl, r0
    1618:	0089b40c 	addeq	fp, r9, ip, lsl #8
    161c:	0001a500 	andeq	sl, r1, r0, lsl #10
    1620:	b70f0000 	strlt	r0, [pc, -r0]
    1624:	01000004 	tsteq	r0, r4
    1628:	89640617 	stmdbhi	r4!, {r0, r1, r2, r4, r9, sl}^
    162c:	00140000 	andseq	r0, r4, r0
    1630:	9c010000 	stcls	0, cr0, [r1], {-0}
    1634:	000001d0 	ldrdeq	r0, [r0], -r0	; <UNPREDICTABLE>
    1638:	0004fb0b 	andeq	pc, r4, fp, lsl #22
    163c:	0e180100 	mufeqe	f0, f0, f0
    1640:	00000031 	andeq	r0, r0, r1, lsr r0
    1644:	00000a0e 	andeq	r0, r0, lr, lsl #20
    1648:	00000a08 	andeq	r0, r0, r8, lsl #20
    164c:	04d21000 	ldrbeq	r1, [r2], #0
    1650:	0e010000 	cdpeq	0, 0, cr0, cr1, cr0, {0}
    1654:	00002505 	andeq	r2, r0, r5, lsl #10
    1658:	00894c00 	addeq	r4, r9, r0, lsl #24
    165c:	00001800 	andeq	r1, r0, r0, lsl #16
    1660:	ff9c0100 			; <UNDEFINED> instruction: 0xff9c0100
    1664:	0b000001 	bleq	1670 <__code_start__-0x6990>
    1668:	000004fb 	strdeq	r0, [r0], -fp
    166c:	310e0f01 	tstcc	lr, r1, lsl #30
    1670:	3c000000 	stccc	0, cr0, [r0], {-0}
    1674:	3800000a 	stmdacc	r0, {r1, r3}
    1678:	0000000a 	andeq	r0, r0, sl
    167c:	00045611 	andeq	r5, r4, r1, lsl r6
    1680:	00045600 	andeq	r5, r4, r0, lsl #12
    1684:	06460200 	strbeq	r0, [r6], -r0, lsl #4
    1688:	00043411 	andeq	r3, r4, r1, lsl r4
    168c:	00043400 	andeq	r3, r4, r0, lsl #8
    1690:	06510200 	ldrbeq	r0, [r1], -r0, lsl #4
    1694:	00020f11 	andeq	r0, r2, r1, lsl pc
    1698:	00020f00 	andeq	r0, r2, r0, lsl #30
    169c:	06a10200 	strteq	r0, [r1], r0, lsl #4
    16a0:	00027800 	andeq	r7, r2, r0, lsl #16
    16a4:	6f000400 	svcvs	0x00000400
    16a8:	04000009 	streq	r0, [r0], #-9
    16ac:	0000f101 	andeq	pc, r0, r1, lsl #2
    16b0:	056d0c00 	strbeq	r0, [sp, #-3072]!	; 0xfffff400
    16b4:	02e90000 	rsceq	r0, r9, #0, 0
    16b8:	89c80000 	stmibhi	r8, {}^	; <UNPREDICTABLE>
    16bc:	009c0000 	addseq	r0, ip, r0
    16c0:	0ced0000 	stcleq	0, cr0, [sp]
    16c4:	04020000 	streq	r0, [r2], #-0
    16c8:	746e6905 	strbtvc	r6, [lr], #-2309	; 0xfffff6fb
    16cc:	07040300 	streq	r0, [r4, -r0, lsl #6]
    16d0:	000000b1 	strheq	r0, [r0], -r1
    16d4:	6f060103 	svcvs	0x00060103
    16d8:	03000000 	movweq	r0, #0
    16dc:	00d80502 	sbcseq	r0, r8, r2, lsl #10
    16e0:	04030000 	streq	r0, [r3], #-0
    16e4:	0000c305 	andeq	ip, r0, r5, lsl #6
    16e8:	05080300 	streq	r0, [r8, #-768]	; 0xfffffd00
    16ec:	000000be 	strheq	r0, [r0], -lr
    16f0:	6d080103 	stfvss	f0, [r8, #-12]
    16f4:	03000000 	movweq	r0, #0
    16f8:	00940702 	addseq	r0, r4, r2, lsl #14
    16fc:	04030000 	streq	r0, [r3], #-0
    1700:	0000ac07 	andeq	sl, r0, r7, lsl #24
    1704:	07080300 	streq	r0, [r8, -r0, lsl #6]
    1708:	000000a7 	andeq	r0, r0, r7, lsr #1
    170c:	00002504 	andeq	r2, r0, r4, lsl #10
    1710:	00007a00 	andeq	r7, r0, r0, lsl #20
    1714:	00250500 	eoreq	r0, r5, r0, lsl #10
    1718:	06000000 	streq	r0, [r0], -r0
    171c:	000000cc 	andeq	r0, r0, ip, asr #1
    1720:	860e1c02 	strhi	r1, [lr], -r2, lsl #24
    1724:	07000000 	streq	r0, [r0, -r0]
    1728:	00006b04 	andeq	r6, r0, r4, lsl #22
    172c:	00250400 	eoreq	r0, r5, r0, lsl #8
    1730:	009b0000 	addseq	r0, fp, r0
    1734:	9b050000 	blls	14173c <__bss_end__+0x13839c>
    1738:	00000000 	andeq	r0, r0, r0
    173c:	00a80407 	adceq	r0, r8, r7, lsl #8
    1740:	01030000 	mrseq	r0, (UNDEF: 3)
    1744:	00007608 	andeq	r7, r0, r8, lsl #12
    1748:	00a10800 	adceq	r0, r1, r0, lsl #16
    174c:	24060000 	strcs	r0, [r6], #-0
    1750:	02000003 	andeq	r0, r0, #3, 0
    1754:	00b90e21 	adcseq	r0, r9, r1, lsr #28
    1758:	04070000 	streq	r0, [r7], #-0
    175c:	0000008c 	andeq	r0, r0, ip, lsl #1
    1760:	00053809 	andeq	r3, r5, r9, lsl #16
    1764:	062b0100 	strteq	r0, [fp], -r0, lsl #2
    1768:	00008a4c 	andeq	r8, r0, ip, asr #20
    176c:	00000018 	andeq	r0, r0, r8, lsl r0
    1770:	01099c01 	tsteq	r9, r1, lsl #24
    1774:	730a0000 	movwvc	r0, #40960	; 0xa000
    1778:	01006365 	tsteq	r0, r5, ror #6
    177c:	002c192b 	eoreq	r1, ip, fp, lsr #18
    1780:	0a5f0000 	beq	17c1788 <__bss_end__+0x17b83e8>
    1784:	0a5b0000 	beq	16c178c <__bss_end__+0x16b83ec>
    1788:	600b0000 	andvs	r0, fp, r0
    178c:	0900008a 	stmdbeq	r0, {r1, r3, r7}
    1790:	0c000001 	stceq	0, cr0, [r0], {1}
    1794:	f3115001 	vhadd.u16	d5, d1, d1
    1798:	24355001 	ldrtcs	r5, [r5], #-1
    179c:	1c5001f3 	ldfnee	f0, [r0], {243}	; 0xf3
    17a0:	01f32432 	mvnseq	r2, r2, lsr r4
    17a4:	24332250 	ldrtcs	r2, [r3], #-592	; 0xfffffdb0
    17a8:	34090000 	strcc	r0, [r9], #-0
    17ac:	01000004 	tsteq	r0, r4
    17b0:	8a340628 	bhi	d03058 <__bss_end__+0xcf9cb8>
    17b4:	00180000 	andseq	r0, r8, r0
    17b8:	9c010000 	stcls	0, cr0, [r1], {-0}
    17bc:	00000152 	andeq	r0, r0, r2, asr r1
    17c0:	00736d0a 	rsbseq	r6, r3, sl, lsl #26
    17c4:	2c182801 	ldccs	8, cr2, [r8], {1}
    17c8:	84000000 	strhi	r0, [r0], #-0
    17cc:	8000000a 	andhi	r0, r0, sl
    17d0:	0b00000a 	bleq	1800 <__code_start__-0x6800>
    17d4:	00008a48 	andeq	r8, r0, r8, asr #20
    17d8:	00000152 	andeq	r0, r0, r2, asr r1
    17dc:	1150010c 	cmpne	r0, ip, lsl #2
    17e0:	355001f3 	ldrbcc	r0, [r0, #-499]	; 0xfffffe0d
    17e4:	5001f324 	andpl	pc, r1, r4, lsr #6
    17e8:	f324321c 	vqsub.u32	d3, d4, d12
    17ec:	33225001 			; <UNDEFINED> instruction: 0x33225001
    17f0:	09000024 	stmdbeq	r0, {r2, r5}
    17f4:	00000551 	andeq	r0, r0, r1, asr r5
    17f8:	10061f01 	andne	r1, r6, r1, lsl #30
    17fc:	2400008a 	strcs	r0, [r0], #-138	; 0xffffff76
    1800:	01000000 	mrseq	r0, (UNDEF: 0)
    1804:	0001c29c 	muleq	r1, ip, r2
    1808:	73750a00 	cmnvc	r5, #0, 20
    180c:	181f0100 	ldmdane	pc, {r8}	; <UNPREDICTABLE>
    1810:	0000002c 	andeq	r0, r0, ip, lsr #32
    1814:	00000aa9 	andeq	r0, r0, r9, lsr #21
    1818:	00000aa5 	andeq	r0, r0, r5, lsr #21
    181c:	0062720d 	rsbeq	r7, r2, sp, lsl #4
    1820:	2c0e2001 	stccs	0, cr2, [lr], {1}
    1824:	c9000000 	stmdbgt	r0, {}	; <UNPREDICTABLE>
    1828:	c700000a 	strgt	r0, [r0, -sl]
    182c:	0e00000a 	cdpeq	0, 0, cr0, cr0, cr10, {0}
    1830:	00008a20 	andeq	r8, r0, r0, lsr #20
    1834:	00000014 	andeq	r0, r0, r4, lsl r0
    1838:	000001b8 			; <UNDEFINED> instruction: 0x000001b8
    183c:	0061720d 	rsbeq	r7, r1, sp, lsl #4
    1840:	2c122201 	lfmcs	f2, 4, [r2], {1}
    1844:	de000000 	cdple	0, 0, cr0, cr0, cr0, {0}
    1848:	dc00000a 	stcle	0, cr0, [r0], {10}
    184c:	0f00000a 	svceq	0x0000000a
    1850:	00008a24 	andeq	r8, r0, r4, lsr #20
    1854:	000001c2 	andeq	r0, r0, r2, asr #3
    1858:	8a1c0f00 	bhi	705460 <__bss_end__+0x6fc0c0>
    185c:	01c20000 	biceq	r0, r2, r0
    1860:	10000000 	andne	r0, r0, r0
    1864:	00000542 	andeq	r0, r0, r2, asr #10
    1868:	2c0a1601 	stccs	6, cr1, [sl], {1}
    186c:	f4000000 	vst4.8	{d0-d3}, [r0], r0
    1870:	1c000089 	stcne	0, cr0, [r0], {137}	; 0x89
    1874:	01000000 	mrseq	r0, (UNDEF: 0)
    1878:	00020a9c 	muleq	r2, ip, sl
    187c:	00750d00 	rsbseq	r0, r5, r0, lsl #26
    1880:	2c0e1a01 			; <UNDEFINED> instruction: 0x2c0e1a01
    1884:	f5000000 			; <UNDEFINED> instruction: 0xf5000000
    1888:	f100000a 	cps	#10
    188c:	0f00000a 	svceq	0x0000000a
    1890:	000089fc 	strdeq	r8, [r0], -ip
    1894:	00000263 	andeq	r0, r0, r3, ror #4
    1898:	008a000f 	addeq	r0, sl, pc
    189c:	00020a00 	andeq	r0, r2, r0, lsl #20
    18a0:	8a080f00 	bhi	2054a8 <__bss_end__+0x1fc108>
    18a4:	02630000 	rsbeq	r0, r3, #0, 0
    18a8:	10000000 	andne	r0, r0, r0
    18ac:	0000055a 	andeq	r0, r0, sl, asr r5
    18b0:	2c0a1101 	stfcss	f1, [sl], {1}
    18b4:	e0000000 	and	r0, r0, r0
    18b8:	14000089 	strne	r0, [r0], #-137	; 0xffffff77
    18bc:	01000000 	mrseq	r0, (UNDEF: 0)
    18c0:	0002389c 	muleq	r2, ip, r8
    18c4:	89ec0b00 	stmibhi	ip!, {r8, r9, fp}^
    18c8:	026f0000 	rsbeq	r0, pc, #0, 0
    18cc:	010c0000 	mrseq	r0, (UNDEF: 12)
    18d0:	040c0550 	streq	r0, [ip], #-1360	; 0xfffffab0
    18d4:	00200030 	eoreq	r0, r0, r0, lsr r0
    18d8:	05190900 	ldreq	r0, [r9, #-2304]	; 0xfffff700
    18dc:	05010000 	streq	r0, [r1, #-0]
    18e0:	0089c806 	addeq	ip, r9, r6, lsl #16
    18e4:	00001800 	andeq	r1, r0, r0, lsl #16
    18e8:	639c0100 	orrsvs	r0, ip, #0
    18ec:	11000002 	tstne	r0, r2
    18f0:	00000532 	andeq	r0, r0, r2, lsr r5
    18f4:	2c1c0501 	cfldr32cs	mvfx0, [ip], {1}
    18f8:	17000000 	strne	r0, [r0, -r0]
    18fc:	1300000b 	movwne	r0, #11
    1900:	0000000b 	andeq	r0, r0, fp
    1904:	00052612 	andeq	r2, r5, r2, lsl r6
    1908:	00052600 	andeq	r2, r5, r0, lsl #12
    190c:	06900200 	ldreq	r0, [r0], r0, lsl #4
    1910:	0001b512 	andeq	fp, r1, r2, lsl r5
    1914:	0001b500 	andeq	fp, r1, r0, lsl #10
    1918:	0aad0200 	beq	feb42120 <__bss_end__+0xfeb38d80>
    191c:	00056800 	andeq	r6, r5, r0, lsl #16
    1920:	84000400 	strhi	r0, [r0], #-1024	; 0xfffffc00
    1924:	0400000a 	streq	r0, [r0], #-10
    1928:	0000f101 	andeq	pc, r0, r1, lsl #2
    192c:	05b90c00 	ldreq	r0, [r9, #3072]!	; 0xc00
    1930:	05ce0000 	strbeq	r0, [lr]
    1934:	8a7c0000 	bhi	1f0193c <__bss_end__+0x1ef859c>
    1938:	01ac0000 			; <UNDEFINED> instruction: 0x01ac0000
    193c:	0dee0000 	stcleq	0, cr0, [lr]
    1940:	04020000 	streq	r0, [r2], #-0
    1944:	746e6905 	strbtvc	r6, [lr], #-2309	; 0xfffff6fb
    1948:	07040300 	streq	r0, [r4, -r0, lsl #6]
    194c:	000000b1 	strheq	r0, [r0], -r1
    1950:	00002c04 	andeq	r2, r0, r4, lsl #24
    1954:	06010300 	streq	r0, [r1], -r0, lsl #6
    1958:	0000006f 	andeq	r0, r0, pc, rrx
    195c:	d8050203 	stmdale	r5, {r0, r1, r9}
    1960:	03000000 	movweq	r0, #0
    1964:	00c30504 	sbceq	r0, r3, r4, lsl #10
    1968:	08030000 	stmdaeq	r3, {}	; <UNPREDICTABLE>
    196c:	0000be05 	andeq	fp, r0, r5, lsl #28
    1970:	08010300 	stmdaeq	r1, {r8, r9}
    1974:	0000006d 	andeq	r0, r0, sp, rrx
    1978:	94070203 	strls	r0, [r7], #-515	; 0xfffffdfd
    197c:	05000000 	streq	r0, [r0, #-0]
    1980:	0000023b 	andeq	r0, r0, fp, lsr r2
    1984:	6e193405 	cfmulsvs	mvf3, mvf9, mvf5
    1988:	03000000 	movweq	r0, #0
    198c:	00ac0704 	adceq	r0, ip, r4, lsl #14
    1990:	08030000 	stmdaeq	r3, {}	; <UNPREDICTABLE>
    1994:	0000a707 	andeq	sl, r0, r7, lsl #14
    1998:	00250600 	eoreq	r0, r5, r0, lsl #12
    199c:	008b0000 	addeq	r0, fp, r0
    19a0:	25070000 	strcs	r0, [r7, #-0]
    19a4:	00000000 	andeq	r0, r0, r0
    19a8:	0000cc08 	andeq	ip, r0, r8, lsl #24
    19ac:	0e1c0200 	cdpeq	2, 1, cr0, cr12, cr0, {0}
    19b0:	00000097 	muleq	r0, r7, r0
    19b4:	007c0409 	rsbseq	r0, ip, r9, lsl #8
    19b8:	25060000 	strcs	r0, [r6, #-0]
    19bc:	ac000000 	stcge	0, cr0, [r0], {-0}
    19c0:	07000000 	streq	r0, [r0, -r0]
    19c4:	000000ac 	andeq	r0, r0, ip, lsr #1
    19c8:	b9040900 	stmdblt	r4, {r8, fp}
    19cc:	03000000 	movweq	r0, #0
    19d0:	00760801 	rsbseq	r0, r6, r1, lsl #16
    19d4:	b20a0000 	andlt	r0, sl, #0, 0
    19d8:	08000000 	stmdaeq	r0, {}	; <UNPREDICTABLE>
    19dc:	00000324 	andeq	r0, r0, r4, lsr #6
    19e0:	ca0e2102 	bgt	389df0 <__bss_end__+0x380a50>
    19e4:	09000000 	stmdbeq	r0, {}	; <UNPREDICTABLE>
    19e8:	00009d04 	andeq	r9, r0, r4, lsl #26
    19ec:	01070b00 	tsteq	r7, r0, lsl #22
    19f0:	00000054 	andeq	r0, r0, r4, asr r0
    19f4:	0f0e0c04 	svceq	0x000e0c04
    19f8:	0c000001 	stceq	0, cr0, [r0], {1}
    19fc:	000006b9 			; <UNDEFINED> instruction: 0x000006b9
    1a00:	059c0c00 	ldreq	r0, [ip, #3072]	; 0xc00
    1a04:	0c010000 	stceq	0, cr0, [r1], {-0}
    1a08:	00000602 	andeq	r0, r0, r2, lsl #12
    1a0c:	06110c04 	ldreq	r0, [r1], -r4, lsl #24
    1a10:	0c050000 	stceq	0, cr0, [r5], {-0}
    1a14:	00000620 	andeq	r0, r0, r0, lsr #12
    1a18:	062f0c06 	strteq	r0, [pc], -r6, lsl #24
    1a1c:	0c070000 	stceq	0, cr0, [r7], {-0}
    1a20:	00000695 	muleq	r0, r5, r6
    1a24:	063e0c03 	ldrteq	r0, [lr], -r3, lsl #24
    1a28:	00020000 	andeq	r0, r2, r0
    1a2c:	0005ad0d 	andeq	sl, r5, sp, lsl #26
    1a30:	06032c00 	streq	r2, [r3], -r0, lsl #24
    1a34:	0001ab08 	andeq	sl, r1, r8, lsl #22
    1a38:	6f690e00 	svcvs	0x00690e00
    1a3c:	09090300 	stmdbeq	r9, {r8, r9}
    1a40:	00000033 	andeq	r0, r0, r3, lsr r0
    1a44:	65690e00 	strbvs	r0, [r9, #-3584]!	; 0xfffff200
    1a48:	0a030072 	beq	c1c18 <__bss_end__+0xb8878>
    1a4c:	00003309 	andeq	r3, r0, r9, lsl #6
    1a50:	690e0400 	stmdbvs	lr, {sl}
    1a54:	03007269 	movweq	r7, #617	; 0x269
    1a58:	00330911 	eorseq	r0, r3, r1, lsl r9
    1a5c:	0e080000 	cdpeq	0, 0, cr0, cr8, cr0, {0}
    1a60:	0072636c 	rsbseq	r6, r2, ip, ror #6
    1a64:	33091303 	movwcc	r1, #37635	; 0x9303
    1a68:	0c000000 	stceq	0, cr0, [r0], {-0}
    1a6c:	72636d0e 	rsbvc	r6, r3, #896	; 0x380
    1a70:	09140300 	ldmdbeq	r4, {r8, r9}
    1a74:	00000033 	andeq	r0, r0, r3, lsr r0
    1a78:	736c0e10 	cmnvc	ip, #16, 28	; 0x100
    1a7c:	15030072 	strne	r0, [r3, #-114]	; 0xffffff8e
    1a80:	00003309 	andeq	r3, r0, r9, lsl #6
    1a84:	6d0e1400 	cfstrsvs	mvf1, [lr, #-0]
    1a88:	03007273 	movweq	r7, #627	; 0x273
    1a8c:	00330916 	eorseq	r0, r3, r6, lsl r9
    1a90:	0f180000 	svceq	0x00180000
    1a94:	000006ac 	andeq	r0, r0, ip, lsr #13
    1a98:	33091703 	movwcc	r1, #38659	; 0x9703
    1a9c:	1c000000 	stcne	0, cr0, [r0], {-0}
    1aa0:	0006820f 	andeq	r8, r6, pc, lsl #4
    1aa4:	091b0300 	ldmdbeq	fp, {r8, r9}
    1aa8:	00000033 	andeq	r0, r0, r3, lsr r0
    1aac:	05890f20 	streq	r0, [r9, #3872]	; 0xf20
    1ab0:	1d030000 	stcne	0, cr0, [r3, #-0]
    1ab4:	00003309 	andeq	r3, r0, r9, lsl #6
    1ab8:	4d0f2400 	cfstrsmi	mvf2, [pc, #-0]	; 1ac0 <__code_start__-0x6540>
    1abc:	03000006 	movweq	r0, #6
    1ac0:	0033091e 	eorseq	r0, r3, lr, lsl r9
    1ac4:	00280000 	eoreq	r0, r8, r0
    1ac8:	00065210 	andeq	r5, r6, r0, lsl r2
    1acc:	09080100 	stmdbeq	r8, {r8}
    1ad0:	000001c1 	andeq	r0, r0, r1, asr #3
    1ad4:	20215004 	eorcs	r5, r1, r4
    1ad8:	00330409 	eorseq	r0, r3, r9, lsl #8
    1adc:	bb0a0000 	bllt	281ae4 <__bss_end__+0x278744>
    1ae0:	10000001 	andne	r0, r0, r1
    1ae4:	000006b4 			; <UNDEFINED> instruction: 0x000006b4
    1ae8:	dc232901 			; <UNDEFINED> instruction: 0xdc232901
    1aec:	40000001 	andmi	r0, r0, r1
    1af0:	09202150 	stmdbeq	r0!, {r4, r6, r8, sp}
    1af4:	00010f04 	andeq	r0, r1, r4, lsl #30
    1af8:	01d60a00 	bicseq	r0, r6, r0, lsl #20
    1afc:	56110000 	ldrpl	r0, [r1], -r0
    1b00:	01000004 	tsteq	r0, r4
    1b04:	8c1406c2 	ldchi	6, cr0, [r4], {194}	; 0xc2
    1b08:	00140000 	andseq	r0, r4, r0
    1b0c:	9c010000 	stcls	0, cr0, [r1], {-0}
    1b10:	00000201 	andeq	r0, r0, r1, lsl #4
    1b14:	008c1c12 	addeq	r1, ip, r2, lsl ip
    1b18:	00020100 	andeq	r0, r2, r0, lsl #2
    1b1c:	68130000 	ldmdavs	r3, {}	; <UNPREDICTABLE>
    1b20:	01000006 	tsteq	r0, r6
    1b24:	002505ac 	eoreq	r0, r5, ip, lsr #11
    1b28:	8bf40000 	blhi	ffd01b30 <__bss_end__+0xffcf8790>
    1b2c:	00200000 	eoreq	r0, r0, r0
    1b30:	9c010000 	stcls	0, cr0, [r1], {-0}
    1b34:	00000238 	andeq	r0, r0, r8, lsr r2
    1b38:	008bfc12 	addeq	pc, fp, r2, lsl ip	; <UNPREDICTABLE>
    1b3c:	00053b00 	andeq	r3, r5, r0, lsl #22
    1b40:	8c041400 	cfstrshi	mvf1, [r4], {-0}
    1b44:	05470000 	strbeq	r0, [r7, #-0]
    1b48:	01150000 	tsteq	r5, r0
    1b4c:	640c0550 	strvs	r0, [ip], #-1360	; 0xfffffab0
    1b50:	00202150 	eoreq	r2, r0, r0, asr r1
    1b54:	06871300 	streq	r1, [r7], r0, lsl #6
    1b58:	a9010000 	stmdbge	r1, {}	; <UNPREDICTABLE>
    1b5c:	00002505 	andeq	r2, r0, r5, lsl #10
    1b60:	008be400 	addeq	lr, fp, r0, lsl #8
    1b64:	00001000 	andeq	r1, r0, r0
    1b68:	659c0100 	ldrvs	r0, [ip, #256]	; 0x100
    1b6c:	12000002 	andne	r0, r0, #2, 0
    1b70:	00008bec 	andeq	r8, r0, ip, ror #23
    1b74:	0000053b 	andeq	r0, r0, fp, lsr r5
    1b78:	008bf012 	addeq	pc, fp, r2, lsl r0	; <UNPREDICTABLE>
    1b7c:	00035600 	andeq	r5, r3, r0, lsl #12
    1b80:	7f110000 	svcvc	0x00110000
    1b84:	01000005 	tsteq	r0, r5
    1b88:	8bb406a1 	blhi	fed03614 <__bss_end__+0xfecfa274>
    1b8c:	00300000 	eorseq	r0, r0, r0
    1b90:	9c010000 	stcls	0, cr0, [r1], {-0}
    1b94:	000002c9 	andeq	r0, r0, r9, asr #5
    1b98:	01006316 	tsteq	r0, r6, lsl r3
    1b9c:	002c19a1 	eoreq	r1, ip, r1, lsr #19
    1ba0:	0b390000 	bleq	e41ba8 <__bss_end__+0xe38808>
    1ba4:	0b350000 	bleq	d41bac <__bss_end__+0xd3880c>
    1ba8:	c0120000 	andsgt	r0, r2, r0
    1bac:	3b00008b 	blcc	1de0 <__code_start__-0x6220>
    1bb0:	12000005 	andne	r0, r0, #5, 0
    1bb4:	00008bc4 	andeq	r8, r0, r4, asr #23
    1bb8:	00000328 	andeq	r0, r0, r8, lsr #6
    1bbc:	008bd817 	addeq	sp, fp, r7, lsl r8
    1bc0:	00055300 	andeq	r5, r5, r0, lsl #6
    1bc4:	0002bf00 	andeq	fp, r2, r0, lsl #30
    1bc8:	50011500 	andpl	r1, r1, r0, lsl #10
    1bcc:	50400c05 	subpl	r0, r0, r5, lsl #24
    1bd0:	01152021 	tsteq	r5, r1, lsr #32
    1bd4:	00740551 	rsbseq	r0, r4, r1, asr r5
    1bd8:	001aff08 	andseq	pc, sl, r8, lsl #30
    1bdc:	008bdc12 	addeq	sp, fp, r2, lsl ip
    1be0:	00053b00 	andeq	r3, r5, r0, lsl #22
    1be4:	5e130000 	cdppl	0, 1, cr0, cr3, cr0, {0}
    1be8:	01000006 	tsteq	r0, r6
    1bec:	00250599 	mlaeq	r5, r9, r5, r0
    1bf0:	8b840000 	blhi	fe101bf8 <__bss_end__+0xfe0f8858>
    1bf4:	00300000 	eorseq	r0, r0, r0
    1bf8:	9c010000 	stcls	0, cr0, [r1], {-0}
    1bfc:	00000328 	andeq	r0, r0, r8, lsr #6
    1c00:	01006318 	tsteq	r0, r8, lsl r3
    1c04:	0025099d 	mlaeq	r5, sp, r9, r0
    1c08:	0b590000 	bleq	1641c10 <__bss_end__+0x1638870>
    1c0c:	0b570000 	bleq	15c1c14 <__bss_end__+0x15b8874>
    1c10:	8c120000 	ldchi	0, cr0, [r2], {-0}
    1c14:	3b00008b 	blcc	1e48 <__code_start__-0x61b8>
    1c18:	12000005 	andne	r0, r0, #5, 0
    1c1c:	00008b90 	muleq	r0, r0, fp
    1c20:	00000356 	andeq	r0, r0, r6, asr r3
    1c24:	008ba017 	addeq	sl, fp, r7, lsl r0
    1c28:	00054700 	andeq	r4, r5, r0, lsl #14
    1c2c:	00031e00 	andeq	r1, r3, r0, lsl #28
    1c30:	50011500 	andpl	r1, r1, r0, lsl #10
    1c34:	50400c05 	subpl	r0, r0, r5, lsl #24
    1c38:	12002021 	andne	r2, r0, #33, 0	; 0x21
    1c3c:	00008ba8 	andeq	r8, r0, r8, lsr #23
    1c40:	0000053b 	andeq	r0, r0, fp, lsr r5
    1c44:	05c01300 	strbeq	r1, [r0, #768]	; 0x300
    1c48:	8a010000 	bhi	41c50 <__bss_end__+0x388b0>
    1c4c:	00002505 	andeq	r2, r0, r5, lsl #10
    1c50:	008b6400 	addeq	r6, fp, r0, lsl #8
    1c54:	00002000 	andeq	r2, r0, r0
    1c58:	569c0100 	ldrpl	r0, [ip], r0, lsl #2
    1c5c:	14000003 	strne	r0, [r0], #-3
    1c60:	00008b70 	andeq	r8, r0, r0, ror fp
    1c64:	00000547 	andeq	r0, r0, r7, asr #10
    1c68:	05500115 	ldrbeq	r0, [r0, #-277]	; 0xfffffeeb
    1c6c:	2150640c 	cmpcs	r0, ip, lsl #8
    1c70:	13000020 	movwne	r0, #32
    1c74:	0000058e 	andeq	r0, r0, lr, lsl #11
    1c78:	25058101 	strcs	r8, [r5, #-257]	; 0xfffffeff
    1c7c:	4c000000 	stcmi	0, cr0, [r0], {-0}
    1c80:	1800008b 	stmdane	r0, {r0, r1, r3, r7}
    1c84:	01000000 	mrseq	r0, (UNDEF: 0)
    1c88:	0003849c 	muleq	r3, ip, r4
    1c8c:	8b581400 	blhi	1606c94 <__bss_end__+0x15fd8f4>
    1c90:	05470000 	strbeq	r0, [r7, #-0]
    1c94:	01150000 	tsteq	r5, r0
    1c98:	640c0550 	strvs	r0, [ip], #-1360	; 0xfffffab0
    1c9c:	00202150 	eoreq	r2, r0, r0, asr r1
    1ca0:	00631100 	rsbeq	r1, r3, r0, lsl #2
    1ca4:	3b010000 	blcc	41cac <__bss_end__+0x3890c>
    1ca8:	008a9c06 	addeq	r9, sl, r6, lsl #24
    1cac:	0000b000 	andeq	fp, r0, r0
    1cb0:	d19c0100 	orrsle	r0, ip, r0, lsl #2
    1cb4:	19000004 	stmdbne	r0, {r2}
    1cb8:	00000679 	andeq	r0, r0, r9, ror r6
    1cbc:	620e7401 	andvs	r7, lr, #16777216	; 0x1000000
    1cc0:	0e000000 	cdpeq	0, 0, cr0, cr0, cr0, {0}
    1cc4:	8aac1701 	bhi	feb078d0 <__bss_end__+0xfeafe530>
    1cc8:	055f0000 	ldrbeq	r0, [pc, #-0]	; 1cd0 <__code_start__-0x6330>
    1ccc:	03c00000 	biceq	r0, r0, #0, 0
    1cd0:	01150000 	tsteq	r5, r0
    1cd4:	153e0150 	ldrne	r0, [lr, #-336]!	; 0xfffffeb0
    1cd8:	32015101 	andcc	r5, r1, #1073741824	; 0x40000000
    1cdc:	8ab81700 	bhi	fee078e4 <__bss_end__+0xfedfe544>
    1ce0:	055f0000 	ldrbeq	r0, [pc, #-0]	; 1ce8 <__code_start__-0x6318>
    1ce4:	03d80000 	bicseq	r0, r8, #0, 0
    1ce8:	01150000 	tsteq	r5, r0
    1cec:	153f0150 	ldrne	r0, [pc, #-336]!	; 1ba4 <__code_start__-0x645c>
    1cf0:	32015101 	andcc	r5, r1, #1073741824	; 0x40000000
    1cf4:	8abc1200 	bhi	fef064fc <__bss_end__+0xfeefd15c>
    1cf8:	053b0000 	ldreq	r0, [fp, #-0]!
    1cfc:	c8170000 	ldmdagt	r7, {}	; <UNPREDICTABLE>
    1d00:	d100008a 	smlabble	r0, sl, r0, r0
    1d04:	fd000004 	stc2	0, cr0, [r0, #-16]
    1d08:	15000003 	strne	r0, [r0, #-3]
    1d0c:	0c055001 	stceq	0, cr5, [r5], {1}
    1d10:	20215004 	eorcs	r5, r1, r4
    1d14:	01510115 	cmpeq	r1, r5, lsl r1
    1d18:	cc120031 	ldcgt	0, cr0, [r2], {49}	; 0x31
    1d1c:	3b00008a 	blcc	1f4c <__code_start__-0x60b4>
    1d20:	17000005 	strne	r0, [r0, -r5]
    1d24:	00008adc 	ldrdeq	r8, [r0], -ip
    1d28:	00000553 	andeq	r0, r0, r3, asr r5
    1d2c:	0000041f 	andeq	r0, r0, pc, lsl r4
    1d30:	02500115 	subseq	r0, r0, #1073741829	; 0x40000005
    1d34:	01150074 	tsteq	r5, r4, ror r0
    1d38:	00300151 	eorseq	r0, r0, r1, asr r1
    1d3c:	008ae817 	addeq	lr, sl, r7, lsl r8
    1d40:	00055300 	andeq	r5, r5, r0, lsl #6
    1d44:	00043b00 	andeq	r3, r4, r0, lsl #22
    1d48:	50011500 	andpl	r1, r1, r0, lsl #10
    1d4c:	50440c05 	subpl	r0, r4, r5, lsl #24
    1d50:	01152021 	tsteq	r5, r1, lsr #32
    1d54:	00300151 	eorseq	r0, r0, r1, asr r1
    1d58:	008af417 	addeq	pc, sl, r7, lsl r4	; <UNPREDICTABLE>
    1d5c:	00055300 	andeq	r5, r5, r0, lsl #6
    1d60:	00045700 	andeq	r5, r4, r0, lsl #14
    1d64:	50011500 	andpl	r1, r1, r0, lsl #10
    1d68:	504c0c05 	subpl	r0, ip, r5, lsl #24
    1d6c:	01152021 	tsteq	r5, r1, lsr #32
    1d70:	00330151 	eorseq	r0, r3, r1, asr r1
    1d74:	008b0017 	addeq	r0, fp, r7, lsl r0
    1d78:	00055300 	andeq	r5, r5, r0, lsl #6
    1d7c:	00047300 	andeq	r7, r4, r0, lsl #6
    1d80:	50011500 	andpl	r1, r1, r0, lsl #10
    1d84:	50500c05 	subspl	r0, r0, r5, lsl #24
    1d88:	01152021 	tsteq	r5, r1, lsr #32
    1d8c:	00300151 	eorseq	r0, r0, r1, asr r1
    1d90:	008b0c17 	addeq	r0, fp, r7, lsl ip
    1d94:	00055300 	andeq	r5, r5, r0, lsl #6
    1d98:	00049000 	andeq	r9, r4, r0
    1d9c:	50011500 	andpl	r1, r1, r0, lsl #10
    1da0:	50480c05 	subpl	r0, r8, r5, lsl #24
    1da4:	01152021 	tsteq	r5, r1, lsr #32
    1da8:	c7080251 	smlsdgt	r8, r1, r2, r0
    1dac:	8b181700 	blhi	6079b4 <__bss_end__+0x5fe614>
    1db0:	05530000 	ldrbeq	r0, [r3, #-0]
    1db4:	04ae0000 	strteq	r0, [lr], #0
    1db8:	01150000 	tsteq	r5, r0
    1dbc:	680c0550 	stmdavs	ip, {r4, r6, r8, sl}
    1dc0:	15202150 	strne	r2, [r0, #-336]!	; 0xfffffeb0
    1dc4:	0a035101 	beq	d61d0 <__bss_end__+0xcce30>
    1dc8:	1700010e 	strne	r0, [r0, -lr, lsl #2]
    1dcc:	00008b24 	andeq	r8, r0, r4, lsr #22
    1dd0:	00000553 	andeq	r0, r0, r3, asr r5
    1dd4:	000004c7 	andeq	r0, r0, r7, asr #9
    1dd8:	02500115 	subseq	r0, r0, #1073741829	; 0x40000005
    1ddc:	01150074 	tsteq	r5, r4, ror r0
    1de0:	00330151 	eorseq	r0, r3, r1, asr r1
    1de4:	008b2812 	addeq	r2, fp, r2, lsl r8
    1de8:	00053b00 	andeq	r3, r5, r0, lsl #22
    1dec:	a41a0000 	ldrge	r0, [sl], #-0
    1df0:	01000006 	tsteq	r0, r6
    1df4:	8a7c0d2e 	bhi	1f052b4 <__bss_end__+0x1efbf14>
    1df8:	00200000 	eoreq	r0, r0, r0
    1dfc:	9c010000 	stcls	0, cr0, [r1], {-0}
    1e00:	00000534 	andeq	r0, r0, r4, lsr r5
    1e04:	0001ed1b 	andeq	lr, r1, fp, lsl sp
    1e08:	242e0100 	strtcs	r0, [lr], #-256	; 0xffffff00
    1e0c:	00000534 	andeq	r0, r0, r4, lsr r5
    1e10:	00000b70 	andeq	r0, r0, r0, ror fp
    1e14:	00000b6c 	andeq	r0, r0, ip, ror #22
    1e18:	6c617616 	stclvs	6, cr7, [r1], #-88	; 0xffffffa8
    1e1c:	332e0100 			; <UNDEFINED> instruction: 0x332e0100
    1e20:	0000002c 	andeq	r0, r0, ip, lsr #32
    1e24:	00000b92 	muleq	r0, r2, fp
    1e28:	00000b8e 	andeq	r0, r0, lr, lsl #23
    1e2c:	008a8c17 	addeq	r8, sl, r7, lsl ip
    1e30:	00054700 	andeq	r4, r5, r0, lsl #14
    1e34:	00052300 	andeq	r2, r5, r0, lsl #6
    1e38:	50011500 	andpl	r1, r1, r0, lsl #10
    1e3c:	00007402 	andeq	r7, r0, r2, lsl #8
    1e40:	008a9814 	addeq	r9, sl, r4, lsl r8
    1e44:	00055300 	andeq	r5, r5, r0, lsl #6
    1e48:	50011500 	andpl	r1, r1, r0, lsl #10
    1e4c:	00007402 	andeq	r7, r0, r2, lsl #8
    1e50:	3a040900 	bcc	104258 <__bss_end__+0xfaeb8>
    1e54:	1c000005 	stcne	0, cr0, [r0], {5}
    1e58:	0005261d 	andeq	r2, r5, sp, lsl r6
    1e5c:	00052600 	andeq	r2, r5, r0, lsl #12
    1e60:	06900200 	ldreq	r0, [r0], r0, lsl #4
    1e64:	0001c61d 	andeq	ip, r1, sp, lsl r6
    1e68:	0001c600 	andeq	ip, r1, r0, lsl #12
    1e6c:	0bae0200 	bleq	feb82674 <__bss_end__+0xfeb792d4>
    1e70:	0001d11d 	andeq	sp, r1, sp, lsl r1
    1e74:	0001d100 	andeq	sp, r1, r0, lsl #2
    1e78:	06a20200 	strteq	r0, [r2], r0, lsl #4
    1e7c:	0006c91d 	andeq	ip, r6, sp, lsl r9
    1e80:	0006c900 	andeq	ip, r6, r0, lsl #18
    1e84:	06190400 	ldreq	r0, [r9], -r0, lsl #8
    1e88:	0003bb00 	andeq	fp, r3, r0, lsl #22
    1e8c:	41000400 	tstmi	r0, r0, lsl #8
    1e90:	0400000c 	streq	r0, [r0], #-12
    1e94:	0000f101 	andeq	pc, r0, r1, lsl #2
    1e98:	075b0c00 	ldrbeq	r0, [fp, -r0, lsl #24]
    1e9c:	02e90000 	rsceq	r0, r9, #0, 0
    1ea0:	8c280000 	stchi	0, cr0, [r8], #-0
    1ea4:	00e80000 	rsceq	r0, r8, r0
    1ea8:	0fa70000 	svceq	0x00a70000
    1eac:	04020000 	streq	r0, [r2], #-0
    1eb0:	746e6905 	strbtvc	r6, [lr], #-2309	; 0xfffff6fb
    1eb4:	07040300 	streq	r0, [r4, -r0, lsl #6]
    1eb8:	000000b1 	strheq	r0, [r0], -r1
    1ebc:	00002c04 	andeq	r2, r0, r4, lsl #24
    1ec0:	06010300 	streq	r0, [r1], -r0, lsl #6
    1ec4:	0000006f 	andeq	r0, r0, pc, rrx
    1ec8:	d8050203 	stmdale	r5, {r0, r1, r9}
    1ecc:	03000000 	movweq	r0, #0
    1ed0:	00c30504 	sbceq	r0, r3, r4, lsl #10
    1ed4:	08030000 	stmdaeq	r3, {}	; <UNPREDICTABLE>
    1ed8:	0000be05 	andeq	fp, r0, r5, lsl #28
    1edc:	08010300 	stmdaeq	r1, {r8, r9}
    1ee0:	0000006d 	andeq	r0, r0, sp, rrx
    1ee4:	94070203 	strls	r0, [r7], #-515	; 0xfffffdfd
    1ee8:	05000000 	streq	r0, [r0, #-0]
    1eec:	0000023b 	andeq	r0, r0, fp, lsr r2
    1ef0:	6e193403 	cfmulsvs	mvf3, mvf9, mvf3
    1ef4:	03000000 	movweq	r0, #0
    1ef8:	00ac0704 	adceq	r0, ip, r4, lsl #14
    1efc:	08030000 	stmdaeq	r3, {}	; <UNPREDICTABLE>
    1f00:	0000a707 	andeq	sl, r0, r7, lsl #14
    1f04:	00250600 	eoreq	r0, r5, r0, lsl #12
    1f08:	008b0000 	addeq	r0, fp, r0
    1f0c:	25070000 	strcs	r0, [r7, #-0]
    1f10:	00000000 	andeq	r0, r0, r0
    1f14:	0000cc08 	andeq	ip, r0, r8, lsl #24
    1f18:	0e1c0200 	cdpeq	2, 1, cr0, cr12, cr0, {0}
    1f1c:	00000097 	muleq	r0, r7, r0
    1f20:	007c0409 	rsbseq	r0, ip, r9, lsl #8
    1f24:	25060000 	strcs	r0, [r6, #-0]
    1f28:	ac000000 	stcge	0, cr0, [r0], {-0}
    1f2c:	07000000 	streq	r0, [r0, -r0]
    1f30:	000000ac 	andeq	r0, r0, ip, lsr #1
    1f34:	b9040900 	stmdblt	r4, {r8, fp}
    1f38:	03000000 	movweq	r0, #0
    1f3c:	00760801 	rsbseq	r0, r6, r1, lsl #16
    1f40:	b2040000 	andlt	r0, r4, #0, 0
    1f44:	08000000 	stmdaeq	r0, {}	; <UNPREDICTABLE>
    1f48:	00000324 	andeq	r0, r0, r4, lsr #6
    1f4c:	ca0e2102 	bgt	38a35c <__bss_end__+0x380fbc>
    1f50:	09000000 	stmdbeq	r0, {}	; <UNPREDICTABLE>
    1f54:	00009d04 	andeq	r9, r0, r4, lsl #26
    1f58:	01070a00 	tsteq	r7, r0, lsl #20
    1f5c:	00000054 	andeq	r0, r0, r4, asr r0
    1f60:	0f0e0c04 	svceq	0x000e0c04
    1f64:	0b000001 	bleq	1f70 <__code_start__-0x6090>
    1f68:	000006b9 			; <UNDEFINED> instruction: 0x000006b9
    1f6c:	059c0b00 	ldreq	r0, [ip, #2816]	; 0xb00
    1f70:	0b010000 	bleq	41f78 <__bss_end__+0x38bd8>
    1f74:	00000602 	andeq	r0, r0, r2, lsl #12
    1f78:	06110b04 	ldreq	r0, [r1], -r4, lsl #22
    1f7c:	0b050000 	bleq	141f84 <__bss_end__+0x138be4>
    1f80:	00000620 	andeq	r0, r0, r0, lsr #12
    1f84:	062f0b06 	strteq	r0, [pc], -r6, lsl #22
    1f88:	0b070000 	bleq	1c1f90 <__bss_end__+0x1b8bf0>
    1f8c:	00000695 	muleq	r0, r5, r6
    1f90:	063e0b03 	ldrteq	r0, [lr], -r3, lsl #22
    1f94:	00020000 	andeq	r0, r2, r0
    1f98:	00073305 	andeq	r3, r7, r5, lsl #6
    1f9c:	03150400 	tsteq	r5, #0, 8
    1fa0:	000000d0 	ldrdeq	r0, [r0], -r0	; <UNPREDICTABLE>
    1fa4:	0007510c 	andeq	r5, r7, ip, lsl #2
    1fa8:	170e0100 	strne	r0, [lr, -r0, lsl #2]
    1fac:	00000033 	andeq	r0, r0, r3, lsr r0
    1fb0:	20200000 	eorcs	r0, r0, r0
    1fb4:	0006eb0c 	andeq	lr, r6, ip, lsl #22
    1fb8:	170f0100 	strne	r0, [pc, -r0, lsl #2]
    1fbc:	00000033 	andeq	r0, r0, r3, lsr r0
    1fc0:	2020001c 	eorcs	r0, r0, ip, lsl r0
    1fc4:	0006db0c 	andeq	sp, r6, ip, lsl #22
    1fc8:	17100100 	ldrne	r0, [r0, -r0, lsl #2]
    1fcc:	00000033 	andeq	r0, r0, r3, lsr r0
    1fd0:	20200028 	eorcs	r0, r0, r8, lsr #32
    1fd4:	0007470c 	andeq	r4, r7, ip, lsl #14
    1fd8:	17110100 	ldrne	r0, [r1, -r0, lsl #2]
    1fdc:	00000033 	andeq	r0, r0, r3, lsr r0
    1fe0:	20200034 	eorcs	r0, r0, r4, lsr r0
    1fe4:	0006fd0d 	andeq	pc, r6, sp, lsl #26
    1fe8:	05430100 	strbeq	r0, [r3, #-256]	; 0xffffff00
    1fec:	00000025 	andeq	r0, r0, r5, lsr #32
    1ff0:	00008cf0 	strdeq	r8, [r0], -r0
    1ff4:	00000020 	andeq	r0, r0, r0, lsr #32
    1ff8:	019d9c01 	orrseq	r9, sp, r1, lsl #24
    1ffc:	700e0000 	andvc	r0, lr, r0
    2000:	01006e69 	tsteq	r0, r9, ror #28
    2004:	002c1843 	eoreq	r1, ip, r3, asr #16
    2008:	0bb40000 	bleq	fed02010 <__bss_end__+0xfecf8c70>
    200c:	0bb00000 	bleq	fec02014 <__bss_end__+0xfebf8c74>
    2010:	000f0000 	andeq	r0, pc, r0
    2014:	a600008d 	strge	r0, [r0], -sp, lsl #1
    2018:	10000003 	andne	r0, r0, r3
    201c:	0c055001 	stceq	0, cr5, [r5], {1}
    2020:	20200034 	eorcs	r0, r0, r4, lsr r0
    2024:	07110000 	ldreq	r0, [r1, -r0]
    2028:	01000007 	tsteq	r0, r7
    202c:	8ce0063e 	stclhi	6, cr0, [r0], #248	; 0xf8
    2030:	00100000 	andseq	r0, r0, r0
    2034:	9c010000 	stcls	0, cr0, [r1], {-0}
    2038:	000001de 	ldrdeq	r0, [r0], -lr
    203c:	6e69700e 	cdpvs	0, 6, cr7, cr9, cr14, {0}
    2040:	1e3e0100 	rsfnee	f0, f6, f0
    2044:	0000002c 	andeq	r0, r0, ip, lsr #32
    2048:	00000bd6 	ldrdeq	r0, [r0], -r6
    204c:	00000bd2 	ldrdeq	r0, [r0], -r2
    2050:	008cec0f 	addeq	lr, ip, pc, lsl #24
    2054:	00030800 	andeq	r0, r3, r0, lsl #16
    2058:	50011000 	andpl	r1, r1, r0
    205c:	5001f303 	andpl	pc, r1, r3, lsl #6
    2060:	01510110 	cmpeq	r1, r0, lsl r1
    2064:	11000030 	tstne	r0, r0, lsr r0
    2068:	0000000b 	andeq	r0, r0, fp
    206c:	c4063201 	strgt	r3, [r6], #-513	; 0xfffffdff
    2070:	1c00008c 	stcne	0, cr0, [r0], {140}	; 0x8c
    2074:	01000000 	mrseq	r0, (UNDEF: 0)
    2078:	0002399c 	muleq	r2, ip, r9
    207c:	69700e00 	ldmdbvs	r0!, {r9, sl, fp}^
    2080:	3201006e 	andcc	r0, r1, #110, 0	; 0x6e
    2084:	00002c1a 	andeq	r2, r0, sl, lsl ip
    2088:	000bff00 	andeq	pc, fp, r0, lsl #30
    208c:	000bf700 	andeq	pc, fp, r0, lsl #14
    2090:	00760e00 	rsbseq	r0, r6, r0, lsl #28
    2094:	2c283201 	sfmcs	f3, 4, [r8], #-4
    2098:	41000000 	mrsmi	r0, (UNDEF: 0)
    209c:	3900000c 	stmdbcc	r0, {r2, r3}
    20a0:	1200000c 	andne	r0, r0, #12, 0
    20a4:	00008cd4 	ldrdeq	r8, [r0], -r4
    20a8:	00000280 	andeq	r0, r0, r0, lsl #5
    20ac:	0000022f 	andeq	r0, r0, pc, lsr #4
    20b0:	03500110 	cmpeq	r0, #4
    20b4:	005001f3 	ldrsheq	r0, [r0], #-19	; 0xffffffed
    20b8:	008cdc13 	addeq	sp, ip, r3, lsl ip
    20bc:	00023900 	andeq	r3, r2, r0, lsl #18
    20c0:	16110000 	ldrne	r0, [r1], -r0
    20c4:	01000007 	tsteq	r0, r7
    20c8:	8ca8062d 	stchi	6, cr0, [r8], #180	; 0xb4
    20cc:	001c0000 	andseq	r0, ip, r0
    20d0:	9c010000 	stcls	0, cr0, [r1], {-0}
    20d4:	00000280 	andeq	r0, r0, r0, lsl #5
    20d8:	6e69700e 	cdpvs	0, 6, cr7, cr9, cr14, {0}
    20dc:	1c2d0100 	stfnes	f0, [sp], #-0
    20e0:	0000002c 	andeq	r0, r0, ip, lsr #32
    20e4:	00000c7f 	andeq	r0, r0, pc, ror ip
    20e8:	00000c7b 	andeq	r0, r0, fp, ror ip
    20ec:	008cbc0f 	addeq	fp, ip, pc, lsl #24
    20f0:	0003b200 	andeq	fp, r3, r0, lsl #4
    20f4:	50011000 	andpl	r1, r1, r0
    20f8:	00280c05 	eoreq	r0, r8, r5, lsl #24
    20fc:	01102020 	tsteq	r0, r0, lsr #32
    2100:	f3310551 	vqrshl.u64	q0, <illegal reg q0.5>, <illegal reg q0.5>
    2104:	00245001 	eoreq	r5, r4, r1
    2108:	07661100 	strbeq	r1, [r6, -r0, lsl #2]!
    210c:	28010000 	stmdacs	r1, {}	; <UNPREDICTABLE>
    2110:	008c8c06 	addeq	r8, ip, r6, lsl #24
    2114:	00001c00 	andeq	r1, r0, r0, lsl #24
    2118:	c79c0100 	ldrgt	r0, [ip, r0, lsl #2]
    211c:	0e000002 	cdpeq	0, 0, cr0, cr0, cr2, {0}
    2120:	006e6970 	rsbeq	r6, lr, r0, ror r9
    2124:	2c1b2801 	ldccs	8, cr2, [fp], {1}
    2128:	a4000000 	strge	r0, [r0], #-0
    212c:	a000000c 	andge	r0, r0, ip
    2130:	0f00000c 	svceq	0x0000000c
    2134:	00008ca0 	andeq	r8, r0, r0, lsr #25
    2138:	000003b2 			; <UNDEFINED> instruction: 0x000003b2
    213c:	05500110 	ldrbeq	r0, [r0, #-272]	; 0xfffffef0
    2140:	20001c0c 	andcs	r1, r0, ip, lsl #24
    2144:	51011020 	tstpl	r1, r0, lsr #32
    2148:	01f33105 	mvnseq	r3, r5, lsl #2
    214c:	00002450 	andeq	r2, r0, r0, asr r4
    2150:	00072311 	andeq	r2, r7, r1, lsl r3
    2154:	06230100 	strteq	r0, [r3], -r0, lsl #2
    2158:	00008c7c 	andeq	r8, r0, ip, ror ip
    215c:	00000010 	andeq	r0, r0, r0, lsl r0
    2160:	03089c01 	movweq	r9, #35841	; 0x8c01
    2164:	700e0000 	andvc	r0, lr, r0
    2168:	01006e69 	tsteq	r0, r9, ror #28
    216c:	002c1f23 	eoreq	r1, ip, r3, lsr #30
    2170:	0cc90000 	stcleq	0, cr0, [r9], {0}
    2174:	0cc50000 	stcleq	0, cr0, [r5], {0}
    2178:	880f0000 	stmdahi	pc, {}	; <UNPREDICTABLE>
    217c:	0800008c 	stmdaeq	r0, {r2, r3, r7}
    2180:	10000003 	andne	r0, r0, r3
    2184:	f3035001 	vhadd.u8	d5, d3, d1
    2188:	01105001 	tsteq	r0, r1
    218c:	00310151 	eorseq	r0, r1, r1, asr r1
    2190:	06c91100 	strbeq	r1, [r9], r0, lsl #2
    2194:	14010000 	strne	r0, [r1], #-0
    2198:	008c2806 	addeq	r2, ip, r6, lsl #16
    219c:	00005400 	andeq	r5, r0, r0, lsl #8
    21a0:	a69c0100 	ldrge	r0, [ip], r0, lsl #2
    21a4:	0e000003 	cdpeq	0, 0, cr0, cr0, cr3, {0}
    21a8:	006e6970 	rsbeq	r6, lr, r0, ror r9
    21ac:	2c211401 	cfstrscs	mvf1, [r1], #-4
    21b0:	ee000000 	cdp	0, 0, cr0, cr0, cr0, {0}
    21b4:	ea00000c 	b	21ec <__code_start__-0x5e14>
    21b8:	0e00000c 	cdpeq	0, 0, cr0, cr0, cr12, {0}
    21bc:	01007666 	tsteq	r0, r6, ror #12
    21c0:	010f3214 	tsteq	pc, r4, lsl r2	; <UNPREDICTABLE>
    21c4:	0d100000 	ldceq	0, cr0, [r0, #-0]
    21c8:	0d0c0000 	stceq	0, cr0, [ip, #-0]
    21cc:	3f140000 	svccc	0x00140000
    21d0:	01000007 	tsteq	r0, r7
    21d4:	00620e15 	rsbeq	r0, r2, r5, lsl lr
    21d8:	0d330000 	ldceq	0, cr0, [r3, #-0]
    21dc:	0d310000 	ldceq	0, cr0, [r1, #-0]
    21e0:	f5140000 			; <UNDEFINED> instruction: 0xf5140000
    21e4:	01000006 	tsteq	r0, r6
    21e8:	00620e16 	rsbeq	r0, r2, r6, lsl lr
    21ec:	0d480000 	stcleq	0, cr0, [r8, #-0]
    21f0:	0d460000 	stcleq	0, cr0, [r6, #-0]
    21f4:	e5140000 	ldr	r0, [r4, #-0]
    21f8:	01000006 	tsteq	r0, r6
    21fc:	00620e17 	rsbeq	r0, r2, r7, lsl lr
    2200:	0d5d0000 	ldcleq	0, cr0, [sp, #-0]
    2204:	0d5b0000 	ldcleq	0, cr0, [fp, #-0]
    2208:	54120000 	ldrpl	r0, [r2], #-0
    220c:	a600008c 	strge	r0, [r0], -ip, lsl #1
    2210:	95000003 	strls	r0, [r0, #-3]
    2214:	10000003 	andne	r0, r0, r3
    2218:	77025001 	strvc	r5, [r2, -r1]
    221c:	740f0000 	strvc	r0, [pc], #-0	; 2224 <__code_start__-0x5ddc>
    2220:	b200008c 	andlt	r0, r0, #140, 0	; 0x8c
    2224:	10000003 	andne	r0, r0, r3
    2228:	77025001 	strvc	r5, [r2, -r1]
    222c:	15000000 	strne	r0, [r0, #-0]
    2230:	000001b5 			; <UNDEFINED> instruction: 0x000001b5
    2234:	000001b5 			; <UNDEFINED> instruction: 0x000001b5
    2238:	150aad02 	strne	sl, [sl, #-3330]	; 0xfffff2fe
    223c:	0000020f 	andeq	r0, r0, pc, lsl #4
    2240:	0000020f 	andeq	r0, r0, pc, lsl #4
    2244:	0006a102 	andeq	sl, r6, r2, lsl #2
    2248:	00000149 	andeq	r0, r0, r9, asr #2
    224c:	0d800004 	stceq	0, cr0, [r0, #16]
    2250:	01040000 	mrseq	r0, (UNDEF: 4)
    2254:	000000f1 	strdeq	r0, [r0], -r1
    2258:	0007900c 	andeq	r9, r7, ip
    225c:	0002e900 	andeq	lr, r2, r0, lsl #18
    2260:	008d1000 	addeq	r1, sp, r0
    2264:	00003c00 	andeq	r3, r0, r0, lsl #24
    2268:	00113400 	andseq	r3, r1, r0, lsl #8
    226c:	05040200 	streq	r0, [r4, #-512]	; 0xfffffe00
    2270:	00746e69 	rsbseq	r6, r4, r9, ror #28
    2274:	b1070403 	tstlt	r7, r3, lsl #8
    2278:	03000000 	movweq	r0, #0
    227c:	006f0601 	rsbeq	r0, pc, r1, lsl #12
    2280:	02030000 	andeq	r0, r3, #0, 0
    2284:	0000d805 	andeq	sp, r0, r5, lsl #16
    2288:	05040300 	streq	r0, [r4, #-768]	; 0xfffffd00
    228c:	000000c3 	andeq	r0, r0, r3, asr #1
    2290:	be050803 	cdplt	8, 0, cr0, cr5, cr3, {0}
    2294:	03000000 	movweq	r0, #0
    2298:	006d0801 	rsbeq	r0, sp, r1, lsl #16
    229c:	02030000 	andeq	r0, r3, #0, 0
    22a0:	00009407 	andeq	r9, r0, r7, lsl #8
    22a4:	07040300 	streq	r0, [r4, -r0, lsl #6]
    22a8:	000000ac 	andeq	r0, r0, ip, lsr #1
    22ac:	a7070803 	strge	r0, [r7, -r3, lsl #16]
    22b0:	04000000 	streq	r0, [r0], #-0
    22b4:	00000025 	andeq	r0, r0, r5, lsr #32
    22b8:	0000007a 	andeq	r0, r0, sl, ror r0
    22bc:	00002505 	andeq	r2, r0, r5, lsl #10
    22c0:	cc060000 	stcgt	0, cr0, [r6], {-0}
    22c4:	02000000 	andeq	r0, r0, #0, 0
    22c8:	00860e1c 	addeq	r0, r6, ip, lsl lr
    22cc:	04070000 	streq	r0, [r7], #-0
    22d0:	0000006b 	andeq	r0, r0, fp, rrx
    22d4:	00002504 	andeq	r2, r0, r4, lsl #10
    22d8:	00009b00 	andeq	r9, r0, r0, lsl #22
    22dc:	009b0500 	addseq	r0, fp, r0, lsl #10
    22e0:	07000000 	streq	r0, [r0, -r0]
    22e4:	0000a804 	andeq	sl, r0, r4, lsl #16
    22e8:	08010300 	stmdaeq	r1, {r8, r9}
    22ec:	00000076 	andeq	r0, r0, r6, ror r0
    22f0:	0000a108 	andeq	sl, r0, r8, lsl #2
    22f4:	03240600 			; <UNDEFINED> instruction: 0x03240600
    22f8:	21020000 	mrscs	r0, (UNDEF: 2)
    22fc:	0000b90e 	andeq	fp, r0, lr, lsl #18
    2300:	8c040700 	stchi	7, cr0, [r4], {-0}
    2304:	09000000 	stmdbeq	r0, {}	; <UNPREDICTABLE>
    2308:	0000007a 	andeq	r0, r0, sl, ror r0
    230c:	05070601 	streq	r0, [r7, #-1537]	; 0xfffff9ff
    2310:	008f9003 	addeq	r9, pc, r3
    2314:	07830a00 	streq	r0, [r3, r0, lsl #20]
    2318:	0b010000 	bleq	42320 <__bss_end__+0x38f80>
    231c:	008d3c06 	addeq	r3, sp, r6, lsl #24
    2320:	00001000 	andeq	r1, r0, r0
    2324:	f19c0100 			; <UNDEFINED> instruction: 0xf19c0100
    2328:	0b000000 	bleq	2330 <__code_start__-0x5cd0>
    232c:	01007066 	tsteq	r0, r6, rrx
    2330:	0086190b 	addeq	r1, r6, fp, lsl #18
    2334:	50010000 	andpl	r0, r1, r0
    2338:	079f0c00 	ldreq	r0, [pc, r0, lsl #24]
    233c:	08010000 	stmdaeq	r1, {}	; <UNPREDICTABLE>
    2340:	008d2406 	addeq	r2, sp, r6, lsl #8
    2344:	00001800 	andeq	r1, r0, r0, lsl #16
    2348:	0d9c0100 	ldfeqs	f0, [ip]
    234c:	00000772 	andeq	r0, r0, r2, ror r7
    2350:	250c0301 	strcs	r0, [ip, #-769]	; 0xfffffcff
    2354:	10000000 	andne	r0, r0, r0
    2358:	1400008d 	strne	r0, [r0], #-141	; 0xffffff73
    235c:	01000000 	mrseq	r0, (UNDEF: 0)
    2360:	0001409c 	muleq	r1, ip, r0
    2364:	00630e00 	rsbeq	r0, r3, r0, lsl #28
    2368:	25210301 	strcs	r0, [r1, #-769]!	; 0xfffffcff
    236c:	74000000 	strvc	r0, [r0], #-0
    2370:	7000000d 	andvc	r0, r0, sp
    2374:	0f00000d 	svceq	0x0000000d
    2378:	00008d1c 	andeq	r8, r0, ip, lsl sp
    237c:	00000140 	andeq	r0, r0, r0, asr #2
    2380:	02500110 	subseq	r0, r0, #4
    2384:	00000074 	andeq	r0, r0, r4, ror r0
    2388:	00057f11 	andeq	r7, r5, r1, lsl pc
    238c:	00057f00 	andeq	r7, r5, r0, lsl #30
    2390:	063b0200 	ldrteq	r0, [fp], -r0, lsl #4
    2394:	00013700 	andeq	r3, r1, r0, lsl #14
    2398:	8f000400 	svchi	0x00000400
    239c:	0400000e 	streq	r0, [r0], #-14
    23a0:	0000f101 	andeq	pc, r0, r1, lsl #2
    23a4:	07ae0c00 	streq	r0, [lr, r0, lsl #24]!
    23a8:	02e90000 	rsceq	r0, r9, #0, 0
    23ac:	8d4c0000 	stclhi	0, cr0, [ip, #-0]
    23b0:	00340000 	eorseq	r0, r4, r0
    23b4:	11de0000 	bicsne	r0, lr, r0
    23b8:	04020000 	streq	r0, [r2], #-0
    23bc:	746e6905 	strbtvc	r6, [lr], #-2309	; 0xfffff6fb
    23c0:	07040300 	streq	r0, [r4, -r0, lsl #6]
    23c4:	000000b1 	strheq	r0, [r0], -r1
    23c8:	6f060103 	svcvs	0x00060103
    23cc:	03000000 	movweq	r0, #0
    23d0:	00d80502 	sbcseq	r0, r8, r2, lsl #10
    23d4:	04030000 	streq	r0, [r3], #-0
    23d8:	0000c305 	andeq	ip, r0, r5, lsl #6
    23dc:	05080300 	streq	r0, [r8, #-768]	; 0xfffffd00
    23e0:	000000be 	strheq	r0, [r0], -lr
    23e4:	6d080103 	stfvss	f0, [r8, #-12]
    23e8:	03000000 	movweq	r0, #0
    23ec:	00940702 	addseq	r0, r4, r2, lsl #14
    23f0:	04030000 	streq	r0, [r3], #-0
    23f4:	0000ac07 	andeq	sl, r0, r7, lsl #24
    23f8:	07080300 	streq	r0, [r8, -r0, lsl #6]
    23fc:	000000a7 	andeq	r0, r0, r7, lsr #1
    2400:	00002504 	andeq	r2, r0, r4, lsl #10
    2404:	00007a00 	andeq	r7, r0, r0, lsl #20
    2408:	00250500 	eoreq	r0, r5, r0, lsl #10
    240c:	06000000 	streq	r0, [r0], -r0
    2410:	000000cc 	andeq	r0, r0, ip, asr #1
    2414:	860e1c02 	strhi	r1, [lr], -r2, lsl #24
    2418:	07000000 	streq	r0, [r0, -r0]
    241c:	00006b04 	andeq	r6, r0, r4, lsl #22
    2420:	00250400 	eoreq	r0, r5, r0, lsl #8
    2424:	009b0000 	addseq	r0, fp, r0
    2428:	9b050000 	blls	142430 <__bss_end__+0x139090>
    242c:	00000000 	andeq	r0, r0, r0
    2430:	00a80407 	adceq	r0, r8, r7, lsl #8
    2434:	01030000 	mrseq	r0, (UNDEF: 3)
    2438:	00007608 	andeq	r7, r0, r8, lsl #12
    243c:	00a10800 	adceq	r0, r1, r0, lsl #16
    2440:	24060000 	strcs	r0, [r6], #-0
    2444:	02000003 	andeq	r0, r0, #3, 0
    2448:	00b90e21 	adcseq	r0, r9, r1, lsr #28
    244c:	04070000 	streq	r0, [r7], #-0
    2450:	0000008c 	andeq	r0, r0, ip, lsl #1
    2454:	0003c309 	andeq	ip, r3, r9, lsl #6
    2458:	07040100 	streq	r0, [r4, -r0, lsl #2]
    245c:	00000134 	andeq	r0, r0, r4, lsr r1
    2460:	00008d4c 	andeq	r8, r0, ip, asr #26
    2464:	00000034 	andeq	r0, r0, r4, lsr r0
    2468:	01349c01 	teqeq	r4, r1, lsl #24
    246c:	bc0a0000 	stclt	0, cr0, [sl], {-0}
    2470:	01000007 	tsteq	r0, r7
    2474:	01341504 	teqeq	r4, r4, lsl #10
    2478:	50010000 	andpl	r0, r1, r0
    247c:	6372730b 	cmnvs	r2, #738197504	; 0x2c000000
    2480:	27040100 	strcs	r0, [r4, -r0, lsl #2]
    2484:	0000009b 	muleq	r0, fp, r0
    2488:	00000d96 	muleq	r0, r6, sp
    248c:	00000d92 	muleq	r0, r2, sp
    2490:	0031730c 	eorseq	r7, r1, ip, lsl #6
    2494:	340b0501 	strcc	r0, [fp], #-1281	; 0xfffffaff
    2498:	c1000001 	tstgt	r0, r1
    249c:	b700000d 	strlt	r0, [r0, -sp]
    24a0:	0c00000d 	stceq	0, cr0, [r0], {13}
    24a4:	01003273 	tsteq	r0, r3, ror r2
    24a8:	009b1106 	addseq	r1, fp, r6, lsl #2
    24ac:	0e060000 	cdpeq	0, 0, cr0, cr6, cr0, {0}
    24b0:	0e020000 	cdpeq	0, 0, cr0, cr2, cr0, {0}
    24b4:	630c0000 	movwvs	r0, #49152	; 0xc000
    24b8:	0a070100 	beq	1c28c0 <__bss_end__+0x1b9520>
    24bc:	000000a1 	andeq	r0, r0, r1, lsr #1
    24c0:	00000e2a 	andeq	r0, r0, sl, lsr #28
    24c4:	00000e26 	andeq	r0, r0, r6, lsr #28
    24c8:	a1040700 	tstge	r4, r0, lsl #14
    24cc:	00000000 	andeq	r0, r0, r0
    24d0:	0000014e 	andeq	r0, r0, lr, asr #2
    24d4:	0f450004 	svceq	0x00450004
    24d8:	01040000 	mrseq	r0, (UNDEF: 4)
    24dc:	000000f1 	strdeq	r0, [r0], -r1
    24e0:	0007c80c 	andeq	ip, r7, ip, lsl #16
    24e4:	0002e900 	andeq	lr, r2, r0, lsl #18
    24e8:	00002800 	andeq	r2, r0, r0, lsl #16
    24ec:	00000000 	andeq	r0, r0, r0
    24f0:	0012d400 	andseq	sp, r2, r0, lsl #8
    24f4:	05040200 	streq	r0, [r4, #-512]	; 0xfffffe00
    24f8:	00746e69 	rsbseq	r6, r4, r9, ror #28
    24fc:	0007c103 	andeq	ip, r7, r3, lsl #2
    2500:	17d10300 	ldrbne	r0, [r1, r0, lsl #6]
    2504:	00000038 	andeq	r0, r0, r8, lsr r0
    2508:	b1070404 	tstlt	r7, r4, lsl #8
    250c:	04000000 	streq	r0, [r0], #-0
    2510:	006f0601 	rsbeq	r0, pc, r1, lsl #12
    2514:	02040000 	andeq	r0, r4, #0, 0
    2518:	0000d805 	andeq	sp, r0, r5, lsl #16
    251c:	05040400 	streq	r0, [r4, #-1024]	; 0xfffffc00
    2520:	000000c3 	andeq	r0, r0, r3, asr #1
    2524:	be050804 	cdplt	8, 0, cr0, cr5, cr4, {0}
    2528:	04000000 	streq	r0, [r0], #-0
    252c:	006d0801 	rsbeq	r0, sp, r1, lsl #16
    2530:	5b050000 	blpl	142538 <__bss_end__+0x139198>
    2534:	04000000 	streq	r0, [r0], #-0
    2538:	00940702 	addseq	r0, r4, r2, lsl #14
    253c:	04040000 	streq	r0, [r4], #-0
    2540:	0000ac07 	andeq	sl, r0, r7, lsl #24
    2544:	07080400 	streq	r0, [r8, -r0, lsl #8]
    2548:	000000a7 	andeq	r0, r0, r7, lsr #1
    254c:	00002506 	andeq	r2, r0, r6, lsl #10
    2550:	00008b00 	andeq	r8, r0, r0, lsl #22
    2554:	00250700 	eoreq	r0, r5, r0, lsl #14
    2558:	08000000 	stmdaeq	r0, {}	; <UNPREDICTABLE>
    255c:	000000cc 	andeq	r0, r0, ip, asr #1
    2560:	970e1c02 	strls	r1, [lr, -r2, lsl #24]
    2564:	09000000 	stmdbeq	r0, {}	; <UNPREDICTABLE>
    2568:	00007c04 	andeq	r7, r0, r4, lsl #24
    256c:	00250600 	eoreq	r0, r5, r0, lsl #12
    2570:	00ac0000 	adceq	r0, ip, r0
    2574:	ac070000 	stcge	0, cr0, [r7], {-0}
    2578:	00000000 	andeq	r0, r0, r0
    257c:	00b90409 	adcseq	r0, r9, r9, lsl #8
    2580:	01040000 	mrseq	r0, (UNDEF: 4)
    2584:	00007608 	andeq	r7, r0, r8, lsl #12
    2588:	00b20500 	adcseq	r0, r2, r0, lsl #10
    258c:	24080000 	strcs	r0, [r8], #-0
    2590:	02000003 	andeq	r0, r0, #3, 0
    2594:	00ca0e21 	sbceq	r0, sl, r1, lsr #28
    2598:	04090000 	streq	r0, [r9], #-0
    259c:	0000009d 	muleq	r0, sp, r0
    25a0:	0004130a 	andeq	r1, r4, sl, lsl #6
    25a4:	05040100 	streq	r0, [r4, #-256]	; 0xffffff00
    25a8:	00000025 	andeq	r0, r0, r5, lsr #32
    25ac:	00008d80 	andeq	r8, r0, r0, lsl #27
    25b0:	0000002c 	andeq	r0, r0, ip, lsr #32
    25b4:	014b9c01 	cmpeq	fp, r1, lsl #24
    25b8:	5f0b0000 	svcpl	0x000b0000
    25bc:	01003173 	tsteq	r0, r3, ror r1
    25c0:	00ac1904 	adceq	r1, ip, r4, lsl #18
    25c4:	0e4c0000 	cdpeq	0, 4, cr0, cr12, cr0, {0}
    25c8:	0e480000 	cdpeq	0, 4, cr0, cr8, cr0, {0}
    25cc:	5f0b0000 	svcpl	0x000b0000
    25d0:	01003273 	tsteq	r0, r3, ror r2
    25d4:	00ac2a04 	adceq	r2, ip, r4, lsl #20
    25d8:	0e710000 	cdpeq	0, 7, cr0, cr1, cr0, {0}
    25dc:	0e6d0000 	cdpeq	0, 6, cr0, cr13, cr0, {0}
    25e0:	6e0b0000 	cdpvs	0, 0, cr0, cr11, cr0, {0}
    25e4:	36040100 	strcc	r0, [r4], -r0, lsl #2
    25e8:	0000002c 	andeq	r0, r0, ip, lsr #32
    25ec:	00000e98 	muleq	r0, r8, lr
    25f0:	00000e92 	muleq	r0, r2, lr
    25f4:	0031730c 	eorseq	r7, r1, ip, lsl #6
    25f8:	4b1a0501 	blmi	683a04 <__bss_end__+0x67a664>
    25fc:	cb000001 	blgt	2608 <__code_start__-0x59f8>
    2600:	c300000e 	movwgt	r0, #14
    2604:	0c00000e 	stceq	0, cr0, [r0], {14}
    2608:	01003273 	tsteq	r0, r3, ror r2
    260c:	014b2c05 	cmpeq	fp, r5, lsl #24
    2610:	0f070000 	svceq	0x00070000
    2614:	0f010000 	svceq	0x00010000
    2618:	09000000 	stmdbeq	r0, {}	; <UNPREDICTABLE>
    261c:	00006204 	andeq	r6, r0, r4, lsl #4
	...

Disassembly of section .debug_abbrev:

00000000 <.debug_abbrev>:
   0:	25011101 	strcs	r1, [r1, #-257]	; 0xfffffeff
   4:	030b130e 	movweq	r1, #45838	; 0xb30e
   8:	110e1b0e 	tstne	lr, lr, lsl #22
   c:	10061201 	andne	r1, r6, r1, lsl #4
  10:	02000017 	andeq	r0, r0, #23, 0
  14:	0b0b0024 	bleq	2c00ac <__bss_end__+0x2b6d0c>
  18:	08030b3e 	stmdaeq	r3, {r1, r2, r3, r4, r5, r8, r9, fp}
  1c:	24030000 	strcs	r0, [r3], #-0
  20:	3e0b0b00 	vmlacc.f64	d0, d11, d0
  24:	000e030b 	andeq	r0, lr, fp, lsl #6
  28:	01150400 	tsteq	r5, r0, lsl #8
  2c:	13491927 	movtne	r1, #39207	; 0x9927
  30:	00001301 	andeq	r1, r0, r1, lsl #6
  34:	49000505 	stmdbmi	r0, {r0, r2, r8, sl}
  38:	06000013 			; <UNDEFINED> instruction: 0x06000013
  3c:	0e030034 	mcreq	0, 0, r0, cr3, cr4, {1}
  40:	0b3b0b3a 	bleq	ec2d30 <__bss_end__+0xeb9990>
  44:	13490b39 	movtne	r0, #39737	; 0x9b39
  48:	193c193f 	ldmdbne	ip!, {r0, r1, r2, r3, r4, r5, r8, fp, ip}
  4c:	0f070000 	svceq	0x00070000
  50:	490b0b00 	stmdbmi	fp, {r8, r9, fp}
  54:	08000013 	stmdaeq	r0, {r0, r1, r4}
  58:	13490026 	movtne	r0, #36902	; 0x9026
  5c:	2e090000 	cdpcs	0, 0, cr0, cr9, cr0, {0}
  60:	03193f01 	tsteq	r9, #1, 30
  64:	3b0b3a0e 	blcc	2ce8a4 <__bss_end__+0x2c5504>
  68:	270b390b 	strcs	r3, [fp, -fp, lsl #18]
  6c:	12011119 	andne	r1, r1, #1073741830	; 0x40000006
  70:	97184006 	ldrls	r4, [r8, -r6]
  74:	13011942 	movwne	r1, #6466	; 0x1942
  78:	890a0000 	stmdbhi	sl, {}	; <UNPREDICTABLE>
  7c:	11000182 	smlabbne	r0, r2, r1, r0
  80:	00133101 	andseq	r3, r3, r1, lsl #2
  84:	82890b00 	addhi	r0, r9, #0, 22
  88:	01110101 	tsteq	r1, r1, lsl #2
  8c:	13011331 	movwne	r1, #4913	; 0x1331
  90:	8a0c0000 	bhi	300098 <__bss_end__+0x2f6cf8>
  94:	02000182 	andeq	r0, r0, #-2147483616	; 0x80000020
  98:	18429118 	stmdane	r2, {r3, r4, r8, ip, pc}^
  9c:	2e0d0000 	cdpcs	0, 0, cr0, cr13, cr0, {0}
  a0:	3c193f00 	ldccc	15, cr3, [r9], {-0}
  a4:	030e6e19 	movweq	r6, #60953	; 0xee19
  a8:	3b0b3a0e 	blcc	2ce8e8 <__bss_end__+0x2c5548>
  ac:	000b390b 	andeq	r3, fp, fp, lsl #18
  b0:	11010000 	mrsne	r0, (UNDEF: 1)
  b4:	130e2501 	movwne	r2, #58625	; 0xe501
  b8:	1b0e030b 	blne	380cec <__bss_end__+0x37794c>
  bc:	1201110e 	andne	r1, r1, #-2147483645	; 0x80000003
  c0:	00171006 	andseq	r1, r7, r6
  c4:	00240200 	eoreq	r0, r4, r0, lsl #4
  c8:	0b3e0b0b 	bleq	f82cfc <__bss_end__+0xf7995c>
  cc:	00000803 	andeq	r0, r0, r3, lsl #16
  d0:	0b002403 	bleq	90e4 <buf.3918+0x14c>
  d4:	030b3e0b 	movweq	r3, #48651	; 0xbe0b
  d8:	0400000e 	streq	r0, [r0], #-14
  dc:	0e030016 	mcreq	0, 0, r0, cr3, cr6, {0}
  e0:	0b3b0b3a 	bleq	ec2dd0 <__bss_end__+0xeb9a30>
  e4:	13490b39 	movtne	r0, #39737	; 0x9b39
  e8:	15050000 	strne	r0, [r5, #-0]
  ec:	49192701 	ldmdbmi	r9, {r0, r8, r9, sl, sp}
  f0:	00130113 	andseq	r0, r3, r3, lsl r1
  f4:	00050600 	andeq	r0, r5, r0, lsl #12
  f8:	00001349 	andeq	r1, r0, r9, asr #6
  fc:	03003407 	movweq	r3, #1031	; 0x407
 100:	3b0b3a0e 	blcc	2ce940 <__bss_end__+0x2c55a0>
 104:	490b390b 	stmdbmi	fp, {r0, r1, r3, r8, fp, ip, sp}
 108:	3c193f13 	ldccc	15, cr3, [r9], {19}
 10c:	08000019 	stmdaeq	r0, {r0, r3, r4}
 110:	0b0b000f 	bleq	2c0154 <__bss_end__+0x2b6db4>
 114:	00001349 	andeq	r1, r0, r9, asr #6
 118:	49002609 	stmdbmi	r0, {r0, r3, r9, sl, sp}
 11c:	0a000013 	beq	170 <__code_start__-0x7e90>
 120:	0e030034 	mcreq	0, 0, r0, cr3, cr4, {1}
 124:	0b3b0b3a 	bleq	ec2e14 <__bss_end__+0xeb9a74>
 128:	13490b39 	movtne	r0, #39737	; 0x9b39
 12c:	1802193f 	stmdane	r2, {r0, r1, r2, r3, r4, r5, r8, fp, ip}
 130:	040b0000 	streq	r0, [fp], #-0
 134:	0b0b3e01 	bleq	2cf940 <__bss_end__+0x2c65a0>
 138:	3a13490b 	bcc	4d256c <__bss_end__+0x4c91cc>
 13c:	390b3b0b 	stmdbcc	fp, {r0, r1, r3, r8, r9, fp, ip, sp}
 140:	0013010b 	andseq	r0, r3, fp, lsl #2
 144:	00280c00 	eoreq	r0, r8, r0, lsl #24
 148:	0b1c0e03 	bleq	70395c <__bss_end__+0x6fa5bc>
 14c:	340d0000 	strcc	r0, [sp], #-0
 150:	3a0e0300 	bcc	380d58 <__bss_end__+0x3779b8>
 154:	390b3b0b 	stmdbcc	fp, {r0, r1, r3, r8, r9, fp, ip, sp}
 158:	0213490b 	andseq	r4, r3, #180224	; 0x2c000
 15c:	0e000018 	mcreq	0, 0, r0, cr0, cr8, {0}
 160:	193f012e 	ldmdbne	pc!, {r1, r2, r3, r5, r8}	; <UNPREDICTABLE>
 164:	0b3a0e03 	bleq	e83978 <__bss_end__+0xe7a5d8>
 168:	0b390b3b 	bleq	e42e5c <__bss_end__+0xe39abc>
 16c:	13491927 	movtne	r1, #39207	; 0x9927
 170:	06120111 			; <UNDEFINED> instruction: 0x06120111
 174:	42971840 	addsmi	r1, r7, #64, 16	; 0x400000
 178:	00130119 	andseq	r0, r3, r9, lsl r1
 17c:	00050f00 	andeq	r0, r5, r0, lsl #30
 180:	0b3a0e03 	bleq	e83994 <__bss_end__+0xe7a5f4>
 184:	0b390b3b 	bleq	e42e78 <__bss_end__+0xe39ad8>
 188:	17021349 	strne	r1, [r2, -r9, asr #6]
 18c:	001742b7 			; <UNDEFINED> instruction: 0x001742b7
 190:	00341000 	eorseq	r1, r4, r0
 194:	0b3a0803 	bleq	e821a8 <__bss_end__+0xe78e08>
 198:	0b390b3b 	bleq	e42e8c <__bss_end__+0xe39aec>
 19c:	17021349 	strne	r1, [r2, -r9, asr #6]
 1a0:	001742b7 			; <UNDEFINED> instruction: 0x001742b7
 1a4:	82891100 	addhi	r1, r9, #0
 1a8:	01110101 	tsteq	r1, r1, lsl #2
 1ac:	13011331 	movwne	r1, #4913	; 0x1331
 1b0:	8a120000 	bhi	4801b8 <__bss_end__+0x476e18>
 1b4:	02000182 	andeq	r0, r0, #-2147483616	; 0x80000020
 1b8:	18429118 	stmdane	r2, {r3, r4, r8, ip, pc}^
 1bc:	89130000 	ldmdbhi	r3, {}	; <UNPREDICTABLE>
 1c0:	11010182 	smlabbne	r1, r2, r1, r0
 1c4:	00133101 	andseq	r3, r3, r1, lsl #2
 1c8:	012e1400 			; <UNDEFINED> instruction: 0x012e1400
 1cc:	0e03193f 			; <UNDEFINED> instruction: 0x0e03193f
 1d0:	0b3b0b3a 	bleq	ec2ec0 <__bss_end__+0xeb9b20>
 1d4:	19270b39 	stmdbne	r7!, {r0, r3, r4, r5, r8, r9, fp}
 1d8:	06120111 			; <UNDEFINED> instruction: 0x06120111
 1dc:	42971840 	addsmi	r1, r7, #64, 16	; 0x400000
 1e0:	00130119 	andseq	r0, r3, r9, lsl r1
 1e4:	00051500 	andeq	r1, r5, r0, lsl #10
 1e8:	0b3a0803 	bleq	e821fc <__bss_end__+0xe78e5c>
 1ec:	0b390b3b 	bleq	e42ee0 <__bss_end__+0xe39b40>
 1f0:	17021349 	strne	r1, [r2, -r9, asr #6]
 1f4:	001742b7 			; <UNDEFINED> instruction: 0x001742b7
 1f8:	82891600 	addhi	r1, r9, #0, 12
 1fc:	01110001 	tsteq	r1, r1
 200:	00001331 	andeq	r1, r0, r1, lsr r3
 204:	03012e17 	movweq	r2, #7703	; 0x1e17
 208:	3b0b3a0e 	blcc	2cea48 <__bss_end__+0x2c56a8>
 20c:	270b390b 	strcs	r3, [fp, -fp, lsl #18]
 210:	12011119 	andne	r1, r1, #1073741830	; 0x40000006
 214:	97184006 	ldrls	r4, [r8, -r6]
 218:	13011942 	movwne	r1, #6466	; 0x1942
 21c:	34180000 	ldrcc	r0, [r8], #-0
 220:	490e0300 	stmdbmi	lr, {r8, r9}
 224:	02193413 	andseq	r3, r9, #318767104	; 0x13000000
 228:	19000018 	stmdbne	r0, {r3, r4}
 22c:	13490101 	movtne	r0, #37121	; 0x9101
 230:	00001301 	andeq	r1, r0, r1, lsl #6
 234:	4900211a 	stmdbmi	r0, {r1, r3, r4, r8, sp}
 238:	000b2f13 	andeq	r2, fp, r3, lsl pc
 23c:	002e1b00 	eoreq	r1, lr, r0, lsl #22
 240:	193c193f 	ldmdbne	ip!, {r0, r1, r2, r3, r4, r5, r8, fp, ip}
 244:	0e030e6e 	cdpeq	14, 0, cr0, cr3, cr14, {3}
 248:	0b3b0b3a 	bleq	ec2f38 <__bss_end__+0xeb9b98>
 24c:	00000b39 	andeq	r0, r0, r9, lsr fp
 250:	01110100 	tsteq	r1, r0, lsl #2
 254:	0b130e25 	bleq	4c3af0 <__bss_end__+0x4ba750>
 258:	0e1b0e03 	cdpeq	14, 1, cr0, cr11, cr3, {0}
 25c:	06120111 			; <UNDEFINED> instruction: 0x06120111
 260:	00001710 	andeq	r1, r0, r0, lsl r7
 264:	03001602 	movweq	r1, #1538	; 0x602
 268:	3b0b3a0e 	blcc	2ceaa8 <__bss_end__+0x2c5708>
 26c:	490b390b 	stmdbmi	fp, {r0, r1, r3, r8, fp, ip, sp}
 270:	03000013 	movweq	r0, #19
 274:	0e030113 	mcreq	1, 0, r0, cr3, cr3, {0}
 278:	0b3a0b0b 	bleq	e82eac <__bss_end__+0xe79b0c>
 27c:	13010b3b 	movwne	r0, #6971	; 0x1b3b
 280:	0d040000 	stceq	0, cr0, [r4, #-0]
 284:	490e0300 	stmdbmi	lr, {r8, r9}
 288:	340b3813 	strcc	r3, [fp], #-2067	; 0xfffff7ed
 28c:	05000019 	streq	r0, [r0, #-25]	; 0xffffffe7
 290:	0b0b000f 	bleq	2c02d4 <__bss_end__+0x2b6f34>
 294:	24060000 	strcs	r0, [r6], #-0
 298:	3e0b0b00 	vmlacc.f64	d0, d11, d0
 29c:	0008030b 	andeq	r0, r8, fp, lsl #6
 2a0:	00240700 	eoreq	r0, r4, r0, lsl #14
 2a4:	0b3e0b0b 	bleq	f82ed8 <__bss_end__+0xf79b38>
 2a8:	00000e03 	andeq	r0, r0, r3, lsl #28
 2ac:	27011508 	strcs	r1, [r1, -r8, lsl #10]
 2b0:	01134919 	tsteq	r3, r9, lsl r9
 2b4:	09000013 	stmdbeq	r0, {r0, r1, r4}
 2b8:	13490005 	movtne	r0, #36869	; 0x9005
 2bc:	340a0000 	strcc	r0, [sl], #-0
 2c0:	3a0e0300 	bcc	380ec8 <__bss_end__+0x377b28>
 2c4:	390b3b0b 	stmdbcc	fp, {r0, r1, r3, r8, r9, fp, ip, sp}
 2c8:	3f13490b 	svccc	0x0013490b
 2cc:	00193c19 	andseq	r3, r9, r9, lsl ip
 2d0:	000f0b00 	andeq	r0, pc, r0, lsl #22
 2d4:	13490b0b 	movtne	r0, #39691	; 0x9b0b
 2d8:	260c0000 	strcs	r0, [ip], -r0
 2dc:	00134900 	andseq	r4, r3, r0, lsl #18
 2e0:	012e0d00 			; <UNDEFINED> instruction: 0x012e0d00
 2e4:	0e03193f 			; <UNDEFINED> instruction: 0x0e03193f
 2e8:	0b3b0b3a 	bleq	ec2fd8 <__bss_end__+0xeb9c38>
 2ec:	19270b39 	stmdbne	r7!, {r0, r3, r4, r5, r8, r9, fp}
 2f0:	01111349 	tsteq	r1, r9, asr #6
 2f4:	18400612 	stmdane	r0, {r1, r4, r9, sl}^
 2f8:	01194297 			; <UNDEFINED> instruction: 0x01194297
 2fc:	0e000013 	mcreq	0, 0, r0, cr0, cr3, {0}
 300:	08030005 	stmdaeq	r3, {r0, r2}
 304:	0b3b0b3a 	bleq	ec2ff4 <__bss_end__+0xeb9c54>
 308:	13490b39 	movtne	r0, #39737	; 0x9b39
 30c:	00001802 	andeq	r1, r0, r2, lsl #16
 310:	0000180f 	andeq	r1, r0, pc, lsl #16
 314:	00341000 	eorseq	r1, r4, r0
 318:	0b3a0803 	bleq	e8232c <__bss_end__+0xe78f8c>
 31c:	0b390b3b 	bleq	e43010 <__bss_end__+0xe39c70>
 320:	18021349 	stmdane	r2, {r0, r3, r6, r8, r9, ip}
 324:	34110000 	ldrcc	r0, [r1], #-0
 328:	3a0e0300 	bcc	380f30 <__bss_end__+0x377b90>
 32c:	390b3b0b 	stmdbcc	fp, {r0, r1, r3, r8, r9, fp, ip, sp}
 330:	0213490b 	andseq	r4, r3, #180224	; 0x2c000
 334:	12000018 	andne	r0, r0, #24, 0
 338:	08030034 	stmdaeq	r3, {r2, r4, r5}
 33c:	0b3b0b3a 	bleq	ec302c <__bss_end__+0xeb9c8c>
 340:	13490b39 	movtne	r0, #39737	; 0x9b39
 344:	42b71702 	adcsmi	r1, r7, #524288	; 0x80000
 348:	13000017 	movwne	r0, #23
 34c:	01018289 	smlabbeq	r1, r9, r2, r8
 350:	13310111 	teqne	r1, #1073741828	; 0x40000004
 354:	00001301 	andeq	r1, r0, r1, lsl #6
 358:	01828a14 	orreq	r8, r2, r4, lsl sl
 35c:	91180200 	tstls	r8, r0, lsl #4
 360:	00001842 	andeq	r1, r0, r2, asr #16
 364:	01828915 	orreq	r8, r2, r5, lsl r9
 368:	00011101 	andeq	r1, r1, r1, lsl #2
 36c:	01011600 	tsteq	r1, r0, lsl #12
 370:	13011349 	movwne	r1, #4937	; 0x1349
 374:	21170000 	tstcs	r7, r0
 378:	2f134900 	svccs	0x00134900
 37c:	18000005 	stmdane	r0, {r0, r2}
 380:	193f002e 	ldmdbne	pc!, {r1, r2, r3, r5}	; <UNPREDICTABLE>
 384:	0e6e193c 			; <UNDEFINED> instruction: 0x0e6e193c
 388:	0b3a0e03 	bleq	e83b9c <__bss_end__+0xe7a7fc>
 38c:	0b390b3b 	bleq	e43080 <__bss_end__+0xe39ce0>
 390:	01000000 	mrseq	r0, (UNDEF: 0)
 394:	0e250111 	mcreq	1, 1, r0, cr5, cr1, {0}
 398:	0e030b13 	vmoveq.32	d3[0], r0
 39c:	01110e1b 	tsteq	r1, fp, lsl lr
 3a0:	17100612 			; <UNDEFINED> instruction: 0x17100612
 3a4:	24020000 	strcs	r0, [r2], #-0
 3a8:	3e0b0b00 	vmlacc.f64	d0, d11, d0
 3ac:	0008030b 	andeq	r0, r8, fp, lsl #6
 3b0:	00240300 	eoreq	r0, r4, r0, lsl #6
 3b4:	0b3e0b0b 	bleq	f82fe8 <__bss_end__+0xf79c48>
 3b8:	00000e03 	andeq	r0, r0, r3, lsl #28
 3bc:	27011504 	strcs	r1, [r1, -r4, lsl #10]
 3c0:	01134919 	tsteq	r3, r9, lsl r9
 3c4:	05000013 	streq	r0, [r0, #-19]	; 0xffffffed
 3c8:	13490005 	movtne	r0, #36869	; 0x9005
 3cc:	34060000 	strcc	r0, [r6], #-0
 3d0:	3a0e0300 	bcc	380fd8 <__bss_end__+0x377c38>
 3d4:	390b3b0b 	stmdbcc	fp, {r0, r1, r3, r8, r9, fp, ip, sp}
 3d8:	3f13490b 	svccc	0x0013490b
 3dc:	00193c19 	andseq	r3, r9, r9, lsl ip
 3e0:	000f0700 	andeq	r0, pc, r0, lsl #14
 3e4:	13490b0b 	movtne	r0, #39691	; 0x9b0b
 3e8:	26080000 	strcs	r0, [r8], -r0
 3ec:	00134900 	andseq	r4, r3, r0, lsl #18
 3f0:	00340900 	eorseq	r0, r4, r0, lsl #18
 3f4:	0b3a1347 	bleq	e85118 <__bss_end__+0xe7bd78>
 3f8:	0b390b3b 	bleq	e430ec <__bss_end__+0xe39d4c>
 3fc:	00001802 	andeq	r1, r0, r2, lsl #16
 400:	3f012e0a 	svccc	0x00012e0a
 404:	3a0e0319 	bcc	381070 <__bss_end__+0x377cd0>
 408:	390b3b0b 	stmdbcc	fp, {r0, r1, r3, r8, r9, fp, ip, sp}
 40c:	4919270b 	ldmdbmi	r9, {r0, r1, r3, r8, r9, sl, sp}
 410:	12011113 	andne	r1, r1, #-1073741820	; 0xc0000004
 414:	96184006 	ldrls	r4, [r8], -r6
 418:	00001942 	andeq	r1, r0, r2, asr #18
 41c:	0300050b 	movweq	r0, #1291	; 0x50b
 420:	3b0b3a08 	blcc	2cec48 <__bss_end__+0x2c58a8>
 424:	490b390b 	stmdbmi	fp, {r0, r1, r3, r8, fp, ip, sp}
 428:	b7170213 			; <UNDEFINED> instruction: 0xb7170213
 42c:	00001742 	andeq	r1, r0, r2, asr #14
 430:	01110100 	tsteq	r1, r0, lsl #2
 434:	0b130e25 	bleq	4c3cd0 <__bss_end__+0x4ba930>
 438:	0e1b0e03 	cdpeq	14, 1, cr0, cr11, cr3, {0}
 43c:	06120111 			; <UNDEFINED> instruction: 0x06120111
 440:	00001710 	andeq	r1, r0, r0, lsl r7
 444:	0b002402 	bleq	9454 <__bss_end__+0xb4>
 448:	030b3e0b 	movweq	r3, #48651	; 0xbe0b
 44c:	03000008 	movweq	r0, #8
 450:	0b0b0024 	bleq	2c04e8 <__bss_end__+0x2b7148>
 454:	0e030b3e 	vmoveq.16	d3[0], r0
 458:	16040000 	strne	r0, [r4], -r0
 45c:	3a0e0300 	bcc	381064 <__bss_end__+0x377cc4>
 460:	390b3b0b 	stmdbcc	fp, {r0, r1, r3, r8, r9, fp, ip, sp}
 464:	0013490b 	andseq	r4, r3, fp, lsl #18
 468:	01150500 	tsteq	r5, r0, lsl #10
 46c:	13491927 	movtne	r1, #39207	; 0x9927
 470:	00001301 	andeq	r1, r0, r1, lsl #6
 474:	49000506 	stmdbmi	r0, {r1, r2, r8, sl}
 478:	07000013 	smladeq	r0, r3, r0, r0
 47c:	0e030034 	mcreq	0, 0, r0, cr3, cr4, {1}
 480:	0b3b0b3a 	bleq	ec3170 <__bss_end__+0xeb9dd0>
 484:	13490b39 	movtne	r0, #39737	; 0x9b39
 488:	193c193f 	ldmdbne	ip!, {r0, r1, r2, r3, r4, r5, r8, fp, ip}
 48c:	0f080000 	svceq	0x00080000
 490:	490b0b00 	stmdbmi	fp, {r8, r9, fp}
 494:	09000013 	stmdbeq	r0, {r0, r1, r4}
 498:	13490026 	movtne	r0, #36902	; 0x9026
 49c:	130a0000 	movwne	r0, #40960	; 0xa000
 4a0:	0b0e0301 	bleq	3810ac <__bss_end__+0x377d0c>
 4a4:	3b0b3a0b 	blcc	2cecd8 <__bss_end__+0x2c5938>
 4a8:	0013010b 	andseq	r0, r3, fp, lsl #2
 4ac:	000d0b00 	andeq	r0, sp, r0, lsl #22
 4b0:	13490e03 	movtne	r0, #40451	; 0x9e03
 4b4:	19340b38 	ldmdbne	r4!, {r3, r4, r5, r8, r9, fp}
 4b8:	0f0c0000 	svceq	0x000c0000
 4bc:	000b0b00 	andeq	r0, fp, r0, lsl #22
 4c0:	012e0d00 			; <UNDEFINED> instruction: 0x012e0d00
 4c4:	0e03193f 			; <UNDEFINED> instruction: 0x0e03193f
 4c8:	0b3b0b3a 	bleq	ec31b8 <__bss_end__+0xeb9e18>
 4cc:	19270b39 	stmdbne	r7!, {r0, r3, r4, r5, r8, r9, fp}
 4d0:	01111349 	tsteq	r1, r9, asr #6
 4d4:	18400612 	stmdane	r0, {r1, r4, r9, sl}^
 4d8:	01194297 			; <UNDEFINED> instruction: 0x01194297
 4dc:	0e000013 	mcreq	0, 0, r0, cr0, cr3, {0}
 4e0:	08030005 	stmdaeq	r3, {r0, r2}
 4e4:	0b3b0b3a 	bleq	ec31d4 <__bss_end__+0xeb9e34>
 4e8:	13490b39 	movtne	r0, #39737	; 0x9b39
 4ec:	42b71702 	adcsmi	r1, r7, #524288	; 0x80000
 4f0:	0f000017 	svceq	0x00000017
 4f4:	0e030005 	cdpeq	0, 0, cr0, cr3, cr5, {0}
 4f8:	0b3b0b3a 	bleq	ec31e8 <__bss_end__+0xeb9e48>
 4fc:	13490b39 	movtne	r0, #39737	; 0x9b39
 500:	00001802 	andeq	r1, r0, r2, lsl #16
 504:	03003410 	movweq	r3, #1040	; 0x410
 508:	3b0b3a08 	blcc	2ced30 <__bss_end__+0x2c5990>
 50c:	490b390b 	stmdbmi	fp, {r0, r1, r3, r8, fp, ip, sp}
 510:	b7170213 			; <UNDEFINED> instruction: 0xb7170213
 514:	00001742 	andeq	r1, r0, r2, asr #14
 518:	03003411 	movweq	r3, #1041	; 0x411
 51c:	3b0b3a08 	blcc	2ced44 <__bss_end__+0x2c59a4>
 520:	490b390b 	stmdbmi	fp, {r0, r1, r3, r8, fp, ip, sp}
 524:	12000013 	andne	r0, r0, #19, 0
 528:	0e030034 	mcreq	0, 0, r0, cr3, cr4, {1}
 52c:	0b3b0b3a 	bleq	ec321c <__bss_end__+0xeb9e7c>
 530:	13490b39 	movtne	r0, #39737	; 0x9b39
 534:	42b71702 	adcsmi	r1, r7, #524288	; 0x80000
 538:	13000017 	movwne	r0, #23
 53c:	0e030034 	mcreq	0, 0, r0, cr3, cr4, {1}
 540:	19341349 	ldmdbne	r4!, {r0, r3, r6, r8, r9, ip}
 544:	00001802 	andeq	r1, r0, r2, lsl #16
 548:	11010b14 	tstne	r1, r4, lsl fp
 54c:	00061201 	andeq	r1, r6, r1, lsl #4
 550:	00341500 	eorseq	r1, r4, r0, lsl #10
 554:	0b3a0803 	bleq	e82568 <__bss_end__+0xe791c8>
 558:	0b390b3b 	bleq	e4324c <__bss_end__+0xe39eac>
 55c:	18021349 	stmdane	r2, {r0, r3, r6, r8, r9, ip}
 560:	34160000 	ldrcc	r0, [r6], #-0
 564:	3a0e0300 	bcc	38116c <__bss_end__+0x377dcc>
 568:	390b3b0b 	stmdbcc	fp, {r0, r1, r3, r8, r9, fp, ip, sp}
 56c:	0213490b 	andseq	r4, r3, #180224	; 0x2c000
 570:	17000018 	smladne	r0, r8, r0, r0
 574:	1755010b 	ldrbne	r0, [r5, -fp, lsl #2]
 578:	00001301 	andeq	r1, r0, r1, lsl #6
 57c:	01828918 	orreq	r8, r2, r8, lsl r9
 580:	31011101 	tstcc	r1, r1, lsl #2
 584:	00130113 	andseq	r0, r3, r3, lsl r1
 588:	828a1900 	addhi	r1, sl, #0, 18
 58c:	18020001 	stmdane	r2, {r0}
 590:	00184291 	mulseq	r8, r1, r2
 594:	82891a00 	addhi	r1, r9, #0, 20
 598:	01110001 	tsteq	r1, r1
 59c:	00001331 	andeq	r1, r0, r1, lsr r3
 5a0:	0182891b 	orreq	r8, r2, fp, lsl r9
 5a4:	01011101 	tsteq	r1, r1, lsl #2
 5a8:	1c000013 	stcne	0, cr0, [r0], {19}
 5ac:	13490101 	movtne	r0, #37121	; 0x9101
 5b0:	00001301 	andeq	r1, r0, r1, lsl #6
 5b4:	4900211d 	stmdbmi	r0, {r0, r2, r3, r4, r8, sp}
 5b8:	000b2f13 	andeq	r2, fp, r3, lsl pc
 5bc:	012e1e00 			; <UNDEFINED> instruction: 0x012e1e00
 5c0:	0b3a0e03 	bleq	e83dd4 <__bss_end__+0xe7aa34>
 5c4:	0b390b3b 	bleq	e432b8 <__bss_end__+0xe39f18>
 5c8:	13491927 	movtne	r1, #39207	; 0x9927
 5cc:	06120111 			; <UNDEFINED> instruction: 0x06120111
 5d0:	42971840 	addsmi	r1, r7, #64, 16	; 0x400000
 5d4:	00130119 	andseq	r0, r3, r9, lsl r1
 5d8:	00051f00 	andeq	r1, r5, r0, lsl #30
 5dc:	0b3a0e03 	bleq	e83df0 <__bss_end__+0xe7aa50>
 5e0:	0b390b3b 	bleq	e432d4 <__bss_end__+0xe39f34>
 5e4:	17021349 	strne	r1, [r2, -r9, asr #6]
 5e8:	001742b7 			; <UNDEFINED> instruction: 0x001742b7
 5ec:	010b2000 	mrseq	r2, (UNDEF: 11)
 5f0:	06120111 			; <UNDEFINED> instruction: 0x06120111
 5f4:	00001301 	andeq	r1, r0, r1, lsl #6
 5f8:	03012e21 	movweq	r2, #7713	; 0x1e21
 5fc:	3b0b3a08 	blcc	2cee24 <__bss_end__+0x2c5a84>
 600:	270b390b 	strcs	r3, [fp, -fp, lsl #18]
 604:	11134919 	tstne	r3, r9, lsl r9
 608:	40061201 	andmi	r1, r6, r1, lsl #4
 60c:	19429718 	stmdbne	r2, {r3, r4, r8, r9, sl, ip, pc}^
 610:	00001301 	andeq	r1, r0, r1, lsl #6
 614:	3f012e22 	svccc	0x00012e22
 618:	3a0e0319 	bcc	381284 <__bss_end__+0x377ee4>
 61c:	390b3b0b 	stmdbcc	fp, {r0, r1, r3, r8, r9, fp, ip, sp}
 620:	1119270b 	tstne	r9, fp, lsl #14
 624:	40061201 	andmi	r1, r6, r1, lsl #4
 628:	19429718 	stmdbne	r2, {r3, r4, r8, r9, sl, ip, pc}^
 62c:	00001301 	andeq	r1, r0, r1, lsl #6
 630:	3f002e23 	svccc	0x00002e23
 634:	6e193c19 	mrcvs	12, 0, r3, cr9, cr9, {0}
 638:	3a0e030e 	bcc	381278 <__bss_end__+0x377ed8>
 63c:	390b3b0b 	stmdbcc	fp, {r0, r1, r3, r8, r9, fp, ip, sp}
 640:	0000000b 	andeq	r0, r0, fp
 644:	25011101 	strcs	r1, [r1, #-257]	; 0xfffffeff
 648:	030b130e 	movweq	r1, #45838	; 0xb30e
 64c:	110e1b0e 	tstne	lr, lr, lsl #22
 650:	10061201 	andne	r1, r6, r1, lsl #4
 654:	02000017 	andeq	r0, r0, #23, 0
 658:	0b0b0024 	bleq	2c06f0 <__bss_end__+0x2b7350>
 65c:	08030b3e 	stmdaeq	r3, {r1, r2, r3, r4, r5, r8, r9, fp}
 660:	24030000 	strcs	r0, [r3], #-0
 664:	3e0b0b00 	vmlacc.f64	d0, d11, d0
 668:	000e030b 	andeq	r0, lr, fp, lsl #6
 66c:	01150400 	tsteq	r5, r0, lsl #8
 670:	13491927 	movtne	r1, #39207	; 0x9927
 674:	00001301 	andeq	r1, r0, r1, lsl #6
 678:	49000505 	stmdbmi	r0, {r0, r2, r8, sl}
 67c:	06000013 			; <UNDEFINED> instruction: 0x06000013
 680:	0e030034 	mcreq	0, 0, r0, cr3, cr4, {1}
 684:	0b3b0b3a 	bleq	ec3374 <__bss_end__+0xeb9fd4>
 688:	13490b39 	movtne	r0, #39737	; 0x9b39
 68c:	193c193f 	ldmdbne	ip!, {r0, r1, r2, r3, r4, r5, r8, fp, ip}
 690:	0f070000 	svceq	0x00070000
 694:	490b0b00 	stmdbmi	fp, {r8, r9, fp}
 698:	08000013 	stmdaeq	r0, {r0, r1, r4}
 69c:	13490026 	movtne	r0, #36902	; 0x9026
 6a0:	2e090000 	cdpcs	0, 0, cr0, cr9, cr0, {0}
 6a4:	03193f01 	tsteq	r9, #1, 30
 6a8:	3b0b3a0e 	blcc	2ceee8 <__bss_end__+0x2c5b48>
 6ac:	270b390b 	strcs	r3, [fp, -fp, lsl #18]
 6b0:	19018719 	stmdbne	r1, {r0, r3, r4, r8, r9, sl, pc}
 6b4:	06120111 			; <UNDEFINED> instruction: 0x06120111
 6b8:	42971840 	addsmi	r1, r7, #64, 16	; 0x400000
 6bc:	00130119 	andseq	r0, r3, r9, lsl r1
 6c0:	82890a00 	addhi	r0, r9, #0, 20
 6c4:	01110101 	tsteq	r1, r1, lsl #2
 6c8:	00001301 	andeq	r1, r0, r1, lsl #6
 6cc:	01828a0b 	orreq	r8, r2, fp, lsl #20
 6d0:	91180200 	tstls	r8, r0, lsl #4
 6d4:	00001842 	andeq	r1, r0, r2, asr #16
 6d8:	0182890c 	orreq	r8, r2, ip, lsl #18
 6dc:	31011100 	mrscc	r1, (UNDEF: 17)
 6e0:	0d000013 	stceq	0, cr0, [r0, #-76]	; 0xffffffb4
 6e4:	01018289 	smlabbeq	r1, r9, r2, r8
 6e8:	13310111 	teqne	r1, #1073741828	; 0x40000004
 6ec:	00001301 	andeq	r1, r0, r1, lsl #6
 6f0:	3f002e0e 	svccc	0x00002e0e
 6f4:	6e193c19 	mrcvs	12, 0, r3, cr9, cr9, {0}
 6f8:	3a0e030e 	bcc	381338 <__bss_end__+0x377f98>
 6fc:	390b3b0b 	stmdbcc	fp, {r0, r1, r3, r8, r9, fp, ip, sp}
 700:	0000000b 	andeq	r0, r0, fp
 704:	25011101 	strcs	r1, [r1, #-257]	; 0xfffffeff
 708:	030b130e 	movweq	r1, #45838	; 0xb30e
 70c:	110e1b0e 	tstne	lr, lr, lsl #22
 710:	10061201 	andne	r1, r6, r1, lsl #4
 714:	02000017 	andeq	r0, r0, #23, 0
 718:	0b0b0024 	bleq	2c07b0 <__bss_end__+0x2b7410>
 71c:	08030b3e 	stmdaeq	r3, {r1, r2, r3, r4, r5, r8, r9, fp}
 720:	24030000 	strcs	r0, [r3], #-0
 724:	3e0b0b00 	vmlacc.f64	d0, d11, d0
 728:	000e030b 	andeq	r0, lr, fp, lsl #6
 72c:	01150400 	tsteq	r5, r0, lsl #8
 730:	13491927 	movtne	r1, #39207	; 0x9927
 734:	00001301 	andeq	r1, r0, r1, lsl #6
 738:	49000505 	stmdbmi	r0, {r0, r2, r8, sl}
 73c:	06000013 			; <UNDEFINED> instruction: 0x06000013
 740:	0e030034 	mcreq	0, 0, r0, cr3, cr4, {1}
 744:	0b3b0b3a 	bleq	ec3434 <__bss_end__+0xeba094>
 748:	13490b39 	movtne	r0, #39737	; 0x9b39
 74c:	193c193f 	ldmdbne	ip!, {r0, r1, r2, r3, r4, r5, r8, fp, ip}
 750:	0f070000 	svceq	0x00070000
 754:	490b0b00 	stmdbmi	fp, {r8, r9, fp}
 758:	08000013 	stmdaeq	r0, {r0, r1, r4}
 75c:	13490026 	movtne	r0, #36902	; 0x9026
 760:	2e090000 	cdpcs	0, 0, cr0, cr9, cr0, {0}
 764:	03193f01 	tsteq	r9, #1, 30
 768:	3b0b3a0e 	blcc	2cefa8 <__bss_end__+0x2c5c08>
 76c:	110b390b 	tstne	fp, fp, lsl #18
 770:	40061201 	andmi	r1, r6, r1, lsl #4
 774:	19429718 	stmdbne	r2, {r3, r4, r8, r9, sl, ip, pc}^
 778:	00001301 	andeq	r1, r0, r1, lsl #6
 77c:	3f002e0a 	svccc	0x00002e0a
 780:	3a0e0319 	bcc	3813ec <__bss_end__+0x37804c>
 784:	390b3b0b 	stmdbcc	fp, {r0, r1, r3, r8, r9, fp, ip, sp}
 788:	3c19270b 	ldccc	7, cr2, [r9], {11}
 78c:	0b000019 	bleq	7f8 <__code_start__-0x7808>
 790:	08030034 	stmdaeq	r3, {r2, r4, r5}
 794:	0b3b0b3a 	bleq	ec3484 <__bss_end__+0xeba0e4>
 798:	13490b39 	movtne	r0, #39737	; 0x9b39
 79c:	42b71702 	adcsmi	r1, r7, #524288	; 0x80000
 7a0:	0c000017 	stceq	0, cr0, [r0], {23}
 7a4:	0e030034 	mcreq	0, 0, r0, cr3, cr4, {1}
 7a8:	0b3b0b3a 	bleq	ec3498 <__bss_end__+0xeba0f8>
 7ac:	13490b39 	movtne	r0, #39737	; 0x9b39
 7b0:	890d0000 	stmdbhi	sp, {}	; <UNPREDICTABLE>
 7b4:	11000182 	smlabbne	r0, r2, r1, r0
 7b8:	00133101 	andseq	r3, r3, r1, lsl #2
 7bc:	002e0e00 	eoreq	r0, lr, r0, lsl #28
 7c0:	193c193f 	ldmdbne	ip!, {r0, r1, r2, r3, r4, r5, r8, fp, ip}
 7c4:	0e030e6e 	cdpeq	14, 0, cr0, cr3, cr14, {3}
 7c8:	053b0b3a 	ldreq	r0, [fp, #-2874]!	; 0xfffff4c6
 7cc:	00000b39 	andeq	r0, r0, r9, lsr fp
 7d0:	3f002e0f 	svccc	0x00002e0f
 7d4:	6e193c19 	mrcvs	12, 0, r3, cr9, cr9, {0}
 7d8:	3a0e030e 	bcc	381418 <__bss_end__+0x378078>
 7dc:	390b3b0b 	stmdbcc	fp, {r0, r1, r3, r8, r9, fp, ip, sp}
 7e0:	0000000b 	andeq	r0, r0, fp
 7e4:	25011101 	strcs	r1, [r1, #-257]	; 0xfffffeff
 7e8:	030b130e 	movweq	r1, #45838	; 0xb30e
 7ec:	110e1b0e 	tstne	lr, lr, lsl #22
 7f0:	10061201 	andne	r1, r6, r1, lsl #4
 7f4:	02000017 	andeq	r0, r0, #23, 0
 7f8:	0b0b0024 	bleq	2c0890 <__bss_end__+0x2b74f0>
 7fc:	08030b3e 	stmdaeq	r3, {r1, r2, r3, r4, r5, r8, r9, fp}
 800:	24030000 	strcs	r0, [r3], #-0
 804:	3e0b0b00 	vmlacc.f64	d0, d11, d0
 808:	000e030b 	andeq	r0, lr, fp, lsl #6
 80c:	01150400 	tsteq	r5, r0, lsl #8
 810:	13491927 	movtne	r1, #39207	; 0x9927
 814:	00001301 	andeq	r1, r0, r1, lsl #6
 818:	49000505 	stmdbmi	r0, {r0, r2, r8, sl}
 81c:	06000013 			; <UNDEFINED> instruction: 0x06000013
 820:	0e030034 	mcreq	0, 0, r0, cr3, cr4, {1}
 824:	0b3b0b3a 	bleq	ec3514 <__bss_end__+0xeba174>
 828:	13490b39 	movtne	r0, #39737	; 0x9b39
 82c:	193c193f 	ldmdbne	ip!, {r0, r1, r2, r3, r4, r5, r8, fp, ip}
 830:	0f070000 	svceq	0x00070000
 834:	490b0b00 	stmdbmi	fp, {r8, r9, fp}
 838:	08000013 	stmdaeq	r0, {r0, r1, r4}
 83c:	13490026 	movtne	r0, #36902	; 0x9026
 840:	2e090000 	cdpcs	0, 0, cr0, cr9, cr0, {0}
 844:	03193f00 	tsteq	r9, #0, 30
 848:	3b0b3a0e 	blcc	2cf088 <__bss_end__+0x2c5ce8>
 84c:	270b390b 	strcs	r3, [fp, -fp, lsl #18]
 850:	12011119 	andne	r1, r1, #1073741830	; 0x40000006
 854:	97184006 	ldrls	r4, [r8, -r6]
 858:	00001942 	andeq	r1, r0, r2, asr #18
 85c:	01110100 	tsteq	r1, r0, lsl #2
 860:	0b130e25 	bleq	4c40fc <__bss_end__+0x4bad5c>
 864:	0e1b0e03 	cdpeq	14, 1, cr0, cr11, cr3, {0}
 868:	01111755 	tsteq	r1, r5, asr r7
 86c:	00001710 	andeq	r1, r0, r0, lsl r7
 870:	0b002402 	bleq	9880 <__bss_end__+0x4e0>
 874:	030b3e0b 	movweq	r3, #48651	; 0xbe0b
 878:	03000008 	movweq	r0, #8
 87c:	13490026 	movtne	r0, #36902	; 0x9026
 880:	24040000 	strcs	r0, [r4], #-0
 884:	3e0b0b00 	vmlacc.f64	d0, d11, d0
 888:	000e030b 	andeq	r0, lr, fp, lsl #6
 88c:	01150500 	tsteq	r5, r0, lsl #10
 890:	13491927 	movtne	r1, #39207	; 0x9927
 894:	00001301 	andeq	r1, r0, r1, lsl #6
 898:	49000506 	stmdbmi	r0, {r1, r2, r8, sl}
 89c:	07000013 	smladeq	r0, r3, r0, r0
 8a0:	0e030034 	mcreq	0, 0, r0, cr3, cr4, {1}
 8a4:	0b3b0b3a 	bleq	ec3594 <__bss_end__+0xeba1f4>
 8a8:	13490b39 	movtne	r0, #39737	; 0x9b39
 8ac:	193c193f 	ldmdbne	ip!, {r0, r1, r2, r3, r4, r5, r8, fp, ip}
 8b0:	0f080000 	svceq	0x00080000
 8b4:	490b0b00 	stmdbmi	fp, {r8, r9, fp}
 8b8:	09000013 	stmdbeq	r0, {r0, r1, r4}
 8bc:	0e030034 	mcreq	0, 0, r0, cr3, cr4, {1}
 8c0:	0b3b0b3a 	bleq	ec35b0 <__bss_end__+0xeba210>
 8c4:	13490b39 	movtne	r0, #39737	; 0x9b39
 8c8:	2e0a0000 	cdpcs	0, 0, cr0, cr10, cr0, {0}
 8cc:	03193f01 	tsteq	r9, #1, 30
 8d0:	3b0b3a0e 	blcc	2cf110 <__bss_end__+0x2c5d70>
 8d4:	270b390b 	strcs	r3, [fp, -fp, lsl #18]
 8d8:	19018719 	stmdbne	r1, {r0, r3, r4, r8, r9, sl, pc}
 8dc:	06120111 			; <UNDEFINED> instruction: 0x06120111
 8e0:	42971840 	addsmi	r1, r7, #64, 16	; 0x400000
 8e4:	00130119 	andseq	r0, r3, r9, lsl r1
 8e8:	00340b00 	eorseq	r0, r4, r0, lsl #22
 8ec:	0b3a0e03 	bleq	e84100 <__bss_end__+0xe7ad60>
 8f0:	0b390b3b 	bleq	e435e4 <__bss_end__+0xe3a244>
 8f4:	17021349 	strne	r1, [r2, -r9, asr #6]
 8f8:	001742b7 			; <UNDEFINED> instruction: 0x001742b7
 8fc:	82890c00 	addhi	r0, r9, #0, 24
 900:	01110001 	tsteq	r1, r1
 904:	00001331 	andeq	r1, r0, r1, lsr r3
 908:	0182890d 	orreq	r8, r2, sp, lsl #18
 90c:	31011101 	tstcc	r1, r1, lsl #2
 910:	00130113 	andseq	r0, r3, r3, lsl r1
 914:	828a0e00 	addhi	r0, sl, #0, 28
 918:	18020001 	stmdane	r2, {r0}
 91c:	00184291 	mulseq	r8, r1, r2
 920:	012e0f00 			; <UNDEFINED> instruction: 0x012e0f00
 924:	0e03193f 			; <UNDEFINED> instruction: 0x0e03193f
 928:	0b3b0b3a 	bleq	ec3618 <__bss_end__+0xeba278>
 92c:	19270b39 	stmdbne	r7!, {r0, r3, r4, r5, r8, r9, fp}
 930:	06120111 			; <UNDEFINED> instruction: 0x06120111
 934:	42971840 	addsmi	r1, r7, #64, 16	; 0x400000
 938:	00130119 	andseq	r0, r3, r9, lsl r1
 93c:	012e1000 			; <UNDEFINED> instruction: 0x012e1000
 940:	0e03193f 			; <UNDEFINED> instruction: 0x0e03193f
 944:	0b3b0b3a 	bleq	ec3634 <__bss_end__+0xeba294>
 948:	19270b39 	stmdbne	r7!, {r0, r3, r4, r5, r8, r9, fp}
 94c:	01111349 	tsteq	r1, r9, asr #6
 950:	18400612 	stmdane	r0, {r1, r4, r9, sl}^
 954:	01194297 			; <UNDEFINED> instruction: 0x01194297
 958:	11000013 	tstne	r0, r3, lsl r0
 95c:	193f002e 	ldmdbne	pc!, {r1, r2, r3, r5}	; <UNPREDICTABLE>
 960:	0e6e193c 			; <UNDEFINED> instruction: 0x0e6e193c
 964:	0b3a0e03 	bleq	e84178 <__bss_end__+0xe7add8>
 968:	0b390b3b 	bleq	e4365c <__bss_end__+0xe3a2bc>
 96c:	01000000 	mrseq	r0, (UNDEF: 0)
 970:	0e250111 	mcreq	1, 1, r0, cr5, cr1, {0}
 974:	0e030b13 	vmoveq.32	d3[0], r0
 978:	01110e1b 	tsteq	r1, fp, lsl lr
 97c:	17100612 			; <UNDEFINED> instruction: 0x17100612
 980:	24020000 	strcs	r0, [r2], #-0
 984:	3e0b0b00 	vmlacc.f64	d0, d11, d0
 988:	0008030b 	andeq	r0, r8, fp, lsl #6
 98c:	00240300 	eoreq	r0, r4, r0, lsl #6
 990:	0b3e0b0b 	bleq	f835c4 <__bss_end__+0xf7a224>
 994:	00000e03 	andeq	r0, r0, r3, lsl #28
 998:	27011504 	strcs	r1, [r1, -r4, lsl #10]
 99c:	01134919 	tsteq	r3, r9, lsl r9
 9a0:	05000013 	streq	r0, [r0, #-19]	; 0xffffffed
 9a4:	13490005 	movtne	r0, #36869	; 0x9005
 9a8:	34060000 	strcc	r0, [r6], #-0
 9ac:	3a0e0300 	bcc	3815b4 <__bss_end__+0x378214>
 9b0:	390b3b0b 	stmdbcc	fp, {r0, r1, r3, r8, r9, fp, ip, sp}
 9b4:	3f13490b 	svccc	0x0013490b
 9b8:	00193c19 	andseq	r3, r9, r9, lsl ip
 9bc:	000f0700 	andeq	r0, pc, r0, lsl #14
 9c0:	13490b0b 	movtne	r0, #39691	; 0x9b0b
 9c4:	26080000 	strcs	r0, [r8], -r0
 9c8:	00134900 	andseq	r4, r3, r0, lsl #18
 9cc:	012e0900 			; <UNDEFINED> instruction: 0x012e0900
 9d0:	0e03193f 			; <UNDEFINED> instruction: 0x0e03193f
 9d4:	0b3b0b3a 	bleq	ec36c4 <__bss_end__+0xeba324>
 9d8:	19270b39 	stmdbne	r7!, {r0, r3, r4, r5, r8, r9, fp}
 9dc:	06120111 			; <UNDEFINED> instruction: 0x06120111
 9e0:	42971840 	addsmi	r1, r7, #64, 16	; 0x400000
 9e4:	00130119 	andseq	r0, r3, r9, lsl r1
 9e8:	00050a00 	andeq	r0, r5, r0, lsl #20
 9ec:	0b3a0803 	bleq	e82a00 <__bss_end__+0xe79660>
 9f0:	0b390b3b 	bleq	e436e4 <__bss_end__+0xe3a344>
 9f4:	17021349 	strne	r1, [r2, -r9, asr #6]
 9f8:	001742b7 			; <UNDEFINED> instruction: 0x001742b7
 9fc:	82890b00 	addhi	r0, r9, #0, 22
 a00:	01110101 	tsteq	r1, r1, lsl #2
 a04:	00001331 	andeq	r1, r0, r1, lsr r3
 a08:	01828a0c 	orreq	r8, r2, ip, lsl #20
 a0c:	91180200 	tstls	r8, r0, lsl #4
 a10:	00001842 	andeq	r1, r0, r2, asr #16
 a14:	0300340d 	movweq	r3, #1037	; 0x40d
 a18:	3b0b3a08 	blcc	2cf240 <__bss_end__+0x2c5ea0>
 a1c:	490b390b 	stmdbmi	fp, {r0, r1, r3, r8, fp, ip, sp}
 a20:	b7170213 			; <UNDEFINED> instruction: 0xb7170213
 a24:	00001742 	andeq	r1, r0, r2, asr #14
 a28:	11010b0e 	tstne	r1, lr, lsl #22
 a2c:	01061201 	tsteq	r6, r1, lsl #4
 a30:	0f000013 	svceq	0x00000013
 a34:	00018289 	andeq	r8, r1, r9, lsl #5
 a38:	13310111 	teqne	r1, #1073741828	; 0x40000004
 a3c:	2e100000 	cdpcs	0, 1, cr0, cr0, cr0, {0}
 a40:	03193f01 	tsteq	r9, #1, 30
 a44:	3b0b3a0e 	blcc	2cf284 <__bss_end__+0x2c5ee4>
 a48:	270b390b 	strcs	r3, [fp, -fp, lsl #18]
 a4c:	11134919 	tstne	r3, r9, lsl r9
 a50:	40061201 	andmi	r1, r6, r1, lsl #4
 a54:	19429718 	stmdbne	r2, {r3, r4, r8, r9, sl, ip, pc}^
 a58:	00001301 	andeq	r1, r0, r1, lsl #6
 a5c:	03000511 	movweq	r0, #1297	; 0x511
 a60:	3b0b3a0e 	blcc	2cf2a0 <__bss_end__+0x2c5f00>
 a64:	490b390b 	stmdbmi	fp, {r0, r1, r3, r8, fp, ip, sp}
 a68:	b7170213 			; <UNDEFINED> instruction: 0xb7170213
 a6c:	00001742 	andeq	r1, r0, r2, asr #14
 a70:	3f002e12 	svccc	0x00002e12
 a74:	6e193c19 	mrcvs	12, 0, r3, cr9, cr9, {0}
 a78:	3a0e030e 	bcc	3816b8 <__bss_end__+0x378318>
 a7c:	390b3b0b 	stmdbcc	fp, {r0, r1, r3, r8, r9, fp, ip, sp}
 a80:	0000000b 	andeq	r0, r0, fp
 a84:	25011101 	strcs	r1, [r1, #-257]	; 0xfffffeff
 a88:	030b130e 	movweq	r1, #45838	; 0xb30e
 a8c:	110e1b0e 	tstne	lr, lr, lsl #22
 a90:	10061201 	andne	r1, r6, r1, lsl #4
 a94:	02000017 	andeq	r0, r0, #23, 0
 a98:	0b0b0024 	bleq	2c0b30 <__bss_end__+0x2b7790>
 a9c:	08030b3e 	stmdaeq	r3, {r1, r2, r3, r4, r5, r8, r9, fp}
 aa0:	24030000 	strcs	r0, [r3], #-0
 aa4:	3e0b0b00 	vmlacc.f64	d0, d11, d0
 aa8:	000e030b 	andeq	r0, lr, fp, lsl #6
 aac:	00350400 	eorseq	r0, r5, r0, lsl #8
 ab0:	00001349 	andeq	r1, r0, r9, asr #6
 ab4:	03001605 	movweq	r1, #1541	; 0x605
 ab8:	3b0b3a0e 	blcc	2cf2f8 <__bss_end__+0x2c5f58>
 abc:	490b390b 	stmdbmi	fp, {r0, r1, r3, r8, fp, ip, sp}
 ac0:	06000013 			; <UNDEFINED> instruction: 0x06000013
 ac4:	19270115 	stmdbne	r7!, {r0, r2, r4, r8}
 ac8:	13011349 	movwne	r1, #4937	; 0x1349
 acc:	05070000 	streq	r0, [r7, #-0]
 ad0:	00134900 	andseq	r4, r3, r0, lsl #18
 ad4:	00340800 	eorseq	r0, r4, r0, lsl #16
 ad8:	0b3a0e03 	bleq	e842ec <__bss_end__+0xe7af4c>
 adc:	0b390b3b 	bleq	e437d0 <__bss_end__+0xe3a430>
 ae0:	193f1349 	ldmdbne	pc!, {r0, r3, r6, r8, r9, ip}	; <UNPREDICTABLE>
 ae4:	0000193c 	andeq	r1, r0, ip, lsr r9
 ae8:	0b000f09 	bleq	4714 <__code_start__-0x38ec>
 aec:	0013490b 	andseq	r4, r3, fp, lsl #18
 af0:	00260a00 	eoreq	r0, r6, r0, lsl #20
 af4:	00001349 	andeq	r1, r0, r9, asr #6
 af8:	3e01040b 	cdpcc	4, 0, cr0, cr1, cr11, {0}
 afc:	490b0b0b 	stmdbmi	fp, {r0, r1, r3, r8, r9, fp}
 b00:	3b0b3a13 	blcc	2cf354 <__bss_end__+0x2c5fb4>
 b04:	010b390b 	tsteq	fp, fp, lsl #18
 b08:	0c000013 	stceq	0, cr0, [r0], {19}
 b0c:	0e030028 	cdpeq	0, 0, cr0, cr3, cr8, {1}
 b10:	00000b1c 	andeq	r0, r0, ip, lsl fp
 b14:	0301130d 	movweq	r1, #4877	; 0x130d
 b18:	3a0b0b0e 	bcc	2c3758 <__bss_end__+0x2ba3b8>
 b1c:	390b3b0b 	stmdbcc	fp, {r0, r1, r3, r8, r9, fp, ip, sp}
 b20:	0013010b 	andseq	r0, r3, fp, lsl #2
 b24:	000d0e00 	andeq	r0, sp, r0, lsl #28
 b28:	0b3a0803 	bleq	e82b3c <__bss_end__+0xe7979c>
 b2c:	0b390b3b 	bleq	e43820 <__bss_end__+0xe3a480>
 b30:	0b381349 	bleq	e0585c <__bss_end__+0xdfc4bc>
 b34:	0d0f0000 	stceq	0, cr0, [pc, #-0]	; b3c <__code_start__-0x74c4>
 b38:	3a0e0300 	bcc	381740 <__bss_end__+0x3783a0>
 b3c:	390b3b0b 	stmdbcc	fp, {r0, r1, r3, r8, r9, fp, ip, sp}
 b40:	3813490b 	ldmdacc	r3, {r0, r1, r3, r8, fp, lr}
 b44:	1000000b 	andne	r0, r0, fp
 b48:	0e030034 	mcreq	0, 0, r0, cr3, cr4, {1}
 b4c:	0b3b0b3a 	bleq	ec383c <__bss_end__+0xeba49c>
 b50:	13490b39 	movtne	r0, #39737	; 0x9b39
 b54:	0000061c 	andeq	r0, r0, ip, lsl r6
 b58:	3f012e11 	svccc	0x00012e11
 b5c:	3a0e0319 	bcc	3817c8 <__bss_end__+0x378428>
 b60:	390b3b0b 	stmdbcc	fp, {r0, r1, r3, r8, r9, fp, ip, sp}
 b64:	1119270b 	tstne	r9, fp, lsl #14
 b68:	40061201 	andmi	r1, r6, r1, lsl #4
 b6c:	19429718 	stmdbne	r2, {r3, r4, r8, r9, sl, ip, pc}^
 b70:	00001301 	andeq	r1, r0, r1, lsl #6
 b74:	01828912 	orreq	r8, r2, r2, lsl r9
 b78:	31011100 	mrscc	r1, (UNDEF: 17)
 b7c:	13000013 	movwne	r0, #19
 b80:	193f012e 	ldmdbne	pc!, {r1, r2, r3, r5, r8}	; <UNPREDICTABLE>
 b84:	0b3a0e03 	bleq	e84398 <__bss_end__+0xe7aff8>
 b88:	0b390b3b 	bleq	e4387c <__bss_end__+0xe3a4dc>
 b8c:	13491927 	movtne	r1, #39207	; 0x9927
 b90:	06120111 			; <UNDEFINED> instruction: 0x06120111
 b94:	42971840 	addsmi	r1, r7, #64, 16	; 0x400000
 b98:	00130119 	andseq	r0, r3, r9, lsl r1
 b9c:	82891400 	addhi	r1, r9, #0, 8
 ba0:	01110101 	tsteq	r1, r1, lsl #2
 ba4:	00001331 	andeq	r1, r0, r1, lsr r3
 ba8:	01828a15 	orreq	r8, r2, r5, lsl sl
 bac:	91180200 	tstls	r8, r0, lsl #4
 bb0:	00001842 	andeq	r1, r0, r2, asr #16
 bb4:	03000516 	movweq	r0, #1302	; 0x516
 bb8:	3b0b3a08 	blcc	2cf3e0 <__bss_end__+0x2c6040>
 bbc:	490b390b 	stmdbmi	fp, {r0, r1, r3, r8, fp, ip, sp}
 bc0:	b7170213 			; <UNDEFINED> instruction: 0xb7170213
 bc4:	00001742 	andeq	r1, r0, r2, asr #14
 bc8:	01828917 	orreq	r8, r2, r7, lsl r9
 bcc:	31011101 	tstcc	r1, r1, lsl #2
 bd0:	00130113 	andseq	r0, r3, r3, lsl r1
 bd4:	00341800 	eorseq	r1, r4, r0, lsl #16
 bd8:	0b3a0803 	bleq	e82bec <__bss_end__+0xe7984c>
 bdc:	0b390b3b 	bleq	e438d0 <__bss_end__+0xe3a530>
 be0:	17021349 	strne	r1, [r2, -r9, asr #6]
 be4:	001742b7 			; <UNDEFINED> instruction: 0x001742b7
 be8:	00341900 	eorseq	r1, r4, r0, lsl #18
 bec:	0b3a0e03 	bleq	e84400 <__bss_end__+0xe7b060>
 bf0:	0b390b3b 	bleq	e438e4 <__bss_end__+0xe3a544>
 bf4:	051c1349 	ldreq	r1, [ip, #-841]	; 0xfffffcb7
 bf8:	2e1a0000 	cdpcs	0, 1, cr0, cr10, cr0, {0}
 bfc:	3a0e0301 	bcc	381808 <__bss_end__+0x378468>
 c00:	390b3b0b 	stmdbcc	fp, {r0, r1, r3, r8, r9, fp, ip, sp}
 c04:	1119270b 	tstne	r9, fp, lsl #14
 c08:	40061201 	andmi	r1, r6, r1, lsl #4
 c0c:	19429718 	stmdbne	r2, {r3, r4, r8, r9, sl, ip, pc}^
 c10:	00001301 	andeq	r1, r0, r1, lsl #6
 c14:	0300051b 	movweq	r0, #1307	; 0x51b
 c18:	3b0b3a0e 	blcc	2cf458 <__bss_end__+0x2c60b8>
 c1c:	490b390b 	stmdbmi	fp, {r0, r1, r3, r8, fp, ip, sp}
 c20:	b7170213 			; <UNDEFINED> instruction: 0xb7170213
 c24:	00001742 	andeq	r1, r0, r2, asr #14
 c28:	0000351c 	andeq	r3, r0, ip, lsl r5
 c2c:	002e1d00 	eoreq	r1, lr, r0, lsl #26
 c30:	193c193f 	ldmdbne	ip!, {r0, r1, r2, r3, r4, r5, r8, fp, ip}
 c34:	0e030e6e 	cdpeq	14, 0, cr0, cr3, cr14, {3}
 c38:	0b3b0b3a 	bleq	ec3928 <__bss_end__+0xeba588>
 c3c:	00000b39 	andeq	r0, r0, r9, lsr fp
 c40:	01110100 	tsteq	r1, r0, lsl #2
 c44:	0b130e25 	bleq	4c44e0 <__bss_end__+0x4bb140>
 c48:	0e1b0e03 	cdpeq	14, 1, cr0, cr11, cr3, {0}
 c4c:	06120111 			; <UNDEFINED> instruction: 0x06120111
 c50:	00001710 	andeq	r1, r0, r0, lsl r7
 c54:	0b002402 	bleq	9c64 <__bss_end__+0x8c4>
 c58:	030b3e0b 	movweq	r3, #48651	; 0xbe0b
 c5c:	03000008 	movweq	r0, #8
 c60:	0b0b0024 	bleq	2c0cf8 <__bss_end__+0x2b7958>
 c64:	0e030b3e 	vmoveq.16	d3[0], r0
 c68:	26040000 	strcs	r0, [r4], -r0
 c6c:	00134900 	andseq	r4, r3, r0, lsl #18
 c70:	00160500 	andseq	r0, r6, r0, lsl #10
 c74:	0b3a0e03 	bleq	e84488 <__bss_end__+0xe7b0e8>
 c78:	0b390b3b 	bleq	e4396c <__bss_end__+0xe3a5cc>
 c7c:	00001349 	andeq	r1, r0, r9, asr #6
 c80:	27011506 	strcs	r1, [r1, -r6, lsl #10]
 c84:	01134919 	tsteq	r3, r9, lsl r9
 c88:	07000013 	smladeq	r0, r3, r0, r0
 c8c:	13490005 	movtne	r0, #36869	; 0x9005
 c90:	34080000 	strcc	r0, [r8], #-0
 c94:	3a0e0300 	bcc	38189c <__bss_end__+0x3784fc>
 c98:	390b3b0b 	stmdbcc	fp, {r0, r1, r3, r8, r9, fp, ip, sp}
 c9c:	3f13490b 	svccc	0x0013490b
 ca0:	00193c19 	andseq	r3, r9, r9, lsl ip
 ca4:	000f0900 	andeq	r0, pc, r0, lsl #18
 ca8:	13490b0b 	movtne	r0, #39691	; 0x9b0b
 cac:	040a0000 	streq	r0, [sl], #-0
 cb0:	0b0b3e01 	bleq	2d04bc <__bss_end__+0x2c711c>
 cb4:	3a13490b 	bcc	4d30e8 <__bss_end__+0x4c9d48>
 cb8:	390b3b0b 	stmdbcc	fp, {r0, r1, r3, r8, r9, fp, ip, sp}
 cbc:	0013010b 	andseq	r0, r3, fp, lsl #2
 cc0:	00280b00 	eoreq	r0, r8, r0, lsl #22
 cc4:	0b1c0e03 	bleq	7044d8 <__bss_end__+0x6fb138>
 cc8:	340c0000 	strcc	r0, [ip], #-0
 ccc:	3a0e0300 	bcc	3818d4 <__bss_end__+0x378534>
 cd0:	390b3b0b 	stmdbcc	fp, {r0, r1, r3, r8, r9, fp, ip, sp}
 cd4:	1c13490b 			; <UNDEFINED> instruction: 0x1c13490b
 cd8:	0d000006 	stceq	0, cr0, [r0, #-24]	; 0xffffffe8
 cdc:	193f012e 	ldmdbne	pc!, {r1, r2, r3, r5, r8}	; <UNPREDICTABLE>
 ce0:	0b3a0e03 	bleq	e844f4 <__bss_end__+0xe7b154>
 ce4:	0b390b3b 	bleq	e439d8 <__bss_end__+0xe3a638>
 ce8:	13491927 	movtne	r1, #39207	; 0x9927
 cec:	06120111 			; <UNDEFINED> instruction: 0x06120111
 cf0:	42971840 	addsmi	r1, r7, #64, 16	; 0x400000
 cf4:	00130119 	andseq	r0, r3, r9, lsl r1
 cf8:	00050e00 	andeq	r0, r5, r0, lsl #28
 cfc:	0b3a0803 	bleq	e82d10 <__bss_end__+0xe79970>
 d00:	0b390b3b 	bleq	e439f4 <__bss_end__+0xe3a654>
 d04:	17021349 	strne	r1, [r2, -r9, asr #6]
 d08:	001742b7 			; <UNDEFINED> instruction: 0x001742b7
 d0c:	82890f00 	addhi	r0, r9, #0, 30
 d10:	01110101 	tsteq	r1, r1, lsl #2
 d14:	00001331 	andeq	r1, r0, r1, lsr r3
 d18:	01828a10 	orreq	r8, r2, r0, lsl sl
 d1c:	91180200 	tstls	r8, r0, lsl #4
 d20:	00001842 	andeq	r1, r0, r2, asr #16
 d24:	3f012e11 	svccc	0x00012e11
 d28:	3a0e0319 	bcc	381994 <__bss_end__+0x3785f4>
 d2c:	390b3b0b 	stmdbcc	fp, {r0, r1, r3, r8, r9, fp, ip, sp}
 d30:	1119270b 	tstne	r9, fp, lsl #14
 d34:	40061201 	andmi	r1, r6, r1, lsl #4
 d38:	19429718 	stmdbne	r2, {r3, r4, r8, r9, sl, ip, pc}^
 d3c:	00001301 	andeq	r1, r0, r1, lsl #6
 d40:	01828912 	orreq	r8, r2, r2, lsl r9
 d44:	31011101 	tstcc	r1, r1, lsl #2
 d48:	00130113 	andseq	r0, r3, r3, lsl r1
 d4c:	82891300 	addhi	r1, r9, #0, 6
 d50:	01110001 	tsteq	r1, r1
 d54:	00001331 	andeq	r1, r0, r1, lsr r3
 d58:	03003414 	movweq	r3, #1044	; 0x414
 d5c:	3b0b3a0e 	blcc	2cf59c <__bss_end__+0x2c61fc>
 d60:	490b390b 	stmdbmi	fp, {r0, r1, r3, r8, fp, ip, sp}
 d64:	b7170213 			; <UNDEFINED> instruction: 0xb7170213
 d68:	00001742 	andeq	r1, r0, r2, asr #14
 d6c:	3f002e15 	svccc	0x00002e15
 d70:	6e193c19 	mrcvs	12, 0, r3, cr9, cr9, {0}
 d74:	3a0e030e 	bcc	3819b4 <__bss_end__+0x378614>
 d78:	390b3b0b 	stmdbcc	fp, {r0, r1, r3, r8, r9, fp, ip, sp}
 d7c:	0000000b 	andeq	r0, r0, fp
 d80:	25011101 	strcs	r1, [r1, #-257]	; 0xfffffeff
 d84:	030b130e 	movweq	r1, #45838	; 0xb30e
 d88:	110e1b0e 	tstne	lr, lr, lsl #22
 d8c:	10061201 	andne	r1, r6, r1, lsl #4
 d90:	02000017 	andeq	r0, r0, #23, 0
 d94:	0b0b0024 	bleq	2c0e2c <__bss_end__+0x2b7a8c>
 d98:	08030b3e 	stmdaeq	r3, {r1, r2, r3, r4, r5, r8, r9, fp}
 d9c:	24030000 	strcs	r0, [r3], #-0
 da0:	3e0b0b00 	vmlacc.f64	d0, d11, d0
 da4:	000e030b 	andeq	r0, lr, fp, lsl #6
 da8:	01150400 	tsteq	r5, r0, lsl #8
 dac:	13491927 	movtne	r1, #39207	; 0x9927
 db0:	00001301 	andeq	r1, r0, r1, lsl #6
 db4:	49000505 	stmdbmi	r0, {r0, r2, r8, sl}
 db8:	06000013 			; <UNDEFINED> instruction: 0x06000013
 dbc:	0e030034 	mcreq	0, 0, r0, cr3, cr4, {1}
 dc0:	0b3b0b3a 	bleq	ec3ab0 <__bss_end__+0xeba710>
 dc4:	13490b39 	movtne	r0, #39737	; 0x9b39
 dc8:	193c193f 	ldmdbne	ip!, {r0, r1, r2, r3, r4, r5, r8, fp, ip}
 dcc:	0f070000 	svceq	0x00070000
 dd0:	490b0b00 	stmdbmi	fp, {r8, r9, fp}
 dd4:	08000013 	stmdaeq	r0, {r0, r1, r4}
 dd8:	13490026 	movtne	r0, #36902	; 0x9026
 ddc:	34090000 	strcc	r0, [r9], #-0
 de0:	3a134700 	bcc	4d29e8 <__bss_end__+0x4c9648>
 de4:	390b3b0b 	stmdbcc	fp, {r0, r1, r3, r8, r9, fp, ip, sp}
 de8:	0018020b 	andseq	r0, r8, fp, lsl #4
 dec:	012e0a00 			; <UNDEFINED> instruction: 0x012e0a00
 df0:	0e03193f 			; <UNDEFINED> instruction: 0x0e03193f
 df4:	0b3b0b3a 	bleq	ec3ae4 <__bss_end__+0xeba744>
 df8:	19270b39 	stmdbne	r7!, {r0, r3, r4, r5, r8, r9, fp}
 dfc:	06120111 			; <UNDEFINED> instruction: 0x06120111
 e00:	42971840 	addsmi	r1, r7, #64, 16	; 0x400000
 e04:	00130119 	andseq	r0, r3, r9, lsl r1
 e08:	00050b00 	andeq	r0, r5, r0, lsl #22
 e0c:	0b3a0803 	bleq	e82e20 <__bss_end__+0xe79a80>
 e10:	0b390b3b 	bleq	e43b04 <__bss_end__+0xe3a764>
 e14:	18021349 	stmdane	r2, {r0, r3, r6, r8, r9, ip}
 e18:	2e0c0000 	cdpcs	0, 0, cr0, cr12, cr0, {0}
 e1c:	03193f00 	tsteq	r9, #0, 30
 e20:	3b0b3a0e 	blcc	2cf660 <__bss_end__+0x2c62c0>
 e24:	270b390b 	strcs	r3, [fp, -fp, lsl #18]
 e28:	12011119 	andne	r1, r1, #1073741830	; 0x40000006
 e2c:	97184006 	ldrls	r4, [r8, -r6]
 e30:	00001942 	andeq	r1, r0, r2, asr #18
 e34:	03012e0d 	movweq	r2, #7693	; 0x1e0d
 e38:	3b0b3a0e 	blcc	2cf678 <__bss_end__+0x2c62d8>
 e3c:	270b390b 	strcs	r3, [fp, -fp, lsl #18]
 e40:	11134919 	tstne	r3, r9, lsl r9
 e44:	40061201 	andmi	r1, r6, r1, lsl #4
 e48:	19429718 	stmdbne	r2, {r3, r4, r8, r9, sl, ip, pc}^
 e4c:	00001301 	andeq	r1, r0, r1, lsl #6
 e50:	0300050e 	movweq	r0, #1294	; 0x50e
 e54:	3b0b3a08 	blcc	2cf67c <__bss_end__+0x2c62dc>
 e58:	490b390b 	stmdbmi	fp, {r0, r1, r3, r8, fp, ip, sp}
 e5c:	b7170213 			; <UNDEFINED> instruction: 0xb7170213
 e60:	00001742 	andeq	r1, r0, r2, asr #14
 e64:	0182890f 	orreq	r8, r2, pc, lsl #18
 e68:	31011101 	tstcc	r1, r1, lsl #2
 e6c:	10000013 	andne	r0, r0, r3, lsl r0
 e70:	0001828a 	andeq	r8, r1, sl, lsl #5
 e74:	42911802 	addsmi	r1, r1, #131072	; 0x20000
 e78:	11000018 	tstne	r0, r8, lsl r0
 e7c:	193f002e 	ldmdbne	pc!, {r1, r2, r3, r5}	; <UNPREDICTABLE>
 e80:	0e6e193c 			; <UNDEFINED> instruction: 0x0e6e193c
 e84:	0b3a0e03 	bleq	e84698 <__bss_end__+0xe7b2f8>
 e88:	0b390b3b 	bleq	e43b7c <__bss_end__+0xe3a7dc>
 e8c:	01000000 	mrseq	r0, (UNDEF: 0)
 e90:	0e250111 	mcreq	1, 1, r0, cr5, cr1, {0}
 e94:	0e030b13 	vmoveq.32	d3[0], r0
 e98:	01110e1b 	tsteq	r1, fp, lsl lr
 e9c:	17100612 			; <UNDEFINED> instruction: 0x17100612
 ea0:	24020000 	strcs	r0, [r2], #-0
 ea4:	3e0b0b00 	vmlacc.f64	d0, d11, d0
 ea8:	0008030b 	andeq	r0, r8, fp, lsl #6
 eac:	00240300 	eoreq	r0, r4, r0, lsl #6
 eb0:	0b3e0b0b 	bleq	f83ae4 <__bss_end__+0xf7a744>
 eb4:	00000e03 	andeq	r0, r0, r3, lsl #28
 eb8:	27011504 	strcs	r1, [r1, -r4, lsl #10]
 ebc:	01134919 	tsteq	r3, r9, lsl r9
 ec0:	05000013 	streq	r0, [r0, #-19]	; 0xffffffed
 ec4:	13490005 	movtne	r0, #36869	; 0x9005
 ec8:	34060000 	strcc	r0, [r6], #-0
 ecc:	3a0e0300 	bcc	381ad4 <__bss_end__+0x378734>
 ed0:	390b3b0b 	stmdbcc	fp, {r0, r1, r3, r8, r9, fp, ip, sp}
 ed4:	3f13490b 	svccc	0x0013490b
 ed8:	00193c19 	andseq	r3, r9, r9, lsl ip
 edc:	000f0700 	andeq	r0, pc, r0, lsl #14
 ee0:	13490b0b 	movtne	r0, #39691	; 0x9b0b
 ee4:	26080000 	strcs	r0, [r8], -r0
 ee8:	00134900 	andseq	r4, r3, r0, lsl #18
 eec:	012e0900 			; <UNDEFINED> instruction: 0x012e0900
 ef0:	0e03193f 			; <UNDEFINED> instruction: 0x0e03193f
 ef4:	0b3b0b3a 	bleq	ec3be4 <__bss_end__+0xeba844>
 ef8:	19270b39 	stmdbne	r7!, {r0, r3, r4, r5, r8, r9, fp}
 efc:	01111349 	tsteq	r1, r9, asr #6
 f00:	18400612 	stmdane	r0, {r1, r4, r9, sl}^
 f04:	01194297 			; <UNDEFINED> instruction: 0x01194297
 f08:	0a000013 	beq	f5c <__code_start__-0x70a4>
 f0c:	0e030005 	cdpeq	0, 0, cr0, cr3, cr5, {0}
 f10:	0b3b0b3a 	bleq	ec3c00 <__bss_end__+0xeba860>
 f14:	13490b39 	movtne	r0, #39737	; 0x9b39
 f18:	00001802 	andeq	r1, r0, r2, lsl #16
 f1c:	0300050b 	movweq	r0, #1291	; 0x50b
 f20:	3b0b3a08 	blcc	2cf748 <__bss_end__+0x2c63a8>
 f24:	490b390b 	stmdbmi	fp, {r0, r1, r3, r8, fp, ip, sp}
 f28:	b7170213 			; <UNDEFINED> instruction: 0xb7170213
 f2c:	00001742 	andeq	r1, r0, r2, asr #14
 f30:	0300340c 	movweq	r3, #1036	; 0x40c
 f34:	3b0b3a08 	blcc	2cf75c <__bss_end__+0x2c63bc>
 f38:	490b390b 	stmdbmi	fp, {r0, r1, r3, r8, fp, ip, sp}
 f3c:	b7170213 			; <UNDEFINED> instruction: 0xb7170213
 f40:	00001742 	andeq	r1, r0, r2, asr #14
 f44:	01110100 	tsteq	r1, r0, lsl #2
 f48:	0b130e25 	bleq	4c47e4 <__bss_end__+0x4bb444>
 f4c:	0e1b0e03 	cdpeq	14, 1, cr0, cr11, cr3, {0}
 f50:	01111755 	tsteq	r1, r5, asr r7
 f54:	00001710 	andeq	r1, r0, r0, lsl r7
 f58:	0b002402 	bleq	9f68 <__bss_end__+0xbc8>
 f5c:	030b3e0b 	movweq	r3, #48651	; 0xbe0b
 f60:	03000008 	movweq	r0, #8
 f64:	0e030016 	mcreq	0, 0, r0, cr3, cr6, {0}
 f68:	0b3b0b3a 	bleq	ec3c58 <__bss_end__+0xeba8b8>
 f6c:	13490b39 	movtne	r0, #39737	; 0x9b39
 f70:	24040000 	strcs	r0, [r4], #-0
 f74:	3e0b0b00 	vmlacc.f64	d0, d11, d0
 f78:	000e030b 	andeq	r0, lr, fp, lsl #6
 f7c:	00260500 	eoreq	r0, r6, r0, lsl #10
 f80:	00001349 	andeq	r1, r0, r9, asr #6
 f84:	27011506 	strcs	r1, [r1, -r6, lsl #10]
 f88:	01134919 	tsteq	r3, r9, lsl r9
 f8c:	07000013 	smladeq	r0, r3, r0, r0
 f90:	13490005 	movtne	r0, #36869	; 0x9005
 f94:	34080000 	strcc	r0, [r8], #-0
 f98:	3a0e0300 	bcc	381ba0 <__bss_end__+0x378800>
 f9c:	390b3b0b 	stmdbcc	fp, {r0, r1, r3, r8, r9, fp, ip, sp}
 fa0:	3f13490b 	svccc	0x0013490b
 fa4:	00193c19 	andseq	r3, r9, r9, lsl ip
 fa8:	000f0900 	andeq	r0, pc, r0, lsl #18
 fac:	13490b0b 	movtne	r0, #39691	; 0x9b0b
 fb0:	2e0a0000 	cdpcs	0, 0, cr0, cr10, cr0, {0}
 fb4:	03193f01 	tsteq	r9, #1, 30
 fb8:	3b0b3a0e 	blcc	2cf7f8 <__bss_end__+0x2c6458>
 fbc:	270b390b 	strcs	r3, [fp, -fp, lsl #18]
 fc0:	11134919 	tstne	r3, r9, lsl r9
 fc4:	40061201 	andmi	r1, r6, r1, lsl #4
 fc8:	19429718 	stmdbne	r2, {r3, r4, r8, r9, sl, ip, pc}^
 fcc:	00001301 	andeq	r1, r0, r1, lsl #6
 fd0:	0300050b 	movweq	r0, #1291	; 0x50b
 fd4:	3b0b3a08 	blcc	2cf7fc <__bss_end__+0x2c645c>
 fd8:	490b390b 	stmdbmi	fp, {r0, r1, r3, r8, fp, ip, sp}
 fdc:	b7170213 			; <UNDEFINED> instruction: 0xb7170213
 fe0:	00001742 	andeq	r1, r0, r2, asr #14
 fe4:	0300340c 	movweq	r3, #1036	; 0x40c
 fe8:	3b0b3a08 	blcc	2cf810 <__bss_end__+0x2c6470>
 fec:	490b390b 	stmdbmi	fp, {r0, r1, r3, r8, fp, ip, sp}
 ff0:	b7170213 			; <UNDEFINED> instruction: 0xb7170213
 ff4:	00001742 	andeq	r1, r0, r2, asr #14
	...

Disassembly of section .debug_aranges:

00000000 <.debug_aranges>:
   0:	0000001c 	andeq	r0, r0, ip, lsl r0
   4:	00000002 	andeq	r0, r0, r2
   8:	00040000 	andeq	r0, r4, r0
   c:	00000000 	andeq	r0, r0, r0
  10:	00008034 	andeq	r8, r0, r4, lsr r0
  14:	0000004c 	andeq	r0, r0, ip, asr #32
	...
  20:	0000001c 	andeq	r0, r0, ip, lsl r0
  24:	019f0002 	orrseq	r0, pc, r2
  28:	00040000 	andeq	r0, r4, r0
  2c:	00000000 	andeq	r0, r0, r0
  30:	00008080 	andeq	r8, r0, r0, lsl #1
  34:	000001b4 			; <UNDEFINED> instruction: 0x000001b4
	...
  40:	0000001c 	andeq	r0, r0, ip, lsl r0
  44:	057b0002 	ldrbeq	r0, [fp, #-2]!
  48:	00040000 	andeq	r0, r4, r0
  4c:	00000000 	andeq	r0, r0, r0
  50:	00008234 	andeq	r8, r0, r4, lsr r2
  54:	00000058 	andeq	r0, r0, r8, asr r0
	...
  60:	0000001c 	andeq	r0, r0, ip, lsl r0
  64:	071c0002 	ldreq	r0, [ip, -r2]
  68:	00040000 	andeq	r0, r4, r0
  6c:	00000000 	andeq	r0, r0, r0
  70:	0000828c 	andeq	r8, r0, ip, lsl #5
  74:	00000034 	andeq	r0, r0, r4, lsr r0
	...
  80:	0000001c 	andeq	r0, r0, ip, lsl r0
  84:	08130002 	ldmdaeq	r3, {r1}
  88:	00040000 	andeq	r0, r4, r0
  8c:	00000000 	andeq	r0, r0, r0
  90:	000082c0 	andeq	r8, r0, r0, asr #5
  94:	0000062c 	andeq	r0, r0, ip, lsr #12
	...
  a0:	0000001c 	andeq	r0, r0, ip, lsl r0
  a4:	111b0002 	tstne	fp, r2
  a8:	00040000 	andeq	r0, r4, r0
  ac:	00000000 	andeq	r0, r0, r0
  b0:	000088ec 	andeq	r8, r0, ip, ror #17
  b4:	0000002c 	andeq	r0, r0, ip, lsr #32
	...
  c0:	0000001c 	andeq	r0, r0, ip, lsl r0
  c4:	124e0002 	subne	r0, lr, #2, 0
  c8:	00040000 	andeq	r0, r4, r0
  cc:	00000000 	andeq	r0, r0, r0
  d0:	00008918 	andeq	r8, r0, r8, lsl r9
  d4:	00000030 	andeq	r0, r0, r0, lsr r0
	...
  e0:	0000001c 	andeq	r0, r0, ip, lsl r0
  e4:	13ab0002 			; <UNDEFINED> instruction: 0x13ab0002
  e8:	00040000 	andeq	r0, r4, r0
  ec:	00000000 	andeq	r0, r0, r0
  f0:	00008948 	andeq	r8, r0, r8, asr #18
  f4:	00000004 	andeq	r0, r0, r4
	...
 100:	0000001c 	andeq	r0, r0, ip, lsl r0
 104:	147d0002 	ldrbtne	r0, [sp], #-2
 108:	00040000 	andeq	r0, r4, r0
 10c:	00000000 	andeq	r0, r0, r0
 110:	0000894c 	andeq	r8, r0, ip, asr #18
 114:	0000007c 	andeq	r0, r0, ip, ror r0
	...
 120:	0000001c 	andeq	r0, r0, ip, lsl r0
 124:	16a10002 	strtne	r0, [r1], r2
 128:	00040000 	andeq	r0, r4, r0
 12c:	00000000 	andeq	r0, r0, r0
 130:	000089c8 	andeq	r8, r0, r8, asr #19
 134:	0000009c 	muleq	r0, ip, r0
	...
 140:	0000001c 	andeq	r0, r0, ip, lsl r0
 144:	191d0002 	ldmdbne	sp, {r1}
 148:	00040000 	andeq	r0, r4, r0
 14c:	00000000 	andeq	r0, r0, r0
 150:	00008a7c 	andeq	r8, r0, ip, ror sl
 154:	000001ac 	andeq	r0, r0, ip, lsr #3
	...
 160:	0000001c 	andeq	r0, r0, ip, lsl r0
 164:	1e890002 	cdpne	0, 8, cr0, cr9, cr2, {0}
 168:	00040000 	andeq	r0, r4, r0
 16c:	00000000 	andeq	r0, r0, r0
 170:	00008c28 	andeq	r8, r0, r8, lsr #24
 174:	000000e8 	andeq	r0, r0, r8, ror #1
	...
 180:	0000001c 	andeq	r0, r0, ip, lsl r0
 184:	22480002 	subcs	r0, r8, #2, 0
 188:	00040000 	andeq	r0, r4, r0
 18c:	00000000 	andeq	r0, r0, r0
 190:	00008d10 	andeq	r8, r0, r0, lsl sp
 194:	0000003c 	andeq	r0, r0, ip, lsr r0
	...
 1a0:	0000001c 	andeq	r0, r0, ip, lsl r0
 1a4:	23950002 	orrscs	r0, r5, #2, 0
 1a8:	00040000 	andeq	r0, r4, r0
 1ac:	00000000 	andeq	r0, r0, r0
 1b0:	00008d4c 	andeq	r8, r0, ip, asr #26
 1b4:	00000034 	andeq	r0, r0, r4, lsr r0
	...
 1c0:	0000001c 	andeq	r0, r0, ip, lsl r0
 1c4:	24d00002 	ldrbcs	r0, [r0], #2
 1c8:	00040000 	andeq	r0, r4, r0
 1cc:	00000000 	andeq	r0, r0, r0
 1d0:	00008d80 	andeq	r8, r0, r0, lsl #27
 1d4:	0000002c 	andeq	r0, r0, ip, lsr #32
	...

Disassembly of section .debug_line:

00000000 <.debug_line>:
       0:	000000a0 	andeq	r0, r0, r0, lsr #1
       4:	00800003 	addeq	r0, r0, r3
       8:	01020000 	mrseq	r0, (UNDEF: 2)
       c:	000d0efb 	strdeq	r0, [sp], -fp
      10:	01010101 	tsteq	r1, r1, lsl #2
      14:	01000000 	mrseq	r0, (UNDEF: 0)
      18:	2f010000 	svccs	0x00010000
      1c:	72657355 	rsbvc	r7, r5, #1409286145	; 0x54000001
      20:	64612f73 	strbtvs	r2, [r1], #-3955	; 0xfffff08d
      24:	6e616972 			; <UNDEFINED> instruction: 0x6e616972
      28:	7472616d 	ldrbtvc	r6, [r2], #-365	; 0xfffffe93
      2c:	7a656e69 	bvc	195b9d8 <__bss_end__+0x1952638>
      30:	6f72702f 	svcvs	0x0072702f
      34:	7463656a 	strbtvc	r6, [r3], #-1386	; 0xfffffa96
      38:	73632f73 	cmnvc	r3, #460	; 0x1cc
      3c:	65303431 	ldrvs	r3, [r0, #-1073]!	; 0xfffffbcf
      40:	7331322d 	teqvc	r1, #-805306366	; 0xd0000002
      44:	6c2f7270 	sfmvs	f7, 4, [pc], #-448	; fffffe8c <__bss_end__+0xffff6aec>
      48:	69706269 	ldmdbvs	r0!, {r0, r3, r5, r6, r9, sp, lr}^
      4c:	636e692f 	cmnvs	lr, #770048	; 0xbc000
      50:	6564756c 	strbvs	r7, [r4, #-1388]!	; 0xfffffa94
      54:	002e2e00 	eoreq	r2, lr, r0, lsl #28
      58:	672d3000 	strvs	r3, [sp, -r0]!
      5c:	2d6f6970 			; <UNDEFINED> instruction: 0x2d6f6970
      60:	74697277 	strbtvc	r7, [r9], #-631	; 0xfffffd89
      64:	00632e65 	rsbeq	r2, r3, r5, ror #28
      68:	72000000 	andvc	r0, r0, #0, 0
      6c:	682e6970 	stmdavs	lr!, {r4, r5, r6, r8, fp, sp, lr}
      70:	00000100 	andeq	r0, r0, r0, lsl #2
      74:	63617274 	cmnvs	r1, #116, 4	; 0x40000007
      78:	00682e65 	rsbeq	r2, r8, r5, ror #28
      7c:	67000002 	strvs	r0, [r0, -r2]
      80:	2e6f6970 			; <UNDEFINED> instruction: 0x2e6f6970
      84:	00010068 	andeq	r0, r1, r8, rrx
      88:	14050000 	strne	r0, [r5], #-0
      8c:	34020500 	strcc	r0, [r2], #-1280	; 0xfffffb00
      90:	17000080 	strne	r0, [r0, -r0, lsl #1]
      94:	302f0505 	eorcc	r0, pc, r5, lsl #10
      98:	664a8201 	strbvs	r8, [sl], -r1, lsl #4
      9c:	0214662e 	andseq	r6, r4, #48234496	; 0x2e00000
      a0:	01010008 	tsteq	r1, r8
      a4:	00000200 	andeq	r0, r0, r0, lsl #4
      a8:	00d10003 	sbcseq	r0, r1, r3
      ac:	01020000 	mrseq	r0, (UNDEF: 2)
      b0:	000d0efb 	strdeq	r0, [sp], -fp
      b4:	01010101 	tsteq	r1, r1, lsl #2
      b8:	01000000 	mrseq	r0, (UNDEF: 0)
      bc:	2f010000 	svccs	0x00010000
      c0:	72657355 	rsbvc	r7, r5, #1409286145	; 0x54000001
      c4:	64612f73 	strbtvs	r2, [r1], #-3955	; 0xfffff08d
      c8:	6e616972 			; <UNDEFINED> instruction: 0x6e616972
      cc:	7472616d 	ldrbtvc	r6, [r2], #-365	; 0xfffffe93
      d0:	7a656e69 	bvc	195ba7c <__bss_end__+0x19526dc>
      d4:	6f72702f 	svcvs	0x0072702f
      d8:	7463656a 	strbtvc	r6, [r3], #-1386	; 0xfffffa96
      dc:	73632f73 	cmnvc	r3, #460	; 0x1cc
      e0:	65303431 	ldrvs	r3, [r0, #-1073]!	; 0xfffffbcf
      e4:	7331322d 	teqvc	r1, #-805306366	; 0xd0000002
      e8:	6c2f7270 	sfmvs	f7, 4, [pc], #-448	; ffffff30 <__bss_end__+0xffff6b90>
      ec:	69706269 	ldmdbvs	r0!, {r0, r3, r5, r6, r9, sp, lr}^
      f0:	636e692f 	cmnvs	lr, #770048	; 0xbc000
      f4:	6564756c 	strbvs	r7, [r4, #-1388]!	; 0xfffffa94
      f8:	73752f00 	cmnvc	r5, #0, 30
      fc:	6f6c2f72 	svcvs	0x006c2f72
     100:	2f6c6163 	svccs	0x006c6163
     104:	6c6c6543 	cfstr64vs	mvdx6, [ip], #-268	; 0xfffffef4
     108:	612f7261 			; <UNDEFINED> instruction: 0x612f7261
     10c:	6e2d6d72 	mcrvs	13, 1, r6, cr13, cr2, {3}
     110:	2d656e6f 	stclcs	14, cr6, [r5, #-444]!	; 0xfffffe44
     114:	69626165 	stmdbvs	r2!, {r0, r2, r5, r6, r8, sp, lr}^
     118:	7365742d 	cmnvc	r5, #754974720	; 0x2d000000
     11c:	2d392f74 	ldccs	15, cr2, [r9, #-464]!	; 0xfffffe30
     120:	39313032 	ldmdbcc	r1!, {r1, r4, r5, ip, sp}
     124:	632d3471 			; <UNDEFINED> instruction: 0x632d3471
     128:	37303173 			; <UNDEFINED> instruction: 0x37303173
     12c:	696c2f65 	stmdbvs	ip!, {r0, r2, r5, r6, r8, r9, sl, fp, sp}^
     130:	63672f62 	cmnvs	r7, #392	; 0x188
     134:	72612f63 	rsbvc	r2, r1, #396	; 0x18c
     138:	6f6e2d6d 	svcvs	0x006e2d6d
     13c:	652d656e 	strvs	r6, [sp, #-1390]!	; 0xfffffa92
     140:	2f696261 	svccs	0x00696261
     144:	2e322e39 	mrccs	14, 1, r2, cr2, cr9, {1}
     148:	6e692f31 	mcrvs	15, 3, r2, cr9, cr1, {1}
     14c:	64756c63 	ldrbtvs	r6, [r5], #-3171	; 0xfffff39d
     150:	74000065 	strvc	r0, [r0], #-101	; 0xffffff9b
     154:	65636172 	strbvs	r6, [r3, #-370]!	; 0xfffffe8e
     158:	6d69732d 	stclvs	3, cr7, [r9, #-180]!	; 0xffffff4c
     15c:	2e656c70 	mcrcs	12, 3, r6, cr5, cr0, {3}
     160:	00000063 	andeq	r0, r0, r3, rrx
     164:	69707200 	ldmdbvs	r0!, {r9, ip, sp, lr}^
     168:	0100682e 	tsteq	r0, lr, lsr #16
     16c:	74730000 	ldrbtvc	r0, [r3], #-0
     170:	746e6964 	strbtvc	r6, [lr], #-2404	; 0xfffff69c
     174:	6363672d 	cmnvs	r3, #11796480	; 0xb40000
     178:	0200682e 	andeq	r6, r0, #3014656	; 0x2e0000
     17c:	05000000 	streq	r0, [r0, #-0]
     180:	02050035 	andeq	r0, r5, #53, 0	; 0x35
     184:	00008080 	andeq	r8, r0, r0, lsl #1
     188:	06013b03 	streq	r3, [r1], -r3, lsl #22
     18c:	06050501 	streq	r0, [r5], -r1, lsl #10
     190:	2e2e064b 	cfmadda32cs	mvax2, mvax0, mvfx14, mvfx11
     194:	052f0105 	streq	r0, [pc, #-261]!	; 97 <__code_start__-0x7f69>
     198:	064b0635 			; <UNDEFINED> instruction: 0x064b0635
     19c:	06050501 	streq	r0, [r5], -r1, lsl #10
     1a0:	2e2e064b 	cfmadda32cs	mvax2, mvax0, mvfx14, mvfx11
     1a4:	052f0105 	streq	r0, [pc, #-261]!	; a7 <__code_start__-0x7f59>
     1a8:	6d030620 	stcvs	6, cr0, [r3, #-128]	; 0xffffff80
     1ac:	1305054a 	movwne	r0, #21834	; 0x554a
     1b0:	04020001 	streq	r0, [r2], #-1
     1b4:	02008202 	andeq	r8, r0, #536870912	; 0x20000000
     1b8:	00010204 	andeq	r0, r1, r4, lsl #4
     1bc:	13020402 	movwne	r0, #9218	; 0x2402
     1c0:	02000b05 	andeq	r0, r0, #5120	; 0x1400
     1c4:	01060204 	tsteq	r6, r4, lsl #4
     1c8:	02002005 	andeq	r2, r0, #5, 0
     1cc:	05800104 	streq	r0, [r0, #260]	; 0x104
     1d0:	04020005 	streq	r0, [r2], #-5
     1d4:	004b0601 	subeq	r0, fp, r1, lsl #12
     1d8:	01010402 	tsteq	r1, r2, lsl #8
     1dc:	01040200 	mrseq	r0, R12_usr
     1e0:	0200ba06 	andeq	fp, r0, #24576	; 0x6000
     1e4:	2e060104 	adfcss	f0, f6, f4
     1e8:	05c01705 	strbeq	r1, [r0, #1797]	; 0x705
     1ec:	00011305 	andeq	r1, r1, r5, lsl #6
     1f0:	82020402 	andhi	r0, r2, #33554432	; 0x2000000
     1f4:	02040200 	andeq	r0, r4, #0, 4
     1f8:	04020001 	streq	r0, [r2], #-1
     1fc:	0b051302 	bleq	144e0c <__bss_end__+0x13ba6c>
     200:	02040200 	andeq	r0, r4, #0, 4
     204:	17050106 	strne	r0, [r5, -r6, lsl #2]
     208:	01040200 	mrseq	r0, R12_usr
     20c:	00050580 	andeq	r0, r5, r0, lsl #11
     210:	06010402 	streq	r0, [r1], -r2, lsl #8
     214:	0402004b 	streq	r0, [r2], #-75	; 0xffffffb5
     218:	02000101 	andeq	r0, r0, #1073741824	; 0x40000000
     21c:	05d60104 	ldrbeq	r0, [r6, #260]	; 0x104
     220:	ba0e0330 	blt	380ee8 <__bss_end__+0x377b48>
     224:	05050106 	streq	r0, [r5, #-262]	; 0xfffffefa
     228:	0f056706 	svceq	0x00056706
     22c:	08050106 	stmdaeq	r5, {r1, r2, r8}
     230:	0605054a 	streq	r0, [r5], -sl, asr #10
     234:	0601054f 	streq	r0, [r1], -pc, asr #10
     238:	001e0567 	andseq	r0, lr, r7, ror #10
     23c:	03010402 	movweq	r0, #5122	; 0x1402
     240:	1b052e7a 	blne	14bc30 <__bss_end__+0x142890>
     244:	01040200 	mrseq	r0, R12_usr
     248:	0609054a 	streq	r0, [r9], -sl, asr #10
     24c:	0621054b 	strteq	r0, [r1], -fp, asr #10
     250:	06090501 	streq	r0, [r9], -r1, lsl #10
     254:	21052f67 	tstcs	r5, r7, ror #30
     258:	26050106 	strcs	r0, [r5], -r6, lsl #2
     25c:	0106a406 	tsteq	r6, r6, lsl #8
     260:	4b060505 	blmi	18167c <__bss_end__+0x1782dc>
     264:	01061205 	tsteq	r6, r5, lsl #4
     268:	0605052e 	streq	r0, [r5], -lr, lsr #10
     26c:	060f052f 	streq	r0, [pc], -pc, lsr #10
     270:	4a080501 	bmi	20167c <__bss_end__+0x1f82dc>
     274:	05500105 	ldrbeq	r0, [r0, #-261]	; 0xfffffefb
     278:	0402001e 	streq	r0, [r2], #-30	; 0xffffffe2
     27c:	4a7a0301 	bmi	1e80e88 <__bss_end__+0x1e77ae8>
     280:	02001b05 	andeq	r1, r0, #5120	; 0x1400
     284:	054a0104 	strbeq	r0, [sl, #-260]	; 0xfffffefc
     288:	054b0609 	strbeq	r0, [fp, #-1545]	; 0xfffff9f7
     28c:	05010621 	streq	r0, [r1, #-1569]	; 0xfffff9df
     290:	06670609 	strbteq	r0, [r7], -r9, lsl #12
     294:	052f064a 	streq	r0, [pc, #-1610]!	; fffffc52 <__bss_end__+0xffff68b2>
     298:	05010621 	streq	r0, [r1, #-1569]	; 0xfffff9df
     29c:	054c0605 	strbeq	r0, [ip, #-1541]	; 0xfffff9fb
     2a0:	0201060c 	andeq	r0, r1, #12, 12	; 0xc00000
     2a4:	01010006 	tsteq	r1, r6
     2a8:	0000011b 	andeq	r0, r0, fp, lsl r1
     2ac:	00e90003 	rsceq	r0, r9, r3
     2b0:	01020000 	mrseq	r0, (UNDEF: 2)
     2b4:	000d0efb 	strdeq	r0, [sp], -fp
     2b8:	01010101 	tsteq	r1, r1, lsl #2
     2bc:	01000000 	mrseq	r0, (UNDEF: 0)
     2c0:	6c010000 	stcvs	0, cr0, [r1], {-0}
     2c4:	00636269 	rsbeq	r6, r3, r9, ror #4
     2c8:	7273752f 	rsbsvc	r7, r3, #197132288	; 0xbc00000
     2cc:	636f6c2f 	cmnvs	pc, #12032	; 0x2f00
     2d0:	432f6c61 			; <UNDEFINED> instruction: 0x432f6c61
     2d4:	616c6c65 	cmnvs	ip, r5, ror #24
     2d8:	72612f72 	rsbvc	r2, r1, #456	; 0x1c8
     2dc:	6f6e2d6d 	svcvs	0x006e2d6d
     2e0:	652d656e 	strvs	r6, [sp, #-1390]!	; 0xfffffa92
     2e4:	2d696261 	sfmcs	f6, 2, [r9, #-388]!	; 0xfffffe7c
     2e8:	74736574 	ldrbtvc	r6, [r3], #-1396	; 0xfffffa8c
     2ec:	322d392f 	eorcc	r3, sp, #770048	; 0xbc000
     2f0:	71393130 	teqvc	r9, r0, lsr r1
     2f4:	73632d34 	cmnvc	r3, #52, 26	; 0xd00
     2f8:	65373031 	ldrvs	r3, [r7, #-49]!	; 0xffffffcf
     2fc:	62696c2f 	rsbvs	r6, r9, #12032	; 0x2f00
     300:	6363672f 	cmnvs	r3, #12320768	; 0xbc0000
     304:	6d72612f 	ldfvse	f6, [r2, #-188]!	; 0xffffff44
     308:	6e6f6e2d 	cdpvs	14, 6, cr6, cr15, cr13, {1}
     30c:	61652d65 	cmnvs	r5, r5, ror #26
     310:	392f6962 	stmdbcc	pc!, {r1, r5, r6, r8, fp, sp, lr}	; <UNPREDICTABLE>
     314:	312e322e 			; <UNDEFINED> instruction: 0x312e322e
     318:	636e692f 	cmnvs	lr, #770048	; 0xbc000
     31c:	6564756c 	strbvs	r7, [r4, #-1388]!	; 0xfffffa94
     320:	73552f00 	cmpvc	r5, #0, 30
     324:	2f737265 	svccs	0x00737265
     328:	69726461 	ldmdbvs	r2!, {r0, r5, r6, sl, sp, lr}^
     32c:	616d6e61 	cmnvs	sp, r1, ror #28
     330:	6e697472 	mcrvs	4, 3, r7, cr9, cr2, {3}
     334:	702f7a65 	eorvc	r7, pc, r5, ror #20
     338:	656a6f72 	strbvs	r6, [sl, #-3954]!	; 0xfffff08e
     33c:	2f737463 	svccs	0x00737463
     340:	34317363 	ldrtcc	r7, [r1], #-867	; 0xfffffc9d
     344:	322d6530 	eorcc	r6, sp, #48, 10	; 0xc000000
     348:	72707331 	rsbsvc	r7, r0, #-1006632960	; 0xc4000000
     34c:	62696c2f 	rsbvs	r6, r9, #12032	; 0x2f00
     350:	692f6970 	stmdbvs	pc!, {r4, r5, r6, r8, fp, sp, lr}	; <UNPREDICTABLE>
     354:	756c636e 	strbvc	r6, [ip, #-878]!	; 0xfffffc92
     358:	00006564 	andeq	r6, r0, r4, ror #10
     35c:	6e697270 	mcrvs	2, 3, r7, cr9, cr0, {3}
     360:	632e6b74 			; <UNDEFINED> instruction: 0x632e6b74
     364:	00000100 	andeq	r0, r0, r0, lsl #2
     368:	61647473 	smcvs	18243	; 0x4743
     36c:	682e6772 	stmdavs	lr!, {r1, r4, r5, r6, r8, r9, sl, sp, lr}
     370:	00000200 	andeq	r0, r0, r0, lsl #4
     374:	2e697072 	mcrcs	0, 3, r7, cr9, cr2, {3}
     378:	00030068 	andeq	r0, r3, r8, rrx
     37c:	75623c00 	strbvc	r3, [r2, #-3072]!	; 0xfffff400
     380:	2d746c69 	ldclcs	12, cr6, [r4, #-420]!	; 0xfffffe5c
     384:	003e6e69 	eorseq	r6, lr, r9, ror #28
     388:	76000000 	strvc	r0, [r0], -r0
     38c:	72702d61 	rsbsvc	r2, r0, #6208	; 0x1840
     390:	6b746e69 	blvs	1d1bd3c <__bss_end__+0x1d1299c>
     394:	0100682e 	tsteq	r0, lr, lsr #16
     398:	05000000 	streq	r0, [r0, #-0]
     39c:	02050022 	andeq	r0, r5, #34, 0	; 0x22
     3a0:	00008234 	andeq	r8, r0, r4, lsr r2
     3a4:	05010617 	streq	r0, [r1, #-1559]	; 0xfffff9e9
     3a8:	13680605 	cmnne	r8, #5242880	; 0x500000
     3ac:	4b090514 	blmi	241804 <__bss_end__+0x238464>
     3b0:	01061205 	tsteq	r6, r5, lsl #4
     3b4:	bb060505 	bllt	1817d0 <__bss_end__+0x178430>
     3b8:	06660616 			; <UNDEFINED> instruction: 0x06660616
     3bc:	06010534 			; <UNDEFINED> instruction: 0x06010534
     3c0:	08026613 	stmdaeq	r2, {r0, r1, r4, r9, sl, sp, lr}
     3c4:	b3010100 	movwlt	r0, #4352	; 0x1100
     3c8:	03000000 	movweq	r0, #0
     3cc:	00006500 	andeq	r6, r0, r0, lsl #10
     3d0:	fb010200 	blx	40bda <__bss_end__+0x3783a>
     3d4:	01000d0e 	tsteq	r0, lr, lsl #26
     3d8:	00010101 	andeq	r0, r1, r1, lsl #2
     3dc:	00010000 	andeq	r0, r1, r0
     3e0:	696c0100 	stmdbvs	ip!, {r8}^
     3e4:	2f006362 	svccs	0x00006362
     3e8:	72657355 	rsbvc	r7, r5, #1409286145	; 0x54000001
     3ec:	64612f73 	strbtvs	r2, [r1], #-3955	; 0xfffff08d
     3f0:	6e616972 			; <UNDEFINED> instruction: 0x6e616972
     3f4:	7472616d 	ldrbtvc	r6, [r2], #-365	; 0xfffffe93
     3f8:	7a656e69 	bvc	195bda4 <__bss_end__+0x1952a04>
     3fc:	6f72702f 	svcvs	0x0072702f
     400:	7463656a 	strbtvc	r6, [r3], #-1386	; 0xfffffa96
     404:	73632f73 	cmnvc	r3, #460	; 0x1cc
     408:	65303431 	ldrvs	r3, [r0, #-1073]!	; 0xfffffbcf
     40c:	7331322d 	teqvc	r1, #-805306366	; 0xd0000002
     410:	6c2f7270 	sfmvs	f7, 4, [pc], #-448	; 258 <__code_start__-0x7da8>
     414:	69706269 	ldmdbvs	r0!, {r0, r3, r5, r6, r9, sp, lr}^
     418:	636e692f 	cmnvs	lr, #770048	; 0xbc000
     41c:	6564756c 	strbvs	r7, [r4, #-1388]!	; 0xfffffa94
     420:	75700000 	ldrbvc	r0, [r0, #-0]!
     424:	632e6b74 			; <UNDEFINED> instruction: 0x632e6b74
     428:	00000100 	andeq	r0, r0, r0, lsl #2
     42c:	2e697072 	mcrcs	0, 3, r7, cr9, cr2, {3}
     430:	00020068 	andeq	r0, r2, r8, rrx
     434:	22050000 	andcs	r0, r5, #0, 0
     438:	8c020500 	cfstr32hi	mvfx0, [r2], {-0}
     43c:	15000082 	strne	r0, [r0, #-130]	; 0xffffff7e
     440:	05050106 	streq	r0, [r5, #-262]	; 0xfffffefa
     444:	0b054b06 	bleq	153064 <__bss_end__+0x149cc4>
     448:	01040200 	mrseq	r0, R12_usr
     44c:	00050501 	andeq	r0, r5, r1, lsl #10
     450:	06010402 	streq	r0, [r1], -r2, lsl #8
     454:	0009052e 	andeq	r0, r9, lr, lsr #10
     458:	06020402 	streq	r0, [r2], -r2, lsl #8
     45c:	000f054b 	andeq	r0, pc, fp, asr #10
     460:	65020402 	strvs	r0, [r2, #-1026]	; 0xfffffbfe
     464:	02001005 	andeq	r1, r0, #5, 0
     468:	01060204 	tsteq	r6, r4, lsl #4
     46c:	02040200 	andeq	r0, r4, #0, 4
     470:	0605052e 	streq	r0, [r5], -lr, lsr #10
     474:	06010532 			; <UNDEFINED> instruction: 0x06010532
     478:	00060213 	andeq	r0, r6, r3, lsl r2
     47c:	05c50101 	strbeq	r0, [r5, #257]	; 0x101
     480:	00030000 	andeq	r0, r3, r0
     484:	000000ff 	strdeq	r0, [r0], -pc	; <UNPREDICTABLE>
     488:	0efb0102 	cdpeq	1, 15, cr0, cr11, cr2, {0}
     48c:	0101000d 	tsteq	r1, sp
     490:	00000101 	andeq	r0, r0, r1, lsl #2
     494:	00000100 	andeq	r0, r0, r0, lsl #2
     498:	62696c01 	rsbvs	r6, r9, #256	; 0x100
     49c:	752f0063 	strvc	r0, [pc, #-99]!	; 441 <__code_start__-0x7bbf>
     4a0:	6c2f7273 	sfmvs	f7, 4, [pc], #-460	; 2dc <__code_start__-0x7d24>
     4a4:	6c61636f 	stclvs	3, cr6, [r1], #-444	; 0xfffffe44
     4a8:	6c65432f 	stclvs	3, cr4, [r5], #-188	; 0xffffff44
     4ac:	2f72616c 	svccs	0x0072616c
     4b0:	2d6d7261 	sfmcs	f7, 2, [sp, #-388]!	; 0xfffffe7c
     4b4:	656e6f6e 	strbvs	r6, [lr, #-3950]!	; 0xfffff092
     4b8:	6261652d 	rsbvs	r6, r1, #188743680	; 0xb400000
     4bc:	65742d69 	ldrbvs	r2, [r4, #-3433]!	; 0xfffff297
     4c0:	392f7473 	stmdbcc	pc!, {r0, r1, r4, r5, r6, sl, ip, sp, lr}	; <UNPREDICTABLE>
     4c4:	3130322d 	teqcc	r0, sp, lsr #4
     4c8:	2d347139 	ldfcss	f7, [r4, #-228]!	; 0xffffff1c
     4cc:	30317363 	eorscc	r7, r1, r3, ror #6
     4d0:	6c2f6537 	cfstr32vs	mvfx6, [pc], #-220	; 3fc <__code_start__-0x7c04>
     4d4:	672f6269 	strvs	r6, [pc, -r9, ror #4]!
     4d8:	612f6363 			; <UNDEFINED> instruction: 0x612f6363
     4dc:	6e2d6d72 	mcrvs	13, 1, r6, cr13, cr2, {3}
     4e0:	2d656e6f 	stclcs	14, cr6, [r5, #-444]!	; 0xfffffe44
     4e4:	69626165 	stmdbvs	r2!, {r0, r2, r5, r6, r8, sp, lr}^
     4e8:	322e392f 	eorcc	r3, lr, #770048	; 0xbc000
     4ec:	692f312e 	stmdbvs	pc!, {r1, r2, r3, r5, r8, ip, sp}	; <UNPREDICTABLE>
     4f0:	756c636e 	strbvc	r6, [ip, #-878]!	; 0xfffffc92
     4f4:	2f006564 	svccs	0x00006564
     4f8:	72657355 	rsbvc	r7, r5, #1409286145	; 0x54000001
     4fc:	64612f73 	strbtvs	r2, [r1], #-3955	; 0xfffff08d
     500:	6e616972 			; <UNDEFINED> instruction: 0x6e616972
     504:	7472616d 	ldrbtvc	r6, [r2], #-365	; 0xfffffe93
     508:	7a656e69 	bvc	195beb4 <__bss_end__+0x1952b14>
     50c:	6f72702f 	svcvs	0x0072702f
     510:	7463656a 	strbtvc	r6, [r3], #-1386	; 0xfffffa96
     514:	73632f73 	cmnvc	r3, #460	; 0x1cc
     518:	65303431 	ldrvs	r3, [r0, #-1073]!	; 0xfffffbcf
     51c:	7331322d 	teqvc	r1, #-805306366	; 0xd0000002
     520:	6c2f7270 	sfmvs	f7, 4, [pc], #-448	; 368 <__code_start__-0x7c98>
     524:	69706269 	ldmdbvs	r0!, {r0, r3, r5, r6, r9, sp, lr}^
     528:	636e692f 	cmnvs	lr, #770048	; 0xbc000
     52c:	6564756c 	strbvs	r7, [r4, #-1388]!	; 0xfffffa94
     530:	61760000 	cmnvs	r6, r0
     534:	6972702d 	ldmdbvs	r2!, {r0, r2, r3, r5, ip, sp, lr}^
     538:	2e6b746e 	cdpcs	4, 6, cr7, cr11, cr14, {3}
     53c:	00010063 	andeq	r0, r1, r3, rrx
     540:	64747300 	ldrbtvs	r7, [r4], #-768	; 0xfffffd00
     544:	2d746e69 	ldclcs	14, cr6, [r4, #-420]!	; 0xfffffe5c
     548:	2e636367 	cdpcs	3, 6, cr6, cr3, cr7, {3}
     54c:	00020068 	andeq	r0, r2, r8, rrx
     550:	69707200 	ldmdbvs	r0!, {r9, ip, sp, lr}^
     554:	0300682e 	movweq	r6, #2094	; 0x82e
     558:	70720000 	rsbsvc	r0, r2, r0
     55c:	6e692d69 	cdpvs	13, 6, cr2, cr9, cr9, {3}
     560:	6e726574 	mrcvs	5, 3, r6, cr2, cr4, {3}
     564:	682e6c61 	stmdavs	lr!, {r0, r5, r6, sl, fp, sp, lr}
     568:	00000300 	andeq	r0, r0, r0, lsl #6
     56c:	61647473 	smcvs	18243	; 0x4743
     570:	682e6772 	stmdavs	lr!, {r1, r4, r5, r6, r8, r9, sl, sp, lr}
     574:	00000200 	andeq	r0, r0, r0, lsl #4
     578:	6975623c 	ldmdbvs	r5!, {r2, r3, r4, r5, r9, sp, lr}^
     57c:	692d746c 	pushvs	{r2, r3, r5, r6, sl, ip, sp, lr}
     580:	00003e6e 	andeq	r3, r0, lr, ror #28
     584:	05000000 	streq	r0, [r0, #-0]
     588:	0205001b 	andeq	r0, r5, #27, 0
     58c:	000082c0 	andeq	r8, r0, r0, asr #5
     590:	05012603 	streq	r2, [r1, #-1539]	; 0xfffff9fd
     594:	2d05011d 	stfcss	f0, [r5, #-116]	; 0xffffff8c
     598:	01050106 	tsteq	r5, r6, lsl #2
     59c:	33054a2e 	movwcc	r4, #23086	; 0x5a2e
     5a0:	02055106 	andeq	r5, r5, #-2147483647	; 0x80000001
     5a4:	06060513 			; <UNDEFINED> instruction: 0x06060513
     5a8:	06020501 	streq	r0, [r2], -r1, lsl #10
     5ac:	00080530 	andeq	r0, r8, r0, lsr r5
     5b0:	01010402 	tsteq	r1, r2, lsl #8
     5b4:	02000205 	andeq	r0, r0, #1342177280	; 0x50000000
     5b8:	01060104 	tsteq	r6, r4, lsl #2
     5bc:	02000305 	andeq	r0, r0, #335544320	; 0x14000000
     5c0:	2f060204 	svccs	0x00060204
     5c4:	02000805 	andeq	r0, r0, #327680	; 0x50000
     5c8:	01060204 	tsteq	r6, r4, lsl #4
     5cc:	02001505 	andeq	r1, r0, #20971520	; 0x1400000
     5d0:	49060204 	stmdbmi	r6, {r2, r9}
     5d4:	02001805 	andeq	r1, r0, #327680	; 0x50000
     5d8:	01060204 	tsteq	r6, r4, lsl #4
     5dc:	02040200 	andeq	r0, r4, #0, 4
     5e0:	0602052e 	streq	r0, [r2], -lr, lsr #10
     5e4:	06050530 			; <UNDEFINED> instruction: 0x06050530
     5e8:	06020501 	streq	r0, [r2], -r1, lsl #10
     5ec:	0601054b 	streq	r0, [r1], -fp, asr #10
     5f0:	063e0513 			; <UNDEFINED> instruction: 0x063e0513
     5f4:	14020531 	strne	r0, [r2], #-1329	; 0xfffffacf
     5f8:	01060e05 	tsteq	r6, r5, lsl #28
     5fc:	052e0605 	streq	r0, [lr, #-1541]!	; 0xfffff9fb
     600:	052f0602 	streq	r0, [pc, #-1538]!	; 6 <__code_start__-0x7ffa>
     604:	05010604 	streq	r0, [r1, #-1540]	; 0xfffff9fc
     608:	052f0603 	streq	r0, [pc, #-1539]!	; d <__code_start__-0x7ff3>
     60c:	05010611 	streq	r0, [r1, #-1553]	; 0xfffff9ef
     610:	02052e09 	andeq	r2, r5, #144	; 0x90
     614:	05153006 	ldreq	r3, [r5, #-6]
     618:	05010607 	streq	r0, [r1, #-1543]	; 0xfffff9f9
     61c:	0b052e02 	bleq	14be2c <__bss_end__+0x142a8c>
     620:	01040200 	mrseq	r0, R12_usr
     624:	02052e06 	andeq	r2, r5, #96	; 0x60
     628:	01040200 	mrseq	r0, R12_usr
     62c:	03050106 	movweq	r0, #20742	; 0x5106
     630:	03040200 	movweq	r0, #16896	; 0x4200
     634:	0c052f06 	stceq	15, cr2, [r5], {6}
     638:	03040200 	movweq	r0, #16896	; 0x4200
     63c:	0a050106 	beq	140a5c <__bss_end__+0x1376bc>
     640:	03040200 	movweq	r0, #16896	; 0x4200
     644:	0017052e 	andseq	r0, r7, lr, lsr #10
     648:	06030402 	streq	r0, [r3], -r2, lsl #8
     64c:	0402002d 	streq	r0, [r2], #-45	; 0xffffffd3
     650:	05010603 	streq	r0, [r1, #-1539]	; 0xfffff9fd
     654:	05300602 	ldreq	r0, [r0, #-1538]!	; 0xfffff9fe
     658:	2e010609 	cfmadd32cs	mvax0, mvfx0, mvfx1, mvfx9
     65c:	30060205 	andcc	r0, r6, r5, lsl #4
     660:	13060105 	movwne	r0, #24837	; 0x6105
     664:	31064905 	tstcc	r6, r5, lsl #18
     668:	02050106 	andeq	r0, r5, #-2147483647	; 0x80000001
     66c:	0405a006 	streq	sl, [r5], #-6
     670:	03050106 	movweq	r0, #20742	; 0x5106
     674:	09052f06 	stmdbeq	r5, {r1, r2, r8, r9, sl, fp, sp}
     678:	02050106 	andeq	r0, r5, #-2147483647	; 0x80000001
     67c:	05133006 	ldreq	r3, [r3, #-6]
     680:	0501060b 	streq	r0, [r1, #-1547]	; 0xfffff9f5
     684:	06300602 	ldrteq	r0, [r0], -r2, lsl #12
     688:	0604052e 	streq	r0, [r4], -lr, lsr #10
     68c:	13152402 	tstne	r5, #33554432	; 0x2000000
     690:	01060f05 	tsteq	r6, r5, lsl #30
     694:	4a06052e 	bmi	181b54 <__bss_end__+0x1787b4>
     698:	4b060505 	blmi	181ab4 <__bss_end__+0x178714>
     69c:	06090513 			; <UNDEFINED> instruction: 0x06090513
     6a0:	06050501 	streq	r0, [r5], -r1, lsl #10
     6a4:	060b052f 	streq	r0, [fp], -pc, lsr #10
     6a8:	000d0510 	andeq	r0, sp, r0, lsl r5
     6ac:	2c010402 	cfstrscs	mvf0, [r1], {2}
     6b0:	02000405 	andeq	r0, r0, #83886080	; 0x5000000
     6b4:	34060104 	strcc	r0, [r6], #-260	; 0xfffffefc
     6b8:	02000505 	andeq	r0, r0, #20971520	; 0x1400000
     6bc:	05130104 	ldreq	r0, [r3, #-260]	; 0xfffffefc
     6c0:	0402001b 	streq	r0, [r2], #-27	; 0xffffffe5
     6c4:	05010601 	streq	r0, [r1, #-1537]	; 0xfffff9ff
     6c8:	04020007 	streq	r0, [r2], #-7
     6cc:	1805d601 	stmdane	r5, {r0, r9, sl, ip, lr, pc}
     6d0:	01040200 	mrseq	r0, R12_usr
     6d4:	000a052e 	andeq	r0, sl, lr, lsr #10
     6d8:	4a010402 	bmi	416e8 <__bss_end__+0x38348>
     6dc:	02000b05 	andeq	r0, r0, #5120	; 0x1400
     6e0:	2f060104 	svccs	0x00060104
     6e4:	02000e05 	andeq	r0, r0, #80	; 0x50
     6e8:	2e060104 	adfcss	f0, f6, f4
     6ec:	02000405 	andeq	r0, r0, #83886080	; 0x5000000
     6f0:	062e0104 	strteq	r0, [lr], -r4, lsl #2
     6f4:	0606054b 	streq	r0, [r6], -fp, asr #10
     6f8:	06050501 	streq	r0, [r5], -r1, lsl #10
     6fc:	060a052f 	streq	r0, [sl], -pc, lsr #10
     700:	4a070501 	bmi	1c1b0c <__bss_end__+0x1b876c>
     704:	030d052e 	movweq	r0, #54574	; 0xd52e
     708:	054a2e76 	strbeq	r2, [sl, #-3702]	; 0xfffff18a
     70c:	0d050d0b 	stceq	13, cr0, [r5, #-44]	; 0xffffffd4
     710:	01040200 	mrseq	r0, R12_usr
     714:	2e140306 	cdpcs	3, 1, cr0, cr4, cr6, {0}
     718:	02001105 	andeq	r1, r0, #1073741825	; 0x40000001
     71c:	05130104 	ldreq	r0, [r3, #-260]	; 0xfffffefc
     720:	0402002d 	streq	r0, [r2], #-45	; 0xffffffd3
     724:	05010601 	streq	r0, [r1, #-1537]	; 0xfffff9ff
     728:	0402002a 	streq	r0, [r2], #-42	; 0xffffffd6
     72c:	16052e01 	strne	r2, [r5], -r1, lsl #28
     730:	01040200 	mrseq	r0, R12_usr
     734:	0014054a 	andseq	r0, r4, sl, asr #10
     738:	06010402 	streq	r0, [r1], -r2, lsl #8
     73c:	000d054b 	andeq	r0, sp, fp, asr #10
     740:	06010402 	streq	r0, [r1], -r2, lsl #8
     744:	04020001 	streq	r0, [r2], #-1
     748:	2f064a01 	svccs	0x00064a01
     74c:	01061205 	tsteq	r6, r5, lsl #4
     750:	060d054a 	streq	r0, [sp], -sl, asr #10
     754:	0612052f 	ldreq	r0, [r2], -pc, lsr #10
     758:	06190501 	ldreq	r0, [r9], -r1, lsl #10
     75c:	0004054b 	andeq	r0, r4, fp, asr #10
     760:	03020402 	movweq	r0, #9218	; 0x2402
     764:	02000111 	andeq	r0, r0, #1073741828	; 0x40000004
     768:	05010204 	streq	r0, [r1, #-516]	; 0xfffffdfc
     76c:	04020002 	streq	r0, [r2], #-2
     770:	09051502 	stmdbeq	r5, {r1, r8, sl, ip}
     774:	02040200 	andeq	r0, r4, #0, 4
     778:	02000106 	andeq	r0, r0, #-2147483647	; 0x80000001
     77c:	054a0204 	strbeq	r0, [sl, #-516]	; 0xfffffdfc
     780:	04020001 	streq	r0, [r2], #-1
     784:	04059f02 	streq	r9, [r5], #-3842	; 0xfffff0fe
     788:	4a6e0306 	bmi	1b813a8 <__bss_end__+0x1b78008>
     78c:	01060905 	tsteq	r6, r5, lsl #18
     790:	2f060405 	svccs	0x00060405
     794:	11060605 	tstne	r6, r5, lsl #12
     798:	052f0405 	streq	r0, [pc, #-1029]!	; 39b <__code_start__-0x7c65>
     79c:	2e63030b 	cdpcs	3, 6, cr0, cr3, cr11, {0}
     7a0:	02001905 	andeq	r1, r0, #81920	; 0x14000
     7a4:	03060104 	movweq	r0, #24836	; 0x6104
     7a8:	1a052e24 	bne	14c040 <__bss_end__+0x142ca0>
     7ac:	01040200 	mrseq	r0, R12_usr
     7b0:	00280513 	eoreq	r0, r8, r3, lsl r5
     7b4:	06010402 	streq	r0, [r1], -r2, lsl #8
     7b8:	00250501 	eoreq	r0, r5, r1, lsl #10
     7bc:	2e010402 	cdpcs	4, 0, cr0, cr1, cr2, {0}
     7c0:	02001f05 	andeq	r1, r0, #5, 30
     7c4:	054a0104 	strbeq	r0, [sl, #-260]	; 0xfffffefc
     7c8:	0402000b 	streq	r0, [r2], #-11
     7cc:	054b0601 	strbeq	r0, [fp, #-1537]	; 0xfffff9ff
     7d0:	04020004 	streq	r0, [r2], #-4
     7d4:	00010601 	andeq	r0, r1, r1, lsl #12
     7d8:	4a010402 	bmi	417e8 <__bss_end__+0x38448>
     7dc:	01040200 	mrseq	r0, R12_usr
     7e0:	02004e06 	andeq	r4, r0, #96	; 0x60
     7e4:	00010104 	andeq	r0, r1, r4, lsl #2
     7e8:	01010402 	tsteq	r1, r2, lsl #8
     7ec:	01040200 	mrseq	r0, R12_usr
     7f0:	04020001 	streq	r0, [r2], #-1
     7f4:	002e0601 	eoreq	r0, lr, r1, lsl #12
     7f8:	66010402 	strvs	r0, [r1], -r2, lsl #8
     7fc:	01040200 	mrseq	r0, R12_usr
     800:	0402002e 	streq	r0, [r2], #-46	; 0xffffffd2
     804:	054a0601 	strbeq	r0, [sl, #-1537]	; 0xfffff9ff
     808:	7fa60348 	svcvc	0x00a60348
     80c:	05052008 	streq	r2, [r5, #-8]
     810:	2e060113 	mcrcs	1, 0, r0, cr6, cr3, {0}
     814:	02040200 	andeq	r0, r4, #0, 4
     818:	02002e06 	andeq	r2, r0, #96	; 0x60
     81c:	00010204 	andeq	r0, r1, r4, lsl #4
     820:	13020402 	movwne	r0, #9218	; 0x2402
     824:	02001105 	andeq	r1, r0, #1073741825	; 0x40000001
     828:	01060204 	tsteq	r6, r4, lsl #4
     82c:	02000505 	andeq	r0, r0, #20971520	; 0x1400000
     830:	4b060204 	blmi	181048 <__bss_end__+0x177ca8>
     834:	02000705 	andeq	r0, r0, #1310720	; 0x140000
     838:	01060204 	tsteq	r6, r4, lsl #4
     83c:	4b060905 	blmi	182c58 <__bss_end__+0x1798b8>
     840:	01060e05 	tsteq	r6, r5, lsl #28
     844:	02004805 	andeq	r4, r0, #327680	; 0x50000
     848:	05620104 	strbeq	r0, [r2, #-260]!	; 0xfffffefc
     84c:	04020005 	streq	r0, [r2], #-5
     850:	004b0601 	subeq	r0, fp, r1, lsl #12
     854:	01010402 	tsteq	r1, r2, lsl #8
     858:	01040200 	mrseq	r0, R12_usr
     85c:	02009e06 	andeq	r9, r0, #96	; 0x60
     860:	002e0104 	eoreq	r0, lr, r4, lsl #2
     864:	06010402 	streq	r0, [r1], -r2, lsl #8
     868:	0340052e 	movteq	r0, #1326	; 0x52e
     86c:	06d600e1 	ldrbeq	r0, [r6], r1, ror #1
     870:	06020501 	streq	r0, [r2], -r1, lsl #10
     874:	061e059f 			; <UNDEFINED> instruction: 0x061e059f
     878:	2e120501 	cfmul32cs	mvfx0, mvfx2, mvfx1
     87c:	2f060505 	svccs	0x00060505
     880:	05140205 	ldreq	r0, [r4, #-517]	; 0xfffffdfb
     884:	05010609 	streq	r0, [r1, #-1545]	; 0xfffff9f7
     888:	054b0605 	strbeq	r0, [fp, #-1541]	; 0xfffff9fb
     88c:	08051302 	stmdaeq	r5, {r1, r8, r9, ip}
     890:	02050d06 	andeq	r0, r5, #384	; 0x180
     894:	06040533 			; <UNDEFINED> instruction: 0x06040533
     898:	060f054c 	streq	r0, [pc], -ip, asr #10
     89c:	2e090501 	cfsh32cs	mvfx0, mvfx9, #1
     8a0:	2c060805 	stccs	8, cr0, [r6], {5}
     8a4:	2e060205 	cdpcs	2, 0, cr0, cr6, cr5, {0}
     8a8:	02000d05 	andeq	r0, r0, #320	; 0x140
     8ac:	054a0104 	strbeq	r0, [sl, #-260]	; 0xfffffefc
     8b0:	054b0603 	strbeq	r0, [fp, #-1539]	; 0xfffff9fd
     8b4:	05010605 	streq	r0, [r1, #-1541]	; 0xfffff9fb
     8b8:	054d0608 	strbeq	r0, [sp, #-1544]	; 0xfffff9f8
     8bc:	0501060e 	streq	r0, [r1, #-1550]	; 0xfffff9f2
     8c0:	04052e0a 	streq	r2, [r5], #-3594	; 0xfffff1f6
     8c4:	09052f06 	stmdbeq	r5, {r1, r2, r8, r9, sl, fp, sp}
     8c8:	04050106 	streq	r0, [r5], #-262	; 0xfffffefa
     8cc:	07052f06 	streq	r2, [r5, -r6, lsl #30]
     8d0:	052e0106 	streq	r0, [lr, #-262]!	; 0xfffffefa
     8d4:	05300604 	ldreq	r0, [r0, #-1540]!	; 0xfffff9fc
     8d8:	05010607 	streq	r0, [r1, #-1543]	; 0xfffff9f9
     8dc:	13300604 	teqne	r0, #4, 12	; 0x400000
     8e0:	060d0514 			; <UNDEFINED> instruction: 0x060d0514
     8e4:	06090510 			; <UNDEFINED> instruction: 0x06090510
     8e8:	06120530 			; <UNDEFINED> instruction: 0x06120530
     8ec:	2e0a0501 	cfsh32cs	mvfx0, mvfx10, #1
     8f0:	05660905 	strbeq	r0, [r6, #-2309]!	; 0xfffff6fb
     8f4:	054b0605 	strbeq	r0, [fp, #-1541]	; 0xfffff9fb
     8f8:	05010612 	streq	r0, [r1, #-1554]	; 0xfffff9ee
     8fc:	0b052e16 	bleq	14c15c <__bss_end__+0x142dbc>
     900:	0605052e 	streq	r0, [r5], -lr, lsr #10
     904:	0608052f 	streq	r0, [r8], -pc, lsr #10
     908:	04052e01 	streq	r2, [r5], #-3585	; 0xfffff1ff
     90c:	4a013006 	bmi	4c92c <__bss_end__+0x4358c>
     910:	02001501 	andeq	r1, r0, #4194304	; 0x400000
     914:	36020104 	strcc	r0, [r2], -r4, lsl #2
     918:	0402000f 	streq	r0, [r2], #-15
     91c:	02000101 	andeq	r0, r0, #1073741824	; 0x40000000
     920:	05d60104 	ldrbeq	r0, [r6, #260]	; 0x104
     924:	00013311 	andeq	r3, r1, r1, lsl r3
     928:	ba020402 	blt	81938 <__bss_end__+0x78598>
     92c:	02040200 	andeq	r0, r4, #0, 4
     930:	04020001 	streq	r0, [r2], #-1
     934:	15051302 	strne	r1, [r5, #-770]	; 0xfffffcfe
     938:	02040200 	andeq	r0, r4, #0, 4
     93c:	11050106 	tstne	r5, r6, lsl #2
     940:	02040200 	andeq	r0, r4, #0, 4
     944:	1a052f06 	bne	14c564 <__bss_end__+0x1431c4>
     948:	02040200 	andeq	r0, r4, #0, 4
     94c:	11050106 	tstne	r5, r6, lsl #2
     950:	02040200 	andeq	r0, r4, #0, 4
     954:	0200d706 	andeq	sp, r0, #1572864	; 0x180000
     958:	05130204 	ldreq	r0, [r3, #-516]	; 0xfffffdfc
     95c:	04020005 	streq	r0, [r2], #-5
     960:	09051702 	stmdbeq	r5, {r1, r8, r9, sl, ip}
     964:	02040200 	andeq	r0, r4, #0, 4
     968:	02000106 	andeq	r0, r0, #-2147483647	; 0x80000001
     96c:	05d60204 	ldrbeq	r0, [r6, #516]	; 0x204
     970:	04020005 	streq	r0, [r2], #-5
     974:	00300602 	eorseq	r0, r0, r2, lsl #12
     978:	06020402 	streq	r0, [r2], -r2, lsl #8
     97c:	001105ba 			; <UNDEFINED> instruction: 0x001105ba
     980:	06020402 	streq	r0, [r2], -r2, lsl #8
     984:	0402002f 	streq	r0, [r2], #-47	; 0xffffffd1
     988:	02006702 	andeq	r6, r0, #524288	; 0x80000
     98c:	73030104 	movwvc	r0, #12548	; 0x3104
     990:	0402002e 	streq	r0, [r2], #-46	; 0xffffffd2
     994:	02000101 	andeq	r0, r0, #1073741824	; 0x40000000
     998:	05d60104 	ldrbeq	r0, [r6, #260]	; 0x104
     99c:	2e120305 	cdpcs	3, 1, cr0, cr2, cr5, {0}
     9a0:	032e9e01 			; <UNDEFINED> instruction: 0x032e9e01
     9a4:	0905010e 	stmdbeq	r5, {r1, r2, r3, r8}
     9a8:	05050106 	streq	r0, [r5, #-262]	; 0xfffffefa
     9ac:	06750806 	ldrbteq	r0, [r5], -r6, lsl #16
     9b0:	06040501 	streq	r0, [r4], -r1, lsl #10
     9b4:	05011803 	streq	r1, [r1, #-2051]	; 0xfffff7fd
     9b8:	05010607 	streq	r0, [r1, #-1543]	; 0xfffff9f9
     9bc:	05310604 	ldreq	r0, [r1, #-1540]!	; 0xfffff9fc
     9c0:	2e670305 	cdpcs	3, 6, cr0, cr7, cr5, {0}
     9c4:	01061c05 	tsteq	r6, r5, lsl #24
     9c8:	05820905 	streq	r0, [r2, #2309]	; 0x905
     9cc:	31f30605 	mvnscc	r0, r5, lsl #12
     9d0:	01061c05 	tsteq	r6, r5, lsl #24
     9d4:	05820905 	streq	r0, [r2, #2309]	; 0x905
     9d8:	30f30605 	rscscc	r0, r3, r5, lsl #12
     9dc:	01061b05 	tsteq	r6, r5, lsl #22
     9e0:	05820905 	streq	r0, [r2, #2309]	; 0x905
     9e4:	30f30605 	rscscc	r0, r3, r5, lsl #12
     9e8:	01060705 	tsteq	r6, r5, lsl #14
     9ec:	83060505 	movwhi	r0, #25861	; 0x6505
     9f0:	06090530 			; <UNDEFINED> instruction: 0x06090530
     9f4:	06050501 	streq	r0, [r5], -r1, lsl #10
     9f8:	11057508 	tstne	r5, r8, lsl #10
     9fc:	06220530 			; <UNDEFINED> instruction: 0x06220530
     a00:	06050501 	streq	r0, [r5], -r1, lsl #10
     a04:	8311054b 	tsthi	r1, #314572800	; 0x12c00000
     a08:	01830505 	orreq	r0, r3, r5, lsl #10
     a0c:	062e069e 			; <UNDEFINED> instruction: 0x062e069e
     a10:	060e0519 			; <UNDEFINED> instruction: 0x060e0519
     a14:	2e0a0501 	cfsh32cs	mvfx0, mvfx10, #1
     a18:	04052d06 	streq	r2, [r5], #-3334	; 0xfffff2fa
     a1c:	13050106 	movwne	r0, #20742	; 0x5106
     a20:	01040200 	mrseq	r0, R12_usr
     a24:	0010054a 	andseq	r0, r0, sl, asr #10
     a28:	2e010402 	cdpcs	4, 0, cr0, cr1, cr2, {0}
     a2c:	01040200 	mrseq	r0, R12_usr
     a30:	06020566 	streq	r0, [r2], -r6, ror #10
     a34:	06070516 			; <UNDEFINED> instruction: 0x06070516
     a38:	06020501 	streq	r0, [r2], -r1, lsl #10
     a3c:	0601054b 	streq	r0, [r1], -fp, asr #10
     a40:	14026613 	strne	r6, [r2], #-1555	; 0xfffff9ed
     a44:	8d010100 	stfhis	f0, [r1, #-0]
     a48:	03000000 	movweq	r0, #0
     a4c:	00007200 	andeq	r7, r0, r0, lsl #4
     a50:	fb010200 	blx	4125a <__bss_end__+0x37eba>
     a54:	01000d0e 	tsteq	r0, lr, lsl #26
     a58:	00010101 	andeq	r0, r1, r1, lsl #2
     a5c:	00010000 	andeq	r0, r1, r0
     a60:	74730100 	ldrbtvc	r0, [r3], #-256	; 0xffffff00
     a64:	2d666661 	stclcs	6, cr6, [r6, #-388]!	; 0xfffffe7c
     a68:	00637273 	rsbeq	r7, r3, r3, ror r2
     a6c:	6573552f 	ldrbvs	r5, [r3, #-1327]!	; 0xfffffad1
     a70:	612f7372 			; <UNDEFINED> instruction: 0x612f7372
     a74:	61697264 	cmnvs	r9, r4, ror #4
     a78:	72616d6e 	rsbvc	r6, r1, #7040	; 0x1b80
     a7c:	656e6974 	strbvs	r6, [lr, #-2420]!	; 0xfffff68c
     a80:	72702f7a 	rsbsvc	r2, r0, #488	; 0x1e8
     a84:	63656a6f 	cmnvs	r5, #454656	; 0x6f000
     a88:	632f7374 			; <UNDEFINED> instruction: 0x632f7374
     a8c:	30343173 	eorscc	r3, r4, r3, ror r1
     a90:	31322d65 	teqcc	r2, r5, ror #26
     a94:	2f727073 	svccs	0x00727073
     a98:	7062696c 	rsbvc	r6, r2, ip, ror #18
     a9c:	6e692f69 	cdpvs	15, 6, cr2, cr9, cr9, {3}
     aa0:	64756c63 	ldrbtvs	r6, [r5], #-3171	; 0xfffff39d
     aa4:	63000065 	movwvs	r0, #101	; 0x65
     aa8:	6e61656c 	cdpvs	5, 6, cr6, cr1, cr12, {3}
     aac:	6265722d 	rsbvs	r7, r5, #-805306366	; 0xd0000002
     ab0:	2e746f6f 	cdpcs	15, 7, cr6, cr4, cr15, {3}
     ab4:	00010063 	andeq	r0, r1, r3, rrx
     ab8:	69707200 	ldmdbvs	r0!, {r9, ip, sp, lr}^
     abc:	0200682e 	andeq	r6, r0, #3014656	; 0x2e0000
     ac0:	05000000 	streq	r0, [r0, #-0]
     ac4:	02050019 	andeq	r0, r5, #25, 0
     ac8:	000088ec 	andeq	r8, r0, ip, ror #17
     acc:	2f050515 	svccs	0x00050515
     ad0:	024b2f83 	subeq	r2, fp, #524	; 0x20c
     ad4:	01010006 	tsteq	r1, r6
     ad8:	000000a2 	andeq	r0, r0, r2, lsr #1
     adc:	006c0003 	rsbeq	r0, ip, r3
     ae0:	01020000 	mrseq	r0, (UNDEF: 2)
     ae4:	000d0efb 	strdeq	r0, [sp], -fp
     ae8:	01010101 	tsteq	r1, r1, lsl #2
     aec:	01000000 	mrseq	r0, (UNDEF: 0)
     af0:	73010000 	movwvc	r0, #4096	; 0x1000
     af4:	66666174 			; <UNDEFINED> instruction: 0x66666174
     af8:	6372732d 	cmnvs	r2, #-1275068416	; 0xb4000000
     afc:	73552f00 	cmpvc	r5, #0, 30
     b00:	2f737265 	svccs	0x00737265
     b04:	69726461 	ldmdbvs	r2!, {r0, r5, r6, sl, sp, lr}^
     b08:	616d6e61 	cmnvs	sp, r1, ror #28
     b0c:	6e697472 	mcrvs	4, 3, r7, cr9, cr2, {3}
     b10:	702f7a65 	eorvc	r7, pc, r5, ror #20
     b14:	656a6f72 	strbvs	r6, [sl, #-3954]!	; 0xfffff08e
     b18:	2f737463 	svccs	0x00737463
     b1c:	34317363 	ldrtcc	r7, [r1], #-867	; 0xfffffc9d
     b20:	322d6530 	eorcc	r6, sp, #48, 10	; 0xc000000
     b24:	72707331 	rsbsvc	r7, r0, #-1006632960	; 0xc4000000
     b28:	62696c2f 	rsbvs	r6, r9, #12032	; 0x2f00
     b2c:	692f6970 	stmdbvs	pc!, {r4, r5, r6, r8, fp, sp, lr}	; <UNPREDICTABLE>
     b30:	756c636e 	strbvc	r6, [ip, #-878]!	; 0xfffffc92
     b34:	00006564 	andeq	r6, r0, r4, ror #10
     b38:	61747363 	cmnvs	r4, r3, ror #6
     b3c:	632e7472 			; <UNDEFINED> instruction: 0x632e7472
     b40:	00000100 	andeq	r0, r0, r0, lsl #2
     b44:	2e697072 	mcrcs	0, 3, r7, cr9, cr2, {3}
     b48:	00020068 	andeq	r0, r2, r8, rrx
     b4c:	10050000 	andne	r0, r5, r0
     b50:	18020500 	stmdane	r2, {r8, sl}
     b54:	14000089 	strne	r0, [r0], #-137	; 0xffffff77
     b58:	052f0505 	streq	r0, [pc, #-1285]!	; 65b <__code_start__-0x79a5>
     b5c:	05051302 	streq	r1, [r5, #-770]	; 0xfffffcfe
     b60:	14133014 	ldrne	r3, [r3], #-20	; 0xffffffec
     b64:	0f060a05 	svceq	0x00060a05
     b68:	09053106 	stmdbeq	r5, {r1, r2, r8, ip, sp}
     b6c:	0610054b 	ldreq	r0, [r0], -fp, asr #10
     b70:	05054a01 	streq	r4, [r5, #-2561]	; 0xfffff5ff
     b74:	02053006 	andeq	r3, r5, #6, 0
     b78:	0006022f 	andeq	r0, r6, pc, lsr #4
     b7c:	008b0101 	addeq	r0, fp, r1, lsl #2
     b80:	00030000 	andeq	r0, r3, r0
     b84:	00000073 	andeq	r0, r0, r3, ror r0
     b88:	0efb0102 	cdpeq	1, 15, cr0, cr11, cr2, {0}
     b8c:	0101000d 	tsteq	r1, sp
     b90:	00000101 	andeq	r0, r0, r1, lsl #2
     b94:	00000100 	andeq	r0, r0, r0, lsl #2
     b98:	61747301 	cmnvs	r4, r1, lsl #6
     b9c:	732d6666 			; <UNDEFINED> instruction: 0x732d6666
     ba0:	2f006372 	svccs	0x00006372
     ba4:	72657355 	rsbvc	r7, r5, #1409286145	; 0x54000001
     ba8:	64612f73 	strbtvs	r2, [r1], #-3955	; 0xfffff08d
     bac:	6e616972 			; <UNDEFINED> instruction: 0x6e616972
     bb0:	7472616d 	ldrbtvc	r6, [r2], #-365	; 0xfffffe93
     bb4:	7a656e69 	bvc	195c560 <__bss_end__+0x19531c0>
     bb8:	6f72702f 	svcvs	0x0072702f
     bbc:	7463656a 	strbtvc	r6, [r3], #-1386	; 0xfffffa96
     bc0:	73632f73 	cmnvc	r3, #460	; 0x1cc
     bc4:	65303431 	ldrvs	r3, [r0, #-1073]!	; 0xfffffbcf
     bc8:	7331322d 	teqvc	r1, #-805306366	; 0xd0000002
     bcc:	6c2f7270 	sfmvs	f7, 4, [pc], #-448	; a14 <__code_start__-0x75ec>
     bd0:	69706269 	ldmdbvs	r0!, {r0, r3, r5, r6, r9, sp, lr}^
     bd4:	636e692f 	cmnvs	lr, #770048	; 0xbc000
     bd8:	6564756c 	strbvs	r7, [r4, #-1388]!	; 0xfffffa94
     bdc:	75630000 	strbvc	r0, [r3, #-0]!
     be0:	6d6f7473 	cfstrdvs	mvd7, [pc, #-460]!	; a1c <__code_start__-0x75e4>
     be4:	616f6c2d 	cmnvs	pc, sp, lsr #24
     be8:	2e726564 	cdpcs	5, 7, cr6, cr2, cr4, {3}
     bec:	00010063 	andeq	r0, r1, r3, rrx
     bf0:	69707200 	ldmdbvs	r0!, {r9, ip, sp, lr}^
     bf4:	0200682e 	andeq	r6, r0, #3014656	; 0x2e0000
     bf8:	05000000 	streq	r0, [r0, #-0]
     bfc:	0205001a 	andeq	r0, r5, #26, 0
     c00:	00008948 	andeq	r8, r0, r8, asr #18
     c04:	14010515 	strne	r0, [r1], #-1301	; 0xfffffaeb
     c08:	01000202 	tsteq	r0, r2, lsl #4
     c0c:	0000dc01 	andeq	sp, r0, r1, lsl #24
     c10:	6c000300 	stcvs	3, cr0, [r0], {-0}
     c14:	02000000 	andeq	r0, r0, #0, 0
     c18:	0d0efb01 	vstreq	d15, [lr, #-4]
     c1c:	01010100 	mrseq	r0, (UNDEF: 17)
     c20:	00000001 	andeq	r0, r0, r1
     c24:	01000001 	tsteq	r0, r1
     c28:	66617473 			; <UNDEFINED> instruction: 0x66617473
     c2c:	72732d66 	rsbsvc	r2, r3, #6528	; 0x1980
     c30:	552f0063 	strpl	r0, [pc, #-99]!	; bd5 <__code_start__-0x742b>
     c34:	73726573 	cmnvc	r2, #482344960	; 0x1cc00000
     c38:	7264612f 	rsbvc	r6, r4, #-1073741813	; 0xc000000b
     c3c:	6d6e6169 	stfvse	f6, [lr, #-420]!	; 0xfffffe5c
     c40:	69747261 	ldmdbvs	r4!, {r0, r5, r6, r9, ip, sp, lr}^
     c44:	2f7a656e 	svccs	0x007a656e
     c48:	6a6f7270 	bvs	1bdd610 <__bss_end__+0x1bd4270>
     c4c:	73746365 	cmnvc	r4, #-1811939327	; 0x94000001
     c50:	3173632f 	cmncc	r3, pc, lsr #6
     c54:	2d653034 	stclcs	0, cr3, [r5, #-208]!	; 0xffffff30
     c58:	70733132 	rsbsvc	r3, r3, r2, lsr r1
     c5c:	696c2f72 	stmdbvs	ip!, {r1, r4, r5, r6, r8, r9, sl, fp, sp}^
     c60:	2f697062 	svccs	0x00697062
     c64:	6c636e69 	stclvs	14, cr6, [r3], #-420	; 0xfffffe5c
     c68:	00656475 	rsbeq	r6, r5, r5, ror r4
     c6c:	62657200 	rsbvs	r7, r5, #0, 4
     c70:	2e746f6f 	cdpcs	15, 7, cr6, cr4, cr15, {3}
     c74:	00010063 	andeq	r0, r1, r3, rrx
     c78:	69707200 	ldmdbvs	r0!, {r9, ip, sp, lr}^
     c7c:	0200682e 	andeq	r6, r0, #3014656	; 0x2e0000
     c80:	05000000 	streq	r0, [r0, #-0]
     c84:	02050019 	andeq	r0, r5, #25, 0
     c88:	0000894c 	andeq	r8, r0, ip, asr #18
     c8c:	05010d03 	streq	r0, [r1, #-3331]	; 0xfffff2fd
     c90:	31131305 	tstcc	r3, r5, lsl #6
     c94:	01061305 	tsteq	r6, r5, lsl #6
     c98:	052f0105 	streq	r0, [pc, #-261]!	; b9b <__code_start__-0x7465>
     c9c:	0585061b 	streq	r0, [r5, #1563]	; 0x61b
     ca0:	05141305 	ldreq	r1, [r4, #-773]	; 0xfffffcfb
     ca4:	16052f09 	strne	r2, [r5], -r9, lsl #30
     ca8:	0e050106 	adfeqs	f0, f5, f6
     cac:	0605052e 	streq	r0, [r5], -lr, lsr #10
     cb0:	0601052f 	streq	r0, [r1], -pc, lsr #10
     cb4:	0617052f 	ldreq	r0, [r7], -pc, lsr #10
     cb8:	2f050530 	svccs	0x00050530
     cbc:	01060805 	tsteq	r6, r5, lsl #16
     cc0:	052e0705 	streq	r0, [lr, #-1797]!	; 0xfffff8fb
     cc4:	0b030605 	bleq	c24e0 <__bss_end__+0xb9140>
     cc8:	134d2f4a 	movtne	r2, #57162	; 0xdf4a
     ccc:	67151313 			; <UNDEFINED> instruction: 0x67151313
     cd0:	01040200 	mrseq	r0, R12_usr
     cd4:	000d0567 	andeq	r0, sp, r7, ror #10
     cd8:	01010402 	tsteq	r1, r2, lsl #8
     cdc:	02000a05 	andeq	r0, r0, #20480	; 0x5000
     ce0:	05010104 	streq	r0, [r1, #-260]	; 0xfffffefc
     ce4:	2e6a0309 	cdpcs	3, 6, cr0, cr10, cr9, {0}
     ce8:	01000c02 	tsteq	r0, r2, lsl #24
     cec:	0000fd01 	andeq	pc, r0, r1, lsl #26
     cf0:	6b000300 	blvs	18f8 <__code_start__-0x6708>
     cf4:	02000000 	andeq	r0, r0, #0, 0
     cf8:	0d0efb01 	vstreq	d15, [lr, #-4]
     cfc:	01010100 	mrseq	r0, (UNDEF: 17)
     d00:	00000001 	andeq	r0, r0, r1
     d04:	01000001 	tsteq	r0, r1
     d08:	66617473 			; <UNDEFINED> instruction: 0x66617473
     d0c:	72732d66 	rsbsvc	r2, r3, #6528	; 0x1980
     d10:	552f0063 	strpl	r0, [pc, #-99]!	; cb5 <__code_start__-0x734b>
     d14:	73726573 	cmnvc	r2, #482344960	; 0x1cc00000
     d18:	7264612f 	rsbvc	r6, r4, #-1073741813	; 0xc000000b
     d1c:	6d6e6169 	stfvse	f6, [lr, #-420]!	; 0xfffffe5c
     d20:	69747261 	ldmdbvs	r4!, {r0, r5, r6, r9, ip, sp, lr}^
     d24:	2f7a656e 	svccs	0x007a656e
     d28:	6a6f7270 	bvs	1bdd6f0 <__bss_end__+0x1bd4350>
     d2c:	73746365 	cmnvc	r4, #-1811939327	; 0x94000001
     d30:	3173632f 	cmncc	r3, pc, lsr #6
     d34:	2d653034 	stclcs	0, cr3, [r5, #-208]!	; 0xffffff30
     d38:	70733132 	rsbsvc	r3, r3, r2, lsr r1
     d3c:	696c2f72 	stmdbvs	ip!, {r1, r4, r5, r6, r8, r9, sl, fp, sp}^
     d40:	2f697062 	svccs	0x00697062
     d44:	6c636e69 	stclvs	14, cr6, [r3], #-420	; 0xfffffe5c
     d48:	00656475 	rsbeq	r6, r5, r5, ror r4
     d4c:	6d697400 	cfstrdvs	mvd7, [r9, #-0]
     d50:	632e7265 			; <UNDEFINED> instruction: 0x632e7265
     d54:	00000100 	andeq	r0, r0, r0, lsl #2
     d58:	2e697072 	mcrcs	0, 3, r7, cr9, cr2, {3}
     d5c:	00020068 	andeq	r0, r2, r8, rrx
     d60:	23050000 	movwcs	r0, #20480	; 0x5000
     d64:	c8020500 	stmdagt	r2, {r8, sl}
     d68:	16000089 	strne	r0, [r0], -r9, lsl #1
     d6c:	05140505 	ldreq	r0, [r4, #-1285]	; 0xfffffafb
     d70:	1005010a 	andne	r0, r5, sl, lsl #2
     d74:	0a050106 	beq	141194 <__bss_end__+0x137df4>
     d78:	0609052e 	streq	r0, [r9], -lr, lsr #10
     d7c:	0610054b 	ldreq	r0, [r0], -fp, asr #10
     d80:	0623052d 	strteq	r0, [r3], -sp, lsr #10
     d84:	054a0a03 	strbeq	r0, [sl, #-2563]	; 0xfffff5fd
     d88:	0c052f05 	stceq	15, cr2, [r5], {5}
     d8c:	01050106 	tsteq	r5, r6, lsl #2
     d90:	061f054b 	ldreq	r0, [pc], -fp, asr #10
     d94:	3105054d 	tstcc	r5, sp, asr #10
     d98:	0612052f 	ldreq	r0, [r2], -pc, lsr #10
     d9c:	06050501 	streq	r0, [r5], -r1, lsl #10
     da0:	01052f4b 	tsteq	r5, fp, asr #30
     da4:	1c051306 	stcne	3, cr1, [r5], {6}
     da8:	01064c06 	tsteq	r6, r6, lsl #24
     dac:	4b060505 	blmi	1821c8 <__bss_end__+0x178e28>
     db0:	01061305 	tsteq	r6, r5, lsl #6
     db4:	0605052e 	streq	r0, [r5], -lr, lsr #10
     db8:	1309052f 	movwne	r0, #38191	; 0x952f
     dbc:	01061705 	tsteq	r6, r5, lsl #14
     dc0:	2f060905 	svccs	0x00060905
     dc4:	01061105 	tsteq	r6, r5, lsl #2
     dc8:	052e0c05 	streq	r0, [lr, #-3077]!	; 0xfffff3fb
     dcc:	066b061c 			; <UNDEFINED> instruction: 0x066b061c
     dd0:	06050501 	streq	r0, [r5], -r1, lsl #10
     dd4:	054a062f 	strbeq	r0, [sl, #-1583]	; 0xfffff9d1
     dd8:	1e054b01 	vmlane.f64	d4, d5, d1
     ddc:	01062f06 	tsteq	r6, r6, lsl #30
     de0:	2f060505 	svccs	0x00060505
     de4:	01054a06 	tsteq	r5, r6, lsl #20
     de8:	0002024b 	andeq	r0, r2, fp, asr #4
     dec:	01b50101 			; <UNDEFINED> instruction: 0x01b50101
     df0:	00030000 	andeq	r0, r3, r0
     df4:	0000009e 	muleq	r0, lr, r0
     df8:	0efb0102 	cdpeq	1, 15, cr0, cr11, cr2, {0}
     dfc:	0101000d 	tsteq	r1, sp
     e00:	00000101 	andeq	r0, r0, r1, lsl #2
     e04:	00000100 	andeq	r0, r0, r0, lsl #2
     e08:	6f682f01 	svcvs	0x00682f01
     e0c:	652f656d 	strvs	r6, [pc, #-1389]!	; 8a7 <__code_start__-0x7759>
     e10:	656c676e 	strbvs	r6, [ip, #-1902]!	; 0xfffff892
     e14:	6c632f72 	stclvs	15, cr2, [r3], #-456	; 0xfffffe38
     e18:	2f737361 	svccs	0x00737361
     e1c:	34317363 	ldrtcc	r7, [r1], #-867	; 0xfffffc9d
     e20:	322d6530 	eorcc	r6, sp, #48, 10	; 0xc000000
     e24:	72707331 	rsbsvc	r7, r0, #-1006632960	; 0xc4000000
     e28:	696c2f2f 	stmdbvs	ip!, {r0, r1, r2, r3, r5, r8, r9, sl, fp, sp}^
     e2c:	2f697062 	svccs	0x00697062
     e30:	6c636e69 	stclvs	14, cr6, [r3], #-420	; 0xfffffe5c
     e34:	00656475 	rsbeq	r6, r5, r5, ror r4
     e38:	7273752f 	rsbsvc	r7, r3, #197132288	; 0xbc00000
     e3c:	62696c2f 	rsbvs	r6, r9, #12032	; 0x2f00
     e40:	6363672f 	cmnvs	r3, #12320768	; 0xbc0000
     e44:	6d72612f 	ldfvse	f6, [r2, #-188]!	; 0xffffff44
     e48:	6e6f6e2d 	cdpvs	14, 6, cr6, cr15, cr13, {1}
     e4c:	61652d65 	cmnvs	r5, r5, ror #26
     e50:	392f6962 	stmdbcc	pc!, {r1, r5, r6, r8, fp, sp, lr}	; <UNPREDICTABLE>
     e54:	312e322e 			; <UNDEFINED> instruction: 0x312e322e
     e58:	636e692f 	cmnvs	lr, #770048	; 0xbc000
     e5c:	6564756c 	strbvs	r7, [r4, #-1388]!	; 0xfffffa94
     e60:	61750000 	cmnvs	r5, r0
     e64:	632e7472 			; <UNDEFINED> instruction: 0x632e7472
     e68:	00000000 	andeq	r0, r0, r0
     e6c:	2e697072 	mcrcs	0, 3, r7, cr9, cr2, {3}
     e70:	00010068 	andeq	r0, r1, r8, rrx
     e74:	72617500 	rsbvc	r7, r1, #0, 10
     e78:	00682e74 	rsbeq	r2, r8, r4, ror lr
     e7c:	67000001 	strvs	r0, [r0, -r1]
     e80:	2e6f6970 			; <UNDEFINED> instruction: 0x2e6f6970
     e84:	00010068 	andeq	r0, r1, r8, rrx
     e88:	64747300 	ldrbtvs	r7, [r4], #-768	; 0xfffffd00
     e8c:	2e746e69 	cdpcs	14, 7, cr6, cr4, cr9, {3}
     e90:	00020068 	andeq	r0, r2, r8, rrx
     e94:	38050000 	stmdacc	r5, {}	; <UNPREDICTABLE>
     e98:	7c020500 	cfstr32vc	mvfx0, [r2], {-0}
     e9c:	0300008a 	movweq	r0, #138	; 0x8a
     ea0:	0106012d 	tsteq	r6, sp, lsr #2
     ea4:	67060505 	strvs	r0, [r6, -r5, lsl #10]
     ea8:	01061105 	tsteq	r6, r5, lsl #2
     eac:	052e0505 	streq	r0, [lr, #-1285]!	; 0xfffffafb
     eb0:	16056701 	strne	r6, [r5], -r1, lsl #14
     eb4:	2e0b0306 	cdpcs	3, 0, cr0, cr11, cr6, {0}
     eb8:	67350505 	ldrvs	r0, [r5, -r5, lsl #10]!
     ebc:	03683568 	cmneq	r8, #104, 10	; 0x1a000000
     ec0:	6b852e0c 	blvs	fe14c6f8 <__bss_end__+0xfe143358>
     ec4:	0c036969 			; <UNDEFINED> instruction: 0x0c036969
     ec8:	676b1366 	strbvs	r1, [fp, -r6, ror #6]!
     ecc:	2f060105 	svccs	0x00060105
     ed0:	08061905 	stmdaeq	r6, {r0, r2, r8, fp, ip}
     ed4:	34050525 	strcc	r0, [r5], #-1317	; 0xfffffadb
     ed8:	01060d05 	tsteq	r6, r5, lsl #26
     edc:	054c0105 	strbeq	r0, [ip, #-261]	; 0xfffffefb
     ee0:	05670619 	strbeq	r0, [r7, #-1561]!	; 0xfffff9e7
     ee4:	0d053605 	stceq	6, cr3, [r5, #-20]	; 0xffffffec
     ee8:	28050106 	stmdacs	r5, {r1, r2, r8}
     eec:	3001054a 	andcc	r0, r1, sl, asr #10
     ef0:	87061505 	strhi	r1, [r6, -r5, lsl #10]
     ef4:	2f2f0505 	svccs	0x002f0505
     ef8:	02000905 	andeq	r0, r0, #81920	; 0x14000
     efc:	05130104 	ldreq	r0, [r3, #-260]	; 0xfffffefc
     f00:	0402000a 	streq	r0, [r2], #-10
     f04:	0c051101 	stfeqs	f1, [r5], {1}
     f08:	01040200 	mrseq	r0, R12_usr
     f0c:	0a050106 	beq	14132c <__bss_end__+0x137f8c>
     f10:	01040200 	mrseq	r0, R12_usr
     f14:	0605052e 	streq	r0, [r5], -lr, lsr #10
     f18:	060e054c 	streq	r0, [lr], -ip, asr #10
     f1c:	4a090501 	bmi	242328 <__bss_end__+0x238f88>
     f20:	2f060505 	svccs	0x00060505
     f24:	0601052f 	streq	r0, [r1], -pc, lsr #10
     f28:	061c0513 			; <UNDEFINED> instruction: 0x061c0513
     f2c:	05010667 	streq	r0, [r1, #-1639]	; 0xfffff999
     f30:	2f4b0605 	svccs	0x004b0605
     f34:	02000905 	andeq	r0, r0, #81920	; 0x14000
     f38:	05130104 	ldreq	r0, [r3, #-260]	; 0xfffffefc
     f3c:	0402000a 	streq	r0, [r2], #-10
     f40:	0c051101 	stfeqs	f1, [r5], {1}
     f44:	01040200 	mrseq	r0, R12_usr
     f48:	0a050106 	beq	141368 <__bss_end__+0x137fc8>
     f4c:	01040200 	mrseq	r0, R12_usr
     f50:	0605052e 	streq	r0, [r5], -lr, lsr #10
     f54:	0105674c 	tsteq	r5, ip, asr #14
     f58:	19052f06 	stmdbne	r5, {r1, r2, r8, r9, sl, fp, sp}
     f5c:	1b054c06 	blne	153f7c <__bss_end__+0x14abdc>
     f60:	2e2a052e 	cfsh64cs	mvdx0, mvdx10, #30
     f64:	01063105 	tsteq	r6, r5, lsl #2
     f68:	052e0105 	streq	r0, [lr, #-261]!	; 0xfffffefb
     f6c:	0531061c 	ldreq	r0, [r1, #-1564]!	; 0xfffff9e4
     f70:	09032f05 	stmdbeq	r3, {r0, r2, r8, r9, sl, fp, sp}
     f74:	060e052e 	streq	r0, [lr], -lr, lsr #10
     f78:	4a210501 	bmi	842384 <__bss_end__+0x838fe4>
     f7c:	0a030105 	beq	c1398 <__bss_end__+0xb7ff8>
     f80:	061a052e 	ldreq	r0, [sl], -lr, lsr #10
     f84:	00090568 	andeq	r0, r9, r8, ror #10
     f88:	30010402 	andcc	r0, r1, r2, lsl #8
     f8c:	02000a05 	andeq	r0, r0, #20480	; 0x5000
     f90:	05110104 	ldreq	r0, [r1, #-260]	; 0xfffffefc
     f94:	0402000c 	streq	r0, [r2], #-12
     f98:	05010601 	streq	r0, [r1, #-1537]	; 0xfffff9ff
     f9c:	0402000a 	streq	r0, [r2], #-10
     fa0:	06022e01 	streq	r2, [r2], -r1, lsl #28
     fa4:	89010100 	stmdbhi	r1, {r8}
     fa8:	03000001 	movweq	r0, #1
     fac:	0000d700 	andeq	sp, r0, r0, lsl #14
     fb0:	fb010200 	blx	417ba <__bss_end__+0x3841a>
     fb4:	01000d0e 	tsteq	r0, lr, lsl #26
     fb8:	00010101 	andeq	r0, r1, r1, lsl #2
     fbc:	00010000 	andeq	r0, r1, r0
     fc0:	72730100 	rsbsvc	r0, r3, #0
     fc4:	552f0063 	strpl	r0, [pc, #-99]!	; f69 <__code_start__-0x7097>
     fc8:	73726573 	cmnvc	r2, #482344960	; 0x1cc00000
     fcc:	7264612f 	rsbvc	r6, r4, #-1073741813	; 0xc000000b
     fd0:	6d6e6169 	stfvse	f6, [lr, #-420]!	; 0xfffffe5c
     fd4:	69747261 	ldmdbvs	r4!, {r0, r5, r6, r9, ip, sp, lr}^
     fd8:	2f7a656e 	svccs	0x007a656e
     fdc:	6a6f7270 	bvs	1bdd9a4 <__bss_end__+0x1bd4604>
     fe0:	73746365 	cmnvc	r4, #-1811939327	; 0x94000001
     fe4:	3173632f 	cmncc	r3, pc, lsr #6
     fe8:	2d653034 	stclcs	0, cr3, [r5, #-208]!	; 0xffffff30
     fec:	70733132 	rsbsvc	r3, r3, r2, lsr r1
     ff0:	696c2f72 	stmdbvs	ip!, {r1, r4, r5, r6, r8, r9, sl, fp, sp}^
     ff4:	2f697062 	svccs	0x00697062
     ff8:	6c636e69 	stclvs	14, cr6, [r3], #-420	; 0xfffffe5c
     ffc:	00656475 	rsbeq	r6, r5, r5, ror r4
    1000:	7273752f 	rsbsvc	r7, r3, #197132288	; 0xbc00000
    1004:	636f6c2f 	cmnvs	pc, #12032	; 0x2f00
    1008:	432f6c61 			; <UNDEFINED> instruction: 0x432f6c61
    100c:	616c6c65 	cmnvs	ip, r5, ror #24
    1010:	72612f72 	rsbvc	r2, r1, #456	; 0x1c8
    1014:	6f6e2d6d 	svcvs	0x006e2d6d
    1018:	652d656e 	strvs	r6, [sp, #-1390]!	; 0xfffffa92
    101c:	2d696261 	sfmcs	f6, 2, [r9, #-388]!	; 0xfffffe7c
    1020:	74736574 	ldrbtvc	r6, [r3], #-1396	; 0xfffffa8c
    1024:	322d392f 	eorcc	r3, sp, #770048	; 0xbc000
    1028:	71393130 	teqvc	r9, r0, lsr r1
    102c:	73632d34 	cmnvc	r3, #52, 26	; 0xd00
    1030:	65373031 	ldrvs	r3, [r7, #-49]!	; 0xffffffcf
    1034:	62696c2f 	rsbvs	r6, r9, #12032	; 0x2f00
    1038:	6363672f 	cmnvs	r3, #12320768	; 0xbc0000
    103c:	6d72612f 	ldfvse	f6, [r2, #-188]!	; 0xffffff44
    1040:	6e6f6e2d 	cdpvs	14, 6, cr6, cr15, cr13, {1}
    1044:	61652d65 	cmnvs	r5, r5, ror #26
    1048:	392f6962 	stmdbcc	pc!, {r1, r5, r6, r8, fp, sp, lr}	; <UNPREDICTABLE>
    104c:	312e322e 			; <UNDEFINED> instruction: 0x312e322e
    1050:	636e692f 	cmnvs	lr, #770048	; 0xbc000
    1054:	6564756c 	strbvs	r7, [r4, #-1388]!	; 0xfffffa94
    1058:	70670000 	rsbvc	r0, r7, r0
    105c:	632e6f69 			; <UNDEFINED> instruction: 0x632e6f69
    1060:	00000100 	andeq	r0, r0, r0, lsl #2
    1064:	2e697072 	mcrcs	0, 3, r7, cr9, cr2, {3}
    1068:	00020068 	andeq	r0, r2, r8, rrx
    106c:	64747300 	ldrbtvs	r7, [r4], #-768	; 0xfffffd00
    1070:	2d746e69 	ldclcs	14, cr6, [r4, #-420]!	; 0xfffffe5c
    1074:	2e636367 	cdpcs	3, 6, cr6, cr3, cr7, {3}
    1078:	00030068 	andeq	r0, r3, r8, rrx
    107c:	69706700 	ldmdbvs	r0!, {r8, r9, sl, sp, lr}^
    1080:	00682e6f 	rsbeq	r2, r8, pc, ror #28
    1084:	00000002 	andeq	r0, r0, r2
    1088:	05003605 	streq	r3, [r0, #-1541]	; 0xfffff9fb
    108c:	008c2802 	addeq	r2, ip, r2, lsl #16
    1090:	01130300 	tsteq	r3, r0, lsl #6
    1094:	05050106 	streq	r0, [r5, #-262]	; 0xfffffefa
    1098:	28056706 	stmdacs	r5, {r1, r2, r8, r9, sl, sp, lr}
    109c:	22050106 	andcs	r0, r5, #-2147483647	; 0x80000001
    10a0:	4a0e0566 	bmi	382640 <__bss_end__+0x3792a0>
    10a4:	2f060505 	svccs	0x00060505
    10a8:	01061805 	tsteq	r6, r5, lsl #16
    10ac:	0605052e 	streq	r0, [r5], -lr, lsr #10
    10b0:	061f052f 	ldreq	r0, [pc], -pc, lsr #10
    10b4:	4a0e0501 	bmi	3824c0 <__bss_end__+0x379120>
    10b8:	2f060505 	svccs	0x00060505
    10bc:	01061d05 	tsteq	r6, r5, lsl #26
    10c0:	4a4a0505 	bmi	12824dc <__bss_end__+0x127913c>
    10c4:	052f0105 	streq	r0, [pc, #-261]!	; fc7 <__code_start__-0x7039>
    10c8:	0a030624 	beq	c2960 <__bss_end__+0xb95c0>
    10cc:	0501064a 	streq	r0, [r1, #-1610]	; 0xfffff9b6
    10d0:	052f0605 	streq	r0, [pc, #-1541]!	; ad3 <__code_start__-0x752d>
    10d4:	054b0601 	strbeq	r0, [fp, #-1537]	; 0xfffff9ff
    10d8:	06310620 	ldrteq	r0, [r1], -r0, lsr #12
    10dc:	06050501 	streq	r0, [r5], -r1, lsl #10
    10e0:	0566062f 	strbeq	r0, [r6, #-1583]!	; 0xfffff9d1
    10e4:	21052f01 	tstcs	r5, r1, lsl #30
    10e8:	01064d06 	tsteq	r6, r6, lsl #26
    10ec:	2f060505 	svccs	0x00060505
    10f0:	01056606 	tsteq	r5, r6, lsl #12
    10f4:	062b052f 	strteq	r0, [fp], -pc, lsr #10
    10f8:	0501064d 	streq	r0, [r1, #-1613]	; 0xfffff9b3
    10fc:	052f0605 	streq	r0, [pc, #-1541]!	; aff <__code_start__-0x7501>
    1100:	05010607 	streq	r0, [r1, #-1543]	; 0xfffff9f9
    1104:	064b0608 	strbeq	r0, [fp], -r8, lsl #12
    1108:	0530062e 	ldreq	r0, [r0, #-1582]!	; 0xfffff9d2
    110c:	052f0601 	streq	r0, [pc, #-1537]!	; b13 <__code_start__-0x74ed>
    1110:	06350623 	ldrteq	r0, [r5], -r3, lsr #12
    1114:	06050501 	streq	r0, [r5], -r1, lsl #10
    1118:	0601052f 	streq	r0, [r1], -pc, lsr #10
    111c:	061d054b 	ldreq	r0, [sp], -fp, asr #10
    1120:	05010631 	streq	r0, [r1, #-1585]	; 0xfffff9cf
    1124:	054d0605 	strbeq	r0, [sp, #-1541]	; 0xfffff9fb
    1128:	2e01060c 	cfmadd32cs	mvax0, mvfx0, mvfx1, mvfx12
    112c:	022f0105 	eoreq	r0, pc, #1073741825	; 0x40000001
    1130:	01010008 	tsteq	r1, r8
    1134:	000000a6 	andeq	r0, r0, r6, lsr #1
    1138:	00680003 	rsbeq	r0, r8, r3
    113c:	01020000 	mrseq	r0, (UNDEF: 2)
    1140:	000d0efb 	strdeq	r0, [sp], -fp
    1144:	01010101 	tsteq	r1, r1, lsl #2
    1148:	01000000 	mrseq	r0, (UNDEF: 0)
    114c:	6c010000 	stcvs	0, cr0, [r1], {-0}
    1150:	00636269 	rsbeq	r6, r3, r9, ror #4
    1154:	6573552f 	ldrbvs	r5, [r3, #-1327]!	; 0xfffffad1
    1158:	612f7372 			; <UNDEFINED> instruction: 0x612f7372
    115c:	61697264 	cmnvs	r9, r4, ror #4
    1160:	72616d6e 	rsbvc	r6, r1, #7040	; 0x1b80
    1164:	656e6974 	strbvs	r6, [lr, #-2420]!	; 0xfffff68c
    1168:	72702f7a 	rsbsvc	r2, r0, #488	; 0x1e8
    116c:	63656a6f 	cmnvs	r5, #454656	; 0x6f000
    1170:	632f7374 			; <UNDEFINED> instruction: 0x632f7374
    1174:	30343173 	eorscc	r3, r4, r3, ror r1
    1178:	31322d65 	teqcc	r2, r5, ror #26
    117c:	2f727073 	svccs	0x00727073
    1180:	7062696c 	rsbvc	r6, r2, ip, ror #18
    1184:	6e692f69 	cdpvs	15, 6, cr2, cr9, cr9, {3}
    1188:	64756c63 	ldrbtvs	r6, [r5], #-3171	; 0xfffff39d
    118c:	70000065 	andvc	r0, r0, r5, rrx
    1190:	68637475 	stmdavs	r3!, {r0, r2, r4, r5, r6, sl, ip, sp, lr}^
    1194:	632e7261 			; <UNDEFINED> instruction: 0x632e7261
    1198:	00000100 	andeq	r0, r0, r0, lsl #2
    119c:	2e697072 	mcrcs	0, 3, r7, cr9, cr2, {3}
    11a0:	00020068 	andeq	r0, r2, r8, rrx
    11a4:	24050000 	strcs	r0, [r5], #-0
    11a8:	10020500 	andne	r0, r2, r0, lsl #10
    11ac:	1400008d 	strne	r0, [r0], #-141	; 0xffffff73
    11b0:	26050106 	strcs	r0, [r5], -r6, lsl #2
    11b4:	34054a06 	strcc	r4, [r5], #-2566	; 0xfffff5fa
    11b8:	0601052e 	streq	r0, [r1], -lr, lsr #10
    11bc:	061b0501 	ldreq	r0, [fp], -r1, lsl #10
    11c0:	1305054f 	movwne	r0, #21839	; 0x554f
    11c4:	01061105 	tsteq	r6, r5, lsl #2
    11c8:	05670105 	strbeq	r0, [r7, #-261]!	; 0xfffffefb
    11cc:	05670623 	strbeq	r0, [r7, #-1571]!	; 0xfffff9dd
    11d0:	11051305 	tstne	r5, r5, lsl #6
    11d4:	01050106 	tsteq	r5, r6, lsl #2
    11d8:	0004024b 	andeq	r0, r4, fp, asr #4
    11dc:	00f20101 	rscseq	r0, r2, r1, lsl #2
    11e0:	00030000 	andeq	r0, r3, r0
    11e4:	00000067 	andeq	r0, r0, r7, rrx
    11e8:	0efb0102 	cdpeq	1, 15, cr0, cr11, cr2, {0}
    11ec:	0101000d 	tsteq	r1, sp
    11f0:	00000101 	andeq	r0, r0, r1, lsl #2
    11f4:	00000100 	andeq	r0, r0, r0, lsl #2
    11f8:	62696c01 	rsbvs	r6, r9, #256	; 0x100
    11fc:	552f0063 	strpl	r0, [pc, #-99]!	; 11a1 <__code_start__-0x6e5f>
    1200:	73726573 	cmnvc	r2, #482344960	; 0x1cc00000
    1204:	7264612f 	rsbvc	r6, r4, #-1073741813	; 0xc000000b
    1208:	6d6e6169 	stfvse	f6, [lr, #-420]!	; 0xfffffe5c
    120c:	69747261 	ldmdbvs	r4!, {r0, r5, r6, r9, ip, sp, lr}^
    1210:	2f7a656e 	svccs	0x007a656e
    1214:	6a6f7270 	bvs	1bddbdc <__bss_end__+0x1bd483c>
    1218:	73746365 	cmnvc	r4, #-1811939327	; 0x94000001
    121c:	3173632f 	cmncc	r3, pc, lsr #6
    1220:	2d653034 	stclcs	0, cr3, [r5, #-208]!	; 0xffffff30
    1224:	70733132 	rsbsvc	r3, r3, r2, lsr r1
    1228:	696c2f72 	stmdbvs	ip!, {r1, r4, r5, r6, r8, r9, sl, fp, sp}^
    122c:	2f697062 	svccs	0x00697062
    1230:	6c636e69 	stclvs	14, cr6, [r3], #-420	; 0xfffffe5c
    1234:	00656475 	rsbeq	r6, r5, r5, ror r4
    1238:	72747300 	rsbsvc	r7, r4, #0, 6
    123c:	2e746163 	rpwcssz	f6, f4, f3
    1240:	00010063 	andeq	r0, r1, r3, rrx
    1244:	69707200 	ldmdbvs	r0!, {r9, ip, sp, lr}^
    1248:	0200682e 	andeq	r6, r0, #3014656	; 0x2e0000
    124c:	05000000 	streq	r0, [r0, #-0]
    1250:	0205002c 	andeq	r0, r5, #44, 0	; 0x2c
    1254:	00008d4c 	andeq	r8, r0, ip, asr #26
    1258:	13050515 	movwne	r0, #21781	; 0x5515
    125c:	060b0513 			; <UNDEFINED> instruction: 0x060b0513
    1260:	00050511 	andeq	r0, r5, r1, lsl r5
    1264:	06010402 	streq	r0, [r1], -r2, lsl #8
    1268:	04020030 	streq	r0, [r2], #-48	; 0xffffffd0
    126c:	09051501 	stmdbeq	r5, {r0, r8, sl, ip}
    1270:	01040200 	mrseq	r0, R12_usr
    1274:	00100513 	andseq	r0, r0, r3, lsl r5
    1278:	06010402 	streq	r0, [r1], -r2, lsl #8
    127c:	000b052e 	andeq	r0, fp, lr, lsr #10
    1280:	2e010402 	cdpcs	4, 0, cr0, cr1, cr2, {0}
    1284:	01040200 	mrseq	r0, R12_usr
    1288:	05052f06 	streq	r2, [r5, #-3846]	; 0xfffff0fa
    128c:	01040200 	mrseq	r0, R12_usr
    1290:	4e060106 	adfmis	f0, f6, f6
    1294:	01060805 	tsteq	r6, r5, lsl #16
    1298:	02000505 	andeq	r0, r0, #20971520	; 0x1400000
    129c:	2f060104 	svccs	0x00060104
    12a0:	02000905 	andeq	r0, r0, #81920	; 0x14000
    12a4:	05130104 	ldreq	r0, [r3, #-260]	; 0xfffffefc
    12a8:	0402000b 	streq	r0, [r2], #-11
    12ac:	05010601 	streq	r0, [r1, #-1537]	; 0xfffff9ff
    12b0:	04020009 	streq	r0, [r2], #-9
    12b4:	054b0601 	strbeq	r0, [fp, #-1537]	; 0xfffff9ff
    12b8:	0402000f 	streq	r0, [r2], #-15
    12bc:	05010601 	streq	r0, [r1, #-1537]	; 0xfffff9ff
    12c0:	0402000d 	streq	r0, [r2], #-13
    12c4:	052f0601 	streq	r0, [pc, #-1537]!	; ccb <__code_start__-0x7335>
    12c8:	04020005 	streq	r0, [r2], #-5
    12cc:	02010601 	andeq	r0, r1, #1048576	; 0x100000
    12d0:	01010006 	tsteq	r1, r6
    12d4:	00000109 	andeq	r0, r0, r9, lsl #2
    12d8:	00cd0003 	sbceq	r0, sp, r3
    12dc:	01020000 	mrseq	r0, (UNDEF: 2)
    12e0:	000d0efb 	strdeq	r0, [sp], -fp
    12e4:	01010101 	tsteq	r1, r1, lsl #2
    12e8:	01000000 	mrseq	r0, (UNDEF: 0)
    12ec:	6c010000 	stcvs	0, cr0, [r1], {-0}
    12f0:	00636269 	rsbeq	r6, r3, r9, ror #4
    12f4:	6573552f 	ldrbvs	r5, [r3, #-1327]!	; 0xfffffad1
    12f8:	612f7372 			; <UNDEFINED> instruction: 0x612f7372
    12fc:	61697264 	cmnvs	r9, r4, ror #4
    1300:	72616d6e 	rsbvc	r6, r1, #7040	; 0x1b80
    1304:	656e6974 	strbvs	r6, [lr, #-2420]!	; 0xfffff68c
    1308:	72702f7a 	rsbsvc	r2, r0, #488	; 0x1e8
    130c:	63656a6f 	cmnvs	r5, #454656	; 0x6f000
    1310:	632f7374 			; <UNDEFINED> instruction: 0x632f7374
    1314:	30343173 	eorscc	r3, r4, r3, ror r1
    1318:	31322d65 	teqcc	r2, r5, ror #26
    131c:	2f727073 	svccs	0x00727073
    1320:	7062696c 	rsbvc	r6, r2, ip, ror #18
    1324:	6e692f69 	cdpvs	15, 6, cr2, cr9, cr9, {3}
    1328:	64756c63 	ldrbtvs	r6, [r5], #-3171	; 0xfffff39d
    132c:	752f0065 	strvc	r0, [pc, #-101]!	; 12cf <__code_start__-0x6d31>
    1330:	6c2f7273 	sfmvs	f7, 4, [pc], #-460	; 116c <__code_start__-0x6e94>
    1334:	6c61636f 	stclvs	3, cr6, [r1], #-444	; 0xfffffe44
    1338:	6c65432f 	stclvs	3, cr4, [r5], #-188	; 0xffffff44
    133c:	2f72616c 	svccs	0x0072616c
    1340:	2d6d7261 	sfmcs	f7, 2, [sp, #-388]!	; 0xfffffe7c
    1344:	656e6f6e 	strbvs	r6, [lr, #-3950]!	; 0xfffff092
    1348:	6261652d 	rsbvs	r6, r1, #188743680	; 0xb400000
    134c:	65742d69 	ldrbvs	r2, [r4, #-3433]!	; 0xfffff297
    1350:	392f7473 	stmdbcc	pc!, {r0, r1, r4, r5, r6, sl, ip, sp, lr}	; <UNPREDICTABLE>
    1354:	3130322d 	teqcc	r0, sp, lsr #4
    1358:	2d347139 	ldfcss	f7, [r4, #-228]!	; 0xffffff1c
    135c:	30317363 	eorscc	r7, r1, r3, ror #6
    1360:	6c2f6537 	cfstr32vs	mvfx6, [pc], #-220	; 128c <__code_start__-0x6d74>
    1364:	672f6269 	strvs	r6, [pc, -r9, ror #4]!
    1368:	612f6363 			; <UNDEFINED> instruction: 0x612f6363
    136c:	6e2d6d72 	mcrvs	13, 1, r6, cr13, cr2, {3}
    1370:	2d656e6f 	stclcs	14, cr6, [r5, #-444]!	; 0xfffffe44
    1374:	69626165 	stmdbvs	r2!, {r0, r2, r5, r6, r8, sp, lr}^
    1378:	322e392f 	eorcc	r3, lr, #770048	; 0xbc000
    137c:	692f312e 	stmdbvs	pc!, {r1, r2, r3, r5, r8, ip, sp}	; <UNPREDICTABLE>
    1380:	756c636e 	strbvc	r6, [ip, #-878]!	; 0xfffffc92
    1384:	00006564 	andeq	r6, r0, r4, ror #10
    1388:	6e727473 	mrcvs	4, 3, r7, cr2, cr3, {3}
    138c:	2e706d63 	cdpcs	13, 7, cr6, cr0, cr3, {3}
    1390:	00010063 	andeq	r0, r1, r3, rrx
    1394:	69707200 	ldmdbvs	r0!, {r9, ip, sp, lr}^
    1398:	0200682e 	andeq	r6, r0, #3014656	; 0x2e0000
    139c:	74730000 	ldrbtvc	r0, [r3], #-0
    13a0:	66656464 	strbtvs	r6, [r5], -r4, ror #8
    13a4:	0300682e 	movweq	r6, #2094	; 0x82e
    13a8:	05000000 	streq	r0, [r0, #-0]
    13ac:	02050039 	andeq	r0, r5, #57, 0	; 0x39
    13b0:	00008d80 	andeq	r8, r0, r0, lsl #27
    13b4:	13050515 	movwne	r0, #21781	; 0x5515
    13b8:	010a0513 	tsteq	sl, r3, lsl r5
    13bc:	054a0106 	strbeq	r0, [sl, #-262]	; 0xfffffefa
    13c0:	052f0609 	streq	r0, [pc, #-1545]!	; dbf <__code_start__-0x7241>
    13c4:	0501060c 	streq	r0, [r1, #-1548]	; 0xfffff9f4
    13c8:	0b052e13 	bleq	14cc1c <__bss_end__+0x14387c>
    13cc:	060d052e 	streq	r0, [sp], -lr, lsr #10
    13d0:	061b054b 	ldreq	r0, [fp], -fp, asr #10
    13d4:	0c052e01 	stceq	14, cr2, [r5], {1}
    13d8:	2f010530 	svccs	0x00010530
    13dc:	01000202 	tsteq	r0, r2, lsl #4
    13e0:	Address 0x00000000000013e0 is out of bounds.


Disassembly of section .debug_str:

00000000 <.debug_str>:
   0:	63617274 	cmnvs	r1, #116, 4	; 0x40000007
   4:	74735f65 	ldrbtvc	r5, [r3], #-3941	; 0xfffff09b
   8:	6700706f 	strvs	r7, [r0, -pc, rrx]
   c:	5f6f6970 	svcpl	0x006f6970
  10:	74697277 	strbtvc	r7, [r9], #-631	; 0xfffffd89
  14:	552f0065 	strpl	r0, [pc, #-101]!	; ffffffb7 <__bss_end__+0xffff6c17>
  18:	73726573 	cmnvc	r2, #482344960	; 0x1cc00000
  1c:	7264612f 	rsbvc	r6, r4, #-1073741813	; 0xc000000b
  20:	6d6e6169 	stfvse	f6, [lr, #-420]!	; 0xfffffe5c
  24:	69747261 	ldmdbvs	r4!, {r0, r5, r6, r9, ip, sp, lr}^
  28:	2f7a656e 	svccs	0x007a656e
  2c:	6a6f7270 	bvs	1bdc9f4 <__bss_end__+0x1bd3654>
  30:	73746365 	cmnvc	r4, #-1811939327	; 0x94000001
  34:	3173632f 	cmncc	r3, pc, lsr #6
  38:	2d653034 	stclcs	0, cr3, [r5, #-208]!	; 0xffffff30
  3c:	70733132 	rsbsvc	r3, r3, r2, lsr r1
  40:	616c2f72 	smcvs	49906	; 0xc2f2
  44:	322f7362 	eorcc	r7, pc, #-2013265919	; 0x88000001
  48:	6f72632d 	svcvs	0x0072632d
  4c:	632d7373 			; <UNDEFINED> instruction: 0x632d7373
  50:	6b636568 	blvs	18d95f8 <__bss_end__+0x18d0258>
  54:	742d322f 	strtvc	r3, [sp], #-559	; 0xfffffdd1
  58:	65636172 	strbvs	r6, [r3, #-370]!	; 0xfffffe8e
  5c:	7365742f 	cmnvc	r5, #788529152	; 0x2f000000
  60:	75007374 	strvc	r7, [r0, #-884]	; 0xfffffc8c
  64:	5f747261 	svcpl	0x00747261
  68:	74696e69 	strbtvc	r6, [r9], #-3689	; 0xfffff197
  6c:	736e7500 	cmnvc	lr, #0, 10
  70:	656e6769 	strbvs	r6, [lr, #-1897]!	; 0xfffff897
  74:	68632064 	stmdavs	r3!, {r2, r5, r6, sp}^
  78:	63007261 	movwvs	r7, #609	; 0x261
  7c:	6e61656c 	cdpvs	5, 6, cr6, cr1, cr12, {3}
  80:	6265725f 	rsbvs	r7, r5, #-268435451	; 0xf0000005
  84:	00746f6f 	rsbseq	r6, r4, pc, ror #30
  88:	63617274 	cmnvs	r1, #116, 4	; 0x40000007
  8c:	74735f65 	ldrbtvc	r5, [r3], #-3941	; 0xfffff09b
  90:	00747261 	rsbseq	r7, r4, r1, ror #4
  94:	726f6873 	rsbvc	r6, pc, #7536640	; 0x730000
  98:	6e752074 	mrcvs	0, 3, r2, cr5, cr4, {3}
  9c:	6e676973 			; <UNDEFINED> instruction: 0x6e676973
  a0:	69206465 	stmdbvs	r0!, {r0, r2, r5, r6, sl, sp, lr}
  a4:	6c00746e 	cfstrsvs	mvf7, [r0], {110}	; 0x6e
  a8:	20676e6f 	rsbcs	r6, r7, pc, ror #28
  ac:	676e6f6c 	strbvs	r6, [lr, -ip, ror #30]!
  b0:	736e7520 	cmnvc	lr, #32, 10	; 0x8000000
  b4:	656e6769 	strbvs	r6, [lr, #-1897]!	; 0xfffff897
  b8:	6e692064 	cdpvs	0, 6, cr2, cr9, cr4, {3}
  bc:	6f6c0074 	svcvs	0x006c0074
  c0:	6c20676e 	stcvs	7, cr6, [r0], #-440	; 0xfffffe48
  c4:	20676e6f 	rsbcs	r6, r7, pc, ror #28
  c8:	00746e69 	rsbseq	r6, r4, r9, ror #28
  cc:	5f697072 	svcpl	0x00697072
  d0:	63747570 	cmnvs	r4, #112, 10	; 0x1c000000
  d4:	00726168 	rsbseq	r6, r2, r8, ror #2
  d8:	726f6873 	rsbvc	r6, pc, #7536640	; 0x730000
  dc:	6e692074 	mcrvs	0, 3, r2, cr9, cr4, {3}
  e0:	2d300074 	ldccs	0, cr0, [r0, #-464]!	; 0xfffffe30
  e4:	6f697067 	svcvs	0x00697067
  e8:	6972772d 	ldmdbvs	r2!, {r0, r2, r3, r5, r8, r9, sl, ip, sp, lr}^
  ec:	632e6574 			; <UNDEFINED> instruction: 0x632e6574
  f0:	554e4700 	strbpl	r4, [lr, #-1792]	; 0xfffff900
  f4:	39394320 	ldmdbcc	r9!, {r5, r8, r9, lr}
  f8:	322e3920 	eorcc	r3, lr, #32, 18	; 0x80000
  fc:	3220312e 	eorcc	r3, r0, #-2147483637	; 0x8000000b
 100:	31393130 	teqcc	r9, r0, lsr r1
 104:	20353230 	eorscs	r3, r5, r0, lsr r2
 108:	6c657228 	sfmvs	f7, 2, [r5], #-160	; 0xffffff60
 10c:	65736165 	ldrbvs	r6, [r3, #-357]!	; 0xfffffe9b
 110:	415b2029 	cmpmi	fp, r9, lsr #32
 114:	612f4d52 			; <UNDEFINED> instruction: 0x612f4d52
 118:	392d6d72 	pushcc	{r1, r4, r5, r6, r8, sl, fp, sp, lr}
 11c:	6172622d 	cmnvs	r2, sp, lsr #4
 120:	2068636e 	rsbcs	r6, r8, lr, ror #6
 124:	69766572 	ldmdbvs	r6!, {r1, r4, r5, r6, r8, sl, sp, lr}^
 128:	6e6f6973 			; <UNDEFINED> instruction: 0x6e6f6973
 12c:	37373220 	ldrcc	r3, [r7, -r0, lsr #4]!
 130:	5d393935 			; <UNDEFINED> instruction: 0x5d393935
 134:	636d2d20 	cmnvs	sp, #32, 26	; 0x800
 138:	613d7570 	teqvs	sp, r0, ror r5
 13c:	31316d72 	teqcc	r1, r2, ror sp
 140:	7a6a3637 	bvc	1a8da24 <__bss_end__+0x1a84684>
 144:	20732d66 	rsbscs	r2, r3, r6, ror #26
 148:	75746d2d 	ldrbvc	r6, [r4, #-3373]!	; 0xfffff2d3
 14c:	613d656e 	teqvs	sp, lr, ror #10
 150:	31316d72 	teqcc	r1, r2, ror sp
 154:	7a6a3637 	bvc	1a8da38 <__bss_end__+0x1a84698>
 158:	20732d66 	rsbscs	r2, r3, r6, ror #26
 15c:	6c666d2d 	stclvs	13, cr6, [r6], #-180	; 0xffffff4c
 160:	2d74616f 	ldfcse	f6, [r4, #-444]!	; 0xfffffe44
 164:	3d696261 	sfmcc	f6, 2, [r9, #-388]!	; 0xfffffe7c
 168:	74666f73 	strbtvc	r6, [r6], #-3955	; 0xfffff08d
 16c:	616d2d20 	cmnvs	sp, r0, lsr #26
 170:	2d206d72 	stccs	13, cr6, [r0, #-456]!	; 0xfffffe38
 174:	6372616d 	cmnvs	r2, #1073741851	; 0x4000001b
 178:	72613d68 	rsbvc	r3, r1, #104, 26	; 0x1a00
 17c:	6b36766d 	blvs	d9db38 <__bss_end__+0xd94798>
 180:	672d207a 			; <UNDEFINED> instruction: 0x672d207a
 184:	20626467 	rsbcs	r6, r2, r7, ror #8
 188:	20674f2d 	rsbcs	r4, r7, sp, lsr #30
 18c:	6474732d 	ldrbtvs	r7, [r4], #-813	; 0xfffffcd3
 190:	756e673d 	strbvc	r6, [lr, #-1853]!	; 0xfffff8c3
 194:	2d203939 			; <UNDEFINED> instruction: 0x2d203939
 198:	65726666 	ldrbvs	r6, [r2, #-1638]!	; 0xfffff99a
 19c:	61747365 	cmnvs	r4, r5, ror #6
 1a0:	6e69646e 	cdpvs	4, 6, cr6, cr9, cr14, {3}
 1a4:	6f6e0067 	svcvs	0x006e0067
 1a8:	69616d74 	stmdbvs	r1!, {r2, r4, r5, r6, r8, sl, fp, sp, lr}^
 1ac:	5f5f006e 	svcpl	0x005f006e
 1b0:	6c616572 	cfstr64vs	mvdx6, [r1], #-456	; 0xfffffe38
 1b4:	5445475f 	strbpl	r4, [r5], #-1887	; 0xfffff8a1
 1b8:	73003233 	movwvc	r3, #563	; 0x233
 1bc:	65746174 	ldrbvs	r6, [r4, #-372]!	; 0xfffffe8c
 1c0:	696d6500 	stmdbvs	sp!, {r8, sl, sp, lr}^
 1c4:	65675f74 	strbvs	r5, [r7, #-3956]!	; 0xfffff08c
 1c8:	00323374 	eorseq	r3, r2, r4, ror r3
 1cc:	74696d65 	strbtvc	r6, [r9], #-3429	; 0xfffff29b
 1d0:	7475705f 	ldrbtvc	r7, [r5], #-95	; 0xffffffa1
 1d4:	5f003233 	svcpl	0x00003233
 1d8:	6172775f 	cmnvs	r2, pc, asr r7
 1dc:	55505f70 	ldrbpl	r5, [r0, #-3952]	; 0xfffff090
 1e0:	00323354 	eorseq	r3, r2, r4, asr r3
 1e4:	43415254 	movtmi	r5, #4692	; 0x1254
 1e8:	4e4f5f45 	cdpmi	15, 4, cr5, cr15, cr5, {2}
 1ec:	64646100 	strbtvs	r6, [r4], #-256	; 0xffffff00
 1f0:	75620072 	strbvc	r0, [r2, #-114]!	; 0xffffff8e
 1f4:	72656666 	rsbvc	r6, r5, #106954752	; 0x6600000
 1f8:	5f00705f 	svcpl	0x0000705f
 1fc:	4e55465f 	mrcmi	6, 2, r4, cr5, cr15, {2}
 200:	4f495443 	svcmi	0x00495443
 204:	005f5f4e 	subseq	r5, pc, lr, asr #30
 208:	65725f5f 	ldrbvs	r5, [r2, #-3935]!	; 0xfffff0a1
 20c:	505f6c61 	subspl	r6, pc, r1, ror #24
 210:	32335455 	eorscc	r5, r3, #1426063360	; 0x55000000
 214:	775f5f00 	ldrbvc	r5, [pc, -r0, lsl #30]
 218:	5f706172 	svcpl	0x00706172
 21c:	33544547 	cmpcc	r4, #297795584	; 0x11c00000
 220:	72740032 	rsbsvc	r0, r4, #50, 0	; 0x32
 224:	2d656361 	stclcs	3, cr6, [r5, #-388]!	; 0xfffffe7c
 228:	706d6973 	rsbvc	r6, sp, r3, ror r9
 22c:	632e656c 			; <UNDEFINED> instruction: 0x632e656c
 230:	41525400 	cmpmi	r2, r0, lsl #8
 234:	4f5f4543 	svcmi	0x005f4543
 238:	75004646 	strvc	r4, [r0, #-1606]	; 0xfffff9ba
 23c:	33746e69 	cmncc	r4, #1680	; 0x690
 240:	00745f32 	rsbseq	r5, r4, r2, lsr pc
 244:	68746977 	ldmdavs	r4!, {r0, r1, r2, r4, r5, r6, r8, fp, sp, lr}^
 248:	705f6e69 	subsvc	r6, pc, r9, ror #28
 24c:	746e6972 	strbtvc	r6, [lr], #-2418	; 0xfffff68e
 250:	706f5f6b 	rsbvc	r5, pc, fp, ror #30
 254:	74617265 	strbtvc	r7, [r1], #-613	; 0xfffffd9b
 258:	006e6f69 	rsbeq	r6, lr, r9, ror #30
 25c:	6573552f 	ldrbvs	r5, [r3, #-1327]!	; 0xfffffad1
 260:	612f7372 			; <UNDEFINED> instruction: 0x612f7372
 264:	61697264 	cmnvs	r9, r4, ror #4
 268:	72616d6e 	rsbvc	r6, r1, #7040	; 0x1b80
 26c:	656e6974 	strbvs	r6, [lr, #-2420]!	; 0xfffff68c
 270:	72702f7a 	rsbsvc	r2, r0, #488	; 0x1e8
 274:	63656a6f 	cmnvs	r5, #454656	; 0x6f000
 278:	632f7374 			; <UNDEFINED> instruction: 0x632f7374
 27c:	30343173 	eorscc	r3, r4, r3, ror r1
 280:	31322d65 	teqcc	r2, r5, ror #26
 284:	2f727073 	svccs	0x00727073
 288:	7362616c 	cmnvc	r2, #27
 28c:	632d322f 			; <UNDEFINED> instruction: 0x632d322f
 290:	73736f72 	cmnvc	r3, #456	; 0x1c8
 294:	6568632d 	strbvs	r6, [r8, #-813]!	; 0xfffffcd3
 298:	322f6b63 	eorcc	r6, pc, #101376	; 0x18c00
 29c:	6172742d 	cmnvs	r2, sp, lsr #8
 2a0:	54006563 	strpl	r6, [r0], #-1379	; 0xfffffa9d
 2a4:	45434152 	strbmi	r4, [r3, #-338]	; 0xfffffeae
 2a8:	494b535f 	stmdbmi	fp, {r0, r1, r2, r3, r4, r6, r8, r9, ip, lr}^
 2ac:	72610050 	rsbvc	r0, r1, #80, 0	; 0x50
 2b0:	76007367 	strvc	r7, [r0], -r7, ror #6
 2b4:	72705f61 	rsbsvc	r5, r0, #388	; 0x184
 2b8:	6b746e69 	blvs	1d1bc64 <__bss_end__+0x1d128c4>
 2bc:	675f5f00 	ldrbvs	r5, [pc, -r0, lsl #30]
 2c0:	5f63756e 	svcpl	0x0063756e
 2c4:	6c5f6176 	ldfvse	f6, [pc], {118}	; 0x76
 2c8:	00747369 	rsbseq	r7, r4, r9, ror #6
 2cc:	6362696c 	cmnvs	r2, #108, 18	; 0x1b0000
 2d0:	6972702f 	ldmdbvs	r2!, {r0, r1, r2, r3, r5, ip, sp, lr}^
 2d4:	2e6b746e 	cdpcs	4, 6, cr7, cr11, cr14, {3}
 2d8:	5f5f0063 	svcpl	0x005f0063
 2dc:	5f007061 	svcpl	0x00007061
 2e0:	5f61765f 	svcpl	0x0061765f
 2e4:	7473696c 	ldrbtvc	r6, [r3], #-2412	; 0xfffff694
 2e8:	73552f00 	cmpvc	r5, #0, 30
 2ec:	2f737265 	svccs	0x00737265
 2f0:	69726461 	ldmdbvs	r2!, {r0, r5, r6, sl, sp, lr}^
 2f4:	616d6e61 	cmnvs	sp, r1, ror #28
 2f8:	6e697472 	mcrvs	4, 3, r7, cr9, cr2, {3}
 2fc:	702f7a65 	eorvc	r7, pc, r5, ror #20
 300:	656a6f72 	strbvs	r6, [sl, #-3954]!	; 0xfffff08e
 304:	2f737463 	svccs	0x00737463
 308:	34317363 	ldrtcc	r7, [r1], #-867	; 0xfffffc9d
 30c:	322d6530 	eorcc	r6, sp, #48, 10	; 0xc000000
 310:	72707331 	rsbsvc	r7, r0, #-1006632960	; 0xc4000000
 314:	62696c2f 	rsbvs	r6, r9, #12032	; 0x2f00
 318:	69006970 	stmdbvs	r0, {r4, r5, r6, r8, fp, sp, lr}
 31c:	7265746e 	rsbvc	r7, r5, #1845493760	; 0x6e000000
 320:	5f6c616e 	svcpl	0x006c616e
 324:	6b747570 	blvs	1d1d8ec <__bss_end__+0x1d1454c>
 328:	62696c00 	rsbvs	r6, r9, #0, 24
 32c:	75702f63 	ldrbvc	r2, [r0, #-3939]!	; 0xfffff09d
 330:	632e6b74 			; <UNDEFINED> instruction: 0x632e6b74
 334:	64736900 	ldrbtvs	r6, [r3], #-2304	; 0xfffff700
 338:	74696769 	strbtvc	r6, [r9], #-1897	; 0xfffff897
 33c:	6e697500 	cdpvs	5, 6, cr7, cr9, cr0, {0}
 340:	5f343674 	svcpl	0x00343674
 344:	5f5f0074 	svcpl	0x005f0074
 348:	65646f63 	strbvs	r6, [r4, #-3939]!	; 0xfffff09d
 34c:	6174735f 	cmnvs	r4, pc, asr r3
 350:	5f5f7472 	svcpl	0x005f7472
 354:	625f5f00 	subsvs	r5, pc, #0, 30
 358:	735f7373 	cmpvc	pc, #-872415231	; 0xcc000001
 35c:	74726174 	ldrbtvc	r6, [r2], #-372	; 0xfffffe8c
 360:	77005f5f 	smlsdvc	r0, pc, pc, r5	; <UNPREDICTABLE>
 364:	68746469 	ldmdavs	r4!, {r0, r3, r5, r6, sl, sp, lr}^
 368:	645f5f00 	ldrbvs	r5, [pc], #-3840	; 370 <__code_start__-0x7c90>
 36c:	5f617461 	svcpl	0x00617461
 370:	5f646e65 	svcpl	0x00646e65
 374:	7570005f 	ldrbvc	r0, [r0, #-95]!	; 0xffffffa1
 378:	665f6374 			; <UNDEFINED> instruction: 0x665f6374
 37c:	5f5f0070 	svcpl	0x005f0070
 380:	5f737362 	svcpl	0x00737362
 384:	5f646e65 	svcpl	0x00646e65
 388:	5f5f005f 	svcpl	0x005f005f
 38c:	70616568 	rsbvc	r6, r1, r8, ror #10
 390:	6174735f 	cmnvs	r4, pc, asr r3
 394:	5f5f7472 	svcpl	0x005f7472
 398:	69707200 	ldmdbvs	r0!, {r9, ip, sp, lr}^
 39c:	7465735f 	strbtvc	r7, [r5], #-863	; 0xfffffca1
 3a0:	74756f5f 	ldrbtvc	r6, [r5], #-3935	; 0xfffff0a1
 3a4:	00747570 	rsbseq	r7, r4, r0, ror r5
 3a8:	5f746d66 	svcpl	0x00746d66
 3ac:	72617473 	rsbvc	r7, r1, #1929379840	; 0x73000000
 3b0:	696c0074 	stmdbvs	ip!, {r2, r4, r5, r6}^
 3b4:	762f6362 	strtvc	r6, [pc], -r2, ror #6
 3b8:	72702d61 	rsbsvc	r2, r0, #6208	; 0x1840
 3bc:	6b746e69 	blvs	1d1bd68 <__bss_end__+0x1d129c8>
 3c0:	7300632e 	movwvc	r6, #814	; 0x32e
 3c4:	61637274 	smcvs	14116	; 0x3724
 3c8:	656e0074 	strbvs	r0, [lr, #-116]!	; 0xffffff8c
 3cc:	00705f67 	rsbseq	r5, r0, r7, ror #30
 3d0:	6f635f5f 	svcvs	0x00635f5f
 3d4:	655f6564 	ldrbvs	r6, [pc, #-1380]	; fffffe78 <__bss_end__+0xffff6ad8>
 3d8:	5f5f646e 	svcpl	0x005f646e
 3dc:	696d6500 	stmdbvs	sp!, {r8, sl, sp, lr}^
 3e0:	75700074 	ldrbvc	r0, [r0, #-116]!	; 0xffffff8c
 3e4:	665f7374 			; <UNDEFINED> instruction: 0x665f7374
 3e8:	65720070 	ldrbvs	r0, [r2, #-112]!	; 0xffffff90
 3ec:	73726576 	cmnvc	r2, #494927872	; 0x1d800000
 3f0:	5f5f0065 	svcpl	0x005f0065
 3f4:	61746164 	cmnvs	r4, r4, ror #2
 3f8:	6174735f 	cmnvs	r4, pc, asr r3
 3fc:	5f5f7472 	svcpl	0x005f7472
 400:	705f5f00 	subsvc	r5, pc, r0, lsl #30
 404:	5f676f72 	svcpl	0x00676f72
 408:	5f646e65 	svcpl	0x00646e65
 40c:	756e005f 	strbvc	r0, [lr, #-95]!	; 0xffffffa1
 410:	7300316d 	movwvc	r3, #365	; 0x16d
 414:	636e7274 	cmnvs	lr, #116, 4	; 0x40000007
 418:	6200706d 	andvs	r7, r0, #109, 0	; 0x6d
 41c:	00657361 	rsbeq	r7, r5, r1, ror #6
 420:	6e676973 			; <UNDEFINED> instruction: 0x6e676973
 424:	705f6465 	subsvc	r6, pc, r5, ror #8
 428:	69707200 	ldmdbvs	r0!, {r9, ip, sp, lr}^
 42c:	6265725f 	rsbvs	r7, r5, #-268435451	; 0xf0000005
 430:	00746f6f 	rsbseq	r6, r4, pc, ror #30
 434:	616c6564 	cmnvs	ip, r4, ror #10
 438:	736d5f79 	cmnvc	sp, #484	; 0x1e4
 43c:	61747300 	cmnvs	r4, r0, lsl #6
 440:	732d6666 			; <UNDEFINED> instruction: 0x732d6666
 444:	632f6372 			; <UNDEFINED> instruction: 0x632f6372
 448:	6e61656c 	cdpvs	5, 6, cr6, cr1, cr12, {3}
 44c:	6265722d 	rsbvs	r7, r5, #-805306366	; 0xd0000002
 450:	2e746f6f 	cdpcs	15, 7, cr6, cr4, cr15, {3}
 454:	61750063 	cmnvs	r5, r3, rrx
 458:	665f7472 			; <UNDEFINED> instruction: 0x665f7472
 45c:	6873756c 	ldmdavs	r3!, {r2, r3, r5, r6, r8, sl, ip, sp, lr}^
 460:	0078745f 	rsbseq	r7, r8, pc, asr r4
 464:	7473635f 	ldrbtvc	r6, [r3], #-863	; 0xfffffca1
 468:	00747261 	rsbseq	r7, r4, r1, ror #4
 46c:	5f737362 	svcpl	0x00737362
 470:	00646e65 	rsbeq	r6, r4, r5, ror #28
 474:	74737563 	ldrbtvc	r7, [r3], #-1379	; 0xfffffa9d
 478:	6c5f6d6f 	mrrcvs	13, 6, r6, pc, cr15	; <UNPREDICTABLE>
 47c:	6564616f 	strbvs	r6, [r4, #-367]!	; 0xfffffe91
 480:	74730072 	ldrbtvc	r0, [r3], #-114	; 0xffffff8e
 484:	2d666661 	stclcs	6, cr6, [r6, #-388]!	; 0xfffffe7c
 488:	2f637273 	svccs	0x00637273
 48c:	61747363 	cmnvs	r4, r3, ror #6
 490:	632e7472 			; <UNDEFINED> instruction: 0x632e7472
 494:	61747300 	cmnvs	r4, r0, lsl #6
 498:	732d6666 			; <UNDEFINED> instruction: 0x732d6666
 49c:	632f6372 			; <UNDEFINED> instruction: 0x632f6372
 4a0:	6f747375 	svcvs	0x00747375
 4a4:	6f6c2d6d 	svcvs	0x006c2d6d
 4a8:	72656461 	rsbvc	r6, r5, #1627389952	; 0x61000000
 4ac:	5000632e 	andpl	r6, r0, lr, lsr #6
 4b0:	44575f4d 	ldrbmi	r5, [r7], #-3917	; 0xfffff0b3
 4b4:	7300474f 	movwvc	r4, #1871	; 0x74f
 4b8:	755f7465 	ldrbvc	r7, [pc, #-1125]	; 5b <__code_start__-0x7fa5>
 4bc:	5f726573 	svcpl	0x00726573
 4c0:	6576656c 	ldrbvs	r6, [r6, #-1388]!	; 0xfffffa94
 4c4:	4d50006c 	ldclmi	0, cr0, [r0, #-432]	; 0xfffffe50
 4c8:	5341505f 	movtpl	r5, #4191	; 0x105f
 4cc:	524f5753 	subpl	r5, pc, #21757952	; 0x14c0000
 4d0:	74610044 	strbtvc	r0, [r1], #-68	; 0xffffffbc
 4d4:	6573755f 	ldrbvs	r7, [r3, #-1375]!	; 0xfffffaa1
 4d8:	656c5f72 	strbvs	r5, [ip, #-3954]!	; 0xfffff08e
 4dc:	006c6576 	rsbeq	r6, ip, r6, ror r5
 4e0:	66617473 			; <UNDEFINED> instruction: 0x66617473
 4e4:	72732d66 	rsbsvc	r2, r3, #6528	; 0x1980
 4e8:	65722f63 	ldrbvs	r2, [r2, #-3939]!	; 0xfffff09d
 4ec:	746f6f62 	strbtvc	r6, [pc], #-3938	; 4f4 <__code_start__-0x7b0c>
 4f0:	5000632e 	andpl	r6, r0, lr, lsr #6
 4f4:	53525f4d 	cmppl	r2, #308	; 0x134
 4f8:	63004354 	movwvs	r4, #852	; 0x354
 4fc:	00727370 	rsbseq	r7, r2, r0, ror r3
 500:	525f4d50 	subspl	r4, pc, #80, 26	; 0x1400
 504:	5f435453 	svcpl	0x00435453
 508:	46435257 			; <UNDEFINED> instruction: 0x46435257
 50c:	55465f47 	strbpl	r5, [r6, #-3911]	; 0xfffff0b9
 510:	525f4c4c 	subspl	r4, pc, #76, 24	; 0x4c00
 514:	54455345 	strbpl	r5, [r5], #-837	; 0xfffffcbb
 518:	6c656400 	cfstrdvs	mvd6, [r5], #-0
 51c:	635f7961 	cmpvs	pc, #1589248	; 0x184000
 520:	656c6379 	strbvs	r6, [ip, #-889]!	; 0xfffffc87
 524:	65640073 	strbvs	r0, [r4, #-115]!	; 0xffffff8d
 528:	61625f76 	smcvs	9718	; 0x25f6
 52c:	65697272 	strbvs	r7, [r9, #-626]!	; 0xfffffd8e
 530:	69740072 	ldmdbvs	r4!, {r1, r4, r5, r6}^
 534:	00736b63 	rsbseq	r6, r3, r3, ror #22
 538:	616c6564 	cmnvs	ip, r4, ror #10
 53c:	65735f79 	ldrbvs	r5, [r3, #-3961]!	; 0xfffff087
 540:	69740063 	ldmdbvs	r4!, {r0, r1, r5, r6}^
 544:	5f72656d 	svcpl	0x0072656d
 548:	5f746567 	svcpl	0x00746567
 54c:	63657375 	cmnvs	r5, #-738197503	; 0xd4000001
 550:	6c656400 	cfstrdvs	mvd6, [r5], #-0
 554:	755f7961 	ldrbvc	r7, [pc, #-2401]	; fffffbfb <__bss_end__+0xffff685b>
 558:	69740073 	ldmdbvs	r4!, {r0, r1, r4, r5, r6}^
 55c:	5f72656d 	svcpl	0x0072656d
 560:	5f746567 	svcpl	0x00746567
 564:	63657375 	cmnvs	r5, #-738197503	; 0xd4000001
 568:	7761725f 			; <UNDEFINED> instruction: 0x7761725f
 56c:	61747300 	cmnvs	r4, r0, lsl #6
 570:	732d6666 			; <UNDEFINED> instruction: 0x732d6666
 574:	742f6372 	strtvc	r6, [pc], #-882	; 57c <__code_start__-0x7a84>
 578:	72656d69 	rsbvc	r6, r5, #6720	; 0x1a40
 57c:	7500632e 	strvc	r6, [r0, #-814]	; 0xfffffcd2
 580:	5f747261 	svcpl	0x00747261
 584:	63747570 	cmnvs	r4, #112, 10	; 0x1c000000
 588:	61747300 	cmnvs	r4, r0, lsl #6
 58c:	61750074 	cmnvs	r5, r4, ror r0
 590:	635f7472 	cmpvs	pc, #1912602624	; 0x72000000
 594:	675f6e61 	ldrbvs	r6, [pc, -r1, ror #28]
 598:	00637465 	rsbeq	r7, r3, r5, ror #8
 59c:	4f495047 	svcmi	0x00495047
 5a0:	4e55465f 	mrcmi	6, 2, r4, cr5, cr15, {2}
 5a4:	554f5f43 	strbpl	r5, [pc, #-3907]	; fffff669 <__bss_end__+0xffff62c9>
 5a8:	54555054 	ldrbpl	r5, [r5], #-84	; 0xffffffac
 5ac:	78756100 	ldmdavc	r5!, {r8, sp, lr}^
 5b0:	7265705f 	rsbvc	r7, r5, #95, 0	; 0x5f
 5b4:	73687069 	cmnvc	r8, #105, 0	; 0x69
 5b8:	72617500 	rsbvc	r7, r1, #0, 10
 5bc:	00632e74 	rsbeq	r2, r3, r4, ror lr
 5c0:	74726175 	ldrbtvc	r6, [r2], #-373	; 0xfffffe8b
 5c4:	6e61635f 	mcrvs	3, 3, r6, cr1, cr15, {2}
 5c8:	7475705f 	ldrbtvc	r7, [r5], #-95	; 0xffffffa1
 5cc:	682f0063 	stmdavs	pc!, {r0, r1, r5, r6}	; <UNPREDICTABLE>
 5d0:	2f656d6f 	svccs	0x00656d6f
 5d4:	6c676e65 	stclvs	14, cr6, [r7], #-404	; 0xfffffe6c
 5d8:	632f7265 			; <UNDEFINED> instruction: 0x632f7265
 5dc:	7373616c 	cmnvc	r3, #27
 5e0:	3173632f 	cmncc	r3, pc, lsr #6
 5e4:	2d653034 	stclcs	0, cr3, [r5, #-208]!	; 0xffffff30
 5e8:	70733132 	rsbsvc	r3, r3, r2, lsr r1
 5ec:	696c2f72 	stmdbvs	ip!, {r1, r4, r5, r6, r8, r9, sl, fp, sp}^
 5f0:	2f697062 	svccs	0x00697062
 5f4:	66617473 			; <UNDEFINED> instruction: 0x66617473
 5f8:	72702d66 	rsbsvc	r2, r0, #6528	; 0x1980
 5fc:	74617669 	strbtvc	r7, [r1], #-1641	; 0xfffff997
 600:	50470065 	subpl	r0, r7, r5, rrx
 604:	465f4f49 	ldrbmi	r4, [pc], -r9, asr #30
 608:	5f434e55 	svcpl	0x00434e55
 60c:	30544c41 	subscc	r4, r4, r1, asr #24
 610:	49504700 	ldmdbmi	r0, {r8, r9, sl, lr}^
 614:	55465f4f 	strbpl	r5, [r6, #-3919]	; 0xfffff0b1
 618:	415f434e 	cmpmi	pc, lr, asr #6
 61c:	0031544c 	eorseq	r5, r1, ip, asr #8
 620:	4f495047 	svcmi	0x00495047
 624:	4e55465f 	mrcmi	6, 2, r4, cr5, cr15, {2}
 628:	4c415f43 	mcrrmi	15, 4, r5, r1, cr3
 62c:	47003254 	smlsdmi	r0, r4, r2, r3
 630:	5f4f4950 	svcpl	0x004f4950
 634:	434e5546 	movtmi	r5, #58694	; 0xe546
 638:	544c415f 	strbpl	r4, [ip], #-351	; 0xfffffea1
 63c:	50470033 	subpl	r0, r7, r3, lsr r0
 640:	465f4f49 	ldrbmi	r4, [pc], -r9, asr #30
 644:	5f434e55 	svcpl	0x00434e55
 648:	35544c41 	ldrbcc	r4, [r4, #-3137]	; 0xfffff3bf
 64c:	75616200 	strbvc	r6, [r1, #-512]!	; 0xfffffe00
 650:	75610064 	strbvc	r0, [r1, #-100]!	; 0xffffff9c
 654:	6e655f78 	mcrvs	15, 3, r5, cr5, cr8, {3}
 658:	656c6261 	strbvs	r6, [ip, #-609]!	; 0xfffffd9f
 65c:	61750073 	cmnvs	r5, r3, ror r0
 660:	675f7472 			; <UNDEFINED> instruction: 0x675f7472
 664:	00637465 	rsbeq	r7, r3, r5, ror #8
 668:	74726175 	ldrbtvc	r6, [r2], #-373	; 0xfffffe8b
 66c:	5f78745f 	svcpl	0x0078745f
 670:	655f7369 	ldrbvs	r7, [pc, #-873]	; 30f <__code_start__-0x7cf1>
 674:	7974706d 	ldmdbvc	r4!, {r0, r2, r3, r5, r6, ip, sp, lr}^
 678:	75616200 	strbvc	r6, [r1, #-512]!	; 0xfffffe00
 67c:	61765f64 	cmnvs	r6, r4, ror #30
 680:	6e63006c 	cdpvs	0, 6, cr0, cr3, cr12, {3}
 684:	75006c74 	strvc	r6, [r0, #-3188]	; 0xfffff38c
 688:	5f747261 	svcpl	0x00747261
 68c:	5f736168 	svcpl	0x00736168
 690:	61746164 	cmnvs	r4, r4, ror #2
 694:	49504700 	ldmdbmi	r0, {r8, r9, sl, lr}^
 698:	55465f4f 	strbpl	r5, [r6, #-3919]	; 0xfffff0b1
 69c:	415f434e 	cmpmi	pc, lr, asr #6
 6a0:	0034544c 	eorseq	r5, r4, ip, asr #8
 6a4:	695f726f 	ldmdbvs	pc, {r0, r1, r2, r3, r5, r6, r9, ip, sp, lr}^	; <UNPREDICTABLE>
 6a8:	0032336e 	eorseq	r3, r2, lr, ror #6
 6ac:	61726373 	cmnvs	r2, r3, ror r3
 6b0:	00686374 	rsbeq	r6, r8, r4, ror r3
 6b4:	74726175 	ldrbtvc	r6, [r2], #-373	; 0xfffffe8b
 6b8:	49504700 	ldmdbmi	r0, {r8, r9, sl, lr}^
 6bc:	55465f4f 	strbpl	r5, [r6, #-3919]	; 0xfffff0b1
 6c0:	495f434e 	ldmdbmi	pc, {r1, r2, r3, r6, r8, r9, lr}^	; <UNPREDICTABLE>
 6c4:	5455504e 	ldrbpl	r5, [r5], #-78	; 0xffffffb2
 6c8:	69706700 	ldmdbvs	r0!, {r8, r9, sl, sp, lr}^
 6cc:	65735f6f 	ldrbvs	r5, [r3, #-3951]!	; 0xfffff091
 6d0:	75665f74 	strbvc	r5, [r6, #-3956]!	; 0xfffff08c
 6d4:	6974636e 	ldmdbvs	r4!, {r1, r2, r3, r5, r6, r8, r9, sp, lr}^
 6d8:	67006e6f 	strvs	r6, [r0, -pc, ror #28]
 6dc:	5f6f6970 	svcpl	0x006f6970
 6e0:	30726c63 	rsbscc	r6, r2, r3, ror #24
 6e4:	69687300 	stmdbvs	r8!, {r8, r9, ip, sp, lr}^
 6e8:	67007466 	strvs	r7, [r0, -r6, ror #8]
 6ec:	5f6f6970 	svcpl	0x006f6970
 6f0:	30746573 	rsbscc	r6, r4, r3, ror r5
 6f4:	72756300 	rsbsvc	r6, r5, #0, 6
 6f8:	746e6572 	strbtvc	r6, [lr], #-1394	; 0xfffffa8e
 6fc:	69706700 	ldmdbvs	r0!, {r8, r9, sl, sp, lr}^
 700:	65725f6f 	ldrbvs	r5, [r2, #-3951]!	; 0xfffff091
 704:	67006461 	strvs	r6, [r0, -r1, ror #8]
 708:	5f6f6970 	svcpl	0x006f6970
 70c:	5f746573 	svcpl	0x00746573
 710:	75706e69 	ldrbvc	r6, [r0, #-3689]!	; 0xfffff197
 714:	70670074 	rsbvc	r0, r7, r4, ror r0
 718:	735f6f69 	cmpvc	pc, #420	; 0x1a4
 71c:	6f5f7465 	svcvs	0x005f7465
 720:	67006666 	strvs	r6, [r0, -r6, ror #12]
 724:	5f6f6970 	svcpl	0x006f6970
 728:	5f746573 	svcpl	0x00746573
 72c:	7074756f 	rsbsvc	r7, r4, pc, ror #10
 730:	67007475 	smlsdxvs	r0, r5, r4, r7
 734:	5f6f6970 	svcpl	0x006f6970
 738:	636e7566 	cmnvs	lr, #427819008	; 0x19800000
 73c:	6100745f 	tstvs	r0, pc, asr r4
 740:	65726464 	ldrbvs	r6, [r2, #-1124]!	; 0xfffffb9c
 744:	67007373 	smlsdxvs	r0, r3, r3, r7
 748:	5f6f6970 	svcpl	0x006f6970
 74c:	3076656c 	rsbscc	r6, r6, ip, ror #10
 750:	69706700 	ldmdbvs	r0!, {r8, r9, sl, sp, lr}^
 754:	65735f6f 	ldrbvs	r5, [r3, #-3951]!	; 0xfffff091
 758:	7300306c 	movwvc	r3, #108	; 0x6c
 75c:	672f6372 			; <UNDEFINED> instruction: 0x672f6372
 760:	2e6f6970 			; <UNDEFINED> instruction: 0x2e6f6970
 764:	70670063 	rsbvc	r0, r7, r3, rrx
 768:	735f6f69 	cmpvc	pc, #420	; 0x1a4
 76c:	6f5f7465 	svcvs	0x005f7465
 770:	6e69006e 	cdpvs	0, 6, cr0, cr9, cr14, {3}
 774:	6e726574 	mrcvs	5, 3, r6, cr2, cr4, {3}
 778:	705f6c61 	subsvc	r6, pc, r1, ror #24
 77c:	68637475 	stmdavs	r3!, {r0, r2, r4, r5, r6, sl, ip, sp, lr}^
 780:	72007261 	andvc	r7, r0, #268435462	; 0x10000006
 784:	735f6970 	cmpvc	pc, #112, 18	; 0x1c0000
 788:	705f7465 	subsvc	r7, pc, r5, ror #8
 78c:	00637475 	rsbeq	r7, r3, r5, ror r4
 790:	6362696c 	cmnvs	r2, #108, 18	; 0x1b0000
 794:	7475702f 	ldrbtvc	r7, [r5], #-47	; 0xffffffd1
 798:	72616863 	rsbvc	r6, r1, #6488064	; 0x630000
 79c:	7200632e 	andvc	r6, r0, #-1207959552	; 0xb8000000
 7a0:	725f6970 	subsvc	r6, pc, #112, 18	; 0x1c0000
 7a4:	74657365 	strbtvc	r7, [r5], #-869	; 0xfffffc9b
 7a8:	7475705f 	ldrbtvc	r7, [r5], #-95	; 0xffffffa1
 7ac:	696c0063 	stmdbvs	ip!, {r0, r1, r5, r6}^
 7b0:	732f6362 			; <UNDEFINED> instruction: 0x732f6362
 7b4:	61637274 	smcvs	14116	; 0x3724
 7b8:	00632e74 	rsbeq	r2, r3, r4, ror lr
 7bc:	74736564 	ldrbtvc	r6, [r3], #-1380	; 0xfffffa9c
 7c0:	7a697300 	bvc	1a5d3c8 <__bss_end__+0x1a54028>
 7c4:	00745f65 	rsbseq	r5, r4, r5, ror #30
 7c8:	6362696c 	cmnvs	r2, #108, 18	; 0x1b0000
 7cc:	7274732f 	rsbsvc	r7, r4, #-1140850688	; 0xbc000000
 7d0:	706d636e 	rsbvc	r6, sp, lr, ror #6
 7d4:	Address 0x00000000000007d4 is out of bounds.


Disassembly of section .debug_frame:

00000000 <.debug_frame>:
   0:	0000000c 	andeq	r0, r0, ip
   4:	ffffffff 			; <UNDEFINED> instruction: 0xffffffff
   8:	7c020001 	stcvc	0, cr0, [r2], {1}
   c:	000d0c0e 	andeq	r0, sp, lr, lsl #24
  10:	00000014 	andeq	r0, r0, r4, lsl r0
  14:	00000000 	andeq	r0, r0, r0
  18:	00008034 	andeq	r8, r0, r4, lsr r0
  1c:	0000004c 	andeq	r0, r0, ip, asr #32
  20:	84080e42 	strhi	r0, [r8], #-3650	; 0xfffff1be
  24:	00018e02 	andeq	r8, r1, r2, lsl #28
  28:	0000000c 	andeq	r0, r0, ip
  2c:	ffffffff 			; <UNDEFINED> instruction: 0xffffffff
  30:	7c020001 	stcvc	0, cr0, [r2], {1}
  34:	000d0c0e 	andeq	r0, sp, lr, lsl #24
  38:	00000014 	andeq	r0, r0, r4, lsl r0
  3c:	00000028 	andeq	r0, r0, r8, lsr #32
  40:	00008080 	andeq	r8, r0, r0, lsl #1
  44:	0000001c 	andeq	r0, r0, ip, lsl r0
  48:	84080e42 	strhi	r0, [r8], #-3650	; 0xfffff1be
  4c:	00018e02 	andeq	r8, r1, r2, lsl #28
  50:	00000014 	andeq	r0, r0, r4, lsl r0
  54:	00000028 	andeq	r0, r0, r8, lsr #32
  58:	0000809c 	muleq	r0, ip, r0
  5c:	0000001c 	andeq	r0, r0, ip, lsl r0
  60:	84080e42 	strhi	r0, [r8], #-3650	; 0xfffff1be
  64:	00018e02 	andeq	r8, r1, r2, lsl #28
  68:	00000014 	andeq	r0, r0, r4, lsl r0
  6c:	00000028 	andeq	r0, r0, r8, lsr #32
  70:	000080b8 	strheq	r8, [r0], -r8	; <UNPREDICTABLE>
  74:	0000005c 	andeq	r0, r0, ip, asr r0
  78:	8e040e52 	mcrhi	14, 0, r0, cr4, cr2, {2}
  7c:	100e4201 	andne	r4, lr, r1, lsl #4
  80:	00000014 	andeq	r0, r0, r4, lsl r0
  84:	00000028 	andeq	r0, r0, r8, lsr #32
  88:	00008114 	andeq	r8, r0, r4, lsl r1
  8c:	0000005c 	andeq	r0, r0, ip, asr r0
  90:	8e040e52 	mcrhi	14, 0, r0, cr4, cr2, {2}
  94:	100e4201 	andne	r4, lr, r1, lsl #4
  98:	00000018 	andeq	r0, r0, r8, lsl r0
  9c:	00000028 	andeq	r0, r0, r8, lsr #32
  a0:	00008170 	andeq	r8, r0, r0, ror r1
  a4:	00000060 	andeq	r0, r0, r0, rrx
  a8:	84100e42 	ldrhi	r0, [r0], #-3650	; 0xfffff1be
  ac:	86038504 	strhi	r8, [r3], -r4, lsl #10
  b0:	00018e02 	andeq	r8, r1, r2, lsl #28
  b4:	00000018 	andeq	r0, r0, r8, lsl r0
  b8:	00000028 	andeq	r0, r0, r8, lsr #32
  bc:	000081d0 	ldrdeq	r8, [r0], -r0
  c0:	00000064 	andeq	r0, r0, r4, rrx
  c4:	84100e42 	ldrhi	r0, [r0], #-3650	; 0xfffff1be
  c8:	86038504 	strhi	r8, [r3], -r4, lsl #10
  cc:	00018e02 	andeq	r8, r1, r2, lsl #28
  d0:	0000000c 	andeq	r0, r0, ip
  d4:	ffffffff 			; <UNDEFINED> instruction: 0xffffffff
  d8:	7c020001 	stcvc	0, cr0, [r2], {1}
  dc:	000d0c0e 	andeq	r0, sp, lr, lsl #24
  e0:	00000034 	andeq	r0, r0, r4, lsr r0
  e4:	000000d0 	ldrdeq	r0, [r0], -r0	; <UNPREDICTABLE>
  e8:	00008234 	andeq	r8, r0, r4, lsr r2
  ec:	00000058 	andeq	r0, r0, r8, asr r0
  f0:	80100e42 	andshi	r0, r0, r2, asr #28
  f4:	82038104 	andhi	r8, r3, #1
  f8:	42018302 	andmi	r8, r1, #134217728	; 0x8000000
  fc:	07841c0e 	streq	r1, [r4, lr, lsl #24]
 100:	058e0685 	streq	r0, [lr, #1669]	; 0x685
 104:	5c280e42 	stcpl	14, cr0, [r8], #-264	; 0xfffffef8
 108:	ce421c0e 	cdpgt	12, 4, cr1, cr2, cr14, {0}
 10c:	100ec4c5 	andne	ip, lr, r5, asr #9
 110:	c1c2c342 	bicgt	ip, r2, r2, asr #6
 114:	00000ec0 	andeq	r0, r0, r0, asr #29
 118:	0000000c 	andeq	r0, r0, ip
 11c:	ffffffff 			; <UNDEFINED> instruction: 0xffffffff
 120:	7c020001 	stcvc	0, cr0, [r2], {1}
 124:	000d0c0e 	andeq	r0, sp, lr, lsl #24
 128:	00000014 	andeq	r0, r0, r4, lsl r0
 12c:	00000118 	andeq	r0, r0, r8, lsl r1
 130:	0000828c 	andeq	r8, r0, ip, lsl #5
 134:	00000034 	andeq	r0, r0, r4, lsr r0
 138:	84080e42 	strhi	r0, [r8], #-3650	; 0xfffff1be
 13c:	00018e02 	andeq	r8, r1, r2, lsl #28
 140:	0000000c 	andeq	r0, r0, ip
 144:	ffffffff 			; <UNDEFINED> instruction: 0xffffffff
 148:	7c020001 	stcvc	0, cr0, [r2], {1}
 14c:	000d0c0e 	andeq	r0, sp, lr, lsl #24
 150:	0000000c 	andeq	r0, r0, ip
 154:	00000140 	andeq	r0, r0, r0, asr #2
 158:	000082c0 	andeq	r8, r0, r0, asr #5
 15c:	00000014 	andeq	r0, r0, r4, lsl r0
 160:	0000000c 	andeq	r0, r0, ip
 164:	00000140 	andeq	r0, r0, r0, asr #2
 168:	000082d4 	ldrdeq	r8, [r0], -r4
 16c:	00000024 	andeq	r0, r0, r4, lsr #32
 170:	0000000c 	andeq	r0, r0, ip
 174:	00000140 	andeq	r0, r0, r0, asr #2
 178:	000082f8 	strdeq	r8, [r0], -r8	; <UNPREDICTABLE>
 17c:	00000038 	andeq	r0, r0, r8, lsr r0
 180:	00000024 	andeq	r0, r0, r4, lsr #32
 184:	00000140 	andeq	r0, r0, r0, asr #2
 188:	00008330 	andeq	r8, r0, r0, lsr r3
 18c:	000001b4 			; <UNDEFINED> instruction: 0x000001b4
 190:	84140e42 	ldrhi	r0, [r4], #-3650	; 0xfffff1be
 194:	86048505 	strhi	r8, [r4], -r5, lsl #10
 198:	8e028703 	cdphi	7, 0, cr8, cr2, cr3, {0}
 19c:	600e4201 	andvs	r4, lr, r1, lsl #4
 1a0:	0e0a9a02 	vmlaeq.f32	s18, s20, s4
 1a4:	000b4214 	andeq	r4, fp, r4, lsl r2
 1a8:	00000014 	andeq	r0, r0, r4, lsl r0
 1ac:	00000140 	andeq	r0, r0, r0, asr #2
 1b0:	000084e4 	andeq	r8, r0, r4, ror #9
 1b4:	00000064 	andeq	r0, r0, r4, rrx
 1b8:	8e040e54 	mcrhi	14, 0, r0, cr4, cr4, {2}
 1bc:	100e4201 	andne	r4, lr, r1, lsl #4
 1c0:	0000002c 	andeq	r0, r0, ip, lsr #32
 1c4:	00000140 	andeq	r0, r0, r0, asr #2
 1c8:	00008548 	andeq	r8, r0, r8, asr #10
 1cc:	000003a4 	andeq	r0, r0, r4, lsr #7
 1d0:	84240e42 	strthi	r0, [r4], #-3650	; 0xfffff1be
 1d4:	86088509 	strhi	r8, [r8], -r9, lsl #10
 1d8:	88068707 	stmdahi	r6, {r0, r1, r2, r8, r9, sl, pc}
 1dc:	8a048905 	bhi	1225f8 <__bss_end__+0x119258>
 1e0:	8e028b03 	vmlahi.f64	d8, d2, d3
 1e4:	b80e4201 	stmdalt	lr, {r0, r9, lr}
 1e8:	01b80302 			; <UNDEFINED> instruction: 0x01b80302
 1ec:	0000240e 	andeq	r2, r0, lr, lsl #8
 1f0:	0000000c 	andeq	r0, r0, ip
 1f4:	ffffffff 			; <UNDEFINED> instruction: 0xffffffff
 1f8:	7c020001 	stcvc	0, cr0, [r2], {1}
 1fc:	000d0c0e 	andeq	r0, sp, lr, lsl #24
 200:	00000014 	andeq	r0, r0, r4, lsl r0
 204:	000001f0 	strdeq	r0, [r0], -r0	; <UNPREDICTABLE>
 208:	000088ec 	andeq	r8, r0, ip, ror #17
 20c:	0000002c 	andeq	r0, r0, ip, lsr #32
 210:	84080e42 	strhi	r0, [r8], #-3650	; 0xfffff1be
 214:	00018e02 	andeq	r8, r1, r2, lsl #28
 218:	0000000c 	andeq	r0, r0, ip
 21c:	ffffffff 			; <UNDEFINED> instruction: 0xffffffff
 220:	7c020001 	stcvc	0, cr0, [r2], {1}
 224:	000d0c0e 	andeq	r0, sp, lr, lsl #24
 228:	00000014 	andeq	r0, r0, r4, lsl r0
 22c:	00000218 	andeq	r0, r0, r8, lsl r2
 230:	00008918 	andeq	r8, r0, r8, lsl r9
 234:	00000030 	andeq	r0, r0, r0, lsr r0
 238:	84080e42 	strhi	r0, [r8], #-3650	; 0xfffff1be
 23c:	00018e02 	andeq	r8, r1, r2, lsl #28
 240:	0000000c 	andeq	r0, r0, ip
 244:	ffffffff 			; <UNDEFINED> instruction: 0xffffffff
 248:	7c020001 	stcvc	0, cr0, [r2], {1}
 24c:	000d0c0e 	andeq	r0, sp, lr, lsl #24
 250:	0000000c 	andeq	r0, r0, ip
 254:	00000240 	andeq	r0, r0, r0, asr #4
 258:	00008948 	andeq	r8, r0, r8, asr #18
 25c:	00000004 	andeq	r0, r0, r4
 260:	0000000c 	andeq	r0, r0, ip
 264:	ffffffff 			; <UNDEFINED> instruction: 0xffffffff
 268:	7c020001 	stcvc	0, cr0, [r2], {1}
 26c:	000d0c0e 	andeq	r0, sp, lr, lsl #24
 270:	0000000c 	andeq	r0, r0, ip
 274:	00000260 	andeq	r0, r0, r0, ror #4
 278:	0000894c 	andeq	r8, r0, ip, asr #18
 27c:	00000018 	andeq	r0, r0, r8, lsl r0
 280:	0000000c 	andeq	r0, r0, ip
 284:	00000260 	andeq	r0, r0, r0, ror #4
 288:	00008964 	andeq	r8, r0, r4, ror #18
 28c:	00000014 	andeq	r0, r0, r4, lsl r0
 290:	00000014 	andeq	r0, r0, r4, lsl r0
 294:	00000260 	andeq	r0, r0, r0, ror #4
 298:	00008978 	andeq	r8, r0, r8, ror r9
 29c:	00000050 	andeq	r0, r0, r0, asr r0
 2a0:	84080e42 	strhi	r0, [r8], #-3650	; 0xfffff1be
 2a4:	00018e02 	andeq	r8, r1, r2, lsl #28
 2a8:	0000000c 	andeq	r0, r0, ip
 2ac:	ffffffff 			; <UNDEFINED> instruction: 0xffffffff
 2b0:	7c020001 	stcvc	0, cr0, [r2], {1}
 2b4:	000d0c0e 	andeq	r0, sp, lr, lsl #24
 2b8:	0000000c 	andeq	r0, r0, ip
 2bc:	000002a8 	andeq	r0, r0, r8, lsr #5
 2c0:	000089c8 	andeq	r8, r0, r8, asr #19
 2c4:	00000018 	andeq	r0, r0, r8, lsl r0
 2c8:	00000014 	andeq	r0, r0, r4, lsl r0
 2cc:	000002a8 	andeq	r0, r0, r8, lsr #5
 2d0:	000089e0 	andeq	r8, r0, r0, ror #19
 2d4:	00000014 	andeq	r0, r0, r4, lsl r0
 2d8:	84080e42 	strhi	r0, [r8], #-3650	; 0xfffff1be
 2dc:	00018e02 	andeq	r8, r1, r2, lsl #28
 2e0:	00000014 	andeq	r0, r0, r4, lsl r0
 2e4:	000002a8 	andeq	r0, r0, r8, lsr #5
 2e8:	000089f4 	strdeq	r8, [r0], -r4
 2ec:	0000001c 	andeq	r0, r0, ip, lsl r0
 2f0:	84080e42 	strhi	r0, [r8], #-3650	; 0xfffff1be
 2f4:	00018e02 	andeq	r8, r1, r2, lsl #28
 2f8:	00000018 	andeq	r0, r0, r8, lsl r0
 2fc:	000002a8 	andeq	r0, r0, r8, lsr #5
 300:	00008a10 	andeq	r8, r0, r0, lsl sl
 304:	00000024 	andeq	r0, r0, r4, lsr #32
 308:	84100e42 	ldrhi	r0, [r0], #-3650	; 0xfffff1be
 30c:	86038504 	strhi	r8, [r3], -r4, lsl #10
 310:	00018e02 	andeq	r8, r1, r2, lsl #28
 314:	00000014 	andeq	r0, r0, r4, lsl r0
 318:	000002a8 	andeq	r0, r0, r8, lsr #5
 31c:	00008a34 	andeq	r8, r0, r4, lsr sl
 320:	00000018 	andeq	r0, r0, r8, lsl r0
 324:	84080e42 	strhi	r0, [r8], #-3650	; 0xfffff1be
 328:	00018e02 	andeq	r8, r1, r2, lsl #28
 32c:	00000014 	andeq	r0, r0, r4, lsl r0
 330:	000002a8 	andeq	r0, r0, r8, lsr #5
 334:	00008a4c 	andeq	r8, r0, ip, asr #20
 338:	00000018 	andeq	r0, r0, r8, lsl r0
 33c:	84080e42 	strhi	r0, [r8], #-3650	; 0xfffff1be
 340:	00018e02 	andeq	r8, r1, r2, lsl #28
 344:	0000000c 	andeq	r0, r0, ip
 348:	ffffffff 			; <UNDEFINED> instruction: 0xffffffff
 34c:	7c020001 	stcvc	0, cr0, [r2], {1}
 350:	000d0c0e 	andeq	r0, sp, lr, lsl #24
 354:	00000018 	andeq	r0, r0, r8, lsl r0
 358:	00000344 	andeq	r0, r0, r4, asr #6
 35c:	00008a7c 	andeq	r8, r0, ip, ror sl
 360:	00000020 	andeq	r0, r0, r0, lsr #32
 364:	84100e42 	ldrhi	r0, [r0], #-3650	; 0xfffff1be
 368:	86038504 	strhi	r8, [r3], -r4, lsl #10
 36c:	00018e02 	andeq	r8, r1, r2, lsl #28
 370:	00000014 	andeq	r0, r0, r4, lsl r0
 374:	00000344 	andeq	r0, r0, r4, asr #6
 378:	00008a9c 	muleq	r0, ip, sl
 37c:	000000b0 	strheq	r0, [r0], -r0	; <UNPREDICTABLE>
 380:	84080e42 	strhi	r0, [r8], #-3650	; 0xfffff1be
 384:	00018e02 	andeq	r8, r1, r2, lsl #28
 388:	00000014 	andeq	r0, r0, r4, lsl r0
 38c:	00000344 	andeq	r0, r0, r4, asr #6
 390:	00008b4c 	andeq	r8, r0, ip, asr #22
 394:	00000018 	andeq	r0, r0, r8, lsl r0
 398:	84080e42 	strhi	r0, [r8], #-3650	; 0xfffff1be
 39c:	00018e02 	andeq	r8, r1, r2, lsl #28
 3a0:	00000014 	andeq	r0, r0, r4, lsl r0
 3a4:	00000344 	andeq	r0, r0, r4, asr #6
 3a8:	00008b64 	andeq	r8, r0, r4, ror #22
 3ac:	00000020 	andeq	r0, r0, r0, lsr #32
 3b0:	84080e42 	strhi	r0, [r8], #-3650	; 0xfffff1be
 3b4:	00018e02 	andeq	r8, r1, r2, lsl #28
 3b8:	00000014 	andeq	r0, r0, r4, lsl r0
 3bc:	00000344 	andeq	r0, r0, r4, asr #6
 3c0:	00008b84 	andeq	r8, r0, r4, lsl #23
 3c4:	00000030 	andeq	r0, r0, r0, lsr r0
 3c8:	84080e42 	strhi	r0, [r8], #-3650	; 0xfffff1be
 3cc:	00018e02 	andeq	r8, r1, r2, lsl #28
 3d0:	00000014 	andeq	r0, r0, r4, lsl r0
 3d4:	00000344 	andeq	r0, r0, r4, asr #6
 3d8:	00008bb4 			; <UNDEFINED> instruction: 0x00008bb4
 3dc:	00000030 	andeq	r0, r0, r0, lsr r0
 3e0:	84080e42 	strhi	r0, [r8], #-3650	; 0xfffff1be
 3e4:	00018e02 	andeq	r8, r1, r2, lsl #28
 3e8:	00000014 	andeq	r0, r0, r4, lsl r0
 3ec:	00000344 	andeq	r0, r0, r4, asr #6
 3f0:	00008be4 	andeq	r8, r0, r4, ror #23
 3f4:	00000010 	andeq	r0, r0, r0, lsl r0
 3f8:	84080e42 	strhi	r0, [r8], #-3650	; 0xfffff1be
 3fc:	00018e02 	andeq	r8, r1, r2, lsl #28
 400:	00000014 	andeq	r0, r0, r4, lsl r0
 404:	00000344 	andeq	r0, r0, r4, asr #6
 408:	00008bf4 	strdeq	r8, [r0], -r4
 40c:	00000020 	andeq	r0, r0, r0, lsr #32
 410:	84080e42 	strhi	r0, [r8], #-3650	; 0xfffff1be
 414:	00018e02 	andeq	r8, r1, r2, lsl #28
 418:	00000014 	andeq	r0, r0, r4, lsl r0
 41c:	00000344 	andeq	r0, r0, r4, asr #6
 420:	00008c14 	andeq	r8, r0, r4, lsl ip
 424:	00000014 	andeq	r0, r0, r4, lsl r0
 428:	84080e42 	strhi	r0, [r8], #-3650	; 0xfffff1be
 42c:	00018e02 	andeq	r8, r1, r2, lsl #28
 430:	0000000c 	andeq	r0, r0, ip
 434:	ffffffff 			; <UNDEFINED> instruction: 0xffffffff
 438:	7c020001 	stcvc	0, cr0, [r2], {1}
 43c:	000d0c0e 	andeq	r0, sp, lr, lsl #24
 440:	0000001c 	andeq	r0, r0, ip, lsl r0
 444:	00000430 	andeq	r0, r0, r0, lsr r4
 448:	00008c28 	andeq	r8, r0, r8, lsr #24
 44c:	00000054 	andeq	r0, r0, r4, asr r0
 450:	84180e42 	ldrhi	r0, [r8], #-3650	; 0xfffff1be
 454:	86058506 	strhi	r8, [r5], -r6, lsl #10
 458:	88038704 	stmdahi	r3, {r2, r8, r9, sl, pc}
 45c:	00018e02 	andeq	r8, r1, r2, lsl #28
 460:	00000014 	andeq	r0, r0, r4, lsl r0
 464:	00000430 	andeq	r0, r0, r0, lsr r4
 468:	00008c7c 	andeq	r8, r0, ip, ror ip
 46c:	00000010 	andeq	r0, r0, r0, lsl r0
 470:	84080e42 	strhi	r0, [r8], #-3650	; 0xfffff1be
 474:	00018e02 	andeq	r8, r1, r2, lsl #28
 478:	00000014 	andeq	r0, r0, r4, lsl r0
 47c:	00000430 	andeq	r0, r0, r0, lsr r4
 480:	00008c8c 	andeq	r8, r0, ip, lsl #25
 484:	0000001c 	andeq	r0, r0, ip, lsl r0
 488:	84080e42 	strhi	r0, [r8], #-3650	; 0xfffff1be
 48c:	00018e02 	andeq	r8, r1, r2, lsl #28
 490:	00000014 	andeq	r0, r0, r4, lsl r0
 494:	00000430 	andeq	r0, r0, r0, lsr r4
 498:	00008ca8 	andeq	r8, r0, r8, lsr #25
 49c:	0000001c 	andeq	r0, r0, ip, lsl r0
 4a0:	84080e42 	strhi	r0, [r8], #-3650	; 0xfffff1be
 4a4:	00018e02 	andeq	r8, r1, r2, lsl #28
 4a8:	00000014 	andeq	r0, r0, r4, lsl r0
 4ac:	00000430 	andeq	r0, r0, r0, lsr r4
 4b0:	00008cc4 	andeq	r8, r0, r4, asr #25
 4b4:	0000001c 	andeq	r0, r0, ip, lsl r0
 4b8:	84080e42 	strhi	r0, [r8], #-3650	; 0xfffff1be
 4bc:	00018e02 	andeq	r8, r1, r2, lsl #28
 4c0:	00000014 	andeq	r0, r0, r4, lsl r0
 4c4:	00000430 	andeq	r0, r0, r0, lsr r4
 4c8:	00008ce0 	andeq	r8, r0, r0, ror #25
 4cc:	00000010 	andeq	r0, r0, r0, lsl r0
 4d0:	84080e42 	strhi	r0, [r8], #-3650	; 0xfffff1be
 4d4:	00018e02 	andeq	r8, r1, r2, lsl #28
 4d8:	00000014 	andeq	r0, r0, r4, lsl r0
 4dc:	00000430 	andeq	r0, r0, r0, lsr r4
 4e0:	00008cf0 	strdeq	r8, [r0], -r0
 4e4:	00000020 	andeq	r0, r0, r0, lsr #32
 4e8:	84080e42 	strhi	r0, [r8], #-3650	; 0xfffff1be
 4ec:	00018e02 	andeq	r8, r1, r2, lsl #28
 4f0:	0000000c 	andeq	r0, r0, ip
 4f4:	ffffffff 			; <UNDEFINED> instruction: 0xffffffff
 4f8:	7c020001 	stcvc	0, cr0, [r2], {1}
 4fc:	000d0c0e 	andeq	r0, sp, lr, lsl #24
 500:	00000014 	andeq	r0, r0, r4, lsl r0
 504:	000004f0 	strdeq	r0, [r0], -r0	; <UNPREDICTABLE>
 508:	00008d10 	andeq	r8, r0, r0, lsl sp
 50c:	00000014 	andeq	r0, r0, r4, lsl r0
 510:	84080e42 	strhi	r0, [r8], #-3650	; 0xfffff1be
 514:	00018e02 	andeq	r8, r1, r2, lsl #28
 518:	0000000c 	andeq	r0, r0, ip
 51c:	000004f0 	strdeq	r0, [r0], -r0	; <UNPREDICTABLE>
 520:	00008d24 	andeq	r8, r0, r4, lsr #26
 524:	00000018 	andeq	r0, r0, r8, lsl r0
 528:	0000000c 	andeq	r0, r0, ip
 52c:	000004f0 	strdeq	r0, [r0], -r0	; <UNPREDICTABLE>
 530:	00008d3c 	andeq	r8, r0, ip, lsr sp
 534:	00000010 	andeq	r0, r0, r0, lsl r0
 538:	0000000c 	andeq	r0, r0, ip
 53c:	ffffffff 			; <UNDEFINED> instruction: 0xffffffff
 540:	7c020001 	stcvc	0, cr0, [r2], {1}
 544:	000d0c0e 	andeq	r0, sp, lr, lsl #24
 548:	0000000c 	andeq	r0, r0, ip
 54c:	00000538 	andeq	r0, r0, r8, lsr r5
 550:	00008d4c 	andeq	r8, r0, ip, asr #26
 554:	00000034 	andeq	r0, r0, r4, lsr r0
 558:	0000000c 	andeq	r0, r0, ip
 55c:	ffffffff 			; <UNDEFINED> instruction: 0xffffffff
 560:	7c020001 	stcvc	0, cr0, [r2], {1}
 564:	000d0c0e 	andeq	r0, sp, lr, lsl #24
 568:	0000000c 	andeq	r0, r0, ip
 56c:	00000558 	andeq	r0, r0, r8, asr r5
 570:	00008d80 	andeq	r8, r0, r0, lsl #27
 574:	0000002c 	andeq	r0, r0, ip, lsr #32

Disassembly of section .debug_loc:

00000000 <.debug_loc>:
   0:	00000000 	andeq	r0, r0, r0
   4:	00000150 	andeq	r0, r0, r0, asr r1
   8:	0000015b 	andeq	r0, r0, fp, asr r1
   c:	5b500001 	blpl	1400018 <__bss_end__+0x13f6c78>
  10:	b4000001 	strlt	r0, [r0], #-1
  14:	01000001 	tsteq	r0, r1
  18:	00005500 	andeq	r5, r0, r0, lsl #10
	...
  28:	01600000 	cmneq	r0, r0
  2c:	01700000 	cmneq	r0, r0
  30:	00010000 	andeq	r0, r1, r0
  34:	00017050 	andeq	r7, r1, r0, asr r0
  38:	00017800 	andeq	r7, r1, r0, lsl #16
  3c:	54000100 	strpl	r0, [r0], #-256	; 0xffffff00
  40:	00000178 	andeq	r0, r0, r8, ror r1
  44:	0000019c 	muleq	r0, ip, r1
  48:	9c500001 	mrrcls	0, 0, r0, r0, cr1	; <UNPREDICTABLE>
  4c:	b4000001 	strlt	r0, [r0], #-1
  50:	01000001 	tsteq	r0, r1
  54:	00005400 	andeq	r5, r0, r0, lsl #8
	...
  64:	00f00000 	rscseq	r0, r0, r0
  68:	010c0000 	mrseq	r0, (UNDEF: 12)
  6c:	00010000 	andeq	r0, r1, r0
  70:	00010c50 	andeq	r0, r1, r0, asr ip
  74:	00011c00 	andeq	r1, r1, r0, lsl #24
  78:	54000100 	strpl	r0, [r0], #-256	; 0xffffff00
  7c:	0000011c 	andeq	r0, r0, ip, lsl r1
  80:	0000013b 	andeq	r0, r0, fp, lsr r1
  84:	3b500001 	blcc	1400090 <__bss_end__+0x13f6cf0>
  88:	50000001 	andpl	r0, r0, r1
  8c:	01000001 	tsteq	r0, r1
  90:	00005400 	andeq	r5, r0, r0, lsl #8
	...
  a0:	00f00000 	rscseq	r0, r0, r0
  a4:	010c0000 	mrseq	r0, (UNDEF: 12)
  a8:	00010000 	andeq	r0, r1, r0
  ac:	00010c51 	andeq	r0, r1, r1, asr ip
  b0:	00011c00 	andeq	r1, r1, r0, lsl #24
  b4:	55000100 	strpl	r0, [r0, #-256]	; 0xffffff00
  b8:	0000011c 	andeq	r0, r0, ip, lsl r1
  bc:	0000013b 	andeq	r0, r0, fp, lsr r1
  c0:	3b510001 	blcc	14400cc <__bss_end__+0x1436d2c>
  c4:	50000001 	andpl	r0, r0, r1
  c8:	01000001 	tsteq	r0, r1
  cc:	00005500 	andeq	r5, r0, r0, lsl #10
	...
  dc:	0000001c 	andeq	r0, r0, ip, lsl r0
  e0:	0000002c 	andeq	r0, r0, ip, lsr #32
  e4:	2c500001 	mrrccs	0, 0, r0, r0, cr1	; <UNPREDICTABLE>
  e8:	2f000000 	svccs	0x00000000
  ec:	01000000 	mrseq	r0, (UNDEF: 0)
  f0:	002f5100 	eoreq	r5, pc, r0, lsl #2
  f4:	00380000 	eorseq	r0, r8, r0
  f8:	00040000 	andeq	r0, r4, r0
  fc:	9f5001f3 	svcls	0x005001f3
	...
 10c:	001c0000 	andseq	r0, ip, r0
 110:	00280000 	eoreq	r0, r8, r0
 114:	00010000 	andeq	r0, r1, r0
 118:	00002851 	andeq	r2, r0, r1, asr r8
 11c:	00002f00 	andeq	r2, r0, r0, lsl #30
 120:	52000100 	andpl	r0, r0, #0
 124:	0000002f 	andeq	r0, r0, pc, lsr #32
 128:	00000038 	andeq	r0, r0, r8, lsr r0
 12c:	01f30004 	mvnseq	r0, r4
 130:	00009f51 	andeq	r9, r0, r1, asr pc
	...
 144:	00000010 	andeq	r0, r0, r0, lsl r0
 148:	10500001 	subsne	r0, r0, r1
 14c:	13000000 	movwne	r0, #0
 150:	01000000 	mrseq	r0, (UNDEF: 0)
 154:	00135100 	andseq	r5, r3, r0, lsl #2
 158:	001c0000 	andseq	r0, ip, r0
 15c:	00040000 	andeq	r0, r4, r0
 160:	9f5001f3 	svcls	0x005001f3
	...
 174:	000c0000 	andeq	r0, ip, r0
 178:	00010000 	andeq	r0, r1, r0
 17c:	00000c51 	andeq	r0, r0, r1, asr ip
 180:	00001300 	andeq	r1, r0, r0, lsl #6
 184:	52000100 	andpl	r0, r0, #0
 188:	00000013 	andeq	r0, r0, r3, lsl r0
 18c:	0000001c 	andeq	r0, r0, ip, lsl r0
 190:	01f30004 	mvnseq	r0, r4
 194:	00009f51 	andeq	r9, r0, r1, asr pc
	...
 1a0:	00380000 	eorseq	r0, r8, r0
 1a4:	00780000 	rsbseq	r0, r8, r0
 1a8:	00010000 	andeq	r0, r1, r0
 1ac:	00007850 	andeq	r7, r0, r0, asr r8
 1b0:	00009400 	andeq	r9, r0, r0, lsl #8
 1b4:	f3000400 	vshl.u8	d0, d0, d0
 1b8:	009f5001 	addseq	r5, pc, r1
	...
 1c8:	00002c00 	andeq	r2, r0, r0, lsl #24
 1cc:	00003800 	andeq	r3, r0, r0, lsl #16
 1d0:	50000100 	andpl	r0, r0, r0, lsl #2
 1d4:	00000038 	andeq	r0, r0, r8, lsr r0
 1d8:	00000048 	andeq	r0, r0, r8, asr #32
 1dc:	48540001 	ldmdami	r4, {r0}^
 1e0:	58000000 	stmdapl	r0, {}	; <UNPREDICTABLE>
 1e4:	01000000 	mrseq	r0, (UNDEF: 0)
 1e8:	00005000 	andeq	r5, r0, r0
 1ec:	00000000 	andeq	r0, r0, r0
 1f0:	01000000 	mrseq	r0, (UNDEF: 0)
 1f4:	00000001 	andeq	r0, r0, r1
 1f8:	00080000 	andeq	r0, r8, r0
 1fc:	00010000 	andeq	r0, r1, r0
 200:	00000850 	andeq	r0, r0, r0, asr r8
 204:	00003400 	andeq	r3, r0, r0, lsl #8
 208:	54000100 	strpl	r0, [r0], #-256	; 0xffffff00
	...
 218:	02880000 	addeq	r0, r8, #0, 0
 21c:	02b80000 	adcseq	r0, r8, #0, 0
 220:	00010000 	andeq	r0, r1, r0
 224:	0002b850 	andeq	fp, r2, r0, asr r8
 228:	00060400 	andeq	r0, r6, r0, lsl #8
 22c:	59000100 	stmdbpl	r0, {r8}
 230:	00000604 	andeq	r0, r0, r4, lsl #12
 234:	0000062c 	andeq	r0, r0, ip, lsr #12
 238:	01f30004 	mvnseq	r0, r4
 23c:	00009f50 	andeq	r9, r0, r0, asr pc
	...
 24c:	00000288 	andeq	r0, r0, r8, lsl #5
 250:	000002a0 	andeq	r0, r0, r0, lsr #5
 254:	a0510001 	subsge	r0, r1, r1
 258:	b8000002 	stmdalt	r0, {r1}
 25c:	03000002 	movweq	r0, #2
 260:	9f017100 	svcls	0x00017100
 264:	000002b8 			; <UNDEFINED> instruction: 0x000002b8
 268:	0000062c 	andeq	r0, r0, ip, lsr #12
 26c:	01f30004 	mvnseq	r0, r4
 270:	00009f51 	andeq	r9, r0, r1, asr pc
	...
 27c:	02880000 	addeq	r0, r8, #0, 0
 280:	02b80000 	adcseq	r0, r8, #0, 0
 284:	00010000 	andeq	r0, r1, r0
 288:	0002b852 	andeq	fp, r2, r2, asr r8
 28c:	00060400 	andeq	r0, r6, r0, lsl #8
 290:	56000100 	strpl	r0, [r0], -r0, lsl #2
	...
 29c:	00000001 	andeq	r0, r0, r1
 2a0:	01000000 	mrseq	r0, (UNDEF: 0)
 2a4:	00000001 	andeq	r0, r0, r1
 2a8:	02000000 	andeq	r0, r0, #0, 0
 2ac:	00000002 	andeq	r0, r0, r2
 2b0:	0000029c 	muleq	r0, ip, r2
 2b4:	000002b8 			; <UNDEFINED> instruction: 0x000002b8
 2b8:	b8500001 	ldmdalt	r0, {r0}^
 2bc:	bc000002 	stclt	0, cr0, [r0], {2}
 2c0:	01000002 	tsteq	r0, r2
 2c4:	02bc5400 	adcseq	r5, ip, #0, 8
 2c8:	02c00000 	sbceq	r0, r0, #0, 0
 2cc:	00030000 	andeq	r0, r3, r0
 2d0:	c09f0174 	addsgt	r0, pc, r4, ror r1	; <UNPREDICTABLE>
 2d4:	e4000002 	str	r0, [r0], #-2
 2d8:	01000002 	tsteq	r0, r2
 2dc:	02e45400 	rsceq	r5, r4, #0, 8
 2e0:	02e80000 	rsceq	r0, r8, #0, 0
 2e4:	00030000 	andeq	r0, r3, r0
 2e8:	e89f0174 	ldm	pc, {r2, r4, r5, r6, r8}	; <UNPREDICTABLE>
 2ec:	d4000002 	strle	r0, [r0], #-2
 2f0:	01000005 	tsteq	r0, r5
 2f4:	05d45400 	ldrbeq	r5, [r4, #1024]	; 0x400
 2f8:	05d80000 	ldrbeq	r0, [r8]
 2fc:	00030000 	andeq	r0, r3, r0
 300:	d89f0174 	ldmle	pc, {r2, r4, r5, r6, r8}	; <UNPREDICTABLE>
 304:	f0000005 			; <UNDEFINED> instruction: 0xf0000005
 308:	01000005 	tsteq	r0, r5
 30c:	05f05400 	ldrbeq	r5, [r0, #1024]!	; 0x400
 310:	05f80000 	ldrbeq	r0, [r8, #0]!
 314:	00030000 	andeq	r0, r3, r0
 318:	f89f0174 			; <UNDEFINED> instruction: 0xf89f0174
 31c:	04000005 	streq	r0, [r0], #-5
 320:	01000006 	tsteq	r0, r6
 324:	00005400 	andeq	r5, r0, r0, lsl #8
	...
 330:	02a40000 	adceq	r0, r4, #0, 0
 334:	06040000 	streq	r0, [r4], -r0
 338:	00010000 	andeq	r0, r1, r0
 33c:	00060458 	andeq	r0, r6, r8, asr r4
 340:	00062c00 	andeq	r2, r6, r0, lsl #24
 344:	f3000a00 	vpmax.u8	d0, d0, d0
 348:	01f35101 	mvnseq	r5, r1, lsl #2
 34c:	1c312250 	lfmne	f2, 4, [r1], #-320	; 0xfffffec0
 350:	0000009f 	muleq	r0, pc, r0	; <UNPREDICTABLE>
 354:	00000000 	andeq	r0, r0, r0
 358:	f0000100 			; <UNDEFINED> instruction: 0xf0000100
 35c:	0b000003 	bleq	370 <__code_start__-0x7c90>
 360:	01000004 	tsteq	r0, r4
 364:	00005300 	andeq	r5, r0, r0, lsl #6
 368:	00000000 	andeq	r0, r0, r0
 36c:	00010000 	andeq	r0, r1, r0
 370:	02ac0000 	adceq	r0, ip, #0, 0
 374:	02b80000 	adcseq	r0, r8, #0, 0
 378:	00010000 	andeq	r0, r1, r0
 37c:	0002b852 	andeq	fp, r2, r2, asr r8
 380:	00062c00 	andeq	r2, r6, r0, lsl #24
 384:	91000300 	mrsls	r0, LR_irq
 388:	00007dc8 	andeq	r7, r0, r8, asr #27
	...
 394:	01000000 	mrseq	r0, (UNDEF: 0)
 398:	00000001 	andeq	r0, r0, r1
	...
 3a4:	00000410 	andeq	r0, r0, r0, lsl r4
 3a8:	00000428 	andeq	r0, r0, r8, lsr #8
 3ac:	28500001 	ldmdacs	r0, {r0}^
 3b0:	3c000004 	stccc	0, cr0, [r0], {4}
 3b4:	01000004 	tsteq	r0, r4
 3b8:	04a45700 	strteq	r5, [r4], #1792	; 0x700
 3bc:	04a40000 	strteq	r0, [r4], #0
 3c0:	00010000 	andeq	r0, r1, r0
 3c4:	0004a450 	andeq	sl, r4, r0, asr r4
 3c8:	0004ac00 	andeq	sl, r4, r0, lsl #24
 3cc:	57000100 	strpl	r0, [r0, -r0, lsl #2]
 3d0:	000004dc 	ldrdeq	r0, [r0], -ip
 3d4:	000004e0 	andeq	r0, r0, r0, ror #9
 3d8:	10500001 	subsne	r0, r0, r1
 3dc:	14000005 	strne	r0, [r0], #-5
 3e0:	01000005 	tsteq	r0, r5
 3e4:	05445000 	strbeq	r5, [r4, #-0]
 3e8:	05480000 	strbeq	r0, [r8, #-0]
 3ec:	00010000 	andeq	r0, r1, r0
 3f0:	00058c50 	andeq	r8, r5, r0, asr ip
 3f4:	00059000 	andeq	r9, r5, r0
 3f8:	50000100 	andpl	r0, r0, r0, lsl #2
 3fc:	000005d0 	ldrdeq	r0, [r0], -r0	; <UNPREDICTABLE>
 400:	000005f0 	strdeq	r0, [r0], -r0	; <UNPREDICTABLE>
 404:	00570001 	subseq	r0, r7, r1
 408:	00000000 	andeq	r0, r0, r0
 40c:	02000000 	andeq	r0, r0, #0, 0
 410:	00000000 	andeq	r0, r0, r0
 414:	0002f400 	andeq	pc, r2, r0, lsl #8
 418:	0002f800 	andeq	pc, r2, r0, lsl #16
 41c:	30000200 	andcc	r0, r0, r0, lsl #4
 420:	0002f89f 	muleq	r2, pc, r8	; <UNPREDICTABLE>
 424:	00031400 	andeq	r1, r3, r0, lsl #8
 428:	55000100 	strpl	r0, [r0, #-256]	; 0xffffff00
 42c:	0000031c 	andeq	r0, r0, ip, lsl r3
 430:	000005f0 	strdeq	r0, [r0], -r0	; <UNPREDICTABLE>
 434:	00550001 	subseq	r0, r5, r1
	...
 444:	00007000 	andeq	r7, r0, r0
 448:	00009400 	andeq	r9, r0, r0, lsl #8
 44c:	50000100 	andpl	r0, r0, r0, lsl #2
 450:	00000094 	muleq	r0, r4, r0
 454:	000000fc 	strdeq	r0, [r0], -ip
 458:	02700003 	rsbseq	r0, r0, #3, 0
 45c:	0000fc9f 	muleq	r0, pc, ip	; <UNPREDICTABLE>
 460:	00022400 	andeq	r2, r2, r0, lsl #8
 464:	f3000400 	vshl.u8	d0, d0, d0
 468:	009f5001 	addseq	r5, pc, r1
	...
 480:	70000000 	andvc	r0, r0, r0
 484:	e0000000 	and	r0, r0, r0
 488:	01000000 	mrseq	r0, (UNDEF: 0)
 48c:	00e05100 	rsceq	r5, r0, r0, lsl #2
 490:	01540000 	cmpeq	r4, r0
 494:	00010000 	andeq	r0, r1, r0
 498:	00015455 	andeq	r5, r1, r5, asr r4
 49c:	00015800 	andeq	r5, r1, r0, lsl #16
 4a0:	51000100 	mrspl	r0, (UNDEF: 16)
 4a4:	00000158 	andeq	r0, r0, r8, asr r1
 4a8:	000001b0 			; <UNDEFINED> instruction: 0x000001b0
 4ac:	b0550001 	subslt	r0, r5, r1
 4b0:	c0000001 	andgt	r0, r0, r1
 4b4:	01000001 	tsteq	r0, r1
 4b8:	01c05100 	biceq	r5, r0, r0, lsl #2
 4bc:	01e40000 	mvneq	r0, r0
 4c0:	00010000 	andeq	r0, r1, r0
 4c4:	0001e455 	andeq	lr, r1, r5, asr r4
 4c8:	0001f800 	andeq	pc, r1, r0, lsl #16
 4cc:	51000100 	mrspl	r0, (UNDEF: 16)
 4d0:	000001f8 	strdeq	r0, [r0], -r8
 4d4:	00000224 	andeq	r0, r0, r4, lsr #4
 4d8:	00550001 	subseq	r0, r5, r1
	...
 4e4:	70000000 	andvc	r0, r0, r0
 4e8:	84000000 	strhi	r0, [r0], #-0
 4ec:	01000000 	mrseq	r0, (UNDEF: 0)
 4f0:	00845200 	addeq	r5, r4, r0, lsl #4
 4f4:	02240000 	eoreq	r0, r4, #0, 0
 4f8:	00010000 	andeq	r0, r1, r0
 4fc:	00000054 	andeq	r0, r0, r4, asr r0
	...
 508:	00010000 	andeq	r0, r1, r0
 50c:	00000000 	andeq	r0, r0, r0
 510:	00007000 	andeq	r7, r0, r0
 514:	0000f400 	andeq	pc, r0, r0, lsl #8
 518:	53000100 	movwpl	r0, #256	; 0x100
 51c:	0000014c 	andeq	r0, r0, ip, asr #2
 520:	00000180 	andeq	r0, r0, r0, lsl #3
 524:	80530001 	subshi	r0, r3, r1
 528:	8c000001 	stchi	0, cr0, [r0], {1}
 52c:	04000001 	streq	r0, [r0], #-1
 530:	5301f300 	movwpl	pc, #4864	; 0x1300	; <UNPREDICTABLE>
 534:	0001b09f 	muleq	r1, pc, r0	; <UNPREDICTABLE>
 538:	0001e800 	andeq	lr, r1, r0, lsl #16
 53c:	53000100 	movwpl	r0, #256	; 0x100
 540:	000001e8 	andeq	r0, r0, r8, ror #3
 544:	000001ff 	strdeq	r0, [r0], -pc	; <UNPREDICTABLE>
 548:	ff5c0001 			; <UNDEFINED> instruction: 0xff5c0001
 54c:	24000001 	strcs	r0, [r0], #-1
 550:	04000002 	streq	r0, [r0], #-2
 554:	5301f300 	movwpl	pc, #4864	; 0x1300	; <UNPREDICTABLE>
 558:	0000009f 	muleq	r0, pc, r0	; <UNPREDICTABLE>
	...
 564:	70000000 	andvc	r0, r0, r0
 568:	8c000000 	stchi	0, cr0, [r0], {-0}
 56c:	02000000 	andeq	r0, r0, #0, 0
 570:	8c009100 	stfhid	f1, [r0], {-0}
 574:	93000000 	movwls	r0, #0
 578:	01000001 	tsteq	r0, r1
 57c:	01b05200 	lslseq	r5, r0, #4
 580:	01f40000 	mvnseq	r0, r0
 584:	00010000 	andeq	r0, r1, r0
 588:	00000052 	andeq	r0, r0, r2, asr r0
 58c:	00000000 	andeq	r0, r0, r0
 590:	00000100 	andeq	r0, r0, r0, lsl #2
 594:	00000101 	andeq	r0, r0, r1, lsl #2
 598:	00000000 	andeq	r0, r0, r0
 59c:	01010000 	mrseq	r0, (UNDEF: 1)
 5a0:	00000101 	andeq	r0, r0, r1, lsl #2
 5a4:	00000101 	andeq	r0, r0, r1, lsl #2
	...
 5b0:	00008c00 	andeq	r8, r0, r0, lsl #24
 5b4:	0000fc00 	andeq	pc, r0, r0, lsl #24
 5b8:	91000400 	tstls	r0, r0, lsl #8
 5bc:	fc9f7fa0 	ldc2	15, cr7, [pc], {160}	; 0xa0
 5c0:	3c000000 	stccc	0, cr0, [r0], {-0}
 5c4:	01000001 	tsteq	r0, r1
 5c8:	013c5000 	teqeq	ip, r0
 5cc:	01480000 	mrseq	r0, (UNDEF: 72)
 5d0:	00030000 	andeq	r0, r3, r0
 5d4:	489f0271 	ldmmi	pc, {r0, r4, r5, r6, r9}	; <UNPREDICTABLE>
 5d8:	4c000001 	stcmi	0, cr0, [r0], {1}
 5dc:	01000001 	tsteq	r0, r1
 5e0:	014c5000 	mrseq	r5, (UNDEF: 76)
 5e4:	01580000 	cmpeq	r8, r0
 5e8:	00040000 	andeq	r0, r4, r0
 5ec:	9f7fa091 	svcls	0x007fa091
 5f0:	00000158 	andeq	r0, r0, r8, asr r1
 5f4:	0000016c 	andeq	r0, r0, ip, ror #2
 5f8:	6c510001 	mrrcvs	0, 0, r0, r1, cr1
 5fc:	78000001 	stmdavc	r0, {r0}
 600:	03000001 	movweq	r0, #1
 604:	9f7f7100 	svcls	0x007f7100
 608:	00000178 	andeq	r0, r0, r8, ror r1
 60c:	00000184 	andeq	r0, r0, r4, lsl #3
 610:	01710003 	cmneq	r1, r3
 614:	0001849f 	muleq	r1, pc, r4	; <UNPREDICTABLE>
 618:	00019300 	andeq	r9, r1, r0, lsl #6
 61c:	50000100 	andpl	r0, r0, r0, lsl #2
 620:	000001b0 			; <UNDEFINED> instruction: 0x000001b0
 624:	000001b0 			; <UNDEFINED> instruction: 0x000001b0
 628:	a0910004 	addsge	r0, r1, r4
 62c:	01b09f7f 	rorseq	r9, pc, pc
 630:	01b80000 			; <UNDEFINED> instruction: 0x01b80000
 634:	00040000 	andeq	r0, r4, r0
 638:	9f7fa191 	svcls	0x007fa191
 63c:	000001b8 			; <UNDEFINED> instruction: 0x000001b8
 640:	000001bc 			; <UNDEFINED> instruction: 0x000001bc
 644:	bc500001 	mrrclt	0, 0, r0, r0, cr1	; <UNPREDICTABLE>
 648:	c0000001 	andgt	r0, r0, r1
 64c:	04000001 	streq	r0, [r0], #-1
 650:	7fa09100 	svcvc	0x00a09100
 654:	0001c09f 	muleq	r1, pc, r0	; <UNPREDICTABLE>
 658:	0001d400 	andeq	sp, r1, r0, lsl #8
 65c:	50000100 	andpl	r0, r0, r0, lsl #2
 660:	000001d4 	ldrdeq	r0, [r0], -r4
 664:	000001e4 	andeq	r0, r0, r4, ror #3
 668:	7f700003 	svcvc	0x00700003
 66c:	0001e49f 	muleq	r1, pc, r4	; <UNPREDICTABLE>
 670:	00022400 	andeq	r2, r2, r0, lsl #8
 674:	91000400 	tstls	r0, r0, lsl #8
 678:	009f7fa0 	addseq	r7, pc, r0, lsr #31
	...
 684:	01010000 	mrseq	r0, (UNDEF: 1)
	...
 694:	90000000 	andls	r0, r0, r0
 698:	dc000000 	stcle	0, cr0, [r0], {-0}
 69c:	01000000 	mrseq	r0, (UNDEF: 0)
 6a0:	00dc5c00 	sbcseq	r5, ip, r0, lsl #24
 6a4:	00f40000 	rscseq	r0, r4, r0
 6a8:	00010000 	andeq	r0, r1, r0
 6ac:	0000f453 	andeq	pc, r0, r3, asr r4	; <UNPREDICTABLE>
 6b0:	00014c00 	andeq	r4, r1, r0, lsl #24
 6b4:	5c000100 	stfpls	f0, [r0], {-0}
 6b8:	0000014c 	andeq	r0, r0, ip, asr #2
 6bc:	00000158 	andeq	r0, r0, r8, asr r1
 6c0:	58530001 	ldmdapl	r3, {r0}^
 6c4:	74000001 	strvc	r0, [r0], #-1
 6c8:	01000001 	tsteq	r0, r1
 6cc:	01b05c00 	lslseq	r5, r0, #24
 6d0:	01c00000 	biceq	r0, r0, r0
 6d4:	00010000 	andeq	r0, r1, r0
 6d8:	0001c053 	andeq	ip, r1, r3, asr r0
 6dc:	0001dc00 	andeq	sp, r1, r0, lsl #24
 6e0:	5c000100 	stfpls	f0, [r0], {-0}
 6e4:	000001e4 	andeq	r0, r0, r4, ror #3
 6e8:	000001e8 	andeq	r0, r0, r8, ror #3
 6ec:	e8530001 	ldmda	r3, {r0}^
 6f0:	ff000001 			; <UNDEFINED> instruction: 0xff000001
 6f4:	01000001 	tsteq	r0, r1
 6f8:	01ff5c00 	mvnseq	r5, r0, lsl #24
 6fc:	02240000 	eoreq	r0, r4, #0, 0
 700:	00040000 	andeq	r0, r4, r0
 704:	9f5301f3 	svcls	0x005301f3
	...
 710:	00010101 	andeq	r0, r1, r1, lsl #2
 714:	00000000 	andeq	r0, r0, r0
 718:	000000dc 	ldrdeq	r0, [r0], -ip
 71c:	000000f0 	strdeq	r0, [r0], -r0	; <UNPREDICTABLE>
 720:	9f300002 	svcls	0x00300002
 724:	000000f0 	strdeq	r0, [r0], -r0	; <UNPREDICTABLE>
 728:	000000f8 	strdeq	r0, [r0], -r8
 72c:	9f310002 	svcls	0x00310002
 730:	000000fc 	strdeq	r0, [r0], -ip
 734:	0000014c 	andeq	r0, r0, ip, asr #2
 738:	4c560001 	mrrcmi	0, 0, r0, r6, cr1
 73c:	54000001 	strpl	r0, [r0], #-1
 740:	02000001 	andeq	r0, r0, #1, 0
 744:	009f3000 	addseq	r3, pc, r0
	...
 750:	01010000 	mrseq	r0, (UNDEF: 1)
 754:	01010000 	mrseq	r0, (UNDEF: 1)
 758:	00003800 	andeq	r3, r0, r0, lsl #16
 75c:	00005400 	andeq	r5, r0, r0, lsl #8
 760:	50000100 	andpl	r0, r0, r0, lsl #2
 764:	00000054 	andeq	r0, r0, r4, asr r0
 768:	00000058 	andeq	r0, r0, r8, asr r0
 76c:	58520001 	ldmdapl	r2, {r0}^
 770:	60000000 	andvs	r0, r0, r0
 774:	03000000 	movweq	r0, #0
 778:	9f017200 	svcls	0x00017200
 77c:	00000060 	andeq	r0, r0, r0, rrx
 780:	00000064 	andeq	r0, r0, r4, rrx
 784:	64520001 	ldrbvs	r0, [r2], #-1
 788:	70000000 	andvc	r0, r0, r0
 78c:	03000000 	movweq	r0, #0
 790:	9f017200 	svcls	0x00017200
	...
 7a0:	00000038 	andeq	r0, r0, r8, lsr r0
 7a4:	00000050 	andeq	r0, r0, r0, asr r0
 7a8:	50510001 	subspl	r0, r1, r1
 7ac:	70000000 	andvc	r0, r0, r0
 7b0:	04000000 	streq	r0, [r0], #-0
 7b4:	5101f300 	mrspl	pc, SP_irq	; <UNPREDICTABLE>
 7b8:	0000009f 	muleq	r0, pc, r0	; <UNPREDICTABLE>
	...
 7c4:	01010000 	mrseq	r0, (UNDEF: 1)
 7c8:	00003800 	andeq	r3, r0, r0, lsl #16
 7cc:	00005000 	andeq	r5, r0, r0
 7d0:	52000100 	andpl	r0, r0, #0
 7d4:	00000050 	andeq	r0, r0, r0, asr r0
 7d8:	0000005c 	andeq	r0, r0, ip, asr r0
 7dc:	5c510001 	mrrcpl	0, 0, r0, r1, cr1
 7e0:	60000000 	andvs	r0, r0, r0
 7e4:	03000000 	movweq	r0, #0
 7e8:	9f017100 	svcls	0x00017100
 7ec:	00000060 	andeq	r0, r0, r0, rrx
 7f0:	00000070 	andeq	r0, r0, r0, ror r0
 7f4:	00510001 	subseq	r0, r1, r1
	...
 800:	38000000 	stmdacc	r0, {}	; <UNPREDICTABLE>
 804:	4c000000 	stcmi	0, cr0, [r0], {-0}
 808:	01000000 	mrseq	r0, (UNDEF: 0)
 80c:	004c5300 	subeq	r5, ip, r0, lsl #6
 810:	00680000 	rsbeq	r0, r8, r0
 814:	00010000 	andeq	r0, r1, r0
 818:	00000053 	andeq	r0, r0, r3, asr r0
	...
 828:	00004000 	andeq	r4, r0, r0
 82c:	00004800 	andeq	r4, r0, r0, lsl #16
 830:	5c000100 	stfpls	f0, [r0], {-0}
 834:	00000048 	andeq	r0, r0, r8, asr #32
 838:	0000004c 	andeq	r0, r0, ip, asr #32
 83c:	00720008 	rsbseq	r0, r2, r8
 840:	231c0073 	tstcs	ip, #115, 0	; 0x73
 844:	004c9f01 	subeq	r9, ip, r1, lsl #30
 848:	00540000 	subseq	r0, r4, r0
 84c:	00090000 	andeq	r0, r9, r0
 850:	01f30072 	mvnseq	r0, r2, ror r0
 854:	01231c53 			; <UNDEFINED> instruction: 0x01231c53
 858:	0000549f 	muleq	r0, pc, r4	; <UNPREDICTABLE>
 85c:	00007000 	andeq	r7, r0, r0
 860:	f3000a00 	vpmax.u8	d0, d0, d0
 864:	01f35201 	mvnseq	r5, r1, lsl #4
 868:	01231c53 			; <UNDEFINED> instruction: 0x01231c53
 86c:	0000009f 	muleq	r0, pc, r0	; <UNPREDICTABLE>
 870:	00000000 	andeq	r0, r0, r0
 874:	4c000100 	stfmis	f0, [r0], {-0}
 878:	70000000 	andvc	r0, r0, r0
 87c:	01000000 	mrseq	r0, (UNDEF: 0)
 880:	00005000 	andeq	r5, r0, r0
 884:	00000000 	andeq	r0, r0, r0
 888:	01000000 	mrseq	r0, (UNDEF: 0)
 88c:	00000001 	andeq	r0, r0, r1
 890:	00000014 	andeq	r0, r0, r4, lsl r0
 894:	0000001c 	andeq	r0, r0, ip, lsl r0
 898:	1c500001 	mrrcne	0, 0, r0, r0, cr1	; <UNPREDICTABLE>
 89c:	24000000 	strcs	r0, [r0], #-0
 8a0:	03000000 	movweq	r0, #0
 8a4:	9f017000 	svcls	0x00017000
 8a8:	00000024 	andeq	r0, r0, r4, lsr #32
 8ac:	00000038 	andeq	r0, r0, r8, lsr r0
 8b0:	00500001 	subseq	r0, r0, r1
	...
 8bc:	14000000 	strne	r0, [r0], #-0
 8c0:	18000000 	stmdane	r0, {}	; <UNPREDICTABLE>
 8c4:	01000000 	mrseq	r0, (UNDEF: 0)
 8c8:	00185100 	andseq	r5, r8, r0, lsl #2
 8cc:	00380000 	eorseq	r0, r8, r0
 8d0:	00040000 	andeq	r0, r4, r0
 8d4:	9f5101f3 	svcls	0x005101f3
	...
 8e0:	00180000 	andseq	r0, r8, r0
 8e4:	00380000 	eorseq	r0, r8, r0
 8e8:	00010000 	andeq	r0, r1, r0
 8ec:	00000051 	andeq	r0, r0, r1, asr r0
	...
 8fc:	04000000 	streq	r0, [r0], #-0
 900:	01000000 	mrseq	r0, (UNDEF: 0)
 904:	00045000 	andeq	r5, r4, r0
 908:	000c0000 	andeq	r0, ip, r0
 90c:	00030000 	andeq	r0, r3, r0
 910:	0c9f3070 	ldceq	0, cr3, [pc], {112}	; 0x70
 914:	14000000 	strne	r0, [r0], #-0
 918:	04000000 	streq	r0, [r0], #-0
 91c:	5001f300 	andpl	pc, r1, r0, lsl #6
 920:	0000009f 	muleq	r0, pc, r0	; <UNPREDICTABLE>
	...
 92c:	00022400 	andeq	r2, r2, r0, lsl #8
 930:	00026800 	andeq	r6, r2, r0, lsl #16
 934:	50000100 	andpl	r0, r0, r0, lsl #2
 938:	00000268 	andeq	r0, r0, r8, ror #4
 93c:	00000288 	andeq	r0, r0, r8, lsl #5
 940:	01f30004 	mvnseq	r0, r4
 944:	00009f50 	andeq	r9, r0, r0, asr pc
	...
 950:	02240000 	eoreq	r0, r4, #0, 0
 954:	02640000 	rsbeq	r0, r4, #0, 0
 958:	00010000 	andeq	r0, r1, r0
 95c:	00026451 	andeq	r6, r2, r1, asr r4
 960:	00028800 	andeq	r8, r2, r0, lsl #16
 964:	f3000400 	vshl.u8	d0, d0, d0
 968:	009f5101 	addseq	r5, pc, r1, lsl #2
	...
 974:	00000101 	andeq	r0, r0, r1, lsl #2
 978:	00000c00 	andeq	r0, r0, r0, lsl #24
 97c:	00001400 	andeq	r1, r0, r0, lsl #8
 980:	53000100 	movwpl	r0, #256	; 0x100
 984:	00000014 	andeq	r0, r0, r4, lsl r0
 988:	0000001c 	andeq	r0, r0, ip, lsl r0
 98c:	04730003 	ldrbteq	r0, [r3], #-3
 990:	00001c9f 	muleq	r0, pc, ip	; <UNPREDICTABLE>
 994:	00002300 	andeq	r2, r0, r0, lsl #6
 998:	53000100 	movwpl	r0, #256	; 0x100
	...
 9a4:	89940001 	ldmibhi	r4, {r0}
 9a8:	89b00000 	ldmibhi	r0!, {}	; <UNPREDICTABLE>
 9ac:	00060000 	andeq	r0, r6, r0
 9b0:	10001c0c 	andne	r1, r0, ip, lsl #24
 9b4:	00009f20 	andeq	r9, r0, r0, lsr #30
 9b8:	00000000 	andeq	r0, r0, r0
 9bc:	00020000 	andeq	r0, r2, r0
 9c0:	00008994 	muleq	r0, r4, r9
 9c4:	000089b0 			; <UNDEFINED> instruction: 0x000089b0
 9c8:	240c0006 	strcs	r0, [ip], #-6
 9cc:	9f201000 	svcls	0x00201000
	...
 9d8:	89940003 	ldmibhi	r4, {r0, r1}
 9dc:	89b00000 	ldmibhi	r0!, {}	; <UNPREDICTABLE>
 9e0:	00050000 	andeq	r0, r5, r0
 9e4:	2447b408 	strbcs	fp, [r7], #-1032	; 0xfffffbf8
 9e8:	0000009f 	muleq	r0, pc, r0	; <UNPREDICTABLE>
 9ec:	00000000 	andeq	r0, r0, r0
 9f0:	94000400 	strls	r0, [r0], #-1024	; 0xfffffc00
 9f4:	b0000089 	andlt	r0, r0, r9, lsl #1
 9f8:	03000089 	movweq	r0, #137	; 0x89
 9fc:	9f200800 	svcls	0x00200800
	...
 a08:	00000002 	andeq	r0, r0, r2
 a0c:	89640000 	stmdbhi	r4!, {}^	; <UNPREDICTABLE>
 a10:	89680000 	stmdbhi	r8!, {}^	; <UNPREDICTABLE>
 a14:	00020000 	andeq	r0, r2, r0
 a18:	89689f30 	stmdbhi	r8!, {r4, r5, r8, r9, sl, fp, ip, pc}^
 a1c:	896c0000 	stmdbhi	ip!, {}^	; <UNPREDICTABLE>
 a20:	00010000 	andeq	r0, r1, r0
 a24:	00897053 	addeq	r7, r9, r3, asr r0
 a28:	00897800 	addeq	r7, r9, r0, lsl #16
 a2c:	53000100 	movwpl	r0, #256	; 0x100
	...
 a38:	00000002 	andeq	r0, r0, r2
 a3c:	0000894c 	andeq	r8, r0, ip, asr #18
 a40:	00008950 	andeq	r8, r0, r0, asr r9
 a44:	9f300002 	svcls	0x00300002
 a48:	00008950 	andeq	r8, r0, r0, asr r9
 a4c:	00008954 	andeq	r8, r0, r4, asr r9
 a50:	00500001 	subseq	r0, r0, r1
	...
 a5c:	84000000 	strhi	r0, [r0], #-0
 a60:	90000000 	andls	r0, r0, r0
 a64:	01000000 	mrseq	r0, (UNDEF: 0)
 a68:	00905000 	addseq	r5, r0, r0
 a6c:	009c0000 	addseq	r0, ip, r0
 a70:	00040000 	andeq	r0, r4, r0
 a74:	9f5001f3 	svcls	0x005001f3
	...
 a84:	0000006c 	andeq	r0, r0, ip, rrx
 a88:	00000078 	andeq	r0, r0, r8, ror r0
 a8c:	78500001 	ldmdavc	r0, {r0}^
 a90:	84000000 	strhi	r0, [r0], #-0
 a94:	04000000 	streq	r0, [r0], #-0
 a98:	5001f300 	andpl	pc, r1, r0, lsl #6
 a9c:	0000009f 	muleq	r0, pc, r0	; <UNPREDICTABLE>
	...
 aa8:	00004800 	andeq	r4, r0, r0, lsl #16
 aac:	00005300 	andeq	r5, r0, r0, lsl #6
 ab0:	50000100 	andpl	r0, r0, r0, lsl #2
 ab4:	00000053 	andeq	r0, r0, r3, asr r0
 ab8:	0000006c 	andeq	r0, r0, ip, rrx
 abc:	00550001 	subseq	r0, r5, r1
	...
 ac8:	00005800 	andeq	r5, r0, r0, lsl #16
 acc:	00006c00 	andeq	r6, r0, r0, lsl #24
 ad0:	54000100 	strpl	r0, [r0], #-256	; 0xffffff00
	...
 adc:	005c0000 	subseq	r0, ip, r0
 ae0:	00600000 	rsbeq	r0, r0, r0
 ae4:	00010000 	andeq	r0, r1, r0
 ae8:	00000050 	andeq	r0, r0, r0, asr r0
	...
 af4:	00003c00 	andeq	r3, r0, r0, lsl #24
 af8:	00003f00 	andeq	r3, r0, r0, lsl #30
 afc:	50000100 	andpl	r0, r0, r0, lsl #2
 b00:	0000003f 	andeq	r0, r0, pc, lsr r0
 b04:	00000048 	andeq	r0, r0, r8, asr #32
 b08:	00540001 	subseq	r0, r4, r1
	...
 b18:	04000000 	streq	r0, [r0], #-0
 b1c:	01000000 	mrseq	r0, (UNDEF: 0)
 b20:	00045000 	andeq	r5, r4, r0
 b24:	00180000 	andseq	r0, r8, r0
 b28:	00010000 	andeq	r0, r1, r0
 b2c:	00000053 	andeq	r0, r0, r3, asr r0
	...
 b38:	00013800 	andeq	r3, r1, r0, lsl #16
 b3c:	00014300 	andeq	r4, r1, r0, lsl #6
 b40:	50000100 	andpl	r0, r0, r0, lsl #2
 b44:	00000143 	andeq	r0, r0, r3, asr #2
 b48:	00000168 	andeq	r0, r0, r8, ror #2
 b4c:	00540001 	subseq	r0, r4, r1
	...
 b58:	00012800 	andeq	r2, r1, r0, lsl #16
 b5c:	00013800 	andeq	r3, r1, r0, lsl #16
 b60:	54000100 	strpl	r0, [r0], #-256	; 0xffffff00
	...
 b74:	0000000f 	andeq	r0, r0, pc
 b78:	0f500001 	svceq	0x00500001
 b7c:	20000000 	andcs	r0, r0, r0
 b80:	01000000 	mrseq	r0, (UNDEF: 0)
 b84:	00005400 	andeq	r5, r0, r0, lsl #8
	...
 b94:	000f0000 	andeq	r0, pc, r0
 b98:	00010000 	andeq	r0, r1, r0
 b9c:	00000f51 	andeq	r0, r0, r1, asr pc
 ba0:	00002000 	andeq	r2, r0, r0
 ba4:	55000100 	strpl	r0, [r0, #-256]	; 0xffffff00
	...
 bb4:	000000c8 	andeq	r0, r0, r8, asr #1
 bb8:	000000d4 	ldrdeq	r0, [r0], -r4
 bbc:	d4500001 	ldrble	r0, [r0], #-1
 bc0:	e8000000 	stmda	r0, {}	; <UNPREDICTABLE>
 bc4:	01000000 	mrseq	r0, (UNDEF: 0)
 bc8:	00005400 	andeq	r5, r0, r0, lsl #8
	...
 bd4:	00b80000 	adcseq	r0, r8, r0
 bd8:	00c30000 	sbceq	r0, r3, r0
 bdc:	00010000 	andeq	r0, r1, r0
 be0:	0000c350 	andeq	ip, r0, r0, asr r3
 be4:	0000c800 	andeq	ip, r0, r0, lsl #16
 be8:	f3000400 	vshl.u8	d0, d0, d0
 bec:	009f5001 	addseq	r5, pc, r1
	...
 bfc:	9c000000 	stcls	0, cr0, [r0], {-0}
 c00:	ab000000 	blge	c08 <__code_start__-0x73f8>
 c04:	01000000 	mrseq	r0, (UNDEF: 0)
 c08:	00ab5000 	adceq	r5, fp, r0
 c0c:	00b00000 	adcseq	r0, r0, r0
 c10:	00040000 	andeq	r0, r4, r0
 c14:	9f5001f3 	svcls	0x005001f3
 c18:	000000b0 	strheq	r0, [r0], -r0	; <UNPREDICTABLE>
 c1c:	000000b3 	strheq	r0, [r0], -r3
 c20:	b3500001 	cmplt	r0, #1, 0
 c24:	b8000000 	stmdalt	r0, {}	; <UNPREDICTABLE>
 c28:	04000000 	streq	r0, [r0], #-0
 c2c:	5001f300 	andpl	pc, r1, r0, lsl #6
 c30:	0000009f 	muleq	r0, pc, r0	; <UNPREDICTABLE>
	...
 c40:	00009c00 	andeq	r9, r0, r0, lsl #24
 c44:	0000ab00 	andeq	sl, r0, r0, lsl #22
 c48:	51000100 	mrspl	r0, (UNDEF: 16)
 c4c:	000000ab 	andeq	r0, r0, fp, lsr #1
 c50:	000000b0 	strheq	r0, [r0], -r0	; <UNPREDICTABLE>
 c54:	01f30004 	mvnseq	r0, r4
 c58:	00b09f51 	adcseq	r9, r0, r1, asr pc
 c5c:	00b30000 	adcseq	r0, r3, r0
 c60:	00010000 	andeq	r0, r1, r0
 c64:	0000b351 	andeq	fp, r0, r1, asr r3
 c68:	0000b800 	andeq	fp, r0, r0, lsl #16
 c6c:	f3000400 	vshl.u8	d0, d0, d0
 c70:	009f5101 	addseq	r5, pc, r1, lsl #2
	...
 c7c:	80000000 	andhi	r0, r0, r0
 c80:	90000000 	andls	r0, r0, r0
 c84:	01000000 	mrseq	r0, (UNDEF: 0)
 c88:	00905000 	addseq	r5, r0, r0
 c8c:	009c0000 	addseq	r0, ip, r0
 c90:	00040000 	andeq	r0, r4, r0
 c94:	9f5001f3 	svcls	0x005001f3
	...
 ca4:	00000064 	andeq	r0, r0, r4, rrx
 ca8:	00000074 	andeq	r0, r0, r4, ror r0
 cac:	74500001 	ldrbvc	r0, [r0], #-1
 cb0:	80000000 	andhi	r0, r0, r0
 cb4:	04000000 	streq	r0, [r0], #-0
 cb8:	5001f300 	andpl	pc, r1, r0, lsl #6
 cbc:	0000009f 	muleq	r0, pc, r0	; <UNPREDICTABLE>
	...
 cc8:	00005400 	andeq	r5, r0, r0, lsl #8
 ccc:	00005f00 	andeq	r5, r0, r0, lsl #30
 cd0:	50000100 	andpl	r0, r0, r0, lsl #2
 cd4:	0000005f 	andeq	r0, r0, pc, asr r0
 cd8:	00000064 	andeq	r0, r0, r4, rrx
 cdc:	01f30004 	mvnseq	r0, r4
 ce0:	00009f50 	andeq	r9, r0, r0, asr pc
	...
 cf0:	00280000 	eoreq	r0, r8, r0
 cf4:	00010000 	andeq	r0, r1, r0
 cf8:	00002850 	andeq	r2, r0, r0, asr r8
 cfc:	00005400 	andeq	r5, r0, r0, lsl #8
 d00:	54000100 	strpl	r0, [r0], #-256	; 0xffffff00
	...
 d14:	0000002b 	andeq	r0, r0, fp, lsr #32
 d18:	2b510001 	blcs	1440d24 <__bss_end__+0x1437984>
 d1c:	54000000 	strpl	r0, [r0], #-0
 d20:	04000000 	streq	r0, [r0], #-0
 d24:	5101f300 	mrspl	pc, SP_irq	; <UNPREDICTABLE>
 d28:	0000009f 	muleq	r0, pc, r0	; <UNPREDICTABLE>
 d2c:	00000000 	andeq	r0, r0, r0
 d30:	24000000 	strcs	r0, [r0], #-0
 d34:	54000000 	strpl	r0, [r0], #-0
 d38:	01000000 	mrseq	r0, (UNDEF: 0)
 d3c:	00005700 	andeq	r5, r0, r0, lsl #14
	...
 d48:	0000002c 	andeq	r0, r0, ip, lsr #32
 d4c:	00000048 	andeq	r0, r0, r8, asr #32
 d50:	00500001 	subseq	r0, r0, r1
	...
 d5c:	00003800 	andeq	r3, r0, r0, lsl #16
 d60:	00005400 	andeq	r5, r0, r0, lsl #8
 d64:	55000100 	strpl	r0, [r0, #-256]	; 0xffffff00
	...
 d78:	0000000b 	andeq	r0, r0, fp
 d7c:	0b500001 	bleq	1400d88 <__bss_end__+0x13f79e8>
 d80:	14000000 	strne	r0, [r0], #-0
 d84:	01000000 	mrseq	r0, (UNDEF: 0)
 d88:	00005400 	andeq	r5, r0, r0, lsl #8
	...
 d98:	001c0000 	andseq	r0, ip, r0
 d9c:	00010000 	andeq	r0, r1, r0
 da0:	00001c51 	andeq	r1, r0, r1, asr ip
 da4:	00003400 	andeq	r3, r0, r0, lsl #8
 da8:	f3000400 	vshl.u8	d0, d0, d0
 dac:	009f5101 	addseq	r5, pc, r1, lsl #2
 db0:	00000000 	andeq	r0, r0, r0
 db4:	02000000 	andeq	r0, r0, #0, 0
 db8:	00000000 	andeq	r0, r0, r0
 dbc:	00000101 	andeq	r0, r0, r1, lsl #2
 dc0:	00000000 	andeq	r0, r0, r0
 dc4:	00000400 	andeq	r0, r0, r0, lsl #8
 dc8:	50000100 	andpl	r0, r0, r0, lsl #2
 dcc:	00000004 	andeq	r0, r0, r4
 dd0:	0000001c 	andeq	r0, r0, ip, lsl r0
 dd4:	1c520001 	mrrcne	0, 0, r0, r2, cr1
 dd8:	24000000 	strcs	r0, [r0], #-0
 ddc:	01000000 	mrseq	r0, (UNDEF: 0)
 de0:	00245300 	eoreq	r5, r4, r0, lsl #6
 de4:	00280000 	eoreq	r0, r8, r0
 de8:	00030000 	andeq	r0, r3, r0
 dec:	289f0173 	ldmcs	pc, {r0, r1, r4, r5, r6, r8}	; <UNPREDICTABLE>
 df0:	34000000 	strcc	r0, [r0], #-0
 df4:	01000000 	mrseq	r0, (UNDEF: 0)
 df8:	00005300 	andeq	r5, r0, r0, lsl #6
 dfc:	00000000 	andeq	r0, r0, r0
 e00:	00030000 	andeq	r0, r3, r0
 e04:	00000000 	andeq	r0, r0, r0
 e08:	00240000 	eoreq	r0, r4, r0
 e0c:	00010000 	andeq	r0, r1, r0
 e10:	00002451 	andeq	r2, r0, r1, asr r4
 e14:	00003400 	andeq	r3, r0, r0, lsl #8
 e18:	71000300 	mrsvc	r0, LR_irq
 e1c:	00009f7f 	andeq	r9, r0, pc, ror pc
	...
 e28:	00100000 	andseq	r0, r0, r0
 e2c:	001c0000 	andseq	r0, ip, r0
 e30:	00010000 	andeq	r0, r1, r0
 e34:	0000245c 	andeq	r2, r0, ip, asr r4
 e38:	00003400 	andeq	r3, r0, r0, lsl #8
 e3c:	52000100 	andpl	r0, r0, #0
	...
 e48:	00030300 	andeq	r0, r3, r0, lsl #6
 e4c:	00008d80 	andeq	r8, r0, r0, lsl #27
 e50:	00008d80 	andeq	r8, r0, r0, lsl #27
 e54:	80500001 	subshi	r0, r0, r1
 e58:	ac00008d 	stcge	0, cr0, [r0], {141}	; 0x8d
 e5c:	0400008d 	streq	r0, [r0], #-141	; 0xffffff73
 e60:	5001f300 	andpl	pc, r1, r0, lsl #6
 e64:	0000009f 	muleq	r0, pc, r0	; <UNPREDICTABLE>
 e68:	00000000 	andeq	r0, r0, r0
 e6c:	03030000 	movweq	r0, #12288	; 0x3000
 e70:	008d8000 	addeq	r8, sp, r0
 e74:	008d8000 	addeq	r8, sp, r0
 e78:	51000100 	mrspl	r0, (UNDEF: 16)
 e7c:	00008d80 	andeq	r8, r0, r0, lsl #27
 e80:	00008dac 	andeq	r8, r0, ip, lsr #27
 e84:	01f30004 	mvnseq	r0, r4
 e88:	00009f51 	andeq	r9, r0, r1, asr pc
 e8c:	00000000 	andeq	r0, r0, r0
 e90:	03000000 	movweq	r0, #0
 e94:	00000003 	andeq	r0, r0, r3
 e98:	00008d80 	andeq	r8, r0, r0, lsl #27
 e9c:	00008d80 	andeq	r8, r0, r0, lsl #27
 ea0:	80520001 	subshi	r0, r2, r1
 ea4:	8800008d 	stmdahi	r0, {r0, r2, r3, r7}
 ea8:	0100008d 	smlabbeq	r0, sp, r0, r0
 eac:	8d885200 	sfmhi	f5, 4, [r8]
 eb0:	8dac0000 	stchi	0, cr0, [ip]
 eb4:	00030000 	andeq	r0, r3, r0
 eb8:	009f0172 	addseq	r0, pc, r2, ror r1	; <UNPREDICTABLE>
 ebc:	00000000 	andeq	r0, r0, r0
 ec0:	02000000 	andeq	r0, r0, #0, 0
 ec4:	00000101 	andeq	r0, r0, r1, lsl #2
 ec8:	80000000 	andhi	r0, r0, r0
 ecc:	8c00008d 	stchi	0, cr0, [r0], {141}	; 0x8d
 ed0:	0100008d 	smlabbeq	r0, sp, r0, r0
 ed4:	8d8c5000 	stchi	0, cr5, [ip]
 ed8:	8d900000 	ldchi	0, cr0, [r0]
 edc:	00030000 	andeq	r0, r3, r0
 ee0:	909f0170 	addsls	r0, pc, r0, ror r1	; <UNPREDICTABLE>
 ee4:	a000008d 	andge	r0, r0, sp, lsl #1
 ee8:	0100008d 	smlabbeq	r0, sp, r0, r0
 eec:	8da45000 	stchi	0, cr5, [r4]
 ef0:	8da80000 	stchi	0, cr0, [r8]
 ef4:	00010000 	andeq	r0, r1, r0
 ef8:	00000050 	andeq	r0, r0, r0, asr r0
 efc:	00000000 	andeq	r0, r0, r0
 f00:	00000200 	andeq	r0, r0, r0, lsl #4
 f04:	80000000 	andhi	r0, r0, r0
 f08:	9000008d 	andls	r0, r0, sp, lsl #1
 f0c:	0100008d 	smlabbeq	r0, sp, r0, r0
 f10:	8d905100 	ldfhis	f5, [r0]
 f14:	8d940000 	ldchi	0, cr0, [r4]
 f18:	00030000 	andeq	r0, r3, r0
 f1c:	949f0171 	ldrls	r0, [pc], #369	; f24 <__code_start__-0x70dc>
 f20:	ac00008d 	stcge	0, cr0, [r0], {141}	; 0x8d
 f24:	0100008d 	smlabbeq	r0, sp, r0, r0
 f28:	00005100 	andeq	r5, r0, r0, lsl #2
 f2c:	00000000 	andeq	r0, r0, r0
	...

Disassembly of section .debug_ranges:

00000000 <.debug_ranges>:
   0:	000003b8 			; <UNDEFINED> instruction: 0x000003b8
   4:	000004a4 	andeq	r0, r0, r4, lsr #9
   8:	000004ac 	andeq	r0, r0, ip, lsr #9
   c:	000005d0 	ldrdeq	r0, [r0], -r0	; <UNPREDICTABLE>
	...
  18:	0000894c 	andeq	r8, r0, ip, asr #18
  1c:	000089c8 	andeq	r8, r0, r8, asr #19
	...
  28:	00008d80 	andeq	r8, r0, r0, lsl #27
  2c:	00008dac 	andeq	r8, r0, ip, lsr #27
	...
