
0-gpio-read.elf:     file format elf32-littlearm


Disassembly of section .text:

00008000 <__code_start__>:
    8000:	e3a00013 	mov	r0, #19, 0
    8004:	e3800080 	orr	r0, r0, #128, 0	; 0x80
    8008:	e129f000 	msr	CPSR_fc, r0
    800c:	e3a01000 	mov	r1, #0, 0
    8010:	ee071f95 	mcr	15, 0, r1, cr7, cr5, {4}
    8014:	e3a0d302 	mov	sp, #134217728	; 0x8000000
    8018:	e3a0b000 	mov	fp, #0, 0
    801c:	eb00023a 	bl	890c <_cstart>
    8020:	eb000251 	bl	896c <rpi_reboot>

00008024 <PUT32>:
    8024:	e5801000 	str	r1, [r0]
    8028:	e12fff1e 	bx	lr

0000802c <GET32>:
    802c:	e5900000 	ldr	r0, [r0]
    8030:	e12fff1e 	bx	lr

00008034 <notmain>:
    8034:	e92d4010 	push	{r4, lr}
    8038:	eb000294 	bl	8a90 <uart_init>
    803c:	e59f0028 	ldr	r0, [pc, #40]	; 806c <notmain+0x38>
    8040:	eb000078 	bl	8228 <printk>
    8044:	e3a00000 	mov	r0, #0, 0
    8048:	eb000017 	bl	80ac <trace_start>
    804c:	e3a00014 	mov	r0, #20, 0
    8050:	eb000323 	bl	8ce4 <gpio_read>
    8054:	e1a04000 	mov	r4, r0
    8058:	eb00002a 	bl	8108 <trace_stop>
    805c:	e1a01004 	mov	r1, r4
    8060:	e59f0008 	ldr	r0, [pc, #8]	; 8070 <notmain+0x3c>
    8064:	eb00006f 	bl	8228 <printk>
    8068:	eb00021c 	bl	88e0 <clean_reboot>
    806c:	00008da0 	andeq	r8, r0, r0, lsr #27
    8070:	00008dc0 	andeq	r8, r0, r0, asr #27

00008074 <emit_put32>:
    8074:	e92d4010 	push	{r4, lr}
    8078:	e1a02001 	mov	r2, r1
    807c:	e1a01000 	mov	r1, r0
    8080:	e59f0004 	ldr	r0, [pc, #4]	; 808c <emit_put32+0x18>
    8084:	eb000067 	bl	8228 <printk>
    8088:	e8bd8010 	pop	{r4, pc}
    808c:	00008dd8 	ldrdeq	r8, [r0], -r8	; <UNPREDICTABLE>

00008090 <emit_get32>:
    8090:	e92d4010 	push	{r4, lr}
    8094:	e1a02001 	mov	r2, r1
    8098:	e1a01000 	mov	r1, r0
    809c:	e59f0004 	ldr	r0, [pc, #4]	; 80a8 <emit_get32+0x18>
    80a0:	eb000060 	bl	8228 <printk>
    80a4:	e8bd8010 	pop	{r4, pc}
    80a8:	00008dec 	andeq	r8, r0, ip, ror #27

000080ac <trace_start>:
    80ac:	e59f3040 	ldr	r3, [pc, #64]	; 80f4 <trace_start+0x48>
    80b0:	e5933000 	ldr	r3, [r3]
    80b4:	e3530000 	cmp	r3, #0, 0
    80b8:	1a000003 	bne	80cc <trace_start+0x20>
    80bc:	e59f3030 	ldr	r3, [pc, #48]	; 80f4 <trace_start+0x48>
    80c0:	e3a02001 	mov	r2, #1, 0
    80c4:	e5832000 	str	r2, [r3]
    80c8:	e12fff1e 	bx	lr
    80cc:	e52de004 	push	{lr}		; (str lr, [sp, #-4]!)
    80d0:	e24dd00c 	sub	sp, sp, #12, 0
    80d4:	e59f301c 	ldr	r3, [pc, #28]	; 80f8 <trace_start+0x4c>
    80d8:	e58d3000 	str	r3, [sp]
    80dc:	e3a0302f 	mov	r3, #47, 0	; 0x2f
    80e0:	e59f2014 	ldr	r2, [pc, #20]	; 80fc <trace_start+0x50>
    80e4:	e59f1014 	ldr	r1, [pc, #20]	; 8100 <trace_start+0x54>
    80e8:	e59f0014 	ldr	r0, [pc, #20]	; 8104 <trace_start+0x58>
    80ec:	eb00004d 	bl	8228 <printk>
    80f0:	eb0001fa 	bl	88e0 <clean_reboot>
    80f4:	00008f84 	andeq	r8, r0, r4, lsl #31
    80f8:	00008e24 	andeq	r8, r0, r4, lsr #28
    80fc:	00008e4c 	andeq	r8, r0, ip, asr #28
    8100:	00008e00 	andeq	r8, r0, r0, lsl #28
    8104:	00008e10 	andeq	r8, r0, r0, lsl lr

00008108 <trace_stop>:
    8108:	e59f3040 	ldr	r3, [pc, #64]	; 8150 <trace_stop+0x48>
    810c:	e5933000 	ldr	r3, [r3]
    8110:	e3530001 	cmp	r3, #1, 0
    8114:	1a000003 	bne	8128 <trace_stop+0x20>
    8118:	e59f3030 	ldr	r3, [pc, #48]	; 8150 <trace_stop+0x48>
    811c:	e3a02000 	mov	r2, #0, 0
    8120:	e5832000 	str	r2, [r3]
    8124:	e12fff1e 	bx	lr
    8128:	e52de004 	push	{lr}		; (str lr, [sp, #-4]!)
    812c:	e24dd00c 	sub	sp, sp, #12, 0
    8130:	e59f301c 	ldr	r3, [pc, #28]	; 8154 <trace_stop+0x4c>
    8134:	e58d3000 	str	r3, [sp]
    8138:	e3a03036 	mov	r3, #54, 0	; 0x36
    813c:	e59f2014 	ldr	r2, [pc, #20]	; 8158 <trace_stop+0x50>
    8140:	e59f1014 	ldr	r1, [pc, #20]	; 815c <trace_stop+0x54>
    8144:	e59f0014 	ldr	r0, [pc, #20]	; 8160 <trace_stop+0x58>
    8148:	eb000036 	bl	8228 <printk>
    814c:	eb0001e3 	bl	88e0 <clean_reboot>
    8150:	00008f84 	andeq	r8, r0, r4, lsl #31
    8154:	00008e38 	andeq	r8, r0, r8, lsr lr
    8158:	00008e58 	andeq	r8, r0, r8, asr lr
    815c:	00008e00 	andeq	r8, r0, r0, lsl #28
    8160:	00008e10 	andeq	r8, r0, r0, lsl lr

00008164 <__wrap_PUT32>:
    8164:	e92d4070 	push	{r4, r5, r6, lr}
    8168:	e1a04000 	mov	r4, r0
    816c:	e1a05001 	mov	r5, r1
    8170:	e59f3044 	ldr	r3, [pc, #68]	; 81bc <__wrap_PUT32+0x58>
    8174:	e5933000 	ldr	r3, [r3]
    8178:	e3530001 	cmp	r3, #1, 0
    817c:	0a000003 	beq	8190 <__wrap_PUT32+0x2c>
    8180:	e1a01005 	mov	r1, r5
    8184:	e1a00004 	mov	r0, r4
    8188:	ebffffa5 	bl	8024 <PUT32>
    818c:	e8bd8070 	pop	{r4, r5, r6, pc}
    8190:	e59f3028 	ldr	r3, [pc, #40]	; 81c0 <__wrap_PUT32+0x5c>
    8194:	e5933000 	ldr	r3, [r3]
    8198:	e3530000 	cmp	r3, #0, 0
    819c:	1afffff7 	bne	8180 <__wrap_PUT32+0x1c>
    81a0:	e59f6018 	ldr	r6, [pc, #24]	; 81c0 <__wrap_PUT32+0x5c>
    81a4:	e3a03001 	mov	r3, #1, 0
    81a8:	e5863000 	str	r3, [r6]
    81ac:	ebffffb0 	bl	8074 <emit_put32>
    81b0:	e3a03000 	mov	r3, #0, 0
    81b4:	e5863000 	str	r3, [r6]
    81b8:	eafffff0 	b	8180 <__wrap_PUT32+0x1c>
    81bc:	00008f84 	andeq	r8, r0, r4, lsl #31
    81c0:	00009388 	andeq	r9, r0, r8, lsl #7

000081c4 <__wrap_GET32>:
    81c4:	e92d4070 	push	{r4, r5, r6, lr}
    81c8:	e1a05000 	mov	r5, r0
    81cc:	ebffff96 	bl	802c <GET32>
    81d0:	e1a04000 	mov	r4, r0
    81d4:	e59f3044 	ldr	r3, [pc, #68]	; 8220 <__wrap_GET32+0x5c>
    81d8:	e5933000 	ldr	r3, [r3]
    81dc:	e3530001 	cmp	r3, #1, 0
    81e0:	0a000001 	beq	81ec <__wrap_GET32+0x28>
    81e4:	e1a00004 	mov	r0, r4
    81e8:	e8bd8070 	pop	{r4, r5, r6, pc}
    81ec:	e59f3030 	ldr	r3, [pc, #48]	; 8224 <__wrap_GET32+0x60>
    81f0:	e5933000 	ldr	r3, [r3]
    81f4:	e3530000 	cmp	r3, #0, 0
    81f8:	1afffff9 	bne	81e4 <__wrap_GET32+0x20>
    81fc:	e59f6020 	ldr	r6, [pc, #32]	; 8224 <__wrap_GET32+0x60>
    8200:	e3a03001 	mov	r3, #1, 0
    8204:	e5863000 	str	r3, [r6]
    8208:	e1a01000 	mov	r1, r0
    820c:	e1a00005 	mov	r0, r5
    8210:	ebffff9e 	bl	8090 <emit_get32>
    8214:	e3a03000 	mov	r3, #0, 0
    8218:	e5863000 	str	r3, [r6]
    821c:	eafffff0 	b	81e4 <__wrap_GET32+0x20>
    8220:	00008f84 	andeq	r8, r0, r4, lsl #31
    8224:	00009388 	andeq	r9, r0, r8, lsl #7

00008228 <printk>:
    8228:	e92d000f 	push	{r0, r1, r2, r3}
    822c:	e92d4030 	push	{r4, r5, lr}
    8230:	e24dd00c 	sub	sp, sp, #12, 0
    8234:	e28d301c 	add	r3, sp, #28, 0
    8238:	e58d3004 	str	r3, [sp, #4]
    823c:	e59f5034 	ldr	r5, [pc, #52]	; 8278 <printk+0x50>
    8240:	e59d2018 	ldr	r2, [sp, #24]
    8244:	e3a01b01 	mov	r1, #1024	; 0x400
    8248:	e1a00005 	mov	r0, r5
    824c:	eb0000ba 	bl	853c <va_printk>
    8250:	e1a04000 	mov	r4, r0
    8254:	e59f3020 	ldr	r3, [pc, #32]	; 827c <printk+0x54>
    8258:	e5933000 	ldr	r3, [r3]
    825c:	e1a00005 	mov	r0, r5
    8260:	e12fff33 	blx	r3
    8264:	e1a00004 	mov	r0, r4
    8268:	e28dd00c 	add	sp, sp, #12, 0
    826c:	e8bd4030 	pop	{r4, r5, lr}
    8270:	e28dd010 	add	sp, sp, #16, 0
    8274:	e12fff1e 	bx	lr
    8278:	00008f88 	andeq	r8, r0, r8, lsl #31
    827c:	00008f7c 	andeq	r8, r0, ip, ror pc

00008280 <internal_putk>:
    8280:	e92d4010 	push	{r4, lr}
    8284:	e1a04000 	mov	r4, r0
    8288:	e5d40000 	ldrb	r0, [r4]
    828c:	e3500000 	cmp	r0, #0, 0
    8290:	0a000004 	beq	82a8 <internal_putk+0x28>
    8294:	e59f3014 	ldr	r3, [pc, #20]	; 82b0 <internal_putk+0x30>
    8298:	e5933000 	ldr	r3, [r3]
    829c:	e12fff33 	blx	r3
    82a0:	e2844001 	add	r4, r4, #1, 0
    82a4:	eafffff7 	b	8288 <internal_putk+0x8>
    82a8:	e3a00001 	mov	r0, #1, 0
    82ac:	e8bd8010 	pop	{r4, pc}
    82b0:	00008f80 	andeq	r8, r0, r0, lsl #31

000082b4 <isdigit>:
    82b4:	e2400030 	sub	r0, r0, #48, 0	; 0x30
    82b8:	e3500009 	cmp	r0, #9, 0
    82bc:	83a00000 	movhi	r0, #0, 0
    82c0:	93a00001 	movls	r0, #1, 0
    82c4:	e12fff1e 	bx	lr

000082c8 <pad>:
    82c8:	e0401001 	sub	r1, r0, r1
    82cc:	e1510002 	cmp	r1, r2
    82d0:	b3a03020 	movlt	r3, #32, 0
    82d4:	b4c03001 	strblt	r3, [r0], #1
    82d8:	b2811001 	addlt	r1, r1, #1, 0
    82dc:	bafffffa 	blt	82cc <pad+0x4>
    82e0:	e3a03000 	mov	r3, #0, 0
    82e4:	e5c03000 	strb	r3, [r0]
    82e8:	e12fff1e 	bx	lr

000082ec <reverse>:
    82ec:	e042c003 	sub	ip, r2, r3
    82f0:	e28cc001 	add	ip, ip, #1, 0
    82f4:	e15c0001 	cmp	ip, r1
    82f8:	c04cc001 	subgt	ip, ip, r1
    82fc:	c083300c 	addgt	r3, r3, ip
    8300:	e2421001 	sub	r1, r2, #1, 0
    8304:	e1a02000 	mov	r2, r0
    8308:	e1510003 	cmp	r1, r3
    830c:	2451c001 	ldrbcs	ip, [r1], #-1
    8310:	24c2c001 	strbcs	ip, [r2], #1
    8314:	2afffffb 	bcs	8308 <reverse+0x1c>
    8318:	e3a03000 	mov	r3, #0, 0
    831c:	e5c23000 	strb	r3, [r2]
    8320:	e12fff1e 	bx	lr

00008324 <emit>:
    8324:	e92d40f0 	push	{r4, r5, r6, r7, lr}
    8328:	e24dd04c 	sub	sp, sp, #76, 0	; 0x4c
    832c:	e1a05001 	mov	r5, r1
    8330:	e1a04002 	mov	r4, r2
    8334:	e59d2060 	ldr	r2, [sp, #96]	; 0x60
    8338:	e1520004 	cmp	r2, r4
    833c:	c2442001 	subgt	r2, r4, #1, 0
    8340:	e1a0c003 	mov	ip, r3
    8344:	e2400002 	sub	r0, r0, #2, 0
    8348:	e350000e 	cmp	r0, #14, 0
    834c:	979ff100 	ldrls	pc, [pc, r0, lsl #2]
    8350:	ea000050 	b	8498 <emit+0x174>
    8354:	00008470 	andeq	r8, r0, r0, ror r4
    8358:	00008498 	muleq	r0, r8, r4
    835c:	00008498 	muleq	r0, r8, r4
    8360:	00008498 	muleq	r0, r8, r4
    8364:	00008498 	muleq	r0, r8, r4
    8368:	00008498 	muleq	r0, r8, r4
    836c:	00008464 	andeq	r8, r0, r4, ror #8
    8370:	00008498 	muleq	r0, r8, r4
    8374:	00008390 	muleq	r0, r0, r3
    8378:	00008498 	muleq	r0, r8, r4
    837c:	00008498 	muleq	r0, r8, r4
    8380:	00008498 	muleq	r0, r8, r4
    8384:	00008498 	muleq	r0, r8, r4
    8388:	00008498 	muleq	r0, r8, r4
    838c:	00008408 	andeq	r8, r0, r8, lsl #8
    8390:	e59d1064 	ldr	r1, [sp, #100]	; 0x64
    8394:	e2511000 	subs	r1, r1, #0, 0
    8398:	13a01001 	movne	r1, #1, 0
    839c:	e0111fa3 	ands	r1, r1, r3, lsr #31
    83a0:	0a000016 	beq	8400 <emit+0xdc>
    83a4:	e263c000 	rsb	ip, r3, #0, 0
    83a8:	e3a06001 	mov	r6, #1, 0
    83ac:	e28d0008 	add	r0, sp, #8, 0
    83b0:	e59f3100 	ldr	r3, [pc, #256]	; 84b8 <emit+0x194>
    83b4:	e0831c93 	umull	r1, r3, r3, ip
    83b8:	e1a031a3 	lsr	r3, r3, #3
    83bc:	e1a0e003 	mov	lr, r3
    83c0:	e0833103 	add	r3, r3, r3, lsl #2
    83c4:	e04c3083 	sub	r3, ip, r3, lsl #1
    83c8:	e1a01000 	mov	r1, r0
    83cc:	e2800001 	add	r0, r0, #1, 0
    83d0:	e59f70e4 	ldr	r7, [pc, #228]	; 84bc <emit+0x198>
    83d4:	e7d73003 	ldrb	r3, [r7, r3]
    83d8:	e5c13000 	strb	r3, [r1]
    83dc:	e1a0300c 	mov	r3, ip
    83e0:	e1a0c00e 	mov	ip, lr
    83e4:	e3530009 	cmp	r3, #9, 0
    83e8:	8afffff0 	bhi	83b0 <emit+0x8c>
    83ec:	e3560000 	cmp	r6, #0, 0
    83f0:	13a0302d 	movne	r3, #45, 0	; 0x2d
    83f4:	15c03000 	strbne	r3, [r0]
    83f8:	12810002 	addne	r0, r1, #2, 0
    83fc:	ea00000f 	b	8440 <emit+0x11c>
    8400:	e3a06000 	mov	r6, #0, 0
    8404:	eaffffe8 	b	83ac <emit+0x88>
    8408:	e28d1008 	add	r1, sp, #8, 0
    840c:	e20c000f 	and	r0, ip, #15, 0
    8410:	e59fe0a8 	ldr	lr, [pc, #168]	; 84c0 <emit+0x19c>
    8414:	e7de0000 	ldrb	r0, [lr, r0]
    8418:	e5c10000 	strb	r0, [r1]
    841c:	e2811001 	add	r1, r1, #1, 0
    8420:	e35c000f 	cmp	ip, #15, 0
    8424:	e1a0c22c 	lsr	ip, ip, #4
    8428:	8afffff7 	bhi	840c <emit+0xe8>
    842c:	e1a00001 	mov	r0, r1
    8430:	e3a03078 	mov	r3, #120, 0	; 0x78
    8434:	e4c03002 	strb	r3, [r0], #2
    8438:	e3a03030 	mov	r3, #48, 0	; 0x30
    843c:	e5c13001 	strb	r3, [r1, #1]
    8440:	e28d1008 	add	r1, sp, #8, 0
    8444:	ebffff9f 	bl	82c8 <pad>
    8448:	e1a02000 	mov	r2, r0
    844c:	e28d3008 	add	r3, sp, #8, 0
    8450:	e1a01004 	mov	r1, r4
    8454:	e1a00005 	mov	r0, r5
    8458:	ebffffa3 	bl	82ec <reverse>
    845c:	e28dd04c 	add	sp, sp, #76, 0	; 0x4c
    8460:	e8bd80f0 	pop	{r4, r5, r6, r7, pc}
    8464:	e5cd3008 	strb	r3, [sp, #8]
    8468:	e28d0009 	add	r0, sp, #9, 0
    846c:	eafffff3 	b	8440 <emit+0x11c>
    8470:	e28d0008 	add	r0, sp, #8, 0
    8474:	e20c1001 	and	r1, ip, #1, 0
    8478:	e59fe044 	ldr	lr, [pc, #68]	; 84c4 <emit+0x1a0>
    847c:	e7de1001 	ldrb	r1, [lr, r1]
    8480:	e5c01000 	strb	r1, [r0]
    8484:	e2800001 	add	r0, r0, #1, 0
    8488:	e35c0001 	cmp	ip, #1, 0
    848c:	e1a0c0ac 	lsr	ip, ip, #1
    8490:	8afffff7 	bhi	8474 <emit+0x150>
    8494:	eaffffe9 	b	8440 <emit+0x11c>
    8498:	e59f3028 	ldr	r3, [pc, #40]	; 84c8 <emit+0x1a4>
    849c:	e58d3000 	str	r3, [sp]
    84a0:	e3a03079 	mov	r3, #121, 0	; 0x79
    84a4:	e59f2020 	ldr	r2, [pc, #32]	; 84cc <emit+0x1a8>
    84a8:	e59f1020 	ldr	r1, [pc, #32]	; 84d0 <emit+0x1ac>
    84ac:	e59f0020 	ldr	r0, [pc, #32]	; 84d4 <emit+0x1b0>
    84b0:	ebffff5c 	bl	8228 <printk>
    84b4:	eb000109 	bl	88e0 <clean_reboot>
    84b8:	cccccccd 	stclgt	12, cr12, [ip], {205}	; 0xcd
    84bc:	00008e7c 	andeq	r8, r0, ip, ror lr
    84c0:	00008e88 	andeq	r8, r0, r8, lsl #29
    84c4:	00008e9c 	muleq	r0, ip, lr
    84c8:	00008e78 	andeq	r8, r0, r8, ror lr
    84cc:	00008f4c 	andeq	r8, r0, ip, asr #30
    84d0:	00008e64 	andeq	r8, r0, r4, ror #28
    84d4:	00008e10 	andeq	r8, r0, r0, lsl lr

000084d8 <rpi_set_output>:
    84d8:	e3500000 	cmp	r0, #0, 0
    84dc:	0a000006 	beq	84fc <rpi_set_output+0x24>
    84e0:	e59f303c 	ldr	r3, [pc, #60]	; 8524 <rpi_set_output+0x4c>
    84e4:	e5830000 	str	r0, [r3]
    84e8:	e3510000 	cmp	r1, #0, 0
    84ec:	012fff1e 	bxeq	lr
    84f0:	e59f3030 	ldr	r3, [pc, #48]	; 8528 <rpi_set_output+0x50>
    84f4:	e5831000 	str	r1, [r3]
    84f8:	e12fff1e 	bx	lr
    84fc:	e52de004 	push	{lr}		; (str lr, [sp, #-4]!)
    8500:	e24dd00c 	sub	sp, sp, #12, 0
    8504:	e59f3020 	ldr	r3, [pc, #32]	; 852c <rpi_set_output+0x54>
    8508:	e58d3000 	str	r3, [sp]
    850c:	e3a03020 	mov	r3, #32, 0
    8510:	e59f2018 	ldr	r2, [pc, #24]	; 8530 <rpi_set_output+0x58>
    8514:	e59f1018 	ldr	r1, [pc, #24]	; 8534 <rpi_set_output+0x5c>
    8518:	e59f0018 	ldr	r0, [pc, #24]	; 8538 <rpi_set_output+0x60>
    851c:	ebffff41 	bl	8228 <printk>
    8520:	eb0000ee 	bl	88e0 <clean_reboot>
    8524:	00008f80 	andeq	r8, r0, r0, lsl #31
    8528:	00008f7c 	andeq	r8, r0, ip, ror pc
    852c:	00008ea0 	andeq	r8, r0, r0, lsr #29
    8530:	00008f54 	andeq	r8, r0, r4, asr pc
    8534:	00008e64 	andeq	r8, r0, r4, ror #28
    8538:	00008e10 	andeq	r8, r0, r0, lsl lr

0000853c <va_printk>:
    853c:	e92d4ff0 	push	{r4, r5, r6, r7, r8, r9, sl, fp, lr}
    8540:	e24ddf45 	sub	sp, sp, #276	; 0x114
    8544:	e1a09000 	mov	r9, r0
    8548:	e58d2008 	str	r2, [sp, #8]
    854c:	e58d300c 	str	r3, [sp, #12]
    8550:	e2411001 	sub	r1, r1, #1, 0
    8554:	e0808001 	add	r8, r0, r1
    8558:	e3a03000 	mov	r3, #0, 0
    855c:	e5c03000 	strb	r3, [r0]
    8560:	e1a04000 	mov	r4, r0
    8564:	e1a06002 	mov	r6, r2
    8568:	ea000001 	b	8574 <va_printk+0x38>
    856c:	e2866001 	add	r6, r6, #1, 0
    8570:	e4c43001 	strb	r3, [r4], #1
    8574:	e5d63000 	ldrb	r3, [r6]
    8578:	e3530000 	cmp	r3, #0, 0
    857c:	0a0000c8 	beq	88a4 <va_printk+0x368>
    8580:	e1540008 	cmp	r4, r8
    8584:	2a0000c6 	bcs	88a4 <va_printk+0x368>
    8588:	e3530025 	cmp	r3, #37, 0	; 0x25
    858c:	1afffff6 	bne	856c <va_printk+0x30>
    8590:	e5d62001 	ldrb	r2, [r6, #1]
    8594:	e3520025 	cmp	r2, #37, 0	; 0x25
    8598:	04c43001 	strbeq	r3, [r4], #1
    859c:	02866002 	addeq	r6, r6, #2, 0
    85a0:	0afffff3 	beq	8574 <va_printk+0x38>
    85a4:	e2866001 	add	r6, r6, #1, 0
    85a8:	e3a05000 	mov	r5, #0, 0
    85ac:	e5d67000 	ldrb	r7, [r6]
    85b0:	e1a0a007 	mov	sl, r7
    85b4:	e1a00007 	mov	r0, r7
    85b8:	ebffff3d 	bl	82b4 <isdigit>
    85bc:	e3500000 	cmp	r0, #0, 0
    85c0:	0a000004 	beq	85d8 <va_printk+0x9c>
    85c4:	e0855105 	add	r5, r5, r5, lsl #2
    85c8:	e0875085 	add	r5, r7, r5, lsl #1
    85cc:	e2455030 	sub	r5, r5, #48, 0	; 0x30
    85d0:	e2866001 	add	r6, r6, #1, 0
    85d4:	eafffff4 	b	85ac <va_printk+0x70>
    85d8:	e355001f 	cmp	r5, #31, 0
    85dc:	8a00001a 	bhi	864c <va_printk+0x110>
    85e0:	e2477062 	sub	r7, r7, #98, 0	; 0x62
    85e4:	e3570016 	cmp	r7, #22, 0
    85e8:	979ff107 	ldrls	pc, [pc, r7, lsl #2]
    85ec:	ea000094 	b	8844 <va_printk+0x308>
    85f0:	000087c8 	andeq	r8, r0, r8, asr #15
    85f4:	00008810 	andeq	r8, r0, r0, lsl r8
    85f8:	00008728 	andeq	r8, r0, r8, lsr #14
    85fc:	00008844 	andeq	r8, r0, r4, asr #16
    8600:	00008710 	andeq	r8, r0, r0, lsl r7
    8604:	00008844 	andeq	r8, r0, r4, asr #16
    8608:	00008844 	andeq	r8, r0, r4, asr #16
    860c:	00008844 	andeq	r8, r0, r4, asr #16
    8610:	00008844 	andeq	r8, r0, r4, asr #16
    8614:	00008844 	andeq	r8, r0, r4, asr #16
    8618:	0000866c 	andeq	r8, r0, ip, ror #12
    861c:	00008844 	andeq	r8, r0, r4, asr #16
    8620:	00008844 	andeq	r8, r0, r4, asr #16
    8624:	00008844 	andeq	r8, r0, r4, asr #16
    8628:	00008794 	muleq	r0, r4, r7
    862c:	00008844 	andeq	r8, r0, r4, asr #16
    8630:	00008844 	andeq	r8, r0, r4, asr #16
    8634:	000087fc 	strdeq	r8, [r0], -ip
    8638:	00008844 	andeq	r8, r0, r4, asr #16
    863c:	00008760 	andeq	r8, r0, r0, ror #14
    8640:	00008844 	andeq	r8, r0, r4, asr #16
    8644:	00008844 	andeq	r8, r0, r4, asr #16
    8648:	00008794 	muleq	r0, r4, r7
    864c:	e59f3264 	ldr	r3, [pc, #612]	; 88b8 <va_printk+0x37c>
    8650:	e58d3000 	str	r3, [sp]
    8654:	e3a03098 	mov	r3, #152, 0	; 0x98
    8658:	e59f225c 	ldr	r2, [pc, #604]	; 88bc <va_printk+0x380>
    865c:	e59f125c 	ldr	r1, [pc, #604]	; 88c0 <va_printk+0x384>
    8660:	e59f025c 	ldr	r0, [pc, #604]	; 88c4 <va_printk+0x388>
    8664:	ebfffeef 	bl	8228 <printk>
    8668:	eb00009c 	bl	88e0 <clean_reboot>
    866c:	e3a02003 	mov	r2, #3, 0
    8670:	e59f1250 	ldr	r1, [pc, #592]	; 88c8 <va_printk+0x38c>
    8674:	e1a00006 	mov	r0, r6
    8678:	eb0001bd 	bl	8d74 <strncmp>
    867c:	e3500000 	cmp	r0, #0, 0
    8680:	1a00001a 	bne	86f0 <va_printk+0x1b4>
    8684:	e2866002 	add	r6, r6, #2, 0
    8688:	e59d300c 	ldr	r3, [sp, #12]
    868c:	e2833007 	add	r3, r3, #7, 0
    8690:	e3c33007 	bic	r3, r3, #7, 0
    8694:	e2832008 	add	r2, r3, #8, 0
    8698:	e58d200c 	str	r2, [sp, #12]
    869c:	e593b000 	ldr	fp, [r3]
    86a0:	e5933004 	ldr	r3, [r3, #4]
    86a4:	e3a0a000 	mov	sl, #0, 0
    86a8:	e58da004 	str	sl, [sp, #4]
    86ac:	e58d5000 	str	r5, [sp]
    86b0:	e3a02080 	mov	r2, #128, 0	; 0x80
    86b4:	e28d1010 	add	r1, sp, #16, 0
    86b8:	e3a00010 	mov	r0, #16, 0
    86bc:	ebffff18 	bl	8324 <emit>
    86c0:	e1a07000 	mov	r7, r0
    86c4:	e58da004 	str	sl, [sp, #4]
    86c8:	e58d5000 	str	r5, [sp]
    86cc:	e1a0300b 	mov	r3, fp
    86d0:	e3a02080 	mov	r2, #128, 0	; 0x80
    86d4:	e28d1090 	add	r1, sp, #144, 0	; 0x90
    86d8:	e3a00010 	mov	r0, #16, 0
    86dc:	ebffff10 	bl	8324 <emit>
    86e0:	e28d1092 	add	r1, sp, #146, 0	; 0x92
    86e4:	e28d0010 	add	r0, sp, #16, 0
    86e8:	eb000194 	bl	8d40 <strcat>
    86ec:	ea000019 	b	8758 <va_printk+0x21c>
    86f0:	e59f31d4 	ldr	r3, [pc, #468]	; 88cc <va_printk+0x390>
    86f4:	e58d3000 	str	r3, [sp]
    86f8:	e3a0309d 	mov	r3, #157, 0	; 0x9d
    86fc:	e59f21b8 	ldr	r2, [pc, #440]	; 88bc <va_printk+0x380>
    8700:	e59f11b8 	ldr	r1, [pc, #440]	; 88c0 <va_printk+0x384>
    8704:	e59f01b8 	ldr	r0, [pc, #440]	; 88c4 <va_printk+0x388>
    8708:	ebfffec6 	bl	8228 <printk>
    870c:	eb000073 	bl	88e0 <clean_reboot>
    8710:	e3a030af 	mov	r3, #175, 0	; 0xaf
    8714:	e59f21a0 	ldr	r2, [pc, #416]	; 88bc <va_printk+0x380>
    8718:	e59f11a0 	ldr	r1, [pc, #416]	; 88c0 <va_printk+0x384>
    871c:	e59f01ac 	ldr	r0, [pc, #428]	; 88d0 <va_printk+0x394>
    8720:	ebfffec0 	bl	8228 <printk>
    8724:	eb00006d 	bl	88e0 <clean_reboot>
    8728:	e59d300c 	ldr	r3, [sp, #12]
    872c:	e2832004 	add	r2, r3, #4, 0
    8730:	e58d200c 	str	r2, [sp, #12]
    8734:	e5933000 	ldr	r3, [r3]
    8738:	e3a02001 	mov	r2, #1, 0
    873c:	e58d2004 	str	r2, [sp, #4]
    8740:	e58d5000 	str	r5, [sp]
    8744:	e3a02080 	mov	r2, #128, 0	; 0x80
    8748:	e28d1010 	add	r1, sp, #16, 0
    874c:	e3a0000a 	mov	r0, #10, 0
    8750:	ebfffef3 	bl	8324 <emit>
    8754:	e1a07000 	mov	r7, r0
    8758:	e2866001 	add	r6, r6, #1, 0
    875c:	ea00004a 	b	888c <va_printk+0x350>
    8760:	e59d300c 	ldr	r3, [sp, #12]
    8764:	e2832004 	add	r2, r3, #4, 0
    8768:	e58d200c 	str	r2, [sp, #12]
    876c:	e5933000 	ldr	r3, [r3]
    8770:	e3a02000 	mov	r2, #0, 0
    8774:	e58d2004 	str	r2, [sp, #4]
    8778:	e58d5000 	str	r5, [sp]
    877c:	e3a02080 	mov	r2, #128, 0	; 0x80
    8780:	e28d1010 	add	r1, sp, #16, 0
    8784:	e3a0000a 	mov	r0, #10, 0
    8788:	ebfffee5 	bl	8324 <emit>
    878c:	e1a07000 	mov	r7, r0
    8790:	eafffff0 	b	8758 <va_printk+0x21c>
    8794:	e59d300c 	ldr	r3, [sp, #12]
    8798:	e2832004 	add	r2, r3, #4, 0
    879c:	e58d200c 	str	r2, [sp, #12]
    87a0:	e5933000 	ldr	r3, [r3]
    87a4:	e3a02000 	mov	r2, #0, 0
    87a8:	e58d2004 	str	r2, [sp, #4]
    87ac:	e58d5000 	str	r5, [sp]
    87b0:	e3a02080 	mov	r2, #128, 0	; 0x80
    87b4:	e28d1010 	add	r1, sp, #16, 0
    87b8:	e3a00010 	mov	r0, #16, 0
    87bc:	ebfffed8 	bl	8324 <emit>
    87c0:	e1a07000 	mov	r7, r0
    87c4:	eaffffe3 	b	8758 <va_printk+0x21c>
    87c8:	e59d300c 	ldr	r3, [sp, #12]
    87cc:	e2832004 	add	r2, r3, #4, 0
    87d0:	e58d200c 	str	r2, [sp, #12]
    87d4:	e5933000 	ldr	r3, [r3]
    87d8:	e3a02000 	mov	r2, #0, 0
    87dc:	e58d2004 	str	r2, [sp, #4]
    87e0:	e58d5000 	str	r5, [sp]
    87e4:	e3a02080 	mov	r2, #128, 0	; 0x80
    87e8:	e28d1010 	add	r1, sp, #16, 0
    87ec:	e3a00002 	mov	r0, #2, 0
    87f0:	ebfffecb 	bl	8324 <emit>
    87f4:	e1a07000 	mov	r7, r0
    87f8:	eaffffd6 	b	8758 <va_printk+0x21c>
    87fc:	e59d300c 	ldr	r3, [sp, #12]
    8800:	e2832004 	add	r2, r3, #4, 0
    8804:	e58d200c 	str	r2, [sp, #12]
    8808:	e5937000 	ldr	r7, [r3]
    880c:	eaffffd1 	b	8758 <va_printk+0x21c>
    8810:	e59d300c 	ldr	r3, [sp, #12]
    8814:	e2832004 	add	r2, r3, #4, 0
    8818:	e58d200c 	str	r2, [sp, #12]
    881c:	e5933000 	ldr	r3, [r3]
    8820:	e3a02000 	mov	r2, #0, 0
    8824:	e58d2004 	str	r2, [sp, #4]
    8828:	e58d5000 	str	r5, [sp]
    882c:	e3a02080 	mov	r2, #128, 0	; 0x80
    8830:	e28d1010 	add	r1, sp, #16, 0
    8834:	e3a00008 	mov	r0, #8, 0
    8838:	ebfffeb9 	bl	8324 <emit>
    883c:	e1a07000 	mov	r7, r0
    8840:	eaffffc4 	b	8758 <va_printk+0x21c>
    8844:	e3a03000 	mov	r3, #0, 0
    8848:	e5c63001 	strb	r3, [r6, #1]
    884c:	e1a0200a 	mov	r2, sl
    8850:	e1a0100a 	mov	r1, sl
    8854:	e59f0078 	ldr	r0, [pc, #120]	; 88d4 <va_printk+0x398>
    8858:	ebfffe72 	bl	8228 <printk>
    885c:	e59f3074 	ldr	r3, [pc, #116]	; 88d8 <va_printk+0x39c>
    8860:	e5933000 	ldr	r3, [r3]
    8864:	e59d0008 	ldr	r0, [sp, #8]
    8868:	e12fff33 	blx	r3
    886c:	e3a030d3 	mov	r3, #211, 0	; 0xd3
    8870:	e59f2044 	ldr	r2, [pc, #68]	; 88bc <va_printk+0x380>
    8874:	e59f1044 	ldr	r1, [pc, #68]	; 88c0 <va_printk+0x384>
    8878:	e59f005c 	ldr	r0, [pc, #92]	; 88dc <va_printk+0x3a0>
    887c:	ebfffe69 	bl	8228 <printk>
    8880:	eb000016 	bl	88e0 <clean_reboot>
    8884:	e2877001 	add	r7, r7, #1, 0
    8888:	e4c43001 	strb	r3, [r4], #1
    888c:	e1540008 	cmp	r4, r8
    8890:	2affff37 	bcs	8574 <va_printk+0x38>
    8894:	e5d73000 	ldrb	r3, [r7]
    8898:	e3530000 	cmp	r3, #0, 0
    889c:	1afffff8 	bne	8884 <va_printk+0x348>
    88a0:	eaffff33 	b	8574 <va_printk+0x38>
    88a4:	e3a03000 	mov	r3, #0, 0
    88a8:	e4c43001 	strb	r3, [r4], #1
    88ac:	e0440009 	sub	r0, r4, r9
    88b0:	e28ddf45 	add	sp, sp, #276	; 0x114
    88b4:	e8bd8ff0 	pop	{r4, r5, r6, r7, r8, r9, sl, fp, pc}
    88b8:	00008ea8 	andeq	r8, r0, r8, lsr #29
    88bc:	00008f64 	andeq	r8, r0, r4, ror #30
    88c0:	00008e64 	andeq	r8, r0, r4, ror #28
    88c4:	00008e10 	andeq	r8, r0, r0, lsl lr
    88c8:	00008eb4 			; <UNDEFINED> instruction: 0x00008eb4
    88cc:	00008eb8 			; <UNDEFINED> instruction: 0x00008eb8
    88d0:	00008ed4 	ldrdeq	r8, [r0], -r4
    88d4:	00008efc 	strdeq	r8, [r0], -ip
    88d8:	00008f7c 	andeq	r8, r0, ip, ror pc
    88dc:	00008f2c 	andeq	r8, r0, ip, lsr #30

000088e0 <clean_reboot>:
    88e0:	e92d4010 	push	{r4, lr}
    88e4:	e59f3018 	ldr	r3, [pc, #24]	; 8904 <clean_reboot+0x24>
    88e8:	e5933000 	ldr	r3, [r3]
    88ec:	e59f0014 	ldr	r0, [pc, #20]	; 8908 <clean_reboot+0x28>
    88f0:	e12fff33 	blx	r3
    88f4:	eb0000c3 	bl	8c08 <uart_flush_tx>
    88f8:	e3a0000a 	mov	r0, #10, 0
    88fc:	eb000049 	bl	8a28 <delay_ms>
    8900:	eb000019 	bl	896c <rpi_reboot>
    8904:	00008f7c 	andeq	r8, r0, ip, ror pc
    8908:	00008f70 	andeq	r8, r0, r0, ror pc

0000890c <_cstart>:
    890c:	e92d4010 	push	{r4, lr}
    8910:	eb000009 	bl	893c <custom_loader>
    8914:	e59f3018 	ldr	r3, [pc, #24]	; 8934 <_cstart+0x28>
    8918:	e59f2018 	ldr	r2, [pc, #24]	; 8938 <_cstart+0x2c>
    891c:	e1530002 	cmp	r3, r2
    8920:	33a02000 	movcc	r2, #0, 0
    8924:	34832004 	strcc	r2, [r3], #4
    8928:	3afffffa 	bcc	8918 <_cstart+0xc>
    892c:	ebfffdc0 	bl	8034 <notmain>
    8930:	ebffffea 	bl	88e0 <clean_reboot>
    8934:	00008f84 	andeq	r8, r0, r4, lsl #31
    8938:	00009390 	muleq	r0, r0, r3

0000893c <custom_loader>:
    893c:	e12fff1e 	bx	lr

00008940 <at_user_level>:
    8940:	e10f0000 	mrs	r0, CPSR
    8944:	e200001f 	and	r0, r0, #31, 0
    8948:	e3500010 	cmp	r0, #16, 0
    894c:	13a00000 	movne	r0, #0, 0
    8950:	03a00001 	moveq	r0, #1, 0
    8954:	e12fff1e 	bx	lr

00008958 <set_user_level>:
    8958:	e10f3000 	mrs	r3, CPSR
    895c:	e3c3301f 	bic	r3, r3, #31, 0
    8960:	e3833010 	orr	r3, r3, #16, 0
    8964:	e129f003 	msr	CPSR_fc, r3
    8968:	e12fff1e 	bx	lr

0000896c <rpi_reboot>:
    896c:	e92d4010 	push	{r4, lr}
    8970:	ebfffff2 	bl	8940 <at_user_level>
    8974:	e3500000 	cmp	r0, #0, 0
    8978:	1a000009 	bne	89a4 <rpi_reboot+0x38>
    897c:	eb0000a1 	bl	8c08 <uart_flush_tx>
    8980:	e3a0000a 	mov	r0, #10, 0
    8984:	eb000027 	bl	8a28 <delay_ms>
    8988:	e59f101c 	ldr	r1, [pc, #28]	; 89ac <rpi_reboot+0x40>
    898c:	e59f001c 	ldr	r0, [pc, #28]	; 89b0 <rpi_reboot+0x44>
    8990:	ebfffdf3 	bl	8164 <__wrap_PUT32>
    8994:	e59f1018 	ldr	r1, [pc, #24]	; 89b4 <rpi_reboot+0x48>
    8998:	e59f0018 	ldr	r0, [pc, #24]	; 89b8 <rpi_reboot+0x4c>
    899c:	ebfffdf0 	bl	8164 <__wrap_PUT32>
    89a0:	eafffffe 	b	89a0 <rpi_reboot+0x34>
    89a4:	ebffffeb 	bl	8958 <set_user_level>
    89a8:	eafffff3 	b	897c <rpi_reboot+0x10>
    89ac:	5a000001 	bpl	89b8 <rpi_reboot+0x4c>
    89b0:	20100024 	andscs	r0, r0, r4, lsr #32
    89b4:	5a000020 	bpl	8a3c <delay_ms+0x14>
    89b8:	2010001c 	andscs	r0, r0, ip, lsl r0

000089bc <delay_cycles>:
    89bc:	e2403001 	sub	r3, r0, #1, 0
    89c0:	e3500000 	cmp	r0, #0, 0
    89c4:	012fff1e 	bxeq	lr
    89c8:	e2811000 	add	r1, r1, #0, 0
    89cc:	e1a00003 	mov	r0, r3
    89d0:	eafffff9 	b	89bc <delay_cycles>

000089d4 <timer_get_usec_raw>:
    89d4:	e92d4010 	push	{r4, lr}
    89d8:	e59f0004 	ldr	r0, [pc, #4]	; 89e4 <timer_get_usec_raw+0x10>
    89dc:	ebfffdf8 	bl	81c4 <__wrap_GET32>
    89e0:	e8bd8010 	pop	{r4, pc}
    89e4:	20003004 	andcs	r3, r0, r4

000089e8 <timer_get_usec>:
    89e8:	e92d4010 	push	{r4, lr}
    89ec:	eb000019 	bl	8a58 <dev_barrier>
    89f0:	ebfffff7 	bl	89d4 <timer_get_usec_raw>
    89f4:	e1a04000 	mov	r4, r0
    89f8:	eb000016 	bl	8a58 <dev_barrier>
    89fc:	e1a00004 	mov	r0, r4
    8a00:	e8bd8010 	pop	{r4, pc}

00008a04 <delay_us>:
    8a04:	e92d4070 	push	{r4, r5, r6, lr}
    8a08:	e1a05000 	mov	r5, r0
    8a0c:	ebfffff5 	bl	89e8 <timer_get_usec>
    8a10:	e1a04000 	mov	r4, r0
    8a14:	ebfffff3 	bl	89e8 <timer_get_usec>
    8a18:	e0400004 	sub	r0, r0, r4
    8a1c:	e1500005 	cmp	r0, r5
    8a20:	3afffffb 	bcc	8a14 <delay_us+0x10>
    8a24:	e8bd8070 	pop	{r4, r5, r6, pc}

00008a28 <delay_ms>:
    8a28:	e92d4010 	push	{r4, lr}
    8a2c:	e0603280 	rsb	r3, r0, r0, lsl #5
    8a30:	e0800103 	add	r0, r0, r3, lsl #2
    8a34:	e1a00180 	lsl	r0, r0, #3
    8a38:	ebfffff1 	bl	8a04 <delay_us>
    8a3c:	e8bd8010 	pop	{r4, pc}

00008a40 <delay_sec>:
    8a40:	e92d4010 	push	{r4, lr}
    8a44:	e0603280 	rsb	r3, r0, r0, lsl #5
    8a48:	e0800103 	add	r0, r0, r3, lsl #2
    8a4c:	e1a00180 	lsl	r0, r0, #3
    8a50:	ebfffff4 	bl	8a28 <delay_ms>
    8a54:	e8bd8010 	pop	{r4, pc}

00008a58 <dev_barrier>:
    8a58:	ea000002 	b	8a68 <dsb>

00008a5c <dmb>:
    8a5c:	e3a00000 	mov	r0, #0, 0
    8a60:	ee070fba 	mcr	15, 0, r0, cr7, cr10, {5}
    8a64:	e12fff1e 	bx	lr

00008a68 <dsb>:
    8a68:	ee070f9a 	mcr	15, 0, r0, cr7, cr10, {4}
    8a6c:	e12fff1e 	bx	lr

00008a70 <or_in32>:
    8a70:	e92d4070 	push	{r4, r5, r6, lr}
    8a74:	e1a04000 	mov	r4, r0
    8a78:	e1a05001 	mov	r5, r1
    8a7c:	ebfffd6a 	bl	802c <GET32>
    8a80:	e1801005 	orr	r1, r0, r5
    8a84:	e1a00004 	mov	r0, r4
    8a88:	ebfffd65 	bl	8024 <PUT32>
    8a8c:	e8bd8070 	pop	{r4, r5, r6, pc}

00008a90 <uart_init>:
    8a90:	e92d4010 	push	{r4, lr}
    8a94:	e3a01002 	mov	r1, #2, 0
    8a98:	e3a0000e 	mov	r0, #14, 0
    8a9c:	eb00005e 	bl	8c1c <gpio_set_function>
    8aa0:	e3a01002 	mov	r1, #2, 0
    8aa4:	e3a0000f 	mov	r0, #15, 0
    8aa8:	eb00005b 	bl	8c1c <gpio_set_function>
    8aac:	ebffffe9 	bl	8a58 <dev_barrier>
    8ab0:	e3a01001 	mov	r1, #1, 0
    8ab4:	e59f0064 	ldr	r0, [pc, #100]	; 8b20 <uart_init+0x90>
    8ab8:	ebffffec 	bl	8a70 <or_in32>
    8abc:	ebffffe5 	bl	8a58 <dev_barrier>
    8ac0:	e59f405c 	ldr	r4, [pc, #92]	; 8b24 <uart_init+0x94>
    8ac4:	e3a01000 	mov	r1, #0, 0
    8ac8:	e1a00004 	mov	r0, r4
    8acc:	ebfffd54 	bl	8024 <PUT32>
    8ad0:	e3a01000 	mov	r1, #0, 0
    8ad4:	e59f004c 	ldr	r0, [pc, #76]	; 8b28 <uart_init+0x98>
    8ad8:	ebfffd51 	bl	8024 <PUT32>
    8adc:	e3a01003 	mov	r1, #3, 0
    8ae0:	e59f0044 	ldr	r0, [pc, #68]	; 8b2c <uart_init+0x9c>
    8ae4:	ebfffd4e 	bl	8024 <PUT32>
    8ae8:	e3a01000 	mov	r1, #0, 0
    8aec:	e59f003c 	ldr	r0, [pc, #60]	; 8b30 <uart_init+0xa0>
    8af0:	ebfffd4b 	bl	8024 <PUT32>
    8af4:	e3a010c7 	mov	r1, #199, 0	; 0xc7
    8af8:	e59f0034 	ldr	r0, [pc, #52]	; 8b34 <uart_init+0xa4>
    8afc:	ebfffd48 	bl	8024 <PUT32>
    8b00:	e59f1030 	ldr	r1, [pc, #48]	; 8b38 <uart_init+0xa8>
    8b04:	e59f0030 	ldr	r0, [pc, #48]	; 8b3c <uart_init+0xac>
    8b08:	ebfffd45 	bl	8024 <PUT32>
    8b0c:	e3a01003 	mov	r1, #3, 0
    8b10:	e1a00004 	mov	r0, r4
    8b14:	ebfffd42 	bl	8024 <PUT32>
    8b18:	ebffffce 	bl	8a58 <dev_barrier>
    8b1c:	e8bd8010 	pop	{r4, pc}
    8b20:	20215004 	eorcs	r5, r1, r4
    8b24:	20215060 	eorcs	r5, r1, r0, rrx
    8b28:	20215044 	eorcs	r5, r1, r4, asr #32
    8b2c:	2021504c 	eorcs	r5, r1, ip, asr #32
    8b30:	20215050 	eorcs	r5, r1, r0, asr r0
    8b34:	20215048 	eorcs	r5, r1, r8, asr #32
    8b38:	0000010e 	andeq	r0, r0, lr, lsl #2
    8b3c:	20215068 	eorcs	r5, r1, r8, rrx

00008b40 <uart_can_getc>:
    8b40:	e92d4010 	push	{r4, lr}
    8b44:	e59f0008 	ldr	r0, [pc, #8]	; 8b54 <uart_can_getc+0x14>
    8b48:	ebfffd37 	bl	802c <GET32>
    8b4c:	e2000001 	and	r0, r0, #1, 0
    8b50:	e8bd8010 	pop	{r4, pc}
    8b54:	20215064 	eorcs	r5, r1, r4, rrx

00008b58 <uart_can_putc>:
    8b58:	e92d4010 	push	{r4, lr}
    8b5c:	e59f0010 	ldr	r0, [pc, #16]	; 8b74 <uart_can_putc+0x1c>
    8b60:	ebfffd31 	bl	802c <GET32>
    8b64:	e3100002 	tst	r0, #2, 0
    8b68:	13a00001 	movne	r0, #1, 0
    8b6c:	03a00000 	moveq	r0, #0, 0
    8b70:	e8bd8010 	pop	{r4, pc}
    8b74:	20215064 	eorcs	r5, r1, r4, rrx

00008b78 <uart_getc>:
    8b78:	e92d4010 	push	{r4, lr}
    8b7c:	ebffffb5 	bl	8a58 <dev_barrier>
    8b80:	ebffffee 	bl	8b40 <uart_can_getc>
    8b84:	e3500000 	cmp	r0, #0, 0
    8b88:	0afffffc 	beq	8b80 <uart_getc+0x8>
    8b8c:	e59f0010 	ldr	r0, [pc, #16]	; 8ba4 <uart_getc+0x2c>
    8b90:	ebfffd25 	bl	802c <GET32>
    8b94:	e6ef4070 	uxtb	r4, r0
    8b98:	ebffffae 	bl	8a58 <dev_barrier>
    8b9c:	e1a00004 	mov	r0, r4
    8ba0:	e8bd8010 	pop	{r4, pc}
    8ba4:	20215040 	eorcs	r5, r1, r0, asr #32

00008ba8 <uart_putc>:
    8ba8:	e92d4010 	push	{r4, lr}
    8bac:	e1a04000 	mov	r4, r0
    8bb0:	ebffffa8 	bl	8a58 <dev_barrier>
    8bb4:	ebffffe7 	bl	8b58 <uart_can_putc>
    8bb8:	e3500000 	cmp	r0, #0, 0
    8bbc:	0afffffc 	beq	8bb4 <uart_putc+0xc>
    8bc0:	e6ef1074 	uxtb	r1, r4
    8bc4:	e59f0008 	ldr	r0, [pc, #8]	; 8bd4 <uart_putc+0x2c>
    8bc8:	ebfffd15 	bl	8024 <PUT32>
    8bcc:	ebffffa1 	bl	8a58 <dev_barrier>
    8bd0:	e8bd8010 	pop	{r4, pc}
    8bd4:	20215040 	eorcs	r5, r1, r0, asr #32

00008bd8 <uart_has_data>:
    8bd8:	e92d4010 	push	{r4, lr}
    8bdc:	ebffff9d 	bl	8a58 <dev_barrier>
    8be0:	ebffffd6 	bl	8b40 <uart_can_getc>
    8be4:	e8bd8010 	pop	{r4, pc}

00008be8 <uart_tx_is_empty>:
    8be8:	e92d4010 	push	{r4, lr}
    8bec:	ebffff99 	bl	8a58 <dev_barrier>
    8bf0:	e59f000c 	ldr	r0, [pc, #12]	; 8c04 <uart_tx_is_empty+0x1c>
    8bf4:	ebfffd0c 	bl	802c <GET32>
    8bf8:	e1a004a0 	lsr	r0, r0, #9
    8bfc:	e2000001 	and	r0, r0, #1, 0
    8c00:	e8bd8010 	pop	{r4, pc}
    8c04:	20215064 	eorcs	r5, r1, r4, rrx

00008c08 <uart_flush_tx>:
    8c08:	e92d4010 	push	{r4, lr}
    8c0c:	ebfffff5 	bl	8be8 <uart_tx_is_empty>
    8c10:	e3500000 	cmp	r0, #0, 0
    8c14:	0afffffc 	beq	8c0c <uart_flush_tx+0x4>
    8c18:	e8bd8010 	pop	{r4, pc}

00008c1c <gpio_set_function>:
    8c1c:	e92d41f0 	push	{r4, r5, r6, r7, r8, lr}
    8c20:	e1a04000 	mov	r4, r0
    8c24:	e1a06001 	mov	r6, r1
    8c28:	e59f503c 	ldr	r5, [pc, #60]	; 8c6c <gpio_set_function+0x50>
    8c2c:	e0853095 	umull	r3, r5, r5, r0
    8c30:	e1a051a5 	lsr	r5, r5, #3
    8c34:	e2857302 	add	r7, r5, #134217728	; 0x8000000
    8c38:	e2877702 	add	r7, r7, #524288	; 0x80000
    8c3c:	e1a07107 	lsl	r7, r7, #2
    8c40:	e1a00007 	mov	r0, r7
    8c44:	ebfffd5e 	bl	81c4 <__wrap_GET32>
    8c48:	e0855105 	add	r5, r5, r5, lsl #2
    8c4c:	e0445085 	sub	r5, r4, r5, lsl #1
    8c50:	e0855085 	add	r5, r5, r5, lsl #1
    8c54:	e3a01007 	mov	r1, #7, 0
    8c58:	e1c01511 	bic	r1, r0, r1, lsl r5
    8c5c:	e1811516 	orr	r1, r1, r6, lsl r5
    8c60:	e1a00007 	mov	r0, r7
    8c64:	ebfffd3e 	bl	8164 <__wrap_PUT32>
    8c68:	e8bd81f0 	pop	{r4, r5, r6, r7, r8, pc}
    8c6c:	cccccccd 	stclgt	12, cr12, [ip], {205}	; 0xcd

00008c70 <gpio_set_output>:
    8c70:	e92d4010 	push	{r4, lr}
    8c74:	e3a01001 	mov	r1, #1, 0
    8c78:	ebffffe7 	bl	8c1c <gpio_set_function>
    8c7c:	e8bd8010 	pop	{r4, pc}

00008c80 <gpio_set_on>:
    8c80:	e92d4010 	push	{r4, lr}
    8c84:	e3a01001 	mov	r1, #1, 0
    8c88:	e1a01011 	lsl	r1, r1, r0
    8c8c:	e59f0004 	ldr	r0, [pc, #4]	; 8c98 <gpio_set_on+0x18>
    8c90:	ebfffd33 	bl	8164 <__wrap_PUT32>
    8c94:	e8bd8010 	pop	{r4, pc}
    8c98:	2020001c 	eorcs	r0, r0, ip, lsl r0

00008c9c <gpio_set_off>:
    8c9c:	e92d4010 	push	{r4, lr}
    8ca0:	e3a01001 	mov	r1, #1, 0
    8ca4:	e1a01011 	lsl	r1, r1, r0
    8ca8:	e59f0004 	ldr	r0, [pc, #4]	; 8cb4 <gpio_set_off+0x18>
    8cac:	ebfffd2c 	bl	8164 <__wrap_PUT32>
    8cb0:	e8bd8010 	pop	{r4, pc}
    8cb4:	20200028 	eorcs	r0, r0, r8, lsr #32

00008cb8 <gpio_write>:
    8cb8:	e92d4010 	push	{r4, lr}
    8cbc:	e3510000 	cmp	r1, #0, 0
    8cc0:	0a000001 	beq	8ccc <gpio_write+0x14>
    8cc4:	ebffffed 	bl	8c80 <gpio_set_on>
    8cc8:	e8bd8010 	pop	{r4, pc}
    8ccc:	ebfffff2 	bl	8c9c <gpio_set_off>
    8cd0:	e8bd8010 	pop	{r4, pc}

00008cd4 <gpio_set_input>:
    8cd4:	e92d4010 	push	{r4, lr}
    8cd8:	e3a01000 	mov	r1, #0, 0
    8cdc:	ebffffce 	bl	8c1c <gpio_set_function>
    8ce0:	e8bd8010 	pop	{r4, pc}

00008ce4 <gpio_read>:
    8ce4:	e92d4010 	push	{r4, lr}
    8ce8:	e1a04000 	mov	r4, r0
    8cec:	e59f000c 	ldr	r0, [pc, #12]	; 8d00 <gpio_read+0x1c>
    8cf0:	ebfffd33 	bl	81c4 <__wrap_GET32>
    8cf4:	e3a03001 	mov	r3, #1, 0
    8cf8:	e0000413 	and	r0, r0, r3, lsl r4
    8cfc:	e8bd8010 	pop	{r4, pc}
    8d00:	20200034 	eorcs	r0, r0, r4, lsr r0

00008d04 <internal_putchar>:
    8d04:	e92d4010 	push	{r4, lr}
    8d08:	e1a04000 	mov	r4, r0
    8d0c:	ebffffa5 	bl	8ba8 <uart_putc>
    8d10:	e1a00004 	mov	r0, r4
    8d14:	e8bd8010 	pop	{r4, pc}

00008d18 <rpi_reset_putc>:
    8d18:	e59f3008 	ldr	r3, [pc, #8]	; 8d28 <rpi_reset_putc+0x10>
    8d1c:	e59f2008 	ldr	r2, [pc, #8]	; 8d2c <rpi_reset_putc+0x14>
    8d20:	e5832000 	str	r2, [r3]
    8d24:	e12fff1e 	bx	lr
    8d28:	00008f80 	andeq	r8, r0, r0, lsl #31
    8d2c:	00008d04 	andeq	r8, r0, r4, lsl #26

00008d30 <rpi_set_putc>:
    8d30:	e59f3004 	ldr	r3, [pc, #4]	; 8d3c <rpi_set_putc+0xc>
    8d34:	e5830000 	str	r0, [r3]
    8d38:	e12fff1e 	bx	lr
    8d3c:	00008f80 	andeq	r8, r0, r0, lsl #31

00008d40 <strcat>:
    8d40:	e1a02000 	mov	r2, r0
    8d44:	e1a03002 	mov	r3, r2
    8d48:	e2822001 	add	r2, r2, #1, 0
    8d4c:	e5d3c000 	ldrb	ip, [r3]
    8d50:	e35c0000 	cmp	ip, #0, 0
    8d54:	1afffffa 	bne	8d44 <strcat+0x4>
    8d58:	e2433001 	sub	r3, r3, #1, 0
    8d5c:	e5d12000 	ldrb	r2, [r1]
    8d60:	e2811001 	add	r1, r1, #1, 0
    8d64:	e5e32001 	strb	r2, [r3, #1]!
    8d68:	e3520000 	cmp	r2, #0, 0
    8d6c:	1afffffa 	bne	8d5c <strcat+0x1c>
    8d70:	e12fff1e 	bx	lr

00008d74 <strncmp>:
    8d74:	e3520000 	cmp	r2, #0, 0
    8d78:	e2422001 	sub	r2, r2, #1, 0
    8d7c:	0a000005 	beq	8d98 <strncmp+0x24>
    8d80:	e4d03001 	ldrb	r3, [r0], #1
    8d84:	e4d1c001 	ldrb	ip, [r1], #1
    8d88:	e153000c 	cmp	r3, ip
    8d8c:	0afffff8 	beq	8d74 <strncmp>
    8d90:	e043000c 	sub	r0, r3, ip
    8d94:	e12fff1e 	bx	lr
    8d98:	e3a00000 	mov	r0, #0, 0
    8d9c:	e12fff1e 	bx	lr

Disassembly of section .rodata:

00008da0 <__FUNCTION__.3935-0xac>:
    8da0:	756f6261 	strbvc	r6, [pc, #-609]!	; 8b47 <uart_can_getc+0x7>
    8da4:	6f742074 	svcvs	0x00742074
    8da8:	61727420 	cmnvs	r2, r0, lsr #8
    8dac:	67206563 	strvs	r6, [r0, -r3, ror #10]!
    8db0:	5f6f6970 	svcpl	0x006f6970
    8db4:	64616572 	strbtvs	r6, [r1], #-1394	; 0xfffffa8e
    8db8:	29303228 	ldmdbcs	r0!, {r3, r5, r9, ip, sp}
    8dbc:	00000a3a 	andeq	r0, r0, sl, lsr sl
    8dc0:	656e6f64 	strbvs	r6, [lr, #-3940]!	; 0xfffff09c
    8dc4:	7067203a 	rsbvc	r2, r7, sl, lsr r0
    8dc8:	725f6f69 	subsvc	r6, pc, #420	; 0x1a4
    8dcc:	28646165 	stmdacs	r4!, {r0, r2, r5, r6, r8, sp, lr}^
    8dd0:	3d293032 	stccc	0, cr3, [r9, #-200]!	; 0xffffff38
    8dd4:	000a6425 	andeq	r6, sl, r5, lsr #8
    8dd8:	43415254 	movtmi	r5, #4692	; 0x1254
    8ddc:	55503a45 	ldrbpl	r3, [r0, #-2629]	; 0xfffff5bb
    8de0:	28323354 	ldmdacs	r2!, {r2, r4, r6, r8, r9, ip, sp}
    8de4:	3d297825 	stccc	8, cr7, [r9, #-148]!	; 0xffffff6c
    8de8:	000a7825 	andeq	r7, sl, r5, lsr #16
    8dec:	43415254 	movtmi	r5, #4692	; 0x1254
    8df0:	45473a45 	strbmi	r3, [r7, #-2629]	; 0xfffff5bb
    8df4:	28323354 	ldmdacs	r2!, {r2, r4, r6, r8, r9, ip, sp}
    8df8:	3d297825 	stccc	8, cr7, [r9, #-148]!	; 0xffffff6c
    8dfc:	000a7825 	andeq	r7, sl, r5, lsr #16
    8e00:	63617274 	cmnvs	r1, #116, 4	; 0x40000007
    8e04:	69732d65 	ldmdbvs	r3!, {r0, r2, r5, r6, r8, sl, fp, sp}^
    8e08:	656c706d 	strbvs	r7, [ip, #-109]!	; 0xffffff93
    8e0c:	0000632e 	andeq	r6, r0, lr, lsr #6
    8e10:	494e4150 	stmdbmi	lr, {r4, r6, r8, lr}^
    8e14:	73253a43 			; <UNDEFINED> instruction: 0x73253a43
    8e18:	3a73253a 	bcc	1cd2308 <__bss_end__+0x1cc8f78>
    8e1c:	253a6425 	ldrcs	r6, [sl, #-1061]!	; 0xfffffbdb
    8e20:	00000a73 	andeq	r0, r0, r3, ror sl
    8e24:	74617473 	strbtvc	r7, [r1], #-1139	; 0xfffffb8d
    8e28:	3d3d2065 	ldccc	0, cr2, [sp, #-404]!	; 0xfffffe6c
    8e2c:	41525420 	cmpmi	r2, r0, lsr #8
    8e30:	4f5f4543 	svcmi	0x005f4543
    8e34:	00004646 	andeq	r4, r0, r6, asr #12
    8e38:	74617473 	strbtvc	r7, [r1], #-1139	; 0xfffffb8d
    8e3c:	3d3d2065 	ldccc	0, cr2, [sp, #-404]!	; 0xfffffe6c
    8e40:	41525420 	cmpmi	r2, r0, lsr #8
    8e44:	4f5f4543 	svcmi	0x005f4543
    8e48:	0000004e 	andeq	r0, r0, lr, asr #32

00008e4c <__FUNCTION__.3935>:
    8e4c:	63617274 	cmnvs	r1, #116, 4	; 0x40000007
    8e50:	74735f65 	ldrbtvc	r5, [r3], #-3941	; 0xfffff09b
    8e54:	00747261 	rsbseq	r7, r4, r1, ror #4

00008e58 <__FUNCTION__.3939>:
    8e58:	63617274 	cmnvs	r1, #116, 4	; 0x40000007
    8e5c:	74735f65 	ldrbtvc	r5, [r3], #-3941	; 0xfffff09b
    8e60:	0000706f 	andeq	r7, r0, pc, rrx
    8e64:	6362696c 	cmnvs	r2, #108, 18	; 0x1b0000
    8e68:	2d61762f 	stclcs	6, cr7, [r1, #-188]!	; 0xffffff44
    8e6c:	6e697270 	mcrvs	2, 3, r7, cr9, cr0, {3}
    8e70:	632e6b74 			; <UNDEFINED> instruction: 0x632e6b74
    8e74:	00000000 	andeq	r0, r0, r0
    8e78:	00000030 	andeq	r0, r0, r0, lsr r0
    8e7c:	33323130 	teqcc	r2, #12
    8e80:	37363534 			; <UNDEFINED> instruction: 0x37363534
    8e84:	00003938 	andeq	r3, r0, r8, lsr r9
    8e88:	33323130 	teqcc	r2, #12
    8e8c:	37363534 			; <UNDEFINED> instruction: 0x37363534
    8e90:	62613938 	rsbvs	r3, r1, #56, 18	; 0xe0000
    8e94:	66656463 	strbtvs	r6, [r5], -r3, ror #8
    8e98:	00000000 	andeq	r0, r0, r0
    8e9c:	00003130 	andeq	r3, r0, r0, lsr r1
    8ea0:	63747570 	cmnvs	r4, #112, 10	; 0x1c000000
    8ea4:	0070665f 	rsbseq	r6, r0, pc, asr r6
    8ea8:	74646977 	strbtvc	r6, [r4], #-2423	; 0xfffff689
    8eac:	203c2068 	eorscs	r2, ip, r8, rrx
    8eb0:	00003233 	andeq	r3, r0, r3, lsr r2
    8eb4:	00786c6c 	rsbseq	r6, r8, ip, ror #24
    8eb8:	6e727473 	mrcvs	4, 3, r7, cr2, cr3, {3}
    8ebc:	28706d63 	ldmdacs	r0!, {r0, r1, r5, r6, r8, sl, fp, sp, lr}^
    8ec0:	2c746d66 	ldclcs	13, cr6, [r4], #-408	; 0xfffffe68
    8ec4:	6c6c2220 	sfmvs	f2, 2, [ip], #-128	; 0xffffff80
    8ec8:	202c2278 	eorcs	r2, ip, r8, ror r2
    8ecc:	3d202933 			; <UNDEFINED> instruction: 0x3d202933
    8ed0:	0030203d 	eorseq	r2, r0, sp, lsr r0
    8ed4:	494e4150 	stmdbmi	lr, {r4, r6, r8, lr}^
    8ed8:	73253a43 			; <UNDEFINED> instruction: 0x73253a43
    8edc:	3a73253a 	bcc	1cd23cc <__bss_end__+0x1cc903c>
    8ee0:	663a6425 	ldrtvs	r6, [sl], -r5, lsr #8
    8ee4:	74616f6c 	strbtvc	r6, [r1], #-3948	; 0xfffff094
    8ee8:	746f6e20 	strbtvc	r6, [pc], #-3616	; 8ef0 <__FUNCTION__.3939+0x98>
    8eec:	616e6520 	cmnvs	lr, r0, lsr #10
    8ef0:	64656c62 	strbtvs	r6, [r5], #-3170	; 0xfffff39e
    8ef4:	0a212121 	beq	851380 <__bss_end__+0x847ff0>
    8ef8:	00000000 	andeq	r0, r0, r0
    8efc:	6e697270 	mcrvs	2, 3, r7, cr9, cr0, {3}
    8f00:	203a6b74 	eorscs	r6, sl, r4, ror fp
    8f04:	20746f6e 	rsbscs	r6, r4, lr, ror #30
    8f08:	646e6168 	strbtvs	r6, [lr], #-360	; 0xfffffe98
    8f0c:	676e696c 	strbvs	r6, [lr, -ip, ror #18]!
    8f10:	65707320 	ldrbvs	r7, [r0, #-800]!	; 0xfffffce0
    8f14:	69666963 	stmdbvs	r6!, {r0, r1, r5, r6, r8, fp, sp, lr}^
    8f18:	27207265 	strcs	r7, [r0, -r5, ror #4]!
    8f1c:	20276325 	eorcs	r6, r7, r5, lsr #6
    8f20:	63736128 	cmnvs	r3, #10
    8f24:	253d6969 	ldrcs	r6, [sp, #-2409]!	; 0xfffff697
    8f28:	000a2964 	andeq	r2, sl, r4, ror #18
    8f2c:	494e4150 	stmdbmi	lr, {r4, r6, r8, lr}^
    8f30:	73253a43 			; <UNDEFINED> instruction: 0x73253a43
    8f34:	3a73253a 	bcc	1cd2424 <__bss_end__+0x1cc9094>
    8f38:	703a6425 	eorsvc	r6, sl, r5, lsr #8
    8f3c:	746e6972 	strbtvc	r6, [lr], #-2418	; 0xfffff68e
    8f40:	7265206b 	rsbvc	r2, r5, #107, 0	; 0x6b
    8f44:	0a726f72 	beq	1ca4d14 <__bss_end__+0x1c9b984>
    8f48:	0000000a 	andeq	r0, r0, sl

00008f4c <__FUNCTION__.3978>:
    8f4c:	74696d65 	strbtvc	r6, [r9], #-3429	; 0xfffff29b
    8f50:	00000000 	andeq	r0, r0, r0

00008f54 <__FUNCTION__.3926>:
    8f54:	5f697072 	svcpl	0x00697072
    8f58:	5f746573 	svcpl	0x00746573
    8f5c:	7074756f 	rsbsvc	r7, r4, pc, ror #10
    8f60:	00007475 	andeq	r7, r0, r5, ror r4

00008f64 <__FUNCTION__.4004>:
    8f64:	705f6176 	subsvc	r6, pc, r6, ror r1	; <UNPREDICTABLE>
    8f68:	746e6972 	strbtvc	r6, [lr], #-2418	; 0xfffff68e
    8f6c:	0000006b 	andeq	r0, r0, fp, rrx
    8f70:	454e4f44 	strbmi	r4, [lr, #-3908]	; 0xfffff0bc
    8f74:	0a212121 	beq	851400 <__bss_end__+0x848070>
	...

Disassembly of section .data:

00008f7c <putk>:
    8f7c:	00008280 	andeq	r8, r0, r0, lsl #5

00008f80 <rpi_putchar>:
    8f80:	00008d04 	andeq	r8, r0, r4, lsl #26

Disassembly of section .bss:

00008f84 <__bss_start__>:
    8f84:	00000000 	andeq	r0, r0, r0

00008f88 <buf.3918>:
	...

00009388 <within_printk_operation>:
	...

Disassembly of section .ARM.attributes:

00000000 <.ARM.attributes>:
   0:	00002a41 	andeq	r2, r0, r1, asr #20
   4:	61656100 	cmnvs	r5, r0, lsl #2
   8:	01006962 	tsteq	r0, r2, ror #18
   c:	00000020 	andeq	r0, r0, r0, lsr #32
  10:	4b5a3605 	blmi	168d82c <__bss_end__+0x168449c>
  14:	08070600 	stmdaeq	r7, {r9, sl}
  18:	12010901 	andne	r0, r1, #16384	; 0x4000
  1c:	15011404 	strne	r1, [r1, #-1028]	; 0xfffffbfc
  20:	18031701 	stmdane	r3, {r0, r8, r9, sl, ip}
  24:	22011a01 	andcs	r1, r1, #4096	; 0x1000
  28:	Address 0x0000000000000028 is out of bounds.


Disassembly of section .comment:

00000000 <.comment>:
   0:	3a434347 	bcc	10d0d24 <__bss_end__+0x10c7994>
   4:	4e472820 	cdpmi	8, 4, cr2, cr7, cr0, {1}
   8:	6f542055 	svcvs	0x00542055
   c:	20736c6f 	rsbscs	r6, r3, pc, ror #24
  10:	20726f66 	rsbscs	r6, r2, r6, ror #30
  14:	206d7241 	rsbcs	r7, sp, r1, asr #4
  18:	65626d45 	strbvs	r6, [r2, #-3397]!	; 0xfffff2bb
  1c:	64656464 	strbtvs	r6, [r5], #-1124	; 0xfffffb9c
  20:	6f725020 	svcvs	0x00725020
  24:	73736563 	cmnvc	r3, #415236096	; 0x18c00000
  28:	2073726f 	rsbscs	r7, r3, pc, ror #4
  2c:	30322d39 	eorscc	r2, r2, r9, lsr sp
  30:	712d3931 			; <UNDEFINED> instruction: 0x712d3931
  34:	616d2d34 	cmnvs	sp, r4, lsr sp
  38:	29726f6a 	ldmdbcs	r2!, {r1, r3, r5, r6, r8, r9, sl, fp, sp, lr}^
  3c:	322e3920 	eorcc	r3, lr, #32, 18	; 0x80000
  40:	3220312e 	eorcc	r3, r0, #-2147483637	; 0x8000000b
  44:	31393130 	teqcc	r9, r0, lsr r1
  48:	20353230 	eorscs	r3, r5, r0, lsr r2
  4c:	6c657228 	sfmvs	f7, 2, [r5], #-160	; 0xffffff60
  50:	65736165 	ldrbvs	r6, [r3, #-357]!	; 0xfffffe9b
  54:	415b2029 	cmpmi	fp, r9, lsr #32
  58:	612f4d52 			; <UNDEFINED> instruction: 0x612f4d52
  5c:	392d6d72 	pushcc	{r1, r4, r5, r6, r8, sl, fp, sp, lr}
  60:	6172622d 	cmnvs	r2, sp, lsr #4
  64:	2068636e 	rsbcs	r6, r8, lr, ror #6
  68:	69766572 	ldmdbvs	r6!, {r1, r4, r5, r6, r8, sl, sp, lr}^
  6c:	6e6f6973 			; <UNDEFINED> instruction: 0x6e6f6973
  70:	37373220 	ldrcc	r3, [r7, -r0, lsr #4]!
  74:	5d393935 			; <UNDEFINED> instruction: 0x5d393935
  78:	43434700 	movtmi	r4, #14080	; 0x3700
  7c:	3128203a 			; <UNDEFINED> instruction: 0x3128203a
  80:	2d393a35 	vldmdbcs	r9!, {s6-s58}
  84:	39313032 	ldmdbcc	r1!, {r1, r4, r5, ip, sp}
  88:	2d34712d 	ldfcss	f7, [r4, #-180]!	; 0xffffff4c
  8c:	75627530 	strbvc	r7, [r2, #-1328]!	; 0xfffffad0
  90:	3175746e 	cmncc	r5, lr, ror #8
  94:	2e392029 	cdpcs	0, 3, cr2, cr9, cr9, {1}
  98:	20312e32 	eorscs	r2, r1, r2, lsr lr
  9c:	39313032 	ldmdbcc	r1!, {r1, r4, r5, ip, sp}
  a0:	35323031 	ldrcc	r3, [r2, #-49]!	; 0xffffffcf
  a4:	65722820 	ldrbvs	r2, [r2, #-2080]!	; 0xfffff7e0
  a8:	7361656c 	cmnvc	r1, #108, 10	; 0x1b000000
  ac:	5b202965 	blpl	80a648 <__bss_end__+0x8012b8>
  b0:	2f4d5241 	svccs	0x004d5241
  b4:	2d6d7261 	sfmcs	f7, 2, [sp, #-388]!	; 0xfffffe7c
  b8:	72622d39 	rsbvc	r2, r2, #3648	; 0xe40
  bc:	68636e61 	stmdavs	r3!, {r0, r5, r6, r9, sl, fp, sp, lr}^
  c0:	76657220 	strbtvc	r7, [r5], -r0, lsr #4
  c4:	6f697369 	svcvs	0x00697369
  c8:	3732206e 	ldrcc	r2, [r2, -lr, rrx]!
  cc:	39393537 	ldmdbcc	r9!, {r0, r1, r2, r4, r5, r8, sl, ip, sp}
  d0:	Address 0x00000000000000d0 is out of bounds.


Disassembly of section .debug_info:

00000000 <.debug_info>:
       0:	000001a2 	andeq	r0, r0, r2, lsr #3
       4:	00000004 	andeq	r0, r0, r4
       8:	01040000 	mrseq	r0, (UNDEF: 4)
       c:	000000ef 	andeq	r0, r0, pc, ror #1
      10:	0000a60c 	andeq	sl, r0, ip, lsl #12
      14:	00001500 	andeq	r1, r0, r0, lsl #10
      18:	00803400 	addeq	r3, r0, r0, lsl #8
      1c:	00004000 	andeq	r4, r0, r0
      20:	00000000 	andeq	r0, r0, r0
      24:	05040200 	streq	r0, [r4, #-512]	; 0xfffffe00
      28:	00746e69 	rsbseq	r6, r4, r9, ror #28
      2c:	be070403 	cdplt	4, 0, cr0, cr7, cr3, {0}
      30:	03000000 	movweq	r0, #0
      34:	006e0601 	rsbeq	r0, lr, r1, lsl #12
      38:	02030000 	andeq	r0, r3, #0, 0
      3c:	0000e505 	andeq	lr, r0, r5, lsl #10
      40:	05040300 	streq	r0, [r4, #-768]	; 0xfffffd00
      44:	000000d0 	ldrdeq	r0, [r0], -r0	; <UNPREDICTABLE>
      48:	cb050803 	blgt	14205c <__bss_end__+0x138ccc>
      4c:	03000000 	movweq	r0, #0
      50:	006c0801 	rsbeq	r0, ip, r1, lsl #16
      54:	02030000 	andeq	r0, r3, #0, 0
      58:	00009307 	andeq	r9, r0, r7, lsl #6
      5c:	07040300 	streq	r0, [r4, -r0, lsl #6]
      60:	000000b9 	strheq	r0, [r0], -r9
      64:	b4070803 	strlt	r0, [r7], #-2051	; 0xfffff7fd
      68:	04000000 	streq	r0, [r0], #-0
      6c:	00000025 	andeq	r0, r0, r5, lsr #32
      70:	0000007a 	andeq	r0, r0, sl, ror r0
      74:	00002505 	andeq	r2, r0, r5, lsl #10
      78:	d9060000 	stmdble	r6, {}	; <UNPREDICTABLE>
      7c:	02000000 	andeq	r0, r0, #0, 0
      80:	00860e1c 	addeq	r0, r6, ip, lsl lr
      84:	04070000 	streq	r0, [r7], #-0
      88:	0000006b 	andeq	r0, r0, fp, rrx
      8c:	00002504 	andeq	r2, r0, r4, lsl #10
      90:	00009b00 	andeq	r9, r0, r0, lsl #22
      94:	009b0500 	addseq	r0, fp, r0, lsl #10
      98:	07000000 	streq	r0, [r0, -r0]
      9c:	0000a804 	andeq	sl, r0, r4, lsl #16
      a0:	08010300 	stmdaeq	r1, {r8, r9}
      a4:	00000075 	andeq	r0, r0, r5, ror r0
      a8:	0000a108 	andeq	sl, r0, r8, lsl #2
      ac:	03220600 			; <UNDEFINED> instruction: 0x03220600
      b0:	21020000 	mrscs	r0, (UNDEF: 2)
      b4:	0000b90e 	andeq	fp, r0, lr, lsl #18
      b8:	8c040700 	stchi	7, cr0, [r4], {-0}
      bc:	09000000 	stmdbeq	r0, {}	; <UNPREDICTABLE>
      c0:	000001a4 	andeq	r0, r0, r4, lsr #3
      c4:	34060601 	strcc	r0, [r6], #-1537	; 0xfffff9ff
      c8:	40000080 	andmi	r0, r0, r0, lsl #1
      cc:	01000000 	mrseq	r0, (UNDEF: 0)
      d0:	00015d9c 	muleq	r1, ip, sp
      d4:	00760a00 	rsbseq	r0, r6, r0, lsl #20
      d8:	25090b01 	strcs	r0, [r9, #-2817]	; 0xfffff4ff
      dc:	04000000 	streq	r0, [r0], #-0
      e0:	00000000 	andeq	r0, r0, r0
      e4:	0b000000 	bleq	ec <__code_start__-0x7f14>
      e8:	0000803c 	andeq	r8, r0, ip, lsr r0
      ec:	0000015d 	andeq	r0, r0, sp, asr r1
      f0:	0080440c 	addeq	r4, r0, ip, lsl #8
      f4:	00016900 	andeq	r6, r1, r0, lsl #18
      f8:	00010700 	andeq	r0, r1, r0, lsl #14
      fc:	50010d00 	andpl	r0, r1, r0, lsl #26
     100:	8da00305 	stchi	3, cr0, [r0, #20]!
     104:	0c000000 	stceq	0, cr0, [r0], {-0}
     108:	0000804c 	andeq	r8, r0, ip, asr #32
     10c:	00000175 	andeq	r0, r0, r5, ror r1
     110:	0000011a 	andeq	r0, r0, sl, lsl r1
     114:	0150010d 	cmpeq	r0, sp, lsl #2
     118:	540c0030 	strpl	r0, [ip], #-48	; 0xffffffd0
     11c:	81000080 	smlabbhi	r0, r0, r0, r0
     120:	2d000001 	stccs	0, cr0, [r0, #-4]
     124:	0d000001 	stceq	0, cr0, [r0, #-4]
     128:	44015001 	strmi	r5, [r1], #-1
     12c:	805c0b00 	subshi	r0, ip, r0, lsl #22
     130:	018d0000 	orreq	r0, sp, r0
     134:	680c0000 	stmdavs	ip, {}	; <UNPREDICTABLE>
     138:	69000080 	stmdbvs	r0, {r7}
     13c:	53000001 	movwpl	r0, #1
     140:	0d000001 	stceq	0, cr0, [r0, #-4]
     144:	03055001 	movweq	r5, #20481	; 0x5001
     148:	00008dc0 	andeq	r8, r0, r0, asr #27
     14c:	0251010d 	subseq	r0, r1, #1073741827	; 0x40000003
     150:	0b000074 	bleq	328 <__code_start__-0x7cd8>
     154:	0000806c 	andeq	r8, r0, ip, rrx
     158:	00000199 	muleq	r0, r9, r1
     15c:	00620e00 	rsbeq	r0, r2, r0, lsl #28
     160:	00620000 	rsbeq	r0, r2, r0
     164:	39020000 	stmdbcc	r2, {}	; <UNPREDICTABLE>
     168:	02b40e06 	adcseq	r0, r4, #96	; 0x60
     16c:	02b40000 	adcseq	r0, r4, #0, 0
     170:	28020000 	stmdacs	r2, {}	; <UNPREDICTABLE>
     174:	00870e06 	addeq	r0, r7, r6, lsl #28
     178:	00870000 	addeq	r0, r7, r0
     17c:	0b030000 	bleq	c0184 <__bss_end__+0xb6df4>
     180:	000b0e06 	andeq	r0, fp, r6, lsl #28
     184:	000b0000 	andeq	r0, fp, r0
     188:	24040000 	strcs	r0, [r4], #-0
     18c:	00000e05 	andeq	r0, r0, r5, lsl #28
     190:	00000000 	andeq	r0, r0, r0
     194:	0f030000 	svceq	0x00030000
     198:	007a0e06 	rsbseq	r0, sl, r6, lsl #28
     19c:	007a0000 	rsbseq	r0, sl, r0
     1a0:	67020000 	strvs	r0, [r2, -r0]
     1a4:	03d80006 	bicseq	r0, r8, #6, 0
     1a8:	00040000 	andeq	r0, r4, r0
     1ac:	000000c6 	andeq	r0, r0, r6, asr #1
     1b0:	00ef0104 	rsceq	r0, pc, r4, lsl #2
     1b4:	200c0000 	andcs	r0, ip, r0
     1b8:	5a000002 	bpl	1c8 <__code_start__-0x7e38>
     1bc:	74000002 	strvc	r0, [r0], #-2
     1c0:	b4000080 	strlt	r0, [r0], #-128	; 0xffffff80
     1c4:	a8000001 	stmdage	r0, {r0}
     1c8:	02000000 	andeq	r0, r0, #0, 0
     1cc:	6e690504 	cdpvs	5, 6, cr0, cr9, cr4, {0}
     1d0:	04030074 	streq	r0, [r3], #-116	; 0xffffff8c
     1d4:	0000be07 	andeq	fp, r0, r7, lsl #28
     1d8:	06010300 	streq	r0, [r1], -r0, lsl #6
     1dc:	0000006e 	andeq	r0, r0, lr, rrx
     1e0:	e5050203 	str	r0, [r5, #-515]	; 0xfffffdfd
     1e4:	03000000 	movweq	r0, #0
     1e8:	00d00504 	sbcseq	r0, r0, r4, lsl #10
     1ec:	08030000 	stmdaeq	r3, {}	; <UNPREDICTABLE>
     1f0:	0000cb05 	andeq	ip, r0, r5, lsl #22
     1f4:	08010300 	stmdaeq	r1, {r8, r9}
     1f8:	0000006c 	andeq	r0, r0, ip, rrx
     1fc:	93070203 	movwls	r0, #29187	; 0x7203
     200:	04000000 	streq	r0, [r0], #-0
     204:	00000239 	andeq	r0, r0, r9, lsr r2
     208:	69193403 	ldmdbvs	r9, {r0, r1, sl, ip, sp}
     20c:	03000000 	movweq	r0, #0
     210:	00b90704 	adcseq	r0, r9, r4, lsl #14
     214:	08030000 	stmdaeq	r3, {}	; <UNPREDICTABLE>
     218:	0000b407 	andeq	fp, r0, r7, lsl #8
     21c:	00250500 	eoreq	r0, r5, r0, lsl #10
     220:	00860000 	addeq	r0, r6, r0
     224:	25060000 	strcs	r0, [r6, #-0]
     228:	00000000 	andeq	r0, r0, r0
     22c:	0000d907 	andeq	sp, r0, r7, lsl #18
     230:	0e1c0200 	cdpeq	2, 1, cr0, cr12, cr0, {0}
     234:	00000092 	muleq	r0, r2, r0
     238:	00770408 	rsbseq	r0, r7, r8, lsl #8
     23c:	25050000 	strcs	r0, [r5, #-0]
     240:	a7000000 	strge	r0, [r0, -r0]
     244:	06000000 	streq	r0, [r0], -r0
     248:	000000a7 	andeq	r0, r0, r7, lsr #1
     24c:	b4040800 	strlt	r0, [r4], #-2048	; 0xfffff800
     250:	03000000 	movweq	r0, #0
     254:	00750801 	rsbseq	r0, r5, r1, lsl #16
     258:	ad090000 	stcge	0, cr0, [r9, #-0]
     25c:	07000000 	streq	r0, [r0, -r0]
     260:	00000322 	andeq	r0, r0, r2, lsr #6
     264:	c50e2102 	strgt	r2, [lr, #-258]	; 0xfffffefe
     268:	08000000 	stmdaeq	r0, {}	; <UNPREDICTABLE>
     26c:	00009804 	andeq	r9, r0, r4, lsl #16
     270:	02420a00 	subeq	r0, r2, #0, 20
     274:	18010000 	stmdane	r1, {}	; <UNPREDICTABLE>
     278:	00002c0a 	andeq	r2, r0, sl, lsl #24
     27c:	88030500 	stmdahi	r3, {r8, sl}
     280:	0b000093 	bleq	4d4 <__code_start__-0x7b2c>
     284:	004f0107 	subeq	r0, pc, r7, lsl #2
     288:	21010000 	mrscs	r0, (UNDEF: 1)
     28c:	0000fe06 	andeq	pc, r0, r6, lsl #28
     290:	022f0c00 	eoreq	r0, pc, #0, 24
     294:	0c000000 	stceq	0, cr0, [r0], {-0}
     298:	000001e2 	andeq	r0, r0, r2, ror #3
     29c:	02a10c01 	adceq	r0, r1, #256	; 0x100
     2a0:	00020000 	andeq	r0, r2, r0
     2a4:	0001b90d 	andeq	fp, r1, sp, lsl #18
     2a8:	0c260100 	stfeqs	f0, [r6], #-0
     2ac:	00000025 	andeq	r0, r0, r5, lsr #32
     2b0:	8f840305 	svchi	0x00840305
     2b4:	130e0000 	movwne	r0, #57344	; 0xe000
     2b8:	01000002 	tsteq	r0, r2
     2bc:	002c0a4e 	eoreq	r0, ip, lr, asr #20
     2c0:	81c40000 	bichi	r0, r4, r0
     2c4:	00640000 	rsbeq	r0, r4, r0
     2c8:	9c010000 	stcls	0, cr0, [r1], {-0}
     2cc:	0000017b 	andeq	r0, r0, fp, ror r1
     2d0:	0001eb0f 	andeq	lr, r1, pc, lsl #22
     2d4:	204e0100 	subcs	r0, lr, r0, lsl #2
     2d8:	0000002c 	andeq	r0, r0, ip, lsr #32
     2dc:	00000026 	andeq	r0, r0, r6, lsr #32
     2e0:	00000022 	andeq	r0, r0, r2, lsr #32
     2e4:	01007610 	tsteq	r0, r0, lsl r6
     2e8:	002c0e4f 	eoreq	r0, ip, pc, asr #28
     2ec:	004c0000 	subeq	r0, ip, r0
     2f0:	00440000 	subeq	r0, r4, r0
     2f4:	d0110000 	andsle	r0, r1, r0
     2f8:	ab000081 	blge	504 <__code_start__-0x7afc>
     2fc:	64000003 	strvs	r0, [r0], #-3
     300:	12000001 	andne	r0, r0, #1, 0
     304:	75025001 	strvc	r5, [r2, #-1]
     308:	14130000 	ldrne	r0, [r3], #-0
     30c:	dd000082 	stcle	0, cr0, [r0, #-520]	; 0xfffffdf8
     310:	12000001 	andne	r0, r0, #1, 0
     314:	75025001 	strvc	r5, [r2, #-1]
     318:	51011200 	mrspl	r1, R9_usr
     31c:	00007402 	andeq	r7, r0, r2, lsl #8
     320:	01d51400 	bicseq	r1, r5, r0, lsl #8
     324:	44010000 	strmi	r0, [r1], #-0
     328:	00816406 	addeq	r6, r1, r6, lsl #8
     32c:	00006000 	andeq	r6, r0, r0
     330:	dd9c0100 	ldfles	f0, [ip]
     334:	0f000001 	svceq	0x00000001
     338:	000001eb 	andeq	r0, r0, fp, ror #3
     33c:	2c1c4401 	cfldrscs	mvf4, [ip], {1}
     340:	88000000 	stmdahi	r0, {}	; <UNPREDICTABLE>
     344:	80000000 	andhi	r0, r0, r0
     348:	15000000 	strne	r0, [r0, #-0]
     34c:	006c6176 	rsbeq	r6, ip, r6, ror r1
     350:	2c2b4401 	cfstrscs	mvf4, [fp], #-4
     354:	c4000000 	strgt	r0, [r0], #-0
     358:	bc000000 	stclt	0, cr0, [r0], {-0}
     35c:	11000000 	mrsne	r0, (UNDEF: 0)
     360:	0000818c 	andeq	r8, r0, ip, lsl #3
     364:	000003b7 			; <UNDEFINED> instruction: 0x000003b7
     368:	000001d3 	ldrdeq	r0, [r0], -r3
     36c:	02500112 	subseq	r0, r0, #-2147483644	; 0x80000004
     370:	01120074 	tsteq	r2, r4, ror r0
     374:	00750251 	rsbseq	r0, r5, r1, asr r2
     378:	81b01600 	lslshi	r1, r0, #12
     37c:	023d0000 	eorseq	r0, sp, #0, 0
     380:	17000000 	strne	r0, [r0, -r0]
     384:	000001bf 			; <UNDEFINED> instruction: 0x000001bf
     388:	900d3f01 	andls	r3, sp, r1, lsl #30
     38c:	1c000080 	stcne	0, cr0, [r0], {128}	; 0x80
     390:	01000000 	mrseq	r0, (UNDEF: 0)
     394:	00023d9c 	muleq	r2, ip, sp
     398:	01eb0f00 	mvneq	r0, r0, lsl #30
     39c:	3f010000 	svccc	0x00010000
     3a0:	00005d21 	andeq	r5, r0, r1, lsr #26
     3a4:	0000fe00 	andeq	pc, r0, r0, lsl #28
     3a8:	0000f800 	andeq	pc, r0, r0, lsl #16
     3ac:	61761500 	cmnvs	r6, r0, lsl #10
     3b0:	3f01006c 	svccc	0x0001006c
     3b4:	00005d30 	andeq	r5, r0, r0, lsr sp
     3b8:	00013000 	andeq	r3, r1, r0
     3bc:	00012a00 	andeq	r2, r1, r0, lsl #20
     3c0:	80a41300 	adchi	r1, r4, r0, lsl #6
     3c4:	03c30000 	biceq	r0, r3, #0, 0
     3c8:	01120000 	tsteq	r2, r0
     3cc:	ec030550 	cfstr32	mvfx0, [r3], {80}	; 0x50
     3d0:	1200008d 	andne	r0, r0, #141, 0	; 0x8d
     3d4:	f3035101 	vrhadd.u8	d5, d3, d1
     3d8:	01125001 	tsteq	r2, r1
     3dc:	01f30352 	mvnseq	r0, r2, asr r3
     3e0:	17000051 	smlsdne	r0, r1, r0, r0
     3e4:	000001ca 	andeq	r0, r0, sl, asr #3
     3e8:	740d3c01 	strvc	r3, [sp], #-3073	; 0xfffff3ff
     3ec:	1c000080 	stcne	0, cr0, [r0], {128}	; 0x80
     3f0:	01000000 	mrseq	r0, (UNDEF: 0)
     3f4:	00029d9c 	muleq	r2, ip, sp
     3f8:	01eb0f00 	mvneq	r0, r0, lsl #30
     3fc:	3c010000 	stccc	0, cr0, [r1], {-0}
     400:	00005d21 	andeq	r5, r0, r1, lsr #26
     404:	00016200 	andeq	r6, r1, r0, lsl #4
     408:	00015c00 	andeq	r5, r1, r0, lsl #24
     40c:	61761500 	cmnvs	r6, r0, lsl #10
     410:	3c01006c 	stccc	0, cr0, [r1], {108}	; 0x6c
     414:	00005d30 	andeq	r5, r0, r0, lsr sp
     418:	00019400 	andeq	r9, r1, r0, lsl #8
     41c:	00018e00 	andeq	r8, r1, r0, lsl #28
     420:	80881300 	addhi	r1, r8, r0, lsl #6
     424:	03c30000 	biceq	r0, r3, #0, 0
     428:	01120000 	tsteq	r2, r0
     42c:	d8030550 	stmdale	r3, {r4, r6, r8, sl}
     430:	1200008d 	andne	r0, r0, #141, 0	; 0x8d
     434:	f3035101 	vrhadd.u8	d5, d3, d1
     438:	01125001 	tsteq	r2, r1
     43c:	01f30352 	mvnseq	r0, r2, asr r3
     440:	14000051 	strne	r0, [r0], #-81	; 0xffffffaf
     444:	00000000 	andeq	r0, r0, r0
     448:	08063501 	stmdaeq	r6, {r0, r8, sl, ip, sp}
     44c:	5c000081 	stcpl	0, cr0, [r0], {129}	; 0x81
     450:	01000000 	mrseq	r0, (UNDEF: 0)
     454:	0003059c 	muleq	r3, ip, r5
     458:	01f91800 	mvnseq	r1, r0, lsl #16
     45c:	03150000 	tsteq	r5, #0, 0
     460:	03050000 	movweq	r0, #20480	; 0x5000
     464:	00008e58 	andeq	r8, r0, r8, asr lr
     468:	00814c11 	addeq	r4, r1, r1, lsl ip
     46c:	0003c300 	andeq	ip, r3, r0, lsl #6
     470:	0002fb00 	andeq	pc, r2, r0, lsl #22
     474:	50011200 	andpl	r1, r1, r0, lsl #4
     478:	8e100305 	cdphi	3, 1, cr0, cr0, cr5, {0}
     47c:	01120000 	tsteq	r2, r0
     480:	00030551 	andeq	r0, r3, r1, asr r5
     484:	1200008e 	andne	r0, r0, #142, 0	; 0x8e
     488:	03055201 	movweq	r5, #20993	; 0x5201
     48c:	00008e58 	andeq	r8, r0, r8, asr lr
     490:	02530112 	subseq	r0, r3, #-2147483644	; 0x80000004
     494:	02123608 	andseq	r3, r2, #8, 12	; 0x800000
     498:	0305007d 	movweq	r0, #20605	; 0x507d
     49c:	00008e38 	andeq	r8, r0, r8, lsr lr
     4a0:	81501600 	cmphi	r0, r0, lsl #12
     4a4:	03cf0000 	biceq	r0, pc, #0, 0
     4a8:	19000000 	stmdbne	r0, {}	; <UNPREDICTABLE>
     4ac:	000000b4 	strheq	r0, [r0], -r4
     4b0:	00000315 	andeq	r0, r0, r5, lsl r3
     4b4:	00002c1a 	andeq	r2, r0, sl, lsl ip
     4b8:	09000a00 	stmdbeq	r0, {r9, fp}
     4bc:	00000305 	andeq	r0, r0, r5, lsl #6
     4c0:	00008714 	andeq	r8, r0, r4, lsl r7
     4c4:	062e0100 	strteq	r0, [lr], -r0, lsl #2
     4c8:	000080ac 	andeq	r8, r0, ip, lsr #1
     4cc:	0000005c 	andeq	r0, r0, ip, asr r0
     4d0:	03969c01 	orrseq	r9, r6, #256	; 0x100
     4d4:	f00f0000 			; <UNDEFINED> instruction: 0xf00f0000
     4d8:	01000001 	tsteq	r0, r1
     4dc:	0025162e 	eoreq	r1, r5, lr, lsr #12
     4e0:	01c40000 	biceq	r0, r4, r0
     4e4:	01c00000 	biceq	r0, r0, r0
     4e8:	f9180000 			; <UNDEFINED> instruction: 0xf9180000
     4ec:	a6000001 	strge	r0, [r0], -r1
     4f0:	05000003 	streq	r0, [r0, #-3]
     4f4:	008e4c03 	addeq	r4, lr, r3, lsl #24
     4f8:	80f01100 	rscshi	r1, r0, r0, lsl #2
     4fc:	03c30000 	biceq	r0, r3, #0, 0
     500:	038c0000 	orreq	r0, ip, #0, 0
     504:	01120000 	tsteq	r2, r0
     508:	10030550 	andne	r0, r3, r0, asr r5
     50c:	1200008e 	andne	r0, r0, #142, 0	; 0x8e
     510:	03055101 	movweq	r5, #20737	; 0x5101
     514:	00008e00 	andeq	r8, r0, r0, lsl #28
     518:	05520112 	ldrbeq	r0, [r2, #-274]	; 0xfffffeee
     51c:	008e4c03 	addeq	r4, lr, r3, lsl #24
     520:	53011200 	movwpl	r1, #4608	; 0x1200
     524:	122f0802 	eorne	r0, pc, #131072	; 0x20000
     528:	05007d02 	streq	r7, [r0, #-3330]	; 0xfffff2fe
     52c:	008e2403 	addeq	r2, lr, r3, lsl #8
     530:	f4160000 			; <UNDEFINED> instruction: 0xf4160000
     534:	cf000080 	svcgt	0x00000080
     538:	00000003 	andeq	r0, r0, r3
     53c:	0000b419 	andeq	fp, r0, r9, lsl r4
     540:	0003a600 	andeq	sl, r3, r0, lsl #12
     544:	002c1a00 	eoreq	r1, ip, r0, lsl #20
     548:	000b0000 	andeq	r0, fp, r0
     54c:	00039609 	andeq	r9, r3, r9, lsl #12
     550:	01ac1b00 			; <UNDEFINED> instruction: 0x01ac1b00
     554:	01ac0000 			; <UNDEFINED> instruction: 0x01ac0000
     558:	1c010000 	stcne	0, cr0, [r1], {-0}
     55c:	02061b0a 	andeq	r1, r6, #10240	; 0x2800
     560:	02060000 	andeq	r0, r6, #0, 0
     564:	1e010000 	cdpne	0, 0, cr0, cr1, cr0, {0}
     568:	02b41b06 	adcseq	r1, r4, #6144	; 0x1800
     56c:	02b40000 	adcseq	r0, r4, #0, 0
     570:	28020000 	stmdacs	r2, {}	; <UNPREDICTABLE>
     574:	007a1b06 	rsbseq	r1, sl, r6, lsl #22
     578:	007a0000 	rsbseq	r0, sl, r0
     57c:	67020000 	strvs	r0, [r2, -r0]
     580:	019d0006 	orrseq	r0, sp, r6
     584:	00040000 	andeq	r0, r4, r0
     588:	00000265 	andeq	r0, r0, r5, ror #4
     58c:	00ef0104 	rsceq	r0, pc, r4, lsl #2
     590:	ca0c0000 	bgt	300598 <__bss_end__+0x2f7208>
     594:	e7000002 	str	r0, [r0, -r2]
     598:	28000002 	stmdacs	r0, {r1}
     59c:	58000082 	stmdapl	r0, {r1, r7}
     5a0:	ac000000 	stcge	0, cr0, [r0], {-0}
     5a4:	02000002 	andeq	r0, r0, #2, 0
     5a8:	000002bb 			; <UNDEFINED> instruction: 0x000002bb
     5ac:	311b2802 	tstcc	fp, r2, lsl #16
     5b0:	03000000 	movweq	r0, #0
     5b4:	000002dd 	ldrdeq	r0, [r0], -sp
     5b8:	48000404 	stmdami	r0, {r2, sl}
     5bc:	04000000 	streq	r0, [r0], #-0
     5c0:	000002d8 	ldrdeq	r0, [r0], -r8
     5c4:	00000048 	andeq	r0, r0, r8, asr #32
     5c8:	04050000 	streq	r0, [r5], #-0
     5cc:	0002df02 	andeq	sp, r2, r2, lsl #30
     5d0:	18630200 	stmdane	r3!, {r9}^
     5d4:	00000025 	andeq	r0, r0, r5, lsr #32
     5d8:	69050406 	stmdbvs	r5, {r1, r2, sl}
     5dc:	0700746e 	streq	r7, [r0, -lr, ror #8]
     5e0:	00be0704 	adcseq	r0, lr, r4, lsl #14
     5e4:	01070000 	mrseq	r0, (UNDEF: 7)
     5e8:	00006e06 	andeq	r6, r0, r6, lsl #28
     5ec:	05020700 	streq	r0, [r2, #-1792]	; 0xfffff900
     5f0:	000000e5 	andeq	r0, r0, r5, ror #1
     5f4:	d0050407 	andle	r0, r5, r7, lsl #8
     5f8:	07000000 	streq	r0, [r0, -r0]
     5fc:	00cb0508 	sbceq	r0, fp, r8, lsl #10
     600:	01070000 	mrseq	r0, (UNDEF: 7)
     604:	00006c08 	andeq	r6, r0, r8, lsl #24
     608:	07020700 	streq	r0, [r2, -r0, lsl #14]
     60c:	00000093 	muleq	r0, r3, r0
     610:	b9070407 	stmdblt	r7, {r0, r1, r2, sl}
     614:	07000000 	streq	r0, [r0, -r0]
     618:	00b40708 	adcseq	r0, r4, r8, lsl #14
     61c:	56080000 	strpl	r0, [r8], -r0
     620:	ab000000 	blge	628 <__code_start__-0x79d8>
     624:	09000000 	stmdbeq	r0, {}	; <UNPREDICTABLE>
     628:	00000056 	andeq	r0, r0, r6, asr r0
     62c:	00d90a00 	sbcseq	r0, r9, r0, lsl #20
     630:	1c030000 	stcne	0, cr0, [r3], {-0}
     634:	0000b70e 	andeq	fp, r0, lr, lsl #14
     638:	9c040b00 			; <UNDEFINED> instruction: 0x9c040b00
     63c:	08000000 	stmdaeq	r0, {}	; <UNPREDICTABLE>
     640:	00000056 	andeq	r0, r0, r6, asr r0
     644:	000000cc 	andeq	r0, r0, ip, asr #1
     648:	0000cc09 	andeq	ip, r0, r9, lsl #24
     64c:	040b0000 	streq	r0, [fp], #-0
     650:	000000d9 	ldrdeq	r0, [r0], -r9
     654:	75080107 	strvc	r0, [r8, #-263]	; 0xfffffef9
     658:	0c000000 	stceq	0, cr0, [r0], {-0}
     65c:	000000d2 	ldrdeq	r0, [r0], -r2
     660:	0003220a 	andeq	r2, r3, sl, lsl #4
     664:	0e210300 	cdpeq	3, 2, cr0, cr1, cr0, {0}
     668:	000000ea 	andeq	r0, r0, sl, ror #1
     66c:	00bd040b 	adcseq	r0, sp, fp, lsl #8
     670:	b40d0000 	strlt	r0, [sp], #-0
     674:	01000002 	tsteq	r0, r2
     678:	00560506 	subseq	r0, r6, r6, lsl #10
     67c:	82280000 	eorhi	r0, r8, #0, 0
     680:	00580000 	subseq	r0, r8, r0
     684:	9c010000 	stcls	0, cr0, [r1], {-0}
     688:	00000183 	andeq	r0, r0, r3, lsl #3
     68c:	746d660e 	strbtvc	r6, [sp], #-1550	; 0xfffff9f2
     690:	18060100 	stmdane	r6, {r8}
     694:	000000cc 	andeq	r0, r0, ip, asr #1
     698:	0f709102 	svceq	0x00709102
     69c:	66756210 			; <UNDEFINED> instruction: 0x66756210
     6a0:	11080100 	mrsne	r0, (UNDEF: 24)
     6a4:	00000183 	andeq	r0, r0, r3, lsl #3
     6a8:	8f880305 	svchi	0x00880305
     6ac:	ac110000 	ldcge	0, cr0, [r1], {-0}
     6b0:	01000002 	tsteq	r0, r2
     6b4:	004a0d09 	subeq	r0, sl, r9, lsl #26
     6b8:	91020000 	mrsls	r0, (UNDEF: 2)
     6bc:	7a73125c 	bvc	1cc5034 <__bss_end__+0x1cbbca4>
     6c0:	0d0c0100 	stfeqs	f0, [ip, #-0]
     6c4:	00000056 	andeq	r0, r0, r6, asr r0
     6c8:	000001eb 	andeq	r0, r0, fp, ror #3
     6cc:	000001e5 	andeq	r0, r0, r5, ror #3
     6d0:	00825013 	addeq	r5, r2, r3, lsl r0
     6d4:	00019400 	andeq	r9, r1, r0, lsl #8
     6d8:	00017600 	andeq	r7, r1, r0, lsl #12
     6dc:	50011400 	andpl	r1, r1, r0, lsl #8
     6e0:	14007502 	strne	r7, [r0], #-1282	; 0xfffffafe
     6e4:	0a035101 	beq	d4af0 <__bss_end__+0xcb760>
     6e8:	01140400 	tsteq	r4, r0, lsl #8
     6ec:	48910352 	ldmmi	r1, {r1, r4, r6, r8, r9}
     6f0:	53011406 	movwpl	r1, #5126	; 0x1406
     6f4:	004c9102 	subeq	r9, ip, r2, lsl #2
     6f8:	00826415 	addeq	r6, r2, r5, lsl r4
     6fc:	50011400 	andpl	r1, r1, r0, lsl #8
     700:	00007502 	andeq	r7, r0, r2, lsl #10
     704:	00d21600 	sbcseq	r1, r2, r0, lsl #12
     708:	01940000 	orrseq	r0, r4, r0
     70c:	5d170000 	ldcpl	0, cr0, [r7, #-0]
     710:	ff000000 			; <UNDEFINED> instruction: 0xff000000
     714:	b1180003 	tstlt	r8, r3
     718:	b1000002 	tstlt	r0, r2
     71c:	05000002 	streq	r0, [r0, #-2]
     720:	f3000502 	vrshl.u8	d0, d2, d0
     724:	04000000 	streq	r0, [r0], #-0
     728:	0003a700 	andeq	sl, r3, r0, lsl #14
     72c:	ef010400 	svc	0x00010400
     730:	0c000000 	stceq	0, cr0, [r0], {-0}
     734:	00000327 	andeq	r0, r0, r7, lsr #6
     738:	000002e7 	andeq	r0, r0, r7, ror #5
     73c:	00008280 	andeq	r8, r0, r0, lsl #5
     740:	00000034 	andeq	r0, r0, r4, lsr r0
     744:	000003cb 	andeq	r0, r0, fp, asr #7
     748:	69050402 	stmdbvs	r5, {r1, sl}
     74c:	0300746e 	movweq	r7, #1134	; 0x46e
     750:	00be0704 	adcseq	r0, lr, r4, lsl #14
     754:	01030000 	mrseq	r0, (UNDEF: 3)
     758:	00006e06 	andeq	r6, r0, r6, lsl #28
     75c:	05020300 	streq	r0, [r2, #-768]	; 0xfffffd00
     760:	000000e5 	andeq	r0, r0, r5, ror #1
     764:	d0050403 	andle	r0, r5, r3, lsl #8
     768:	03000000 	movweq	r0, #0
     76c:	00cb0508 	sbceq	r0, fp, r8, lsl #10
     770:	01030000 	mrseq	r0, (UNDEF: 3)
     774:	00006c08 	andeq	r6, r0, r8, lsl #24
     778:	07020300 	streq	r0, [r2, -r0, lsl #6]
     77c:	00000093 	muleq	r0, r3, r0
     780:	b9070403 	stmdblt	r7, {r0, r1, sl}
     784:	03000000 	movweq	r0, #0
     788:	00b40708 	adcseq	r0, r4, r8, lsl #14
     78c:	25040000 	strcs	r0, [r4, #-0]
     790:	7a000000 	bvc	798 <__code_start__-0x7868>
     794:	05000000 	streq	r0, [r0, #-0]
     798:	00000025 	andeq	r0, r0, r5, lsr #32
     79c:	00d90600 	sbcseq	r0, r9, r0, lsl #12
     7a0:	1c020000 	stcne	0, cr0, [r2], {-0}
     7a4:	0000860e 	andeq	r8, r0, lr, lsl #12
     7a8:	6b040700 	blvs	1023b0 <__bss_end__+0xf9020>
     7ac:	04000000 	streq	r0, [r0], #-0
     7b0:	00000025 	andeq	r0, r0, r5, lsr #32
     7b4:	0000009b 	muleq	r0, fp, r0
     7b8:	00009b05 	andeq	r9, r0, r5, lsl #22
     7bc:	04070000 	streq	r0, [r7], #-0
     7c0:	000000a8 	andeq	r0, r0, r8, lsr #1
     7c4:	75080103 	strvc	r0, [r8, #-259]	; 0xfffffefd
     7c8:	08000000 	stmdaeq	r0, {}	; <UNPREDICTABLE>
     7cc:	000000a1 	andeq	r0, r0, r1, lsr #1
     7d0:	00032206 	andeq	r2, r3, r6, lsl #4
     7d4:	0e210200 	cdpeq	2, 2, cr0, cr1, cr0, {0}
     7d8:	000000b9 	strheq	r0, [r0], -r9
     7dc:	008c0407 	addeq	r0, ip, r7, lsl #8
     7e0:	ad090000 	stcge	0, cr0, [r9, #-0]
     7e4:	01000000 	mrseq	r0, (UNDEF: 0)
     7e8:	0305070c 	movweq	r0, #22284	; 0x570c
     7ec:	00008f7c 	andeq	r8, r0, ip, ror pc
     7f0:	0003190a 	andeq	r1, r3, sl, lsl #18
     7f4:	05040100 	streq	r0, [r4, #-256]	; 0xffffff00
     7f8:	00000025 	andeq	r0, r0, r5, lsr #32
     7fc:	00008280 	andeq	r8, r0, r0, lsl #5
     800:	00000034 	andeq	r0, r0, r4, lsr r0
     804:	700b9c01 	andvc	r9, fp, r1, lsl #24
     808:	1f040100 	svcne	0x00040100
     80c:	0000009b 	muleq	r0, fp, r0
     810:	00000218 	andeq	r0, r0, r8, lsl r2
     814:	00000214 	andeq	r0, r0, r4, lsl r2
     818:	09040000 	stmdbeq	r4, {}	; <UNPREDICTABLE>
     81c:	00040000 	andeq	r0, r4, r0
     820:	00000445 	andeq	r0, r0, r5, asr #8
     824:	00ef0104 	rsceq	r0, pc, r4, lsl #2
     828:	b00c0000 	andlt	r0, ip, r0
     82c:	e7000003 	str	r0, [r0, -r3]
     830:	b4000002 	strlt	r0, [r0], #-2
     834:	2c000082 	stccs	0, cr0, [r0], {130}	; 0x82
     838:	82000006 	andhi	r0, r0, #6, 0
     83c:	02000004 	andeq	r0, r0, #4, 0
     840:	6e690504 	cdpvs	5, 6, cr0, cr9, cr4, {0}
     844:	04030074 	streq	r0, [r3], #-116	; 0xffffff8c
     848:	0000be07 	andeq	fp, r0, r7, lsl #28
     84c:	06010300 	streq	r0, [r1], -r0, lsl #6
     850:	0000006e 	andeq	r0, r0, lr, rrx
     854:	e5050203 	str	r0, [r5, #-515]	; 0xfffffdfd
     858:	03000000 	movweq	r0, #0
     85c:	00d00504 	sbcseq	r0, r0, r4, lsl #10
     860:	08030000 	stmdaeq	r3, {}	; <UNPREDICTABLE>
     864:	0000cb05 	andeq	ip, r0, r5, lsl #22
     868:	08010300 	stmdaeq	r1, {r8, r9}
     86c:	0000006c 	andeq	r0, r0, ip, rrx
     870:	93070203 	movwls	r0, #29187	; 0x7203
     874:	04000000 	streq	r0, [r0], #-0
     878:	00000239 	andeq	r0, r0, r9, lsr r2
     87c:	69193402 	ldmdbvs	r9, {r1, sl, ip, sp}
     880:	03000000 	movweq	r0, #0
     884:	00b90704 	adcseq	r0, r9, r4, lsl #14
     888:	3b040000 	blcc	100890 <__bss_end__+0xf7500>
     88c:	02000003 	andeq	r0, r0, #3, 0
     890:	007c1937 	rsbseq	r1, ip, r7, lsr r9
     894:	08030000 	stmdaeq	r3, {}	; <UNPREDICTABLE>
     898:	0000b407 	andeq	fp, r0, r7, lsl #8
     89c:	00250500 	eoreq	r0, r5, r0, lsl #10
     8a0:	00920000 	addseq	r0, r2, r0
     8a4:	25060000 	strcs	r0, [r6, #-0]
     8a8:	00000000 	andeq	r0, r0, r0
     8ac:	0000d907 	andeq	sp, r0, r7, lsl #18
     8b0:	0e1c0300 	cdpeq	3, 1, cr0, cr12, cr0, {0}
     8b4:	0000009e 	muleq	r0, lr, r0
     8b8:	00830408 	addeq	r0, r3, r8, lsl #8
     8bc:	25050000 	strcs	r0, [r5, #-0]
     8c0:	b3000000 	movwlt	r0, #0
     8c4:	06000000 	streq	r0, [r0], -r0
     8c8:	000000b3 	strheq	r0, [r0], -r3
     8cc:	c0040800 	andgt	r0, r4, r0, lsl #16
     8d0:	03000000 	movweq	r0, #0
     8d4:	00750801 	rsbseq	r0, r5, r1, lsl #16
     8d8:	b9090000 	stmdblt	r9, {}	; <UNPREDICTABLE>
     8dc:	07000000 	streq	r0, [r0, -r0]
     8e0:	00000322 	andeq	r0, r0, r2, lsr #6
     8e4:	d10e2103 	tstle	lr, r3, lsl #2
     8e8:	08000000 	stmdaeq	r0, {}	; <UNPREDICTABLE>
     8ec:	0000a404 	andeq	sl, r0, r4, lsl #8
     8f0:	03440700 	movteq	r0, #18176	; 0x4700
     8f4:	0b040000 	bleq	1008fc <__bss_end__+0xf756c>
     8f8:	0000b90d 	andeq	fp, r0, sp, lsl #18
     8fc:	03ce0700 	biceq	r0, lr, #0, 14
     900:	0c040000 	stceq	0, cr0, [r4], {-0}
     904:	0000b90d 	andeq	fp, r0, sp, lsl #18
     908:	03530700 	cmpeq	r3, #0, 14
     90c:	0d040000 	stceq	0, cr0, [r4, #-0]
     910:	0000b90d 	andeq	fp, r0, sp, lsl #18
     914:	037c0700 	cmneq	ip, #0, 14
     918:	0e040000 	cdpeq	0, 0, cr0, cr4, cr0, {0}
     91c:	0000b90d 	andeq	fp, r0, sp, lsl #18
     920:	03f00700 	mvnseq	r0, #0, 14
     924:	0f040000 	svceq	0x00040000
     928:	0000b90d 	andeq	fp, r0, sp, lsl #18
     92c:	03670700 	cmneq	r7, #0, 14
     930:	10040000 	andne	r0, r4, r0
     934:	0000b90d 	andeq	fp, r0, sp, lsl #18
     938:	03ff0700 	mvnseq	r0, #0, 14
     93c:	11040000 	mrsne	r0, (UNDEF: 4)
     940:	0000b90d 	andeq	fp, r0, sp, lsl #18
     944:	03880700 	orreq	r0, r8, #0, 14
     948:	12040000 	andne	r0, r4, #0, 0
     94c:	0000b90d 	andeq	fp, r0, sp, lsl #18
     950:	02bb0400 	adcseq	r0, fp, #0, 8
     954:	28050000 	stmdacs	r5, {}	; <UNPREDICTABLE>
     958:	0001431b 	andeq	r4, r1, fp, lsl r3
     95c:	02dd0a00 	sbcseq	r0, sp, #0, 20
     960:	06040000 	streq	r0, [r4], -r0
     964:	00015a00 	andeq	r5, r1, r0, lsl #20
     968:	02d80b00 	sbcseq	r0, r8, #0, 22
     96c:	015a0000 	cmpeq	sl, r0
     970:	00000000 	andeq	r0, r0, r0
     974:	df04040c 	svcle	0x0004040c
     978:	05000002 	streq	r0, [r0, #-2]
     97c:	01371863 	teqeq	r7, r3, ror #16
     980:	b10d0000 	mrslt	r0, (UNDEF: 13)
     984:	01000002 	tsteq	r0, r2
     988:	00250581 	eoreq	r0, r5, r1, lsl #11
     98c:	853c0000 	ldrhi	r0, [ip, #-0]!
     990:	03a40000 			; <UNDEFINED> instruction: 0x03a40000
     994:	9c010000 	stcls	0, cr0, [r1], {-0}
     998:	0000055c 	andeq	r0, r0, ip, asr r5
     99c:	6675620e 	ldrbtvs	r6, [r5], -lr, lsl #4
     9a0:	15810100 	strne	r0, [r1, #256]	; 0x100
     9a4:	0000055c 	andeq	r0, r0, ip, asr r5
     9a8:	0000023c 	andeq	r0, r0, ip, lsr r2
     9ac:	00000236 	andeq	r0, r0, r6, lsr r2
     9b0:	01006e0e 	tsteq	r0, lr, lsl #28
     9b4:	00251e81 	eoreq	r1, r5, r1, lsl #29
     9b8:	026e0000 	rsbeq	r0, lr, #0, 0
     9bc:	02680000 	rsbeq	r0, r8, #0, 0
     9c0:	660e0000 	strvs	r0, [lr], -r0
     9c4:	0100746d 	tsteq	r0, sp, ror #8
     9c8:	00b32d81 	adcseq	r2, r3, r1, lsl #27
     9cc:	02a00000 	adceq	r0, r0, #0, 0
     9d0:	029c0000 	addseq	r0, ip, #0, 0
     9d4:	ac0f0000 	stcge	0, cr0, [pc], {-0}
     9d8:	01000002 	tsteq	r0, r2
     9dc:	015c3a81 	cmpeq	ip, r1, lsl #21
     9e0:	91030000 	mrsls	r0, (UNDEF: 3)
     9e4:	70107dd4 			; <UNDEFINED> instruction: 0x70107dd4
     9e8:	08820100 	stmeq	r2, {r8}
     9ec:	0000055c 	andeq	r0, r0, ip, asr r5
     9f0:	000002d2 	ldrdeq	r0, [r0], -r2
     9f4:	000002be 			; <UNDEFINED> instruction: 0x000002be
     9f8:	01006510 	tsteq	r0, r0, lsl r5
     9fc:	055c1282 	ldrbeq	r1, [ip, #-642]	; 0xfffffd7e
     a00:	03540000 	cmpeq	r4, #0, 0
     a04:	03500000 	cmpeq	r0, #0, 0
     a08:	78100000 	ldmdavc	r0, {}	; <UNPREDICTABLE>
     a0c:	83010030 	movwhi	r0, #4144	; 0x1030
     a10:	00005d0e 	andeq	r5, r0, lr, lsl #26
     a14:	00037d00 	andeq	r7, r3, r0, lsl #26
     a18:	00037b00 	andeq	r7, r3, r0, lsl #22
     a1c:	31781100 	cmncc	r8, r0, lsl #2
     a20:	11830100 	orrne	r0, r3, r0, lsl #2
     a24:	0000005d 	andeq	r0, r0, sp, asr r0
     a28:	0003a612 	andeq	sl, r3, r2, lsl r6
     a2c:	11860100 	orrne	r0, r6, r0, lsl #2
     a30:	000000b3 	strheq	r0, [r0], -r3
     a34:	00000394 	muleq	r0, r4, r3
     a38:	00000390 	muleq	r0, r0, r3
     a3c:	0001f913 	andeq	pc, r1, r3, lsl r9	; <UNPREDICTABLE>
     a40:	00057200 	andeq	r7, r5, r0, lsl #4
     a44:	64030500 	strvs	r0, [r3], #-1280	; 0xfffffb00
     a48:	1400008f 	strne	r0, [r0], #-143	; 0xffffff71
     a4c:	000085a4 	andeq	r8, r0, r4, lsr #11
     a50:	00000300 	andeq	r0, r0, r0, lsl #6
     a54:	01007310 	tsteq	r0, r0, lsl r3
     a58:	055c0a91 	ldrbeq	r0, [ip, #-2705]	; 0xfffff56f
     a5c:	03c60000 	biceq	r0, r6, #0, 0
     a60:	03b40000 			; <UNDEFINED> instruction: 0x03b40000
     a64:	6e150000 	cdpvs	0, 1, cr0, cr5, cr0, {0}
     a68:	01006d75 	tsteq	r0, r5, ror sp
     a6c:	05770d91 	ldrbeq	r0, [r7, #-3473]!	; 0xfffff26f
     a70:	91030000 	mrsls	r0, (UNDEF: 3)
     a74:	0c167dd8 	ldceq	13, cr7, [r6], {216}	; 0xd8
     a78:	01000004 	tsteq	r0, r4
     a7c:	05771791 	ldrbeq	r1, [r7, #-1937]!	; 0xfffff86f
     a80:	91030000 	mrsls	r0, (UNDEF: 3)
     a84:	61127ed8 			; <UNDEFINED> instruction: 0x61127ed8
     a88:	01000003 	tsteq	r0, r3
     a8c:	002c0d92 	mlaeq	ip, r2, sp, r0
     a90:	04370000 	ldrteq	r0, [r7], #-0
     a94:	04310000 	ldrteq	r0, [r1], #-0
     a98:	00170000 	andseq	r0, r7, r0
     a9c:	04000000 	streq	r0, [r0], #-0
     aa0:	15000005 	strne	r0, [r0, #-5]
     aa4:	01007878 	tsteq	r0, r8, ror r8
     aa8:	00701a9f 			; <UNDEFINED> instruction: 0x00701a9f
     aac:	5b060000 	blpl	180ab4 <__bss_end__+0x177724>
     ab0:	93530493 	cmpls	r3, #-1828716544	; 0x93000000
     ab4:	867c1804 	ldrbthi	r1, [ip], -r4, lsl #16
     ab8:	08d70000 	ldmeq	r7, {}^	; <UNPREDICTABLE>
     abc:	02bd0000 	adcseq	r0, sp, #0, 0
     ac0:	01190000 	tsteq	r9, r0
     ac4:	00760250 	rsbseq	r0, r6, r0, asr r2
     ac8:	05510119 	ldrbeq	r0, [r1, #-281]	; 0xfffffee7
     acc:	008eb403 	addeq	fp, lr, r3, lsl #8
     ad0:	52011900 	andpl	r1, r1, #0, 18
     ad4:	18003301 	stmdane	r0, {r0, r8, r9, ip, sp}
     ad8:	000086c0 	andeq	r8, r0, r0, asr #13
     adc:	00000587 	andeq	r0, r0, r7, lsl #11
     ae0:	000002eb 	andeq	r0, r0, fp, ror #5
     ae4:	01500119 	cmpeq	r0, r9, lsl r1
     ae8:	51011940 	tstpl	r1, r0, asr #18
     aec:	7dd09103 	ldfvcp	f1, [r0, #12]
     af0:	02520119 	subseq	r0, r2, #1073741830	; 0x40000006
     af4:	02198008 	andseq	r8, r9, #8, 0
     af8:	7502007d 	strvc	r0, [r2, #-125]	; 0xffffff83
     afc:	7d021900 	vstrvc.16	s2, [r2, #-0]	; <UNPREDICTABLE>
     b00:	007a0204 	rsbseq	r0, sl, r4, lsl #4
     b04:	86e01800 	strbthi	r1, [r0], r0, lsl #16
     b08:	05870000 	streq	r0, [r7]
     b0c:	031f0000 	tsteq	pc, #0, 0
     b10:	01190000 	tsteq	r9, r0
     b14:	19400150 	stmdbne	r0, {r4, r6, r8}^
     b18:	91035101 	tstls	r3, r1, lsl #2
     b1c:	01197ed0 			; <UNDEFINED> instruction: 0x01197ed0
     b20:	80080252 	andhi	r0, r8, r2, asr r2
     b24:	02530119 	subseq	r0, r3, #1073741830	; 0x40000006
     b28:	0219007b 	andseq	r0, r9, #123, 0	; 0x7b
     b2c:	7502007d 	strvc	r0, [r2, #-125]	; 0xffffff83
     b30:	7d021900 	vstrvc.16	s2, [r2, #-0]	; <UNPREDICTABLE>
     b34:	007a0204 	rsbseq	r0, sl, r4, lsl #4
     b38:	86ec1800 	strbthi	r1, [ip], r0, lsl #16
     b3c:	08e30000 	stmiaeq	r3!, {}^	; <UNPREDICTABLE>
     b40:	033b0000 	teqeq	fp, #0, 0
     b44:	01190000 	tsteq	r9, r0
     b48:	d0910350 	addsle	r0, r1, r0, asr r3
     b4c:	5101197d 	tstpl	r1, sp, ror r9
     b50:	7ed29103 	atnvcs	f1, f3
     b54:	870c1800 	strhi	r1, [ip, -r0, lsl #16]
     b58:	08ef0000 	stmiaeq	pc!, {}^	; <UNPREDICTABLE>
     b5c:	03740000 	cmneq	r4, #0, 0
     b60:	01190000 	tsteq	r9, r0
     b64:	10030550 	andne	r0, r3, r0, asr r5
     b68:	1900008e 	stmdbne	r0, {r1, r2, r3, r7}
     b6c:	03055101 	movweq	r5, #20737	; 0x5101
     b70:	00008e64 	andeq	r8, r0, r4, ror #28
     b74:	05520119 	ldrbeq	r0, [r2, #-281]	; 0xfffffee7
     b78:	008f6403 	addeq	r6, pc, r3, lsl #8
     b7c:	53011900 	movwpl	r1, #6400	; 0x1900
     b80:	199d0802 	ldmibne	sp, {r1, fp}
     b84:	05007d02 	streq	r7, [r0, #-3330]	; 0xfffff2fe
     b88:	008eb803 	addeq	fp, lr, r3, lsl #16
     b8c:	101a0000 	andsne	r0, sl, r0
     b90:	fb000087 	blx	db6 <__code_start__-0x724a>
     b94:	18000008 	stmdane	r0, {r3}
     b98:	00008724 	andeq	r8, r0, r4, lsr #14
     b9c:	000008ef 	andeq	r0, r0, pc, ror #17
     ba0:	000003ac 	andeq	r0, r0, ip, lsr #7
     ba4:	05500119 	ldrbeq	r0, [r0, #-281]	; 0xfffffee7
     ba8:	008ed403 	addeq	sp, lr, r3, lsl #8
     bac:	51011900 	tstpl	r1, r0, lsl #18
     bb0:	8e640305 	cdphi	3, 6, cr0, cr4, cr5, {0}
     bb4:	01190000 	tsteq	r9, r0
     bb8:	64030552 	strvs	r0, [r3], #-1362	; 0xfffffaae
     bbc:	1900008f 	stmdbne	r0, {r0, r1, r2, r3, r7}
     bc0:	08025301 	stmdaeq	r2, {r0, r8, r9, ip, lr}
     bc4:	281a00af 	ldmdacs	sl, {r0, r1, r2, r3, r5, r7}
     bc8:	fb000087 	blx	dee <__code_start__-0x7212>
     bcc:	18000008 	stmdane	r0, {r3}
     bd0:	00008754 	andeq	r8, r0, r4, asr r7
     bd4:	00000587 	andeq	r0, r0, r7, lsl #11
     bd8:	000003e2 	andeq	r0, r0, r2, ror #7
     bdc:	01500119 	cmpeq	r0, r9, lsl r1
     be0:	5101193a 	tstpl	r1, sl, lsr r9
     be4:	7dd09103 	ldfvcp	f1, [r0, #12]
     be8:	02520119 	subseq	r0, r2, #1073741830	; 0x40000006
     bec:	02198008 	andseq	r8, r9, #8, 0
     bf0:	7502007d 	strvc	r0, [r2, #-125]	; 0xffffff83
     bf4:	7d021900 	vstrvc.16	s2, [r2, #-0]	; <UNPREDICTABLE>
     bf8:	00310104 	eorseq	r0, r1, r4, lsl #2
     bfc:	00878c18 	addeq	r8, r7, r8, lsl ip
     c00:	00058700 	andeq	r8, r5, r0, lsl #14
     c04:	00040f00 	andeq	r0, r4, r0, lsl #30
     c08:	50011900 	andpl	r1, r1, r0, lsl #18
     c0c:	01193a01 	tsteq	r9, r1, lsl #20
     c10:	d0910351 	addsle	r0, r1, r1, asr r3
     c14:	5201197d 	andpl	r1, r1, #2048000	; 0x1f4000
     c18:	19800802 	stmibne	r0, {r1, fp}
     c1c:	02007d02 	andeq	r7, r0, #128	; 0x80
     c20:	02190075 	andseq	r0, r9, #117, 0	; 0x75
     c24:	3001047d 	andcc	r0, r1, sp, ror r4
     c28:	87c01800 	strbhi	r1, [r0, r0, lsl #16]
     c2c:	05870000 	streq	r0, [r7]
     c30:	043c0000 	ldrteq	r0, [ip], #-0
     c34:	01190000 	tsteq	r9, r0
     c38:	19400150 	stmdbne	r0, {r4, r6, r8}^
     c3c:	91035101 	tstls	r3, r1, lsl #2
     c40:	01197dd0 			; <UNDEFINED> instruction: 0x01197dd0
     c44:	80080252 	andhi	r0, r8, r2, asr r2
     c48:	007d0219 	rsbseq	r0, sp, r9, lsl r2
     c4c:	19007502 	stmdbne	r0, {r1, r8, sl, ip, sp, lr}
     c50:	01047d02 	tsteq	r4, r2, lsl #26
     c54:	f4180030 			; <UNDEFINED> instruction: 0xf4180030
     c58:	87000087 	strhi	r0, [r0, -r7, lsl #1]
     c5c:	69000005 	stmdbvs	r0, {r0, r2}
     c60:	19000004 	stmdbne	r0, {r2}
     c64:	32015001 	andcc	r5, r1, #1, 0
     c68:	03510119 	cmpeq	r1, #1073741830	; 0x40000006
     c6c:	197dd091 	ldmdbne	sp!, {r0, r4, r7, ip, lr, pc}^
     c70:	08025201 	stmdaeq	r2, {r0, r9, ip, lr}
     c74:	7d021980 	vstrvc.16	s2, [r2, #-256]	; 0xffffff00	; <UNPREDICTABLE>
     c78:	00750200 	rsbseq	r0, r5, r0, lsl #4
     c7c:	047d0219 	ldrbteq	r0, [sp], #-537	; 0xfffffde7
     c80:	18003001 	stmdane	r0, {r0, ip, sp}
     c84:	0000883c 	andeq	r8, r0, ip, lsr r8
     c88:	00000587 	andeq	r0, r0, r7, lsl #11
     c8c:	00000496 	muleq	r0, r6, r4
     c90:	01500119 	cmpeq	r0, r9, lsl r1
     c94:	51011938 	tstpl	r1, r8, lsr r9
     c98:	7dd09103 	ldfvcp	f1, [r0, #12]
     c9c:	02520119 	subseq	r0, r2, #1073741830	; 0x40000006
     ca0:	02198008 	andseq	r8, r9, #8, 0
     ca4:	7502007d 	strvc	r0, [r2, #-125]	; 0xffffff83
     ca8:	7d021900 	vstrvc.16	s2, [r2, #-0]	; <UNPREDICTABLE>
     cac:	00300104 	eorseq	r0, r0, r4, lsl #2
     cb0:	00885c18 	addeq	r5, r8, r8, lsl ip
     cb4:	0008ef00 	andeq	lr, r8, r0, lsl #30
     cb8:	0004b900 	andeq	fp, r4, r0, lsl #18
     cbc:	50011900 	andpl	r1, r1, r0, lsl #18
     cc0:	8efc0305 	cdphi	3, 15, cr0, cr12, cr5, {0}
     cc4:	01190000 	tsteq	r9, r0
     cc8:	007a0251 	rsbseq	r0, sl, r1, asr r2
     ccc:	02520119 	subseq	r0, r2, #1073741830	; 0x40000006
     cd0:	1b00007a 	blne	ec0 <__code_start__-0x7140>
     cd4:	0000886c 	andeq	r8, r0, ip, ror #16
     cd8:	000004cb 	andeq	r0, r0, fp, asr #9
     cdc:	04500119 	ldrbeq	r0, [r0], #-281	; 0xfffffee7
     ce0:	067dc891 			; <UNDEFINED> instruction: 0x067dc891
     ce4:	88801800 	stmhi	r0, {fp, ip}
     ce8:	08ef0000 	stmiaeq	pc!, {}^	; <UNPREDICTABLE>
     cec:	04fa0000 	ldrbteq	r0, [sl], #0
     cf0:	01190000 	tsteq	r9, r0
     cf4:	2c030550 	cfstr32cs	mvfx0, [r3], {80}	; 0x50
     cf8:	1900008f 	stmdbne	r0, {r0, r1, r2, r3, r7}
     cfc:	03055101 	movweq	r5, #20737	; 0x5101
     d00:	00008e64 	andeq	r8, r0, r4, ror #28
     d04:	05520119 	ldrbeq	r0, [r2, #-281]	; 0xfffffee7
     d08:	008f6403 	addeq	r6, pc, r3, lsl #8
     d0c:	53011900 	movwpl	r1, #6400	; 0x1900
     d10:	00d30802 	sbcseq	r0, r3, r2, lsl #16
     d14:	0088841a 	addeq	r8, r8, sl, lsl r4
     d18:	0008fb00 	andeq	pc, r8, r0, lsl #22
     d1c:	bc180000 	ldclt	0, cr0, [r8], {-0}
     d20:	05000085 	streq	r0, [r0, #-133]	; 0xffffff7b
     d24:	18000008 	stmdane	r0, {r3}
     d28:	19000005 	stmdbne	r0, {r0, r2}
     d2c:	77025001 	strvc	r5, [r2, -r1]
     d30:	68180000 	ldmdavs	r8, {}	; <UNPREDICTABLE>
     d34:	ef000086 	svc	0x00000086
     d38:	51000008 	tstpl	r0, r8
     d3c:	19000005 	stmdbne	r0, {r0, r2}
     d40:	03055001 	movweq	r5, #20481	; 0x5001
     d44:	00008e10 	andeq	r8, r0, r0, lsl lr
     d48:	05510119 	ldrbeq	r0, [r1, #-281]	; 0xfffffee7
     d4c:	008e6403 	addeq	r6, lr, r3, lsl #8
     d50:	52011900 	andpl	r1, r1, #0, 18
     d54:	8f640305 	svchi	0x00640305
     d58:	01190000 	tsteq	r9, r0
     d5c:	98080253 	stmdals	r8, {r0, r1, r4, r6, r9}
     d60:	007d0219 	rsbseq	r0, sp, r9, lsl r2
     d64:	8ea80305 	cdphi	3, 10, cr0, cr8, cr5, {0}
     d68:	1a000000 	bne	d70 <__code_start__-0x7290>
     d6c:	0000866c 	andeq	r8, r0, ip, ror #12
     d70:	000008fb 	strdeq	r0, [r0], -fp
     d74:	04080000 	streq	r0, [r8], #-0
     d78:	000000b9 	strheq	r0, [r0], -r9
     d7c:	0000c01c 	andeq	ip, r0, ip, lsl r0
     d80:	00057200 	andeq	r7, r5, r0, lsl #4
     d84:	002c1d00 	eoreq	r1, ip, r0, lsl #26
     d88:	00090000 	andeq	r0, r9, r0
     d8c:	00056209 	andeq	r6, r5, r9, lsl #4
     d90:	00b91c00 	adcseq	r1, r9, r0, lsl #24
     d94:	05870000 	streq	r0, [r7]
     d98:	2c1d0000 	ldccs	0, cr0, [sp], {-0}
     d9c:	7f000000 	svcvc	0x00000000
     da0:	03db1e00 	bicseq	r1, fp, #0, 28
     da4:	49010000 	stmdbmi	r1, {}	; <UNPREDICTABLE>
     da8:	00055c01 	andeq	r5, r5, r1, lsl #24
     dac:	00832400 	addeq	r2, r3, r0, lsl #8
     db0:	0001b400 	andeq	fp, r1, r0, lsl #8
     db4:	f09c0100 			; <UNDEFINED> instruction: 0xf09c0100
     db8:	1f000006 	svcne	0x00000006
     dbc:	00000419 	andeq	r0, r0, r9, lsl r4
     dc0:	2c0f4901 			; <UNDEFINED> instruction: 0x2c0f4901
     dc4:	67000000 	strvs	r0, [r0, -r0]
     dc8:	61000004 	tstvs	r0, r4
     dcc:	0e000004 	cdpeq	0, 0, cr0, cr0, cr4, {0}
     dd0:	00747364 	rsbseq	r7, r4, r4, ror #6
     dd4:	5c1b4901 			; <UNDEFINED> instruction: 0x5c1b4901
     dd8:	a5000005 	strge	r0, [r0, #-5]
     ddc:	95000004 	strls	r0, [r0, #-4]
     de0:	0e000004 	cdpeq	0, 0, cr0, cr0, cr4, {0}
     de4:	4901006e 	stmdbmi	r1, {r1, r2, r3, r5, r6}
     de8:	00002524 	andeq	r2, r0, r4, lsr #10
     dec:	00050900 	andeq	r0, r5, r0, lsl #18
     df0:	00050500 	andeq	r0, r5, r0, lsl #10
     df4:	61760e00 	cmnvs	r6, r0, lsl #28
     df8:	4901006c 	stmdbmi	r1, {r2, r3, r5, r6}
     dfc:	0000252b 	andeq	r2, r0, fp, lsr #10
     e00:	00053300 	andeq	r3, r5, r0, lsl #6
     e04:	00052700 	andeq	r2, r5, r0, lsl #14
     e08:	03611f00 	cmneq	r1, #0, 30
     e0c:	49010000 	stmdbmi	r1, {}	; <UNPREDICTABLE>
     e10:	00002534 	andeq	r2, r0, r4, lsr r5
     e14:	00058900 	andeq	r8, r5, r0, lsl #18
     e18:	00058300 	andeq	r8, r5, r0, lsl #6
     e1c:	041e0f00 	ldreq	r0, [lr], #-3840	; 0xfffff100
     e20:	49010000 	stmdbmi	r1, {}	; <UNPREDICTABLE>
     e24:	0000253f 	andeq	r2, r0, pc, lsr r5
     e28:	04910200 	ldreq	r0, [r1], #512	; 0x200
     e2c:	66756215 			; <UNDEFINED> instruction: 0x66756215
     e30:	074e0100 	strbeq	r0, [lr, -r0, lsl #2]
     e34:	000006f0 	strdeq	r0, [r0], -r0	; <UNPREDICTABLE>
     e38:	7fa89103 	svcvc	0x00a89103
     e3c:	01007010 	tsteq	r0, r0, lsl r0
     e40:	055c114e 	ldrbeq	r1, [ip, #-334]	; 0xfffffeb2
     e44:	05d30000 	ldrbeq	r0, [r3]
     e48:	05b30000 	ldreq	r0, [r3, #0]!
     e4c:	75100000 	ldrvc	r0, [r0, #-0]
     e50:	0b4f0100 	bleq	13c1258 <__bss_end__+0x13b7ec8>
     e54:	0000002c 	andeq	r0, r0, ip, lsr #32
     e58:	000006b9 			; <UNDEFINED> instruction: 0x000006b9
     e5c:	000006a5 	andeq	r0, r0, r5, lsr #13
     e60:	0001f913 	andeq	pc, r1, r3, lsl r9	; <UNPREDICTABLE>
     e64:	00071000 	andeq	r1, r7, r0
     e68:	4c030500 	cfstr32mi	mvfx0, [r3], {-0}
     e6c:	2000008f 	andcs	r0, r0, pc, lsl #1
     e70:	00008390 	muleq	r0, r0, r3
     e74:	00000078 	andeq	r0, r0, r8, ror r0
     e78:	00000677 	andeq	r0, r0, r7, ror r6
     e7c:	0003c812 	andeq	ip, r3, r2, lsl r8
     e80:	0d540100 	ldfeqe	f0, [r4, #-0]
     e84:	0000002c 	andeq	r0, r0, ip, lsr #32
     e88:	0000073a 	andeq	r0, r0, sl, lsr r7
     e8c:	00000732 	andeq	r0, r0, r2, lsr r7
     e90:	84481800 	strbhi	r1, [r8], #-2048	; 0xfffff800
     e94:	07a20000 	streq	r0, [r2, r0]!
     e98:	068c0000 	streq	r0, [ip], r0
     e9c:	01190000 	tsteq	r9, r0
     ea0:	a0910351 	addsge	r0, r1, r1, asr r3
     ea4:	5c18007f 	ldcpl	0, cr0, [r8], {127}	; 0x7f
     ea8:	15000084 	strne	r0, [r0, #-132]	; 0xffffff7c
     eac:	ad000007 	stcge	0, cr0, [r0, #-28]	; 0xffffffe4
     eb0:	19000006 	stmdbne	r0, {r1, r2}
     eb4:	75025001 	strvc	r5, [r2, #-1]
     eb8:	51011900 	tstpl	r1, r0, lsl #18
     ebc:	19007402 	stmdbne	r0, {r1, sl, ip, sp, lr}
     ec0:	91035301 	tstls	r3, r1, lsl #6
     ec4:	18007fa0 	stmdane	r0, {r5, r7, r8, r9, sl, fp, ip, sp, lr}
     ec8:	000084b4 			; <UNDEFINED> instruction: 0x000084b4
     ecc:	000008ef 	andeq	r0, r0, pc, ror #17
     ed0:	000006e6 	andeq	r0, r0, r6, ror #13
     ed4:	05500119 	ldrbeq	r0, [r0, #-281]	; 0xfffffee7
     ed8:	008e1003 	addeq	r1, lr, r3
     edc:	51011900 	tstpl	r1, r0, lsl #18
     ee0:	8e640305 	cdphi	3, 6, cr0, cr4, cr5, {0}
     ee4:	01190000 	tsteq	r9, r0
     ee8:	4c030552 	cfstr32mi	mvfx0, [r3], {82}	; 0x52
     eec:	1900008f 	stmdbne	r0, {r0, r1, r2, r3, r7}
     ef0:	08025301 	stmdaeq	r2, {r0, r8, r9, ip, lr}
     ef4:	7d021979 	vstrvc.16	s2, [r2, #-242]	; 0xffffff0e	; <UNPREDICTABLE>
     ef8:	78030500 	stmdavc	r3, {r8, sl}
     efc:	0000008e 	andeq	r0, r0, lr, lsl #1
     f00:	0084b81a 	addeq	fp, r4, sl, lsl r8
     f04:	0008fb00 	andeq	pc, r8, r0, lsl #22
     f08:	b91c0000 	ldmdblt	ip, {}	; <UNPREDICTABLE>
     f0c:	00000000 	andeq	r0, r0, r0
     f10:	1d000007 	stcne	0, cr0, [r0, #-28]	; 0xffffffe4
     f14:	0000002c 	andeq	r0, r0, ip, lsr #32
     f18:	c01c003f 	andsgt	r0, ip, pc, lsr r0
     f1c:	10000000 	andne	r0, r0, r0
     f20:	1d000007 	stcne	0, cr0, [r0, #-28]	; 0xffffffe4
     f24:	0000002c 	andeq	r0, r0, ip, lsr #32
     f28:	00090004 	andeq	r0, r9, r4
     f2c:	1e000007 	cdpne	0, 0, cr0, cr0, cr7, {0}
     f30:	000003e8 	andeq	r0, r0, r8, ror #7
     f34:	5c0e3801 	stcpl	8, cr3, [lr], {1}
     f38:	ec000005 	stc	0, cr0, [r0], {5}
     f3c:	38000082 	stmdacc	r0, {r1, r7}
     f40:	01000000 	mrseq	r0, (UNDEF: 0)
     f44:	0007a29c 	muleq	r7, ip, r2
     f48:	73640e00 	cmnvc	r4, #0, 28
     f4c:	38010074 	stmdacc	r1, {r2, r4, r5, r6}
     f50:	00055c1c 	andeq	r5, r5, ip, lsl ip
     f54:	00077b00 	andeq	r7, r7, r0, lsl #22
     f58:	00077100 	andeq	r7, r7, r0, lsl #2
     f5c:	006e0e00 	rsbeq	r0, lr, r0, lsl #28
     f60:	25253801 	strcs	r3, [r5, #-2049]!	; 0xfffff7ff
     f64:	c2000000 	andgt	r0, r0, #0, 0
     f68:	be000007 	cdplt	0, 0, cr0, cr0, cr7, {0}
     f6c:	0e000007 	cdpeq	0, 0, cr0, cr0, cr7, {0}
     f70:	38010070 	stmdacc	r1, {r4, r5, r6}
     f74:	00055c2e 	andeq	r5, r5, lr, lsr #24
     f78:	0007eb00 	andeq	lr, r7, r0, lsl #22
     f7c:	0007e300 	andeq	lr, r7, r0, lsl #6
     f80:	008d1f00 	addeq	r1, sp, r0, lsl #30
     f84:	38010000 	stmdacc	r1, {}	; <UNPREDICTABLE>
     f88:	00055c37 	andeq	r5, r5, r7, lsr ip
     f8c:	00082500 	andeq	r2, r8, r0, lsl #10
     f90:	00082100 	andeq	r2, r8, r0, lsl #2
     f94:	656c1000 	strbvs	r1, [ip, #-0]!
     f98:	3a01006e 	bcc	41158 <__bss_end__+0x37dc8>
     f9c:	00002506 	andeq	r2, r0, r6, lsl #10
     fa0:	00084b00 	andeq	r4, r8, r0, lsl #22
     fa4:	00084300 	andeq	r4, r8, r0, lsl #6
     fa8:	00731000 	rsbseq	r1, r3, r0
     fac:	5c083e01 	stcpl	14, cr3, [r8], {1}
     fb0:	99000005 	stmdbls	r0, {r0, r2}
     fb4:	97000008 	strls	r0, [r0, -r8]
     fb8:	00000008 	andeq	r0, r0, r8
     fbc:	64617021 	strbtvs	r7, [r1], #-33	; 0xffffffdf
     fc0:	0e2e0100 	sufeqe	f0, f6, f0
     fc4:	0000055c 	andeq	r0, r0, ip, asr r5
     fc8:	000082c8 	andeq	r8, r0, r8, asr #5
     fcc:	00000024 	andeq	r0, r0, r4, lsr #32
     fd0:	08059c01 	stmdaeq	r5, {r0, sl, fp, ip, pc}
     fd4:	700e0000 	andvc	r0, lr, r0
     fd8:	182e0100 	stmdane	lr!, {r8}
     fdc:	0000055c 	andeq	r0, r0, ip, asr r5
     fe0:	000008b2 			; <UNDEFINED> instruction: 0x000008b2
     fe4:	000008ac 	andeq	r0, r0, ip, lsr #17
     fe8:	0004191f 	andeq	r1, r4, pc, lsl r9
     fec:	222e0100 	eorcs	r0, lr, #0
     ff0:	0000055c 	andeq	r0, r0, ip, asr r5
     ff4:	000008e1 	andeq	r0, r0, r1, ror #17
     ff8:	000008dd 	ldrdeq	r0, [r0], -sp
     ffc:	0003610f 	andeq	r6, r3, pc, lsl #2
    1000:	2c2e0100 	stfcss	f0, [lr], #-0
    1004:	00000025 	andeq	r0, r0, r5, lsr #32
    1008:	6c105201 	lfmvs	f5, 4, [r0], {1}
    100c:	01006e65 	tsteq	r0, r5, ror #28
    1010:	0025062f 	eoreq	r0, r5, pc, lsr #12
    1014:	09040000 	stmdbeq	r4, {}	; <UNPREDICTABLE>
    1018:	09020000 	stmdbeq	r2, {}	; <UNPREDICTABLE>
    101c:	1e000000 	cdpne	0, 0, cr0, cr0, cr0, {0}
    1020:	00000333 	andeq	r0, r0, r3, lsr r3
    1024:	250c2701 	strcs	r2, [ip, #-1793]	; 0xfffff8ff
    1028:	b4000000 	strlt	r0, [r0], #-0
    102c:	14000082 	strne	r0, [r0], #-130	; 0xffffff7e
    1030:	01000000 	mrseq	r0, (UNDEF: 0)
    1034:	0008329c 	muleq	r8, ip, r2
    1038:	00630e00 	rsbeq	r0, r3, r0, lsl #28
    103c:	25182701 	ldrcs	r2, [r8, #-1793]	; 0xfffff8ff
    1040:	1d000000 	stcne	0, cr0, [r0, #-0]
    1044:	17000009 	strne	r0, [r0, -r9]
    1048:	00000009 	andeq	r0, r0, r9
    104c:	00039722 	andeq	r9, r3, r2, lsr #14
    1050:	061f0100 	ldreq	r0, [pc], -r0, lsl #2
    1054:	000084d8 	ldrdeq	r8, [r0], -r8	; <UNPREDICTABLE>
    1058:	00000064 	andeq	r0, r0, r4, rrx
    105c:	08c29c01 	stmiaeq	r2, {r0, sl, fp, ip, pc}^
    1060:	741f0000 	ldrvc	r0, [pc], #-0	; 1068 <__code_start__-0x6f98>
    1064:	01000003 	tsteq	r0, r3
    1068:	009e1b1f 	addseq	r1, lr, pc, lsl fp
    106c:	094f0000 	stmdbeq	pc, {}^	; <UNPREDICTABLE>
    1070:	094b0000 	stmdbeq	fp, {}^	; <UNPREDICTABLE>
    1074:	e01f0000 	ands	r0, pc, r0
    1078:	01000003 	tsteq	r0, r3
    107c:	00d1301f 	sbcseq	r3, r1, pc, lsl r0
    1080:	09740000 	ldmdbeq	r4!, {}^	; <UNPREDICTABLE>
    1084:	09700000 	ldmdbeq	r0!, {}^	; <UNPREDICTABLE>
    1088:	f9130000 			; <UNDEFINED> instruction: 0xf9130000
    108c:	d2000001 	andle	r0, r0, #1, 0
    1090:	05000008 	streq	r0, [r0, #-8]
    1094:	008f5403 	addeq	r5, pc, r3, lsl #8
    1098:	85201800 	strhi	r1, [r0, #-2048]!	; 0xfffff800
    109c:	08ef0000 	stmiaeq	pc!, {}^	; <UNPREDICTABLE>
    10a0:	08b80000 	ldmeq	r8!, {}	; <UNPREDICTABLE>
    10a4:	01190000 	tsteq	r9, r0
    10a8:	10030550 	andne	r0, r3, r0, asr r5
    10ac:	1900008e 	stmdbne	r0, {r1, r2, r3, r7}
    10b0:	03055101 	movweq	r5, #20737	; 0x5101
    10b4:	00008e64 	andeq	r8, r0, r4, ror #28
    10b8:	05520119 	ldrbeq	r0, [r2, #-281]	; 0xfffffee7
    10bc:	008f5403 	addeq	r5, pc, r3, lsl #8
    10c0:	53011900 	movwpl	r1, #6400	; 0x1900
    10c4:	19200802 	stmdbne	r0!, {r1, fp}
    10c8:	05007d02 	streq	r7, [r0, #-3330]	; 0xfffff2fe
    10cc:	008ea003 	addeq	sl, lr, r3
    10d0:	241a0000 	ldrcs	r0, [sl], #-0
    10d4:	fb000085 	blx	12f2 <__code_start__-0x6d0e>
    10d8:	00000008 	andeq	r0, r0, r8
    10dc:	0000c01c 	andeq	ip, r0, ip, lsl r0
    10e0:	0008d200 	andeq	sp, r8, r0, lsl #4
    10e4:	002c1d00 	eoreq	r1, ip, r0, lsl #26
    10e8:	000e0000 	andeq	r0, lr, r0
    10ec:	0008c209 	andeq	ip, r8, r9, lsl #4
    10f0:	04112300 	ldreq	r2, [r1], #-768	; 0xfffffd00
    10f4:	04110000 	ldreq	r0, [r1], #-0
    10f8:	d6030000 	strle	r0, [r3], -r0
    10fc:	03c12305 	biceq	r2, r1, #335544320	; 0x14000000
    1100:	03c10000 	biceq	r0, r1, #0, 0
    1104:	d9030000 	stmdble	r3, {}	; <UNPREDICTABLE>
    1108:	02b42307 	adcseq	r2, r4, #469762048	; 0x1c000000
    110c:	02b40000 	adcseq	r0, r4, #0, 0
    1110:	28030000 	stmdacs	r3, {}	; <UNPREDICTABLE>
    1114:	007a2306 	rsbseq	r2, sl, r6, lsl #6
    1118:	007a0000 	rsbseq	r0, sl, r0
    111c:	67030000 	strvs	r0, [r3, -r0]
    1120:	012f0006 			; <UNDEFINED> instruction: 0x012f0006
    1124:	00040000 	andeq	r0, r4, r0
    1128:	00000658 	andeq	r0, r0, r8, asr r6
    112c:	00ef0104 	rsceq	r0, pc, r4, lsl #2
    1130:	3b0c0000 	blcc	301138 <__bss_end__+0x2f7da8>
    1134:	e7000004 	str	r0, [r0, -r4]
    1138:	e0000002 	and	r0, r0, r2
    113c:	2c000088 	stccs	0, cr0, [r0], {136}	; 0x88
    1140:	4b000000 	blmi	1148 <__code_start__-0x6eb8>
    1144:	0200000a 	andeq	r0, r0, #10, 0
    1148:	6e690504 	cdpvs	5, 6, cr0, cr9, cr4, {0}
    114c:	04030074 	streq	r0, [r3], #-116	; 0xffffff8c
    1150:	0000be07 	andeq	fp, r0, r7, lsl #28
    1154:	06010300 	streq	r0, [r1], -r0, lsl #6
    1158:	0000006e 	andeq	r0, r0, lr, rrx
    115c:	e5050203 	str	r0, [r5, #-515]	; 0xfffffdfd
    1160:	03000000 	movweq	r0, #0
    1164:	00d00504 	sbcseq	r0, r0, r4, lsl #10
    1168:	08030000 	stmdaeq	r3, {}	; <UNPREDICTABLE>
    116c:	0000cb05 	andeq	ip, r0, r5, lsl #22
    1170:	08010300 	stmdaeq	r1, {r8, r9}
    1174:	0000006c 	andeq	r0, r0, ip, rrx
    1178:	93070203 	movwls	r0, #29187	; 0x7203
    117c:	03000000 	movweq	r0, #0
    1180:	00b90704 	adcseq	r0, r9, r4, lsl #14
    1184:	08030000 	stmdaeq	r3, {}	; <UNPREDICTABLE>
    1188:	0000b407 	andeq	fp, r0, r7, lsl #8
    118c:	00250400 	eoreq	r0, r5, r0, lsl #8
    1190:	007a0000 	rsbseq	r0, sl, r0
    1194:	25050000 	strcs	r0, [r5, #-0]
    1198:	00000000 	andeq	r0, r0, r0
    119c:	0000d906 	andeq	sp, r0, r6, lsl #18
    11a0:	0e1c0200 	cdpeq	2, 1, cr0, cr12, cr0, {0}
    11a4:	00000086 	andeq	r0, r0, r6, lsl #1
    11a8:	006b0407 	rsbeq	r0, fp, r7, lsl #8
    11ac:	25040000 	strcs	r0, [r4, #-0]
    11b0:	9b000000 	blls	11b8 <__code_start__-0x6e48>
    11b4:	05000000 	streq	r0, [r0, #-0]
    11b8:	0000009b 	muleq	r0, fp, r0
    11bc:	a8040700 	stmdage	r4, {r8, r9, sl}
    11c0:	03000000 	movweq	r0, #0
    11c4:	00750801 	rsbseq	r0, r5, r1, lsl #16
    11c8:	a1080000 	mrsge	r0, (UNDEF: 8)
    11cc:	06000000 	streq	r0, [r0], -r0
    11d0:	00000322 	andeq	r0, r0, r2, lsr #6
    11d4:	b90e2102 	stmdblt	lr, {r1, r8, sp}
    11d8:	07000000 	streq	r0, [r0, -r0]
    11dc:	00008c04 	andeq	r8, r0, r4, lsl #24
    11e0:	007a0900 	rsbseq	r0, sl, r0, lsl #18
    11e4:	04010000 	streq	r0, [r1], #-0
    11e8:	0088e006 	addeq	lr, r8, r6
    11ec:	00002c00 	andeq	r2, r0, r0, lsl #24
    11f0:	0e9c0100 	fmleqe	f0, f4, f0
    11f4:	0a000001 	beq	1200 <__code_start__-0x6e00>
    11f8:	000088f4 	strdeq	r8, [r0], -r4
    11fc:	000000e8 	andeq	r0, r0, r8, ror #1
    1200:	0550010b 	ldrbeq	r0, [r0, #-267]	; 0xfffffef5
    1204:	008f7003 	addeq	r7, pc, r3
    1208:	f80c0000 			; <UNDEFINED> instruction: 0xf80c0000
    120c:	0e000088 	cdpeq	0, 0, cr0, cr0, cr8, {4}
    1210:	0d000001 	stceq	0, cr0, [r0, #-4]
    1214:	00008900 	andeq	r8, r0, r0, lsl #18
    1218:	0000011a 	andeq	r0, r0, sl, lsl r1
    121c:	00000104 	andeq	r0, r0, r4, lsl #2
    1220:	0150010b 	cmpeq	r0, fp, lsl #2
    1224:	040c003a 	streq	r0, [ip], #-58	; 0xffffffc6
    1228:	26000089 	strcs	r0, [r0], -r9, lsl #1
    122c:	00000001 	andeq	r0, r0, r1
    1230:	0004540e 	andeq	r5, r4, lr, lsl #8
    1234:	00045400 	andeq	r5, r4, r0, lsl #8
    1238:	06460200 	strbeq	r0, [r6], -r0, lsl #4
    123c:	0004320e 	andeq	r3, r4, lr, lsl #4
    1240:	00043200 	andeq	r3, r4, r0, lsl #4
    1244:	06510200 	ldrbeq	r0, [r1], -r0, lsl #4
    1248:	0004270e 	andeq	r2, r4, lr, lsl #14
    124c:	00042700 	andeq	r2, r4, r0, lsl #14
    1250:	06640200 	strbteq	r0, [r4], -r0, lsl #4
    1254:	00015900 	andeq	r5, r1, r0, lsl #18
    1258:	18000400 	stmdane	r0, {sl}
    125c:	04000007 	streq	r0, [r0], #-7
    1260:	0000ef01 	andeq	lr, r0, r1, lsl #30
    1264:	04800c00 	streq	r0, [r0], #3072	; 0xc00
    1268:	02e70000 	rsceq	r0, r7, #0, 0
    126c:	890c0000 	stmdbhi	ip, {}	; <UNPREDICTABLE>
    1270:	00300000 	eorseq	r0, r0, r0
    1274:	0adc0000 	beq	ff70127c <__bss_end__+0xff6f7eec>
    1278:	04020000 	streq	r0, [r2], #-0
    127c:	746e6905 	strbtvc	r6, [lr], #-2309	; 0xfffff6fb
    1280:	07040300 	streq	r0, [r4, -r0, lsl #6]
    1284:	000000be 	strheq	r0, [r0], -lr
    1288:	6e060103 	adfvss	f0, f6, f3
    128c:	03000000 	movweq	r0, #0
    1290:	00e50502 	rsceq	r0, r5, r2, lsl #10
    1294:	04030000 	streq	r0, [r3], #-0
    1298:	0000d005 	andeq	sp, r0, r5
    129c:	05080300 	streq	r0, [r8, #-768]	; 0xfffffd00
    12a0:	000000cb 	andeq	r0, r0, fp, asr #1
    12a4:	6c080103 	stfvss	f0, [r8], {3}
    12a8:	03000000 	movweq	r0, #0
    12ac:	00930702 	addseq	r0, r3, r2, lsl #14
    12b0:	04030000 	streq	r0, [r3], #-0
    12b4:	0000b907 	andeq	fp, r0, r7, lsl #18
    12b8:	07080300 	streq	r0, [r8, -r0, lsl #6]
    12bc:	000000b4 	strheq	r0, [r0], -r4
    12c0:	00002504 	andeq	r2, r0, r4, lsl #10
    12c4:	00007a00 	andeq	r7, r0, r0, lsl #20
    12c8:	00250500 	eoreq	r0, r5, r0, lsl #10
    12cc:	06000000 	streq	r0, [r0], -r0
    12d0:	000000d9 	ldrdeq	r0, [r0], -r9
    12d4:	860e1c02 	strhi	r1, [lr], -r2, lsl #24
    12d8:	07000000 	streq	r0, [r0, -r0]
    12dc:	00006b04 	andeq	r6, r0, r4, lsl #22
    12e0:	00250400 	eoreq	r0, r5, r0, lsl #8
    12e4:	009b0000 	addseq	r0, fp, r0
    12e8:	9b050000 	blls	1412f0 <__bss_end__+0x137f60>
    12ec:	00000000 	andeq	r0, r0, r0
    12f0:	00a80407 	adceq	r0, r8, r7, lsl #8
    12f4:	01030000 	mrseq	r0, (UNDEF: 3)
    12f8:	00007508 	andeq	r7, r0, r8, lsl #10
    12fc:	00a10800 	adceq	r0, r1, r0, lsl #16
    1300:	22060000 	andcs	r0, r6, #0, 0
    1304:	02000003 	andeq	r0, r0, #3, 0
    1308:	00b90e21 	adcseq	r0, r9, r1, lsr #28
    130c:	04070000 	streq	r0, [r7], #-0
    1310:	0000008c 	andeq	r0, r0, ip, lsl #1
    1314:	00046209 	andeq	r6, r4, r9, lsl #4
    1318:	06030100 	streq	r0, [r3], -r0, lsl #2
    131c:	0000890c 	andeq	r8, r0, ip, lsl #18
    1320:	00000030 	andeq	r0, r0, r0, lsr r0
    1324:	01319c01 	teqeq	r1, r1, lsl #24
    1328:	53060000 	movwpl	r0, #24576	; 0x6000
    132c:	01000003 	tsteq	r0, r3
    1330:	00251004 	eoreq	r1, r5, r4
    1334:	7c060000 	stcvc	0, cr0, [r6], {-0}
    1338:	01000003 	tsteq	r0, r3
    133c:	00251f04 	eoreq	r1, r5, r4, lsl #30
    1340:	a40a0000 	strge	r0, [sl], #-0
    1344:	01000001 	tsteq	r0, r1
    1348:	620b0705 	andvs	r0, fp, #1310720	; 0x140000
    134c:	01007373 	tsteq	r0, r3, ror r3
    1350:	01310a09 	teqeq	r1, r9, lsl #20
    1354:	099b0000 	ldmibeq	fp, {}	; <UNPREDICTABLE>
    1358:	09950000 	ldmibeq	r5, {}	; <UNPREDICTABLE>
    135c:	6a0c0000 	bvs	301364 <__bss_end__+0x2f7fd4>
    1360:	01000004 	tsteq	r0, r4
    1364:	01310a0a 	teqeq	r1, sl, lsl #20
    1368:	140d0000 	strne	r0, [sp], #-0
    136c:	37000089 	strcc	r0, [r0, -r9, lsl #1]
    1370:	0d000001 	stceq	0, cr0, [r0, #-4]
    1374:	00008930 	andeq	r8, r0, r0, lsr r9
    1378:	00000144 	andeq	r0, r0, r4, asr #2
    137c:	0089340d 	addeq	r3, r9, sp, lsl #8
    1380:	00015000 	andeq	r5, r1, r0
    1384:	04070000 	streq	r0, [r7], #-0
    1388:	00000025 	andeq	r0, r0, r5, lsr #32
    138c:	0004720e 	andeq	r7, r4, lr, lsl #4
    1390:	00047200 	andeq	r7, r4, r0, lsl #4
    1394:	01170200 	tsteq	r7, r0, lsl #4
    1398:	01a40f06 			; <UNDEFINED> instruction: 0x01a40f06
    139c:	01a40000 			; <UNDEFINED> instruction: 0x01a40000
    13a0:	eb020000 	bl	813a8 <__bss_end__+0x78018>
    13a4:	007a0f06 	rsbseq	r0, sl, r6, lsl #30
    13a8:	007a0000 	rsbseq	r0, sl, r0
    13ac:	67020000 	strvs	r0, [r2, -r0]
    13b0:	00ce0006 	sbceq	r0, lr, r6
    13b4:	00040000 	andeq	r0, r4, r0
    13b8:	000007f8 	strdeq	r0, [r0], -r8
    13bc:	00ef0104 	rsceq	r0, pc, r4, lsl #2
    13c0:	930c0000 	movwls	r0, #49152	; 0xc000
    13c4:	e7000004 	str	r0, [r0, -r4]
    13c8:	3c000002 	stccc	0, cr0, [r0], {2}
    13cc:	04000089 	streq	r0, [r0], #-137	; 0xffffff77
    13d0:	82000000 	andhi	r0, r0, #0, 0
    13d4:	0200000b 	andeq	r0, r0, #11, 0
    13d8:	6e690504 	cdpvs	5, 6, cr0, cr9, cr4, {0}
    13dc:	04030074 	streq	r0, [r3], #-116	; 0xffffff8c
    13e0:	0000be07 	andeq	fp, r0, r7, lsl #28
    13e4:	06010300 	streq	r0, [r1], -r0, lsl #6
    13e8:	0000006e 	andeq	r0, r0, lr, rrx
    13ec:	e5050203 	str	r0, [r5, #-515]	; 0xfffffdfd
    13f0:	03000000 	movweq	r0, #0
    13f4:	00d00504 	sbcseq	r0, r0, r4, lsl #10
    13f8:	08030000 	stmdaeq	r3, {}	; <UNPREDICTABLE>
    13fc:	0000cb05 	andeq	ip, r0, r5, lsl #22
    1400:	08010300 	stmdaeq	r1, {r8, r9}
    1404:	0000006c 	andeq	r0, r0, ip, rrx
    1408:	93070203 	movwls	r0, #29187	; 0x7203
    140c:	03000000 	movweq	r0, #0
    1410:	00b90704 	adcseq	r0, r9, r4, lsl #14
    1414:	08030000 	stmdaeq	r3, {}	; <UNPREDICTABLE>
    1418:	0000b407 	andeq	fp, r0, r7, lsl #8
    141c:	00250400 	eoreq	r0, r5, r0, lsl #8
    1420:	007a0000 	rsbseq	r0, sl, r0
    1424:	25050000 	strcs	r0, [r5, #-0]
    1428:	00000000 	andeq	r0, r0, r0
    142c:	0000d906 	andeq	sp, r0, r6, lsl #18
    1430:	0e1c0200 	cdpeq	2, 1, cr0, cr12, cr0, {0}
    1434:	00000086 	andeq	r0, r0, r6, lsl #1
    1438:	006b0407 	rsbeq	r0, fp, r7, lsl #8
    143c:	25040000 	strcs	r0, [r4, #-0]
    1440:	9b000000 	blls	1448 <__code_start__-0x6bb8>
    1444:	05000000 	streq	r0, [r0, #-0]
    1448:	0000009b 	muleq	r0, fp, r0
    144c:	a8040700 	stmdage	r4, {r8, r9, sl}
    1450:	03000000 	movweq	r0, #0
    1454:	00750801 	rsbseq	r0, r5, r1, lsl #16
    1458:	a1080000 	mrsge	r0, (UNDEF: 8)
    145c:	06000000 	streq	r0, [r0], -r0
    1460:	00000322 	andeq	r0, r0, r2, lsr #6
    1464:	b90e2102 	stmdblt	lr, {r1, r8, sp}
    1468:	07000000 	streq	r0, [r0, -r0]
    146c:	00008c04 	andeq	r8, r0, r4, lsl #24
    1470:	04720900 	ldrbteq	r0, [r2], #-2304	; 0xfffff700
    1474:	04010000 	streq	r0, [r1], #-0
    1478:	00893c06 	addeq	r3, r9, r6, lsl #24
    147c:	00000400 	andeq	r0, r0, r0, lsl #8
    1480:	009c0100 	addseq	r0, ip, r0, lsl #2
    1484:	00000220 	andeq	r0, r0, r0, lsr #4
    1488:	08710004 	ldmdaeq	r1!, {r2}^
    148c:	01040000 	mrseq	r0, (UNDEF: 4)
    1490:	000000ef 	andeq	r0, r0, pc, ror #1
    1494:	0004de0c 	andeq	sp, r4, ip, lsl #28
    1498:	0002e700 	andeq	lr, r2, r0, lsl #14
    149c:	00001800 	andeq	r1, r0, r0, lsl #16
    14a0:	00000000 	andeq	r0, r0, r0
    14a4:	000c1100 	andeq	r1, ip, r0, lsl #2
    14a8:	05040200 	streq	r0, [r4, #-512]	; 0xfffffe00
    14ac:	00746e69 	rsbseq	r6, r4, r9, ror #28
    14b0:	00002503 	andeq	r2, r0, r3, lsl #10
    14b4:	07040400 	streq	r0, [r4, -r0, lsl #8]
    14b8:	000000be 	strheq	r0, [r0], -lr
    14bc:	6e060104 	adfvss	f0, f6, f4
    14c0:	04000000 	streq	r0, [r0], #-0
    14c4:	00e50502 	rsceq	r0, r5, r2, lsl #10
    14c8:	04040000 	streq	r0, [r4], #-0
    14cc:	0000d005 	andeq	sp, r0, r5
    14d0:	05080400 	streq	r0, [r8, #-1024]	; 0xfffffc00
    14d4:	000000cb 	andeq	r0, r0, fp, asr #1
    14d8:	6c080104 	stfvss	f0, [r8], {4}
    14dc:	04000000 	streq	r0, [r0], #-0
    14e0:	00930702 	addseq	r0, r3, r2, lsl #14
    14e4:	04040000 	streq	r0, [r4], #-0
    14e8:	0000b907 	andeq	fp, r0, r7, lsl #18
    14ec:	07080400 	streq	r0, [r8, -r0, lsl #8]
    14f0:	000000b4 	strheq	r0, [r0], -r4
    14f4:	00002505 	andeq	r2, r0, r5, lsl #10
    14f8:	00007f00 	andeq	r7, r0, r0, lsl #30
    14fc:	00250600 	eoreq	r0, r5, r0, lsl #12
    1500:	07000000 	streq	r0, [r0, -r0]
    1504:	000000d9 	ldrdeq	r0, [r0], -r9
    1508:	8b0e1c02 	blhi	388518 <__bss_end__+0x37f188>
    150c:	08000000 	stmdaeq	r0, {}	; <UNPREDICTABLE>
    1510:	00007004 	andeq	r7, r0, r4
    1514:	00250500 	eoreq	r0, r5, r0, lsl #10
    1518:	00a00000 	adceq	r0, r0, r0
    151c:	a0060000 	andge	r0, r6, r0
    1520:	00000000 	andeq	r0, r0, r0
    1524:	00ad0408 	adceq	r0, sp, r8, lsl #8
    1528:	01040000 	mrseq	r0, (UNDEF: 4)
    152c:	00007508 	andeq	r7, r0, r8, lsl #10
    1530:	00a60300 	adceq	r0, r6, r0, lsl #6
    1534:	22070000 	andcs	r0, r7, #0, 0
    1538:	02000003 	andeq	r0, r0, #3, 0
    153c:	00be0e21 	adcseq	r0, lr, r1, lsr #28
    1540:	04080000 	streq	r0, [r8], #-0
    1544:	00000091 	muleq	r0, r1, r0
    1548:	0004d309 	andeq	sp, r4, r9, lsl #6
    154c:	110d0100 	mrsne	r0, (UNDEF: 29)
    1550:	00000031 	andeq	r0, r0, r1, lsr r0
    1554:	0004270a 	andeq	r2, r4, sl, lsl #14
    1558:	061f0100 	ldreq	r0, [pc], -r0, lsl #2
    155c:	0000896c 	andeq	r8, r0, ip, ror #18
    1560:	00000050 	andeq	r0, r0, r0, asr r0
    1564:	01a59c01 			; <UNDEFINED> instruction: 0x01a59c01
    1568:	f10b0000 			; <UNDEFINED> instruction: 0xf10b0000
    156c:	01000004 	tsteq	r0, r4
    1570:	002c0f2f 	eoreq	r0, ip, pc, lsr #30
    1574:	09c80000 	stmibeq	r8, {}^	; <UNPREDICTABLE>
    1578:	09c60000 	stmibeq	r6, {}^	; <UNPREDICTABLE>
    157c:	ad0b0000 	stcge	0, cr0, [fp, #-0]
    1580:	01000004 	tsteq	r0, r4
    1584:	002c0f30 	eoreq	r0, ip, r0, lsr pc
    1588:	09e20000 	stmibeq	r2!, {}^	; <UNPREDICTABLE>
    158c:	09e00000 	stmibeq	r0!, {}^	; <UNPREDICTABLE>
    1590:	c40b0000 	strgt	r0, [fp], #-0
    1594:	01000004 	tsteq	r0, r4
    1598:	002c0f31 	eoreq	r0, ip, r1, lsr pc
    159c:	09fc0000 	ldmibeq	ip!, {}^	; <UNPREDICTABLE>
    15a0:	09fa0000 	ldmibeq	sl!, {}^	; <UNPREDICTABLE>
    15a4:	fe0b0000 	cdp2	0, 0, cr0, cr11, cr0, {0}
    15a8:	01000004 	tsteq	r0, r4
    15ac:	002c0f32 	eoreq	r0, ip, r2, lsr pc
    15b0:	0a150000 	beq	5415b8 <__bss_end__+0x538228>
    15b4:	0a130000 	beq	4c15bc <__bss_end__+0x4b822c>
    15b8:	740c0000 	strvc	r0, [ip], #-0
    15bc:	d0000089 	andle	r0, r0, r9, lsl #1
    15c0:	0c000001 	stceq	0, cr0, [r0], {1}
    15c4:	00008980 	andeq	r8, r0, r0, lsl #19
    15c8:	000001ff 	strdeq	r0, [r0], -pc	; <UNPREDICTABLE>
    15cc:	0089880d 	addeq	r8, r9, sp, lsl #16
    15d0:	00020b00 	andeq	r0, r2, r0, lsl #22
    15d4:	00015b00 	andeq	r5, r1, r0, lsl #22
    15d8:	50010e00 	andpl	r0, r1, r0, lsl #28
    15dc:	0d003a01 	vstreq	s6, [r0, #-4]
    15e0:	00008994 	muleq	r0, r4, r9
    15e4:	00000217 	andeq	r0, r0, r7, lsl r2
    15e8:	0000017b 	andeq	r0, r0, fp, ror r1
    15ec:	0550010e 	ldrbeq	r0, [r0, #-270]	; 0xfffffef2
    15f0:	1000240c 	andne	r2, r0, ip, lsl #8
    15f4:	51010e20 	tstpl	r1, r0, lsr #28
    15f8:	00010c05 	andeq	r0, r1, r5, lsl #24
    15fc:	0d005a00 	vstreq	s10, [r0, #-0]
    1600:	000089a0 	andeq	r8, r0, r0, lsr #19
    1604:	00000217 	andeq	r0, r0, r7, lsl r2
    1608:	0000019b 	muleq	r0, fp, r1
    160c:	0550010e 	ldrbeq	r0, [r0, #-270]	; 0xfffffef2
    1610:	10001c0c 	andne	r1, r0, ip, lsl #24
    1614:	51010e20 	tstpl	r1, r0, lsr #28
    1618:	00200c05 	eoreq	r0, r0, r5, lsl #24
    161c:	0c005a00 			; <UNDEFINED> instruction: 0x0c005a00
    1620:	000089a8 	andeq	r8, r0, r8, lsr #19
    1624:	000001a5 	andeq	r0, r0, r5, lsr #3
    1628:	04b50f00 	ldrteq	r0, [r5], #3840	; 0xf00
    162c:	17010000 	strne	r0, [r1, -r0]
    1630:	00895806 	addeq	r5, r9, r6, lsl #16
    1634:	00001400 	andeq	r1, r0, r0, lsl #8
    1638:	d09c0100 	addsle	r0, ip, r0, lsl #2
    163c:	0b000001 	bleq	1648 <__code_start__-0x69b8>
    1640:	000004f9 	strdeq	r0, [r0], -r9
    1644:	310e1801 	tstcc	lr, r1, lsl #16
    1648:	30000000 	andcc	r0, r0, r0
    164c:	2a00000a 	bcs	167c <__code_start__-0x6984>
    1650:	0000000a 	andeq	r0, r0, sl
    1654:	0004d010 	andeq	sp, r4, r0, lsl r0
    1658:	050e0100 	streq	r0, [lr, #-256]	; 0xffffff00
    165c:	00000025 	andeq	r0, r0, r5, lsr #32
    1660:	00008940 	andeq	r8, r0, r0, asr #18
    1664:	00000018 	andeq	r0, r0, r8, lsl r0
    1668:	01ff9c01 	mvnseq	r9, r1, lsl #24
    166c:	f90b0000 			; <UNDEFINED> instruction: 0xf90b0000
    1670:	01000004 	tsteq	r0, r4
    1674:	00310e0f 	eorseq	r0, r1, pc, lsl #28
    1678:	0a5e0000 	beq	1781680 <__bss_end__+0x17782f0>
    167c:	0a5a0000 	beq	1681684 <__bss_end__+0x16782f4>
    1680:	11000000 	mrsne	r0, (UNDEF: 0)
    1684:	00000454 	andeq	r0, r0, r4, asr r4
    1688:	00000454 	andeq	r0, r0, r4, asr r4
    168c:	11064602 	tstne	r6, r2, lsl #12
    1690:	00000432 	andeq	r0, r0, r2, lsr r4
    1694:	00000432 	andeq	r0, r0, r2, lsr r4
    1698:	11065102 	tstne	r6, r2, lsl #2
    169c:	0000020d 	andeq	r0, r0, sp, lsl #4
    16a0:	0000020d 	andeq	r0, r0, sp, lsl #4
    16a4:	0006a102 	andeq	sl, r6, r2, lsl #2
    16a8:	00000278 	andeq	r0, r0, r8, ror r2
    16ac:	09830004 	stmibeq	r3, {r2}
    16b0:	01040000 	mrseq	r0, (UNDEF: 4)
    16b4:	000000ef 	andeq	r0, r0, pc, ror #1
    16b8:	00056b0c 	andeq	r6, r5, ip, lsl #22
    16bc:	0002e700 	andeq	lr, r2, r0, lsl #14
    16c0:	0089bc00 	addeq	fp, r9, r0, lsl #24
    16c4:	00009c00 	andeq	r9, r0, r0, lsl #24
    16c8:	000cf100 	andeq	pc, ip, r0, lsl #2
    16cc:	05040200 	streq	r0, [r4, #-512]	; 0xfffffe00
    16d0:	00746e69 	rsbseq	r6, r4, r9, ror #28
    16d4:	be070403 	cdplt	4, 0, cr0, cr7, cr3, {0}
    16d8:	03000000 	movweq	r0, #0
    16dc:	006e0601 	rsbeq	r0, lr, r1, lsl #12
    16e0:	02030000 	andeq	r0, r3, #0, 0
    16e4:	0000e505 	andeq	lr, r0, r5, lsl #10
    16e8:	05040300 	streq	r0, [r4, #-768]	; 0xfffffd00
    16ec:	000000d0 	ldrdeq	r0, [r0], -r0	; <UNPREDICTABLE>
    16f0:	cb050803 	blgt	143704 <__bss_end__+0x13a374>
    16f4:	03000000 	movweq	r0, #0
    16f8:	006c0801 	rsbeq	r0, ip, r1, lsl #16
    16fc:	02030000 	andeq	r0, r3, #0, 0
    1700:	00009307 	andeq	r9, r0, r7, lsl #6
    1704:	07040300 	streq	r0, [r4, -r0, lsl #6]
    1708:	000000b9 	strheq	r0, [r0], -r9
    170c:	b4070803 	strlt	r0, [r7], #-2051	; 0xfffff7fd
    1710:	04000000 	streq	r0, [r0], #-0
    1714:	00000025 	andeq	r0, r0, r5, lsr #32
    1718:	0000007a 	andeq	r0, r0, sl, ror r0
    171c:	00002505 	andeq	r2, r0, r5, lsl #10
    1720:	d9060000 	stmdble	r6, {}	; <UNPREDICTABLE>
    1724:	02000000 	andeq	r0, r0, #0, 0
    1728:	00860e1c 	addeq	r0, r6, ip, lsl lr
    172c:	04070000 	streq	r0, [r7], #-0
    1730:	0000006b 	andeq	r0, r0, fp, rrx
    1734:	00002504 	andeq	r2, r0, r4, lsl #10
    1738:	00009b00 	andeq	r9, r0, r0, lsl #22
    173c:	009b0500 	addseq	r0, fp, r0, lsl #10
    1740:	07000000 	streq	r0, [r0, -r0]
    1744:	0000a804 	andeq	sl, r0, r4, lsl #16
    1748:	08010300 	stmdaeq	r1, {r8, r9}
    174c:	00000075 	andeq	r0, r0, r5, ror r0
    1750:	0000a108 	andeq	sl, r0, r8, lsl #2
    1754:	03220600 			; <UNDEFINED> instruction: 0x03220600
    1758:	21020000 	mrscs	r0, (UNDEF: 2)
    175c:	0000b90e 	andeq	fp, r0, lr, lsl #18
    1760:	8c040700 	stchi	7, cr0, [r4], {-0}
    1764:	09000000 	stmdbeq	r0, {}	; <UNPREDICTABLE>
    1768:	00000536 	andeq	r0, r0, r6, lsr r5
    176c:	40062b01 	andmi	r2, r6, r1, lsl #22
    1770:	1800008a 	stmdane	r0, {r1, r3, r7}
    1774:	01000000 	mrseq	r0, (UNDEF: 0)
    1778:	0001099c 	muleq	r1, ip, r9
    177c:	65730a00 	ldrbvs	r0, [r3, #-2560]!	; 0xfffff600
    1780:	2b010063 	blcs	41914 <__bss_end__+0x38584>
    1784:	00002c19 	andeq	r2, r0, r9, lsl ip
    1788:	000a8100 	andeq	r8, sl, r0, lsl #2
    178c:	000a7d00 	andeq	r7, sl, r0, lsl #26
    1790:	8a540b00 	bhi	1504398 <__bss_end__+0x14fb008>
    1794:	01090000 	mrseq	r0, (UNDEF: 9)
    1798:	010c0000 	mrseq	r0, (UNDEF: 12)
    179c:	01f31150 	mvnseq	r1, r0, asr r1
    17a0:	f3243550 	vqrshl.u32	<illegal reg q1.5>, q0, q2
    17a4:	321c5001 	andscc	r5, ip, #1, 0
    17a8:	5001f324 	andpl	pc, r1, r4, lsr #6
    17ac:	00243322 	eoreq	r3, r4, r2, lsr #6
    17b0:	04320900 	ldrteq	r0, [r2], #-2304	; 0xfffff700
    17b4:	28010000 	stmdacs	r1, {}	; <UNPREDICTABLE>
    17b8:	008a2806 	addeq	r2, sl, r6, lsl #16
    17bc:	00001800 	andeq	r1, r0, r0, lsl #16
    17c0:	529c0100 	addspl	r0, ip, #0
    17c4:	0a000001 	beq	17d0 <__code_start__-0x6830>
    17c8:	0100736d 	tsteq	r0, sp, ror #6
    17cc:	002c1828 	eoreq	r1, ip, r8, lsr #16
    17d0:	0aa60000 	beq	fe9817d8 <__bss_end__+0xfe978448>
    17d4:	0aa20000 	beq	fe8817dc <__bss_end__+0xfe87844c>
    17d8:	3c0b0000 	stccc	0, cr0, [fp], {-0}
    17dc:	5200008a 	andpl	r0, r0, #138, 0	; 0x8a
    17e0:	0c000001 	stceq	0, cr0, [r0], {1}
    17e4:	f3115001 	vhadd.u16	d5, d1, d1
    17e8:	24355001 	ldrtcs	r5, [r5], #-1
    17ec:	1c5001f3 	ldfnee	f0, [r0], {243}	; 0xf3
    17f0:	01f32432 	mvnseq	r2, r2, lsr r4
    17f4:	24332250 	ldrtcs	r2, [r3], #-592	; 0xfffffdb0
    17f8:	4f090000 	svcmi	0x00090000
    17fc:	01000005 	tsteq	r0, r5
    1800:	8a04061f 	bhi	103084 <__bss_end__+0xf9cf4>
    1804:	00240000 	eoreq	r0, r4, r0
    1808:	9c010000 	stcls	0, cr0, [r1], {-0}
    180c:	000001c2 	andeq	r0, r0, r2, asr #3
    1810:	0073750a 	rsbseq	r7, r3, sl, lsl #10
    1814:	2c181f01 	ldccs	15, cr1, [r8], {1}
    1818:	cb000000 	blgt	1820 <__code_start__-0x67e0>
    181c:	c700000a 	strgt	r0, [r0, -sl]
    1820:	0d00000a 	stceq	0, cr0, [r0, #-40]	; 0xffffffd8
    1824:	01006272 	tsteq	r0, r2, ror r2
    1828:	002c0e20 	eoreq	r0, ip, r0, lsr #28
    182c:	0aeb0000 	beq	ffac1834 <__bss_end__+0xffab84a4>
    1830:	0ae90000 	beq	ffa41838 <__bss_end__+0xffa384a8>
    1834:	140e0000 	strne	r0, [lr], #-0
    1838:	1400008a 	strne	r0, [r0], #-138	; 0xffffff76
    183c:	b8000000 	stmdalt	r0, {}	; <UNPREDICTABLE>
    1840:	0d000001 	stceq	0, cr0, [r0, #-4]
    1844:	01006172 	tsteq	r0, r2, ror r1
    1848:	002c1222 	eoreq	r1, ip, r2, lsr #4
    184c:	0b000000 	bleq	1854 <__code_start__-0x67ac>
    1850:	0afe0000 	beq	fff81858 <__bss_end__+0xfff784c8>
    1854:	180f0000 	stmdane	pc, {}	; <UNPREDICTABLE>
    1858:	c200008a 	andgt	r0, r0, #138, 0	; 0x8a
    185c:	00000001 	andeq	r0, r0, r1
    1860:	008a100f 	addeq	r1, sl, pc
    1864:	0001c200 	andeq	ip, r1, r0, lsl #4
    1868:	40100000 	andsmi	r0, r0, r0
    186c:	01000005 	tsteq	r0, r5
    1870:	002c0a16 	eoreq	r0, ip, r6, lsl sl
    1874:	89e80000 	stmibhi	r8!, {}^	; <UNPREDICTABLE>
    1878:	001c0000 	andseq	r0, ip, r0
    187c:	9c010000 	stcls	0, cr0, [r1], {-0}
    1880:	0000020a 	andeq	r0, r0, sl, lsl #4
    1884:	0100750d 	tsteq	r0, sp, lsl #10
    1888:	002c0e1a 	eoreq	r0, ip, sl, lsl lr
    188c:	0b170000 	bleq	5c1894 <__bss_end__+0x5b8504>
    1890:	0b130000 	bleq	4c1898 <__bss_end__+0x4b8508>
    1894:	f00f0000 			; <UNDEFINED> instruction: 0xf00f0000
    1898:	63000089 	movwvs	r0, #137	; 0x89
    189c:	0f000002 	svceq	0x00000002
    18a0:	000089f4 	strdeq	r8, [r0], -r4
    18a4:	0000020a 	andeq	r0, r0, sl, lsl #4
    18a8:	0089fc0f 	addeq	pc, r9, pc, lsl #24
    18ac:	00026300 	andeq	r6, r2, r0, lsl #6
    18b0:	58100000 	ldmdapl	r0, {}	; <UNPREDICTABLE>
    18b4:	01000005 	tsteq	r0, r5
    18b8:	002c0a11 	eoreq	r0, ip, r1, lsl sl
    18bc:	89d40000 	ldmibhi	r4, {}^	; <UNPREDICTABLE>
    18c0:	00140000 	andseq	r0, r4, r0
    18c4:	9c010000 	stcls	0, cr0, [r1], {-0}
    18c8:	00000238 	andeq	r0, r0, r8, lsr r2
    18cc:	0089e00b 	addeq	lr, r9, fp
    18d0:	00026f00 	andeq	r6, r2, r0, lsl #30
    18d4:	50010c00 	andpl	r0, r1, r0, lsl #24
    18d8:	30040c05 	andcc	r0, r4, r5, lsl #24
    18dc:	00002000 	andeq	r2, r0, r0
    18e0:	00051709 	andeq	r1, r5, r9, lsl #14
    18e4:	06050100 	streq	r0, [r5], -r0, lsl #2
    18e8:	000089bc 			; <UNDEFINED> instruction: 0x000089bc
    18ec:	00000018 	andeq	r0, r0, r8, lsl r0
    18f0:	02639c01 	rsbeq	r9, r3, #256	; 0x100
    18f4:	30110000 	andscc	r0, r1, r0
    18f8:	01000005 	tsteq	r0, r5
    18fc:	002c1c05 	eoreq	r1, ip, r5, lsl #24
    1900:	0b390000 	bleq	e41908 <__bss_end__+0xe38578>
    1904:	0b350000 	bleq	d4190c <__bss_end__+0xd3857c>
    1908:	12000000 	andne	r0, r0, #0, 0
    190c:	00000524 	andeq	r0, r0, r4, lsr #10
    1910:	00000524 	andeq	r0, r0, r4, lsr #10
    1914:	12069002 	andne	r9, r6, #2, 0
    1918:	000001b3 			; <UNDEFINED> instruction: 0x000001b3
    191c:	000001b3 			; <UNDEFINED> instruction: 0x000001b3
    1920:	000aad02 	andeq	sl, sl, r2, lsl #26
    1924:	00000568 	andeq	r0, r0, r8, ror #10
    1928:	0a980004 	beq	fe601940 <__bss_end__+0xfe5f85b0>
    192c:	01040000 	mrseq	r0, (UNDEF: 4)
    1930:	000000ef 	andeq	r0, r0, pc, ror #1
    1934:	0005b70c 	andeq	fp, r5, ip, lsl #14
    1938:	0005cc00 	andeq	ip, r5, r0, lsl #24
    193c:	008a7000 	addeq	r7, sl, r0
    1940:	0001ac00 	andeq	sl, r1, r0, lsl #24
    1944:	000df200 	andeq	pc, sp, r0, lsl #4
    1948:	05040200 	streq	r0, [r4, #-512]	; 0xfffffe00
    194c:	00746e69 	rsbseq	r6, r4, r9, ror #28
    1950:	be070403 	cdplt	4, 0, cr0, cr7, cr3, {0}
    1954:	04000000 	streq	r0, [r0], #-0
    1958:	0000002c 	andeq	r0, r0, ip, lsr #32
    195c:	6e060103 	adfvss	f0, f6, f3
    1960:	03000000 	movweq	r0, #0
    1964:	00e50502 	rsceq	r0, r5, r2, lsl #10
    1968:	04030000 	streq	r0, [r3], #-0
    196c:	0000d005 	andeq	sp, r0, r5
    1970:	05080300 	streq	r0, [r8, #-768]	; 0xfffffd00
    1974:	000000cb 	andeq	r0, r0, fp, asr #1
    1978:	6c080103 	stfvss	f0, [r8], {3}
    197c:	03000000 	movweq	r0, #0
    1980:	00930702 	addseq	r0, r3, r2, lsl #14
    1984:	39050000 	stmdbcc	r5, {}	; <UNPREDICTABLE>
    1988:	05000002 	streq	r0, [r0, #-2]
    198c:	006e1934 	rsbeq	r1, lr, r4, lsr r9
    1990:	04030000 	streq	r0, [r3], #-0
    1994:	0000b907 	andeq	fp, r0, r7, lsl #18
    1998:	07080300 	streq	r0, [r8, -r0, lsl #6]
    199c:	000000b4 	strheq	r0, [r0], -r4
    19a0:	00002506 	andeq	r2, r0, r6, lsl #10
    19a4:	00008b00 	andeq	r8, r0, r0, lsl #22
    19a8:	00250700 	eoreq	r0, r5, r0, lsl #14
    19ac:	08000000 	stmdaeq	r0, {}	; <UNPREDICTABLE>
    19b0:	000000d9 	ldrdeq	r0, [r0], -r9
    19b4:	970e1c02 	strls	r1, [lr, -r2, lsl #24]
    19b8:	09000000 	stmdbeq	r0, {}	; <UNPREDICTABLE>
    19bc:	00007c04 	andeq	r7, r0, r4, lsl #24
    19c0:	00250600 	eoreq	r0, r5, r0, lsl #12
    19c4:	00ac0000 	adceq	r0, ip, r0
    19c8:	ac070000 	stcge	0, cr0, [r7], {-0}
    19cc:	00000000 	andeq	r0, r0, r0
    19d0:	00b90409 	adcseq	r0, r9, r9, lsl #8
    19d4:	01030000 	mrseq	r0, (UNDEF: 3)
    19d8:	00007508 	andeq	r7, r0, r8, lsl #10
    19dc:	00b20a00 	adcseq	r0, r2, r0, lsl #20
    19e0:	22080000 	andcs	r0, r8, #0, 0
    19e4:	02000003 	andeq	r0, r0, #3, 0
    19e8:	00ca0e21 	sbceq	r0, sl, r1, lsr #28
    19ec:	04090000 	streq	r0, [r9], #-0
    19f0:	0000009d 	muleq	r0, sp, r0
    19f4:	5401070b 	strpl	r0, [r1], #-1803	; 0xfffff8f5
    19f8:	04000000 	streq	r0, [r0], #-0
    19fc:	010f0e0c 	tsteq	pc, ip, lsl #28
    1a00:	b70c0000 	strlt	r0, [ip, -r0]
    1a04:	00000006 	andeq	r0, r0, r6
    1a08:	00059a0c 	andeq	r9, r5, ip, lsl #20
    1a0c:	000c0100 	andeq	r0, ip, r0, lsl #2
    1a10:	04000006 	streq	r0, [r0], #-6
    1a14:	00060f0c 	andeq	r0, r6, ip, lsl #30
    1a18:	1e0c0500 	cfsh32ne	mvfx0, mvfx12, #0
    1a1c:	06000006 	streq	r0, [r0], -r6
    1a20:	00062d0c 	andeq	r2, r6, ip, lsl #26
    1a24:	930c0700 	movwls	r0, #50944	; 0xc700
    1a28:	03000006 	movweq	r0, #6
    1a2c:	00063c0c 	andeq	r3, r6, ip, lsl #24
    1a30:	0d000200 	sfmeq	f0, 4, [r0, #-0]
    1a34:	000005ab 	andeq	r0, r0, fp, lsr #11
    1a38:	0806032c 	stmdaeq	r6, {r2, r3, r5, r8, r9}
    1a3c:	000001ab 	andeq	r0, r0, fp, lsr #3
    1a40:	006f690e 	rsbeq	r6, pc, lr, lsl #18
    1a44:	33090903 	movwcc	r0, #39171	; 0x9903
    1a48:	00000000 	andeq	r0, r0, r0
    1a4c:	7265690e 	rsbvc	r6, r5, #229376	; 0x38000
    1a50:	090a0300 	stmdbeq	sl, {r8, r9}
    1a54:	00000033 	andeq	r0, r0, r3, lsr r0
    1a58:	69690e04 	stmdbvs	r9!, {r2, r9, sl, fp}^
    1a5c:	11030072 	tstne	r3, r2, ror r0
    1a60:	00003309 	andeq	r3, r0, r9, lsl #6
    1a64:	6c0e0800 	stcvs	8, cr0, [lr], {-0}
    1a68:	03007263 	movweq	r7, #611	; 0x263
    1a6c:	00330913 	eorseq	r0, r3, r3, lsl r9
    1a70:	0e0c0000 	cdpeq	0, 0, cr0, cr12, cr0, {0}
    1a74:	0072636d 	rsbseq	r6, r2, sp, ror #6
    1a78:	33091403 	movwcc	r1, #37891	; 0x9403
    1a7c:	10000000 	andne	r0, r0, r0
    1a80:	72736c0e 	rsbsvc	r6, r3, #3584	; 0xe00
    1a84:	09150300 	ldmdbeq	r5, {r8, r9}
    1a88:	00000033 	andeq	r0, r0, r3, lsr r0
    1a8c:	736d0e14 	cmnvc	sp, #20, 28	; 0x140
    1a90:	16030072 			; <UNDEFINED> instruction: 0x16030072
    1a94:	00003309 	andeq	r3, r0, r9, lsl #6
    1a98:	aa0f1800 	bge	3c7aa0 <__bss_end__+0x3be710>
    1a9c:	03000006 	movweq	r0, #6
    1aa0:	00330917 	eorseq	r0, r3, r7, lsl r9
    1aa4:	0f1c0000 	svceq	0x001c0000
    1aa8:	00000680 	andeq	r0, r0, r0, lsl #13
    1aac:	33091b03 	movwcc	r1, #39683	; 0x9b03
    1ab0:	20000000 	andcs	r0, r0, r0
    1ab4:	0005870f 	andeq	r8, r5, pc, lsl #14
    1ab8:	091d0300 	ldmdbeq	sp, {r8, r9}
    1abc:	00000033 	andeq	r0, r0, r3, lsr r0
    1ac0:	064b0f24 	strbeq	r0, [fp], -r4, lsr #30
    1ac4:	1e030000 	cdpne	0, 0, cr0, cr3, cr0, {0}
    1ac8:	00003309 	andeq	r3, r0, r9, lsl #6
    1acc:	10002800 	andne	r2, r0, r0, lsl #16
    1ad0:	00000650 	andeq	r0, r0, r0, asr r6
    1ad4:	c1090801 	tstgt	r9, r1, lsl #16
    1ad8:	04000001 	streq	r0, [r0], #-1
    1adc:	09202150 	stmdbeq	r0!, {r4, r6, r8, sp}
    1ae0:	00003304 	andeq	r3, r0, r4, lsl #6
    1ae4:	01bb0a00 			; <UNDEFINED> instruction: 0x01bb0a00
    1ae8:	b2100000 	andslt	r0, r0, #0, 0
    1aec:	01000006 	tsteq	r0, r6
    1af0:	01dc2329 	bicseq	r2, ip, r9, lsr #6
    1af4:	50400000 	subpl	r0, r0, r0
    1af8:	04092021 	streq	r2, [r9], #-33	; 0xffffffdf
    1afc:	0000010f 	andeq	r0, r0, pc, lsl #2
    1b00:	0001d60a 	andeq	sp, r1, sl, lsl #12
    1b04:	04541100 	ldrbeq	r1, [r4], #-256	; 0xffffff00
    1b08:	c2010000 	andgt	r0, r1, #0, 0
    1b0c:	008c0806 	addeq	r0, ip, r6, lsl #16
    1b10:	00001400 	andeq	r1, r0, r0, lsl #8
    1b14:	019c0100 	orrseq	r0, ip, r0, lsl #2
    1b18:	12000002 	andne	r0, r0, #2, 0
    1b1c:	00008c10 	andeq	r8, r0, r0, lsl ip
    1b20:	00000201 	andeq	r0, r0, r1, lsl #4
    1b24:	06661300 	strbteq	r1, [r6], -r0, lsl #6
    1b28:	ac010000 	stcge	0, cr0, [r1], {-0}
    1b2c:	00002505 	andeq	r2, r0, r5, lsl #10
    1b30:	008be800 	addeq	lr, fp, r0, lsl #16
    1b34:	00002000 	andeq	r2, r0, r0
    1b38:	389c0100 	ldmcc	ip, {r8}
    1b3c:	12000002 	andne	r0, r0, #2, 0
    1b40:	00008bf0 	strdeq	r8, [r0], -r0
    1b44:	0000053b 	andeq	r0, r0, fp, lsr r5
    1b48:	008bf814 	addeq	pc, fp, r4, lsl r8	; <UNPREDICTABLE>
    1b4c:	00054700 	andeq	r4, r5, r0, lsl #14
    1b50:	50011500 	andpl	r1, r1, r0, lsl #10
    1b54:	50640c05 	rsbpl	r0, r4, r5, lsl #24
    1b58:	00002021 	andeq	r2, r0, r1, lsr #32
    1b5c:	00068513 	andeq	r8, r6, r3, lsl r5
    1b60:	05a90100 	streq	r0, [r9, #256]!	; 0x100
    1b64:	00000025 	andeq	r0, r0, r5, lsr #32
    1b68:	00008bd8 	ldrdeq	r8, [r0], -r8	; <UNPREDICTABLE>
    1b6c:	00000010 	andeq	r0, r0, r0, lsl r0
    1b70:	02659c01 	rsbeq	r9, r5, #256	; 0x100
    1b74:	e0120000 	ands	r0, r2, r0
    1b78:	3b00008b 	blcc	1dac <__code_start__-0x6254>
    1b7c:	12000005 	andne	r0, r0, #5, 0
    1b80:	00008be4 	andeq	r8, r0, r4, ror #23
    1b84:	00000356 	andeq	r0, r0, r6, asr r3
    1b88:	057d1100 	ldrbeq	r1, [sp, #-256]!	; 0xffffff00
    1b8c:	a1010000 	mrsge	r0, (UNDEF: 1)
    1b90:	008ba806 	addeq	sl, fp, r6, lsl #16
    1b94:	00003000 	andeq	r3, r0, r0
    1b98:	c99c0100 	ldmibgt	ip, {r8}
    1b9c:	16000002 	strne	r0, [r0], -r2
    1ba0:	a1010063 	tstge	r1, r3, rrx
    1ba4:	00002c19 	andeq	r2, r0, r9, lsl ip
    1ba8:	000b5b00 	andeq	r5, fp, r0, lsl #22
    1bac:	000b5700 	andeq	r5, fp, r0, lsl #14
    1bb0:	8bb41200 	blhi	fed063b8 <__bss_end__+0xfecfd028>
    1bb4:	053b0000 	ldreq	r0, [fp, #-0]!
    1bb8:	b8120000 	ldmdalt	r2, {}	; <UNPREDICTABLE>
    1bbc:	2800008b 	stmdacs	r0, {r0, r1, r3, r7}
    1bc0:	17000003 	strne	r0, [r0, -r3]
    1bc4:	00008bcc 	andeq	r8, r0, ip, asr #23
    1bc8:	00000553 	andeq	r0, r0, r3, asr r5
    1bcc:	000002bf 			; <UNDEFINED> instruction: 0x000002bf
    1bd0:	05500115 	ldrbeq	r0, [r0, #-277]	; 0xfffffeeb
    1bd4:	2150400c 	cmpcs	r0, ip
    1bd8:	51011520 	tstpl	r1, r0, lsr #10
    1bdc:	08007405 	stmdaeq	r0, {r0, r2, sl, ip, sp, lr}
    1be0:	12001aff 	andne	r1, r0, #1044480	; 0xff000
    1be4:	00008bd0 	ldrdeq	r8, [r0], -r0
    1be8:	0000053b 	andeq	r0, r0, fp, lsr r5
    1bec:	065c1300 	ldrbeq	r1, [ip], -r0, lsl #6
    1bf0:	99010000 	stmdbls	r1, {}	; <UNPREDICTABLE>
    1bf4:	00002505 	andeq	r2, r0, r5, lsl #10
    1bf8:	008b7800 	addeq	r7, fp, r0, lsl #16
    1bfc:	00003000 	andeq	r3, r0, r0
    1c00:	289c0100 	ldmcs	ip, {r8}
    1c04:	18000003 	stmdane	r0, {r0, r1}
    1c08:	9d010063 	stcls	0, cr0, [r1, #-396]	; 0xfffffe74
    1c0c:	00002509 	andeq	r2, r0, r9, lsl #10
    1c10:	000b7b00 	andeq	r7, fp, r0, lsl #22
    1c14:	000b7900 	andeq	r7, fp, r0, lsl #18
    1c18:	8b801200 	blhi	fe006420 <__bss_end__+0xfdffd090>
    1c1c:	053b0000 	ldreq	r0, [fp, #-0]!
    1c20:	84120000 	ldrhi	r0, [r2], #-0
    1c24:	5600008b 	strpl	r0, [r0], -fp, lsl #1
    1c28:	17000003 	strne	r0, [r0, -r3]
    1c2c:	00008b94 	muleq	r0, r4, fp
    1c30:	00000547 	andeq	r0, r0, r7, asr #10
    1c34:	0000031e 	andeq	r0, r0, lr, lsl r3
    1c38:	05500115 	ldrbeq	r0, [r0, #-277]	; 0xfffffeeb
    1c3c:	2150400c 	cmpcs	r0, ip
    1c40:	9c120020 	ldcls	0, cr0, [r2], {32}
    1c44:	3b00008b 	blcc	1e78 <__code_start__-0x6188>
    1c48:	00000005 	andeq	r0, r0, r5
    1c4c:	0005be13 	andeq	fp, r5, r3, lsl lr
    1c50:	058a0100 	streq	r0, [sl, #256]	; 0x100
    1c54:	00000025 	andeq	r0, r0, r5, lsr #32
    1c58:	00008b58 	andeq	r8, r0, r8, asr fp
    1c5c:	00000020 	andeq	r0, r0, r0, lsr #32
    1c60:	03569c01 	cmpeq	r6, #256	; 0x100
    1c64:	64140000 	ldrvs	r0, [r4], #-0
    1c68:	4700008b 	strmi	r0, [r0, -fp, lsl #1]
    1c6c:	15000005 	strne	r0, [r0, #-5]
    1c70:	0c055001 	stceq	0, cr5, [r5], {1}
    1c74:	20215064 	eorcs	r5, r1, r4, rrx
    1c78:	8c130000 	ldchi	0, cr0, [r3], {-0}
    1c7c:	01000005 	tsteq	r0, r5
    1c80:	00250581 	eoreq	r0, r5, r1, lsl #11
    1c84:	8b400000 	blhi	1001c8c <__bss_end__+0xff88fc>
    1c88:	00180000 	andseq	r0, r8, r0
    1c8c:	9c010000 	stcls	0, cr0, [r1], {-0}
    1c90:	00000384 	andeq	r0, r0, r4, lsl #7
    1c94:	008b4c14 	addeq	r4, fp, r4, lsl ip
    1c98:	00054700 	andeq	r4, r5, r0, lsl #14
    1c9c:	50011500 	andpl	r1, r1, r0, lsl #10
    1ca0:	50640c05 	rsbpl	r0, r4, r5, lsl #24
    1ca4:	00002021 	andeq	r2, r0, r1, lsr #32
    1ca8:	00006211 	andeq	r6, r0, r1, lsl r2
    1cac:	063b0100 	ldrteq	r0, [fp], -r0, lsl #2
    1cb0:	00008a90 	muleq	r0, r0, sl
    1cb4:	000000b0 	strheq	r0, [r0], -r0	; <UNPREDICTABLE>
    1cb8:	04d19c01 	ldrbeq	r9, [r1], #3073	; 0xc01
    1cbc:	77190000 	ldrvc	r0, [r9, -r0]
    1cc0:	01000006 	tsteq	r0, r6
    1cc4:	00620e74 	rsbeq	r0, r2, r4, ror lr
    1cc8:	010e0000 	mrseq	r0, (UNDEF: 14)
    1ccc:	008aa017 	addeq	sl, sl, r7, lsl r0
    1cd0:	00055f00 	andeq	r5, r5, r0, lsl #30
    1cd4:	0003c000 	andeq	ip, r3, r0
    1cd8:	50011500 	andpl	r1, r1, r0, lsl #10
    1cdc:	01153e01 	tsteq	r5, r1, lsl #28
    1ce0:	00320151 	eorseq	r0, r2, r1, asr r1
    1ce4:	008aac17 	addeq	sl, sl, r7, lsl ip
    1ce8:	00055f00 	andeq	r5, r5, r0, lsl #30
    1cec:	0003d800 	andeq	sp, r3, r0, lsl #16
    1cf0:	50011500 	andpl	r1, r1, r0, lsl #10
    1cf4:	01153f01 	tsteq	r5, r1, lsl #30
    1cf8:	00320151 	eorseq	r0, r2, r1, asr r1
    1cfc:	008ab012 	addeq	fp, sl, r2, lsl r0
    1d00:	00053b00 	andeq	r3, r5, r0, lsl #22
    1d04:	8abc1700 	bhi	fef0790c <__bss_end__+0xfeefe57c>
    1d08:	04d10000 	ldrbeq	r0, [r1], #0
    1d0c:	03fd0000 	mvnseq	r0, #0, 0
    1d10:	01150000 	tsteq	r5, r0
    1d14:	040c0550 	streq	r0, [ip], #-1360	; 0xfffffab0
    1d18:	15202150 	strne	r2, [r0, #-336]!	; 0xfffffeb0
    1d1c:	31015101 	tstcc	r1, r1, lsl #2
    1d20:	8ac01200 	bhi	ff006528 <__bss_end__+0xfeffd198>
    1d24:	053b0000 	ldreq	r0, [fp, #-0]!
    1d28:	d0170000 	andsle	r0, r7, r0
    1d2c:	5300008a 	movwpl	r0, #138	; 0x8a
    1d30:	1f000005 	svcne	0x00000005
    1d34:	15000004 	strne	r0, [r0, #-4]
    1d38:	74025001 	strvc	r5, [r2], #-1
    1d3c:	51011500 	tstpl	r1, r0, lsl #10
    1d40:	17003001 	strne	r3, [r0, -r1]
    1d44:	00008adc 	ldrdeq	r8, [r0], -ip
    1d48:	00000553 	andeq	r0, r0, r3, asr r5
    1d4c:	0000043b 	andeq	r0, r0, fp, lsr r4
    1d50:	05500115 	ldrbeq	r0, [r0, #-277]	; 0xfffffeeb
    1d54:	2150440c 	cmpcs	r0, ip, lsl #8
    1d58:	51011520 	tstpl	r1, r0, lsr #10
    1d5c:	17003001 	strne	r3, [r0, -r1]
    1d60:	00008ae8 	andeq	r8, r0, r8, ror #21
    1d64:	00000553 	andeq	r0, r0, r3, asr r5
    1d68:	00000457 	andeq	r0, r0, r7, asr r4
    1d6c:	05500115 	ldrbeq	r0, [r0, #-277]	; 0xfffffeeb
    1d70:	21504c0c 	cmpcs	r0, ip, lsl #24
    1d74:	51011520 	tstpl	r1, r0, lsr #10
    1d78:	17003301 	strne	r3, [r0, -r1, lsl #6]
    1d7c:	00008af4 	strdeq	r8, [r0], -r4
    1d80:	00000553 	andeq	r0, r0, r3, asr r5
    1d84:	00000473 	andeq	r0, r0, r3, ror r4
    1d88:	05500115 	ldrbeq	r0, [r0, #-277]	; 0xfffffeeb
    1d8c:	2150500c 	cmpcs	r0, ip
    1d90:	51011520 	tstpl	r1, r0, lsr #10
    1d94:	17003001 	strne	r3, [r0, -r1]
    1d98:	00008b00 	andeq	r8, r0, r0, lsl #22
    1d9c:	00000553 	andeq	r0, r0, r3, asr r5
    1da0:	00000490 	muleq	r0, r0, r4
    1da4:	05500115 	ldrbeq	r0, [r0, #-277]	; 0xfffffeeb
    1da8:	2150480c 	cmpcs	r0, ip, lsl #16
    1dac:	51011520 	tstpl	r1, r0, lsr #10
    1db0:	00c70802 	sbceq	r0, r7, r2, lsl #16
    1db4:	008b0c17 	addeq	r0, fp, r7, lsl ip
    1db8:	00055300 	andeq	r5, r5, r0, lsl #6
    1dbc:	0004ae00 	andeq	sl, r4, r0, lsl #28
    1dc0:	50011500 	andpl	r1, r1, r0, lsl #10
    1dc4:	50680c05 	rsbpl	r0, r8, r5, lsl #24
    1dc8:	01152021 	tsteq	r5, r1, lsr #32
    1dcc:	0e0a0351 	mcreq	3, 0, r0, cr10, cr1, {2}
    1dd0:	18170001 	ldmdane	r7, {r0}
    1dd4:	5300008b 	movwpl	r0, #139	; 0x8b
    1dd8:	c7000005 	strgt	r0, [r0, -r5]
    1ddc:	15000004 	strne	r0, [r0, #-4]
    1de0:	74025001 	strvc	r5, [r2], #-1
    1de4:	51011500 	tstpl	r1, r0, lsl #10
    1de8:	12003301 	andne	r3, r0, #67108864	; 0x4000000
    1dec:	00008b1c 	andeq	r8, r0, ip, lsl fp
    1df0:	0000053b 	andeq	r0, r0, fp, lsr r5
    1df4:	06a21a00 	strteq	r1, [r2], r0, lsl #20
    1df8:	2e010000 	cdpcs	0, 0, cr0, cr1, cr0, {0}
    1dfc:	008a700d 	addeq	r7, sl, sp
    1e00:	00002000 	andeq	r2, r0, r0
    1e04:	349c0100 	ldrcc	r0, [ip], #256	; 0x100
    1e08:	1b000005 	blne	1e24 <__code_start__-0x61dc>
    1e0c:	000001eb 	andeq	r0, r0, fp, ror #3
    1e10:	34242e01 	strtcc	r2, [r4], #-3585	; 0xfffff1ff
    1e14:	92000005 	andls	r0, r0, #5, 0
    1e18:	8e00000b 	cdphi	0, 0, cr0, cr0, cr11, {0}
    1e1c:	1600000b 	strne	r0, [r0], -fp
    1e20:	006c6176 	rsbeq	r6, ip, r6, ror r1
    1e24:	2c332e01 	ldccs	14, cr2, [r3], #-4
    1e28:	b4000000 	strlt	r0, [r0], #-0
    1e2c:	b000000b 	andlt	r0, r0, fp
    1e30:	1700000b 	strne	r0, [r0, -fp]
    1e34:	00008a80 	andeq	r8, r0, r0, lsl #21
    1e38:	00000547 	andeq	r0, r0, r7, asr #10
    1e3c:	00000523 	andeq	r0, r0, r3, lsr #10
    1e40:	02500115 	subseq	r0, r0, #1073741829	; 0x40000005
    1e44:	14000074 	strne	r0, [r0], #-116	; 0xffffff8c
    1e48:	00008a8c 	andeq	r8, r0, ip, lsl #21
    1e4c:	00000553 	andeq	r0, r0, r3, asr r5
    1e50:	02500115 	subseq	r0, r0, #1073741829	; 0x40000005
    1e54:	00000074 	andeq	r0, r0, r4, ror r0
    1e58:	053a0409 	ldreq	r0, [sl, #-1033]!	; 0xfffffbf7
    1e5c:	1d1c0000 	ldcne	0, cr0, [ip, #-0]
    1e60:	00000524 	andeq	r0, r0, r4, lsr #10
    1e64:	00000524 	andeq	r0, r0, r4, lsr #10
    1e68:	1d069002 	stcne	0, cr9, [r6, #-8]
    1e6c:	000001c4 	andeq	r0, r0, r4, asr #3
    1e70:	000001c4 	andeq	r0, r0, r4, asr #3
    1e74:	1d0bae02 	stcne	14, cr10, [fp, #-8]
    1e78:	000001cf 	andeq	r0, r0, pc, asr #3
    1e7c:	000001cf 	andeq	r0, r0, pc, asr #3
    1e80:	1d06a202 	sfmne	f2, 1, [r6, #-8]
    1e84:	000006c7 	andeq	r0, r0, r7, asr #13
    1e88:	000006c7 	andeq	r0, r0, r7, asr #13
    1e8c:	00061904 	andeq	r1, r6, r4, lsl #18
    1e90:	000003bb 			; <UNDEFINED> instruction: 0x000003bb
    1e94:	0c550004 	mrrceq	0, 0, r0, r5, cr4
    1e98:	01040000 	mrseq	r0, (UNDEF: 4)
    1e9c:	000000ef 	andeq	r0, r0, pc, ror #1
    1ea0:	00075a0c 	andeq	r5, r7, ip, lsl #20
    1ea4:	0002e700 	andeq	lr, r2, r0, lsl #14
    1ea8:	008c1c00 	addeq	r1, ip, r0, lsl #24
    1eac:	0000e800 	andeq	lr, r0, r0, lsl #16
    1eb0:	000fab00 	andeq	sl, pc, r0, lsl #22
    1eb4:	05040200 	streq	r0, [r4, #-512]	; 0xfffffe00
    1eb8:	00746e69 	rsbseq	r6, r4, r9, ror #28
    1ebc:	be070403 	cdplt	4, 0, cr0, cr7, cr3, {0}
    1ec0:	04000000 	streq	r0, [r0], #-0
    1ec4:	0000002c 	andeq	r0, r0, ip, lsr #32
    1ec8:	6e060103 	adfvss	f0, f6, f3
    1ecc:	03000000 	movweq	r0, #0
    1ed0:	00e50502 	rsceq	r0, r5, r2, lsl #10
    1ed4:	04030000 	streq	r0, [r3], #-0
    1ed8:	0000d005 	andeq	sp, r0, r5
    1edc:	05080300 	streq	r0, [r8, #-768]	; 0xfffffd00
    1ee0:	000000cb 	andeq	r0, r0, fp, asr #1
    1ee4:	6c080103 	stfvss	f0, [r8], {3}
    1ee8:	03000000 	movweq	r0, #0
    1eec:	00930702 	addseq	r0, r3, r2, lsl #14
    1ef0:	39050000 	stmdbcc	r5, {}	; <UNPREDICTABLE>
    1ef4:	03000002 	movweq	r0, #2
    1ef8:	006e1934 	rsbeq	r1, lr, r4, lsr r9
    1efc:	04030000 	streq	r0, [r3], #-0
    1f00:	0000b907 	andeq	fp, r0, r7, lsl #18
    1f04:	07080300 	streq	r0, [r8, -r0, lsl #6]
    1f08:	000000b4 	strheq	r0, [r0], -r4
    1f0c:	00002506 	andeq	r2, r0, r6, lsl #10
    1f10:	00008b00 	andeq	r8, r0, r0, lsl #22
    1f14:	00250700 	eoreq	r0, r5, r0, lsl #14
    1f18:	08000000 	stmdaeq	r0, {}	; <UNPREDICTABLE>
    1f1c:	000000d9 	ldrdeq	r0, [r0], -r9
    1f20:	970e1c02 	strls	r1, [lr, -r2, lsl #24]
    1f24:	09000000 	stmdbeq	r0, {}	; <UNPREDICTABLE>
    1f28:	00007c04 	andeq	r7, r0, r4, lsl #24
    1f2c:	00250600 	eoreq	r0, r5, r0, lsl #12
    1f30:	00ac0000 	adceq	r0, ip, r0
    1f34:	ac070000 	stcge	0, cr0, [r7], {-0}
    1f38:	00000000 	andeq	r0, r0, r0
    1f3c:	00b90409 	adcseq	r0, r9, r9, lsl #8
    1f40:	01030000 	mrseq	r0, (UNDEF: 3)
    1f44:	00007508 	andeq	r7, r0, r8, lsl #10
    1f48:	00b20400 	adcseq	r0, r2, r0, lsl #8
    1f4c:	22080000 	andcs	r0, r8, #0, 0
    1f50:	02000003 	andeq	r0, r0, #3, 0
    1f54:	00ca0e21 	sbceq	r0, sl, r1, lsr #28
    1f58:	04090000 	streq	r0, [r9], #-0
    1f5c:	0000009d 	muleq	r0, sp, r0
    1f60:	5401070a 	strpl	r0, [r1], #-1802	; 0xfffff8f6
    1f64:	04000000 	streq	r0, [r0], #-0
    1f68:	010f0e0c 	tsteq	pc, ip, lsl #28
    1f6c:	b70b0000 	strlt	r0, [fp, -r0]
    1f70:	00000006 	andeq	r0, r0, r6
    1f74:	00059a0b 	andeq	r9, r5, fp, lsl #20
    1f78:	000b0100 	andeq	r0, fp, r0, lsl #2
    1f7c:	04000006 	streq	r0, [r0], #-6
    1f80:	00060f0b 	andeq	r0, r6, fp, lsl #30
    1f84:	1e0b0500 	cfsh32ne	mvfx0, mvfx11, #0
    1f88:	06000006 	streq	r0, [r0], -r6
    1f8c:	00062d0b 	andeq	r2, r6, fp, lsl #26
    1f90:	930b0700 	movwls	r0, #46848	; 0xb700
    1f94:	03000006 	movweq	r0, #6
    1f98:	00063c0b 	andeq	r3, r6, fp, lsl #24
    1f9c:	05000200 	streq	r0, [r0, #-512]	; 0xfffffe00
    1fa0:	00000732 	andeq	r0, r0, r2, lsr r7
    1fa4:	d0031504 	andle	r1, r3, r4, lsl #10
    1fa8:	0c000000 	stceq	0, cr0, [r0], {-0}
    1fac:	00000750 	andeq	r0, r0, r0, asr r7
    1fb0:	33170e01 	tstcc	r7, #1, 28
    1fb4:	00000000 	andeq	r0, r0, r0
    1fb8:	0c202000 	stceq	0, cr2, [r0], #-0
    1fbc:	000006e9 	andeq	r0, r0, r9, ror #13
    1fc0:	33170f01 	tstcc	r7, #1, 30
    1fc4:	1c000000 	stcne	0, cr0, [r0], {-0}
    1fc8:	0c202000 	stceq	0, cr2, [r0], #-0
    1fcc:	000006d9 	ldrdeq	r0, [r0], -r9
    1fd0:	33171001 	tstcc	r7, #1, 0
    1fd4:	28000000 	stmdacs	r0, {}	; <UNPREDICTABLE>
    1fd8:	0c202000 	stceq	0, cr2, [r0], #-0
    1fdc:	00000746 	andeq	r0, r0, r6, asr #14
    1fe0:	33171101 	tstcc	r7, #1073741824	; 0x40000000
    1fe4:	34000000 	strcc	r0, [r0], #-0
    1fe8:	0d202000 	stceq	0, cr2, [r0, #-0]
    1fec:	0000000b 	andeq	r0, r0, fp
    1ff0:	25054301 	strcs	r4, [r5, #-769]	; 0xfffffcff
    1ff4:	e4000000 	str	r0, [r0], #-0
    1ff8:	2000008c 	andcs	r0, r0, ip, lsl #1
    1ffc:	01000000 	mrseq	r0, (UNDEF: 0)
    2000:	00019d9c 	muleq	r1, ip, sp
    2004:	69700e00 	ldmdbvs	r0!, {r9, sl, fp}^
    2008:	4301006e 	movwmi	r0, #4206	; 0x106e
    200c:	00002c18 	andeq	r2, r0, r8, lsl ip
    2010:	000bd600 	andeq	sp, fp, r0, lsl #12
    2014:	000bd200 	andeq	sp, fp, r0, lsl #4
    2018:	8cf40f00 	ldclhi	15, cr0, [r4]
    201c:	03a60000 			; <UNDEFINED> instruction: 0x03a60000
    2020:	01100000 	tsteq	r0, r0
    2024:	340c0550 	strcc	r0, [ip], #-1360	; 0xfffffab0
    2028:	00202000 	eoreq	r2, r0, r0
    202c:	07061100 	streq	r1, [r6, -r0, lsl #2]
    2030:	3e010000 	cdpcc	0, 0, cr0, cr1, cr0, {0}
    2034:	008cd406 	addeq	sp, ip, r6, lsl #8
    2038:	00001000 	andeq	r1, r0, r0
    203c:	de9c0100 	fmllee	f0, f4, f0
    2040:	0e000001 	cdpeq	0, 0, cr0, cr0, cr1, {0}
    2044:	006e6970 	rsbeq	r6, lr, r0, ror r9
    2048:	2c1e3e01 	ldccs	14, cr3, [lr], {1}
    204c:	f8000000 			; <UNDEFINED> instruction: 0xf8000000
    2050:	f400000b 	vst4.8	{d0-d3}, [r0], fp
    2054:	0f00000b 	svceq	0x0000000b
    2058:	00008ce0 	andeq	r8, r0, r0, ror #25
    205c:	00000308 	andeq	r0, r0, r8, lsl #6
    2060:	03500110 	cmpeq	r0, #4
    2064:	105001f3 	ldrshne	r0, [r0], #-19	; 0xffffffed
    2068:	30015101 	andcc	r5, r1, r1, lsl #2
    206c:	fb110000 	blx	442076 <__bss_end__+0x438ce6>
    2070:	01000006 	tsteq	r0, r6
    2074:	8cb80632 	ldchi	6, cr0, [r8], #200	; 0xc8
    2078:	001c0000 	andseq	r0, ip, r0
    207c:	9c010000 	stcls	0, cr0, [r1], {-0}
    2080:	00000239 	andeq	r0, r0, r9, lsr r2
    2084:	6e69700e 	cdpvs	0, 6, cr7, cr9, cr14, {0}
    2088:	1a320100 	bne	c82490 <__bss_end__+0xc79100>
    208c:	0000002c 	andeq	r0, r0, ip, lsr #32
    2090:	00000c21 	andeq	r0, r0, r1, lsr #24
    2094:	00000c19 	andeq	r0, r0, r9, lsl ip
    2098:	0100760e 	tsteq	r0, lr, lsl #12
    209c:	002c2832 	eoreq	r2, ip, r2, lsr r8
    20a0:	0c630000 	stcleq	0, cr0, [r3], #-0
    20a4:	0c5b0000 	mraeq	r0, fp, acc0
    20a8:	c8120000 	ldmdagt	r2, {}	; <UNPREDICTABLE>
    20ac:	8000008c 	andhi	r0, r0, ip, lsl #1
    20b0:	2f000002 	svccs	0x00000002
    20b4:	10000002 	andne	r0, r0, r2
    20b8:	f3035001 	vhadd.u8	d5, d3, d1
    20bc:	13005001 	movwne	r5, #1
    20c0:	00008cd0 	ldrdeq	r8, [r0], -r0
    20c4:	00000239 	andeq	r0, r0, r9, lsr r2
    20c8:	07151100 	ldreq	r1, [r5, -r0, lsl #2]
    20cc:	2d010000 	stccs	0, cr0, [r1, #-0]
    20d0:	008c9c06 	addeq	r9, ip, r6, lsl #24
    20d4:	00001c00 	andeq	r1, r0, r0, lsl #24
    20d8:	809c0100 	addshi	r0, ip, r0, lsl #2
    20dc:	0e000002 	cdpeq	0, 0, cr0, cr0, cr2, {0}
    20e0:	006e6970 	rsbeq	r6, lr, r0, ror r9
    20e4:	2c1c2d01 	ldccs	13, cr2, [ip], {1}
    20e8:	a1000000 	mrsge	r0, (UNDEF: 0)
    20ec:	9d00000c 	stcls	0, cr0, [r0, #-48]	; 0xffffffd0
    20f0:	0f00000c 	svceq	0x0000000c
    20f4:	00008cb0 			; <UNDEFINED> instruction: 0x00008cb0
    20f8:	000003b2 			; <UNDEFINED> instruction: 0x000003b2
    20fc:	05500110 	ldrbeq	r0, [r0, #-272]	; 0xfffffef0
    2100:	2000280c 	andcs	r2, r0, ip, lsl #16
    2104:	51011020 	tstpl	r1, r0, lsr #32
    2108:	01f33105 	mvnseq	r3, r5, lsl #2
    210c:	00002450 	andeq	r2, r0, r0, asr r4
    2110:	00076511 	andeq	r6, r7, r1, lsl r5
    2114:	06280100 	strteq	r0, [r8], -r0, lsl #2
    2118:	00008c80 	andeq	r8, r0, r0, lsl #25
    211c:	0000001c 	andeq	r0, r0, ip, lsl r0
    2120:	02c79c01 	sbceq	r9, r7, #256	; 0x100
    2124:	700e0000 	andvc	r0, lr, r0
    2128:	01006e69 	tsteq	r0, r9, ror #28
    212c:	002c1b28 	eoreq	r1, ip, r8, lsr #22
    2130:	0cc60000 	stcleq	0, cr0, [r6], {0}
    2134:	0cc20000 	stcleq	0, cr0, [r2], {0}
    2138:	940f0000 	strls	r0, [pc], #-0	; 2140 <__code_start__-0x5ec0>
    213c:	b200008c 	andlt	r0, r0, #140, 0	; 0x8c
    2140:	10000003 	andne	r0, r0, r3
    2144:	0c055001 	stceq	0, cr5, [r5], {1}
    2148:	2020001c 	eorcs	r0, r0, ip, lsl r0
    214c:	05510110 	ldrbeq	r0, [r1, #-272]	; 0xfffffef0
    2150:	5001f331 	andpl	pc, r1, r1, lsr r3	; <UNPREDICTABLE>
    2154:	11000024 	tstne	r0, r4, lsr #32
    2158:	00000722 	andeq	r0, r0, r2, lsr #14
    215c:	70062301 	andvc	r2, r6, r1, lsl #6
    2160:	1000008c 	andne	r0, r0, ip, lsl #1
    2164:	01000000 	mrseq	r0, (UNDEF: 0)
    2168:	0003089c 	muleq	r3, ip, r8
    216c:	69700e00 	ldmdbvs	r0!, {r9, sl, fp}^
    2170:	2301006e 	movwcs	r0, #4206	; 0x106e
    2174:	00002c1f 	andeq	r2, r0, pc, lsl ip
    2178:	000ceb00 	andeq	lr, ip, r0, lsl #22
    217c:	000ce700 	andeq	lr, ip, r0, lsl #14
    2180:	8c7c0f00 	ldclhi	15, cr0, [ip], #-0
    2184:	03080000 	movweq	r0, #32768	; 0x8000
    2188:	01100000 	tsteq	r0, r0
    218c:	01f30350 	mvnseq	r0, r0, asr r3
    2190:	51011050 	qaddpl	r1, r0, r1
    2194:	00003101 	andeq	r3, r0, r1, lsl #2
    2198:	0006c711 	andeq	ip, r6, r1, lsl r7
    219c:	06140100 	ldreq	r0, [r4], -r0, lsl #2
    21a0:	00008c1c 	andeq	r8, r0, ip, lsl ip
    21a4:	00000054 	andeq	r0, r0, r4, asr r0
    21a8:	03a69c01 			; <UNDEFINED> instruction: 0x03a69c01
    21ac:	700e0000 	andvc	r0, lr, r0
    21b0:	01006e69 	tsteq	r0, r9, ror #28
    21b4:	002c2114 	eoreq	r2, ip, r4, lsl r1
    21b8:	0d100000 	ldceq	0, cr0, [r0, #-0]
    21bc:	0d0c0000 	stceq	0, cr0, [ip, #-0]
    21c0:	660e0000 	strvs	r0, [lr], -r0
    21c4:	14010076 	strne	r0, [r1], #-118	; 0xffffff8a
    21c8:	00010f32 	andeq	r0, r1, r2, lsr pc
    21cc:	000d3200 	andeq	r3, sp, r0, lsl #4
    21d0:	000d2e00 	andeq	r2, sp, r0, lsl #28
    21d4:	073e1400 	ldreq	r1, [lr, -r0, lsl #8]!
    21d8:	15010000 	strne	r0, [r1, #-0]
    21dc:	0000620e 	andeq	r6, r0, lr, lsl #4
    21e0:	000d5500 	andeq	r5, sp, r0, lsl #10
    21e4:	000d5300 	andeq	r5, sp, r0, lsl #6
    21e8:	06f31400 	ldrbteq	r1, [r3], r0, lsl #8
    21ec:	16010000 	strne	r0, [r1], -r0
    21f0:	0000620e 	andeq	r6, r0, lr, lsl #4
    21f4:	000d6a00 	andeq	r6, sp, r0, lsl #20
    21f8:	000d6800 	andeq	r6, sp, r0, lsl #16
    21fc:	06e31400 	strbteq	r1, [r3], r0, lsl #8
    2200:	17010000 	strne	r0, [r1, -r0]
    2204:	0000620e 	andeq	r6, r0, lr, lsl #4
    2208:	000d7f00 	andeq	r7, sp, r0, lsl #30
    220c:	000d7d00 	andeq	r7, sp, r0, lsl #26
    2210:	8c481200 	sfmhi	f1, 2, [r8], {-0}
    2214:	03a60000 			; <UNDEFINED> instruction: 0x03a60000
    2218:	03950000 	orrseq	r0, r5, #0, 0
    221c:	01100000 	tsteq	r0, r0
    2220:	00770250 	rsbseq	r0, r7, r0, asr r2
    2224:	8c680f00 	stclhi	15, cr0, [r8], #-0
    2228:	03b20000 			; <UNDEFINED> instruction: 0x03b20000
    222c:	01100000 	tsteq	r0, r0
    2230:	00770250 	rsbseq	r0, r7, r0, asr r2
    2234:	b3150000 	tstlt	r5, #0, 0
    2238:	b3000001 	movwlt	r0, #1
    223c:	02000001 	andeq	r0, r0, #1, 0
    2240:	0d150aad 	vldreq	s0, [r5, #-692]	; 0xfffffd4c
    2244:	0d000002 	stceq	0, cr0, [r0, #-8]
    2248:	02000002 	andeq	r0, r0, #2, 0
    224c:	490006a1 	stmdbmi	r0, {r0, r5, r7, r9, sl}
    2250:	04000001 	streq	r0, [r0], #-1
    2254:	000d9400 	andeq	r9, sp, r0, lsl #8
    2258:	ef010400 	svc	0x00010400
    225c:	0c000000 	stceq	0, cr0, [r0], {-0}
    2260:	0000078f 	andeq	r0, r0, pc, lsl #15
    2264:	000002e7 	andeq	r0, r0, r7, ror #5
    2268:	00008d04 	andeq	r8, r0, r4, lsl #26
    226c:	0000003c 	andeq	r0, r0, ip, lsr r0
    2270:	00001138 	andeq	r1, r0, r8, lsr r1
    2274:	69050402 	stmdbvs	r5, {r1, sl}
    2278:	0300746e 	movweq	r7, #1134	; 0x46e
    227c:	00be0704 	adcseq	r0, lr, r4, lsl #14
    2280:	01030000 	mrseq	r0, (UNDEF: 3)
    2284:	00006e06 	andeq	r6, r0, r6, lsl #28
    2288:	05020300 	streq	r0, [r2, #-768]	; 0xfffffd00
    228c:	000000e5 	andeq	r0, r0, r5, ror #1
    2290:	d0050403 	andle	r0, r5, r3, lsl #8
    2294:	03000000 	movweq	r0, #0
    2298:	00cb0508 	sbceq	r0, fp, r8, lsl #10
    229c:	01030000 	mrseq	r0, (UNDEF: 3)
    22a0:	00006c08 	andeq	r6, r0, r8, lsl #24
    22a4:	07020300 	streq	r0, [r2, -r0, lsl #6]
    22a8:	00000093 	muleq	r0, r3, r0
    22ac:	b9070403 	stmdblt	r7, {r0, r1, sl}
    22b0:	03000000 	movweq	r0, #0
    22b4:	00b40708 	adcseq	r0, r4, r8, lsl #14
    22b8:	25040000 	strcs	r0, [r4, #-0]
    22bc:	7a000000 	bvc	22c4 <__code_start__-0x5d3c>
    22c0:	05000000 	streq	r0, [r0, #-0]
    22c4:	00000025 	andeq	r0, r0, r5, lsr #32
    22c8:	00d90600 	sbcseq	r0, r9, r0, lsl #12
    22cc:	1c020000 	stcne	0, cr0, [r2], {-0}
    22d0:	0000860e 	andeq	r8, r0, lr, lsl #12
    22d4:	6b040700 	blvs	103edc <__bss_end__+0xfab4c>
    22d8:	04000000 	streq	r0, [r0], #-0
    22dc:	00000025 	andeq	r0, r0, r5, lsr #32
    22e0:	0000009b 	muleq	r0, fp, r0
    22e4:	00009b05 	andeq	r9, r0, r5, lsl #22
    22e8:	04070000 	streq	r0, [r7], #-0
    22ec:	000000a8 	andeq	r0, r0, r8, lsr #1
    22f0:	75080103 	strvc	r0, [r8, #-259]	; 0xfffffefd
    22f4:	08000000 	stmdaeq	r0, {}	; <UNPREDICTABLE>
    22f8:	000000a1 	andeq	r0, r0, r1, lsr #1
    22fc:	00032206 	andeq	r2, r3, r6, lsl #4
    2300:	0e210200 	cdpeq	2, 2, cr0, cr1, cr0, {0}
    2304:	000000b9 	strheq	r0, [r0], -r9
    2308:	008c0407 	addeq	r0, ip, r7, lsl #8
    230c:	7a090000 	bvc	242314 <__bss_end__+0x238f84>
    2310:	01000000 	mrseq	r0, (UNDEF: 0)
    2314:	03050706 	movweq	r0, #22278	; 0x5706
    2318:	00008f80 	andeq	r8, r0, r0, lsl #31
    231c:	0007820a 	andeq	r8, r7, sl, lsl #4
    2320:	060b0100 	streq	r0, [fp], -r0, lsl #2
    2324:	00008d30 	andeq	r8, r0, r0, lsr sp
    2328:	00000010 	andeq	r0, r0, r0, lsl r0
    232c:	00f19c01 	rscseq	r9, r1, r1, lsl #24
    2330:	660b0000 	strvs	r0, [fp], -r0
    2334:	0b010070 	bleq	424fc <__bss_end__+0x3916c>
    2338:	00008619 	andeq	r8, r0, r9, lsl r6
    233c:	00500100 	subseq	r0, r0, r0, lsl #2
    2340:	00079e0c 	andeq	r9, r7, ip, lsl #28
    2344:	06080100 	streq	r0, [r8], -r0, lsl #2
    2348:	00008d18 	andeq	r8, r0, r8, lsl sp
    234c:	00000018 	andeq	r0, r0, r8, lsl r0
    2350:	710d9c01 	tstvc	sp, r1, lsl #24
    2354:	01000007 	tsteq	r0, r7
    2358:	00250c03 	eoreq	r0, r5, r3, lsl #24
    235c:	8d040000 	stchi	0, cr0, [r4, #-0]
    2360:	00140000 	andseq	r0, r4, r0
    2364:	9c010000 	stcls	0, cr0, [r1], {-0}
    2368:	00000140 	andeq	r0, r0, r0, asr #2
    236c:	0100630e 	tsteq	r0, lr, lsl #6
    2370:	00252103 	eoreq	r2, r5, r3, lsl #2
    2374:	0d960000 	ldceq	0, cr0, [r6]
    2378:	0d920000 	ldceq	0, cr0, [r2]
    237c:	100f0000 	andne	r0, pc, r0
    2380:	4000008d 	andmi	r0, r0, sp, lsl #1
    2384:	10000001 	andne	r0, r0, r1
    2388:	74025001 	strvc	r5, [r2], #-1
    238c:	11000000 	mrsne	r0, (UNDEF: 0)
    2390:	0000057d 	andeq	r0, r0, sp, ror r5
    2394:	0000057d 	andeq	r0, r0, sp, ror r5
    2398:	00063b02 	andeq	r3, r6, r2, lsl #22
    239c:	00000137 	andeq	r0, r0, r7, lsr r1
    23a0:	0ea30004 	cdpeq	0, 10, cr0, cr3, cr4, {0}
    23a4:	01040000 	mrseq	r0, (UNDEF: 4)
    23a8:	000000ef 	andeq	r0, r0, pc, ror #1
    23ac:	0007ad0c 	andeq	sl, r7, ip, lsl #26
    23b0:	0002e700 	andeq	lr, r2, r0, lsl #14
    23b4:	008d4000 	addeq	r4, sp, r0
    23b8:	00003400 	andeq	r3, r0, r0, lsl #8
    23bc:	0011e200 	andseq	lr, r1, r0, lsl #4
    23c0:	05040200 	streq	r0, [r4, #-512]	; 0xfffffe00
    23c4:	00746e69 	rsbseq	r6, r4, r9, ror #28
    23c8:	be070403 	cdplt	4, 0, cr0, cr7, cr3, {0}
    23cc:	03000000 	movweq	r0, #0
    23d0:	006e0601 	rsbeq	r0, lr, r1, lsl #12
    23d4:	02030000 	andeq	r0, r3, #0, 0
    23d8:	0000e505 	andeq	lr, r0, r5, lsl #10
    23dc:	05040300 	streq	r0, [r4, #-768]	; 0xfffffd00
    23e0:	000000d0 	ldrdeq	r0, [r0], -r0	; <UNPREDICTABLE>
    23e4:	cb050803 	blgt	1443f8 <__bss_end__+0x13b068>
    23e8:	03000000 	movweq	r0, #0
    23ec:	006c0801 	rsbeq	r0, ip, r1, lsl #16
    23f0:	02030000 	andeq	r0, r3, #0, 0
    23f4:	00009307 	andeq	r9, r0, r7, lsl #6
    23f8:	07040300 	streq	r0, [r4, -r0, lsl #6]
    23fc:	000000b9 	strheq	r0, [r0], -r9
    2400:	b4070803 	strlt	r0, [r7], #-2051	; 0xfffff7fd
    2404:	04000000 	streq	r0, [r0], #-0
    2408:	00000025 	andeq	r0, r0, r5, lsr #32
    240c:	0000007a 	andeq	r0, r0, sl, ror r0
    2410:	00002505 	andeq	r2, r0, r5, lsl #10
    2414:	d9060000 	stmdble	r6, {}	; <UNPREDICTABLE>
    2418:	02000000 	andeq	r0, r0, #0, 0
    241c:	00860e1c 	addeq	r0, r6, ip, lsl lr
    2420:	04070000 	streq	r0, [r7], #-0
    2424:	0000006b 	andeq	r0, r0, fp, rrx
    2428:	00002504 	andeq	r2, r0, r4, lsl #10
    242c:	00009b00 	andeq	r9, r0, r0, lsl #22
    2430:	009b0500 	addseq	r0, fp, r0, lsl #10
    2434:	07000000 	streq	r0, [r0, -r0]
    2438:	0000a804 	andeq	sl, r0, r4, lsl #16
    243c:	08010300 	stmdaeq	r1, {r8, r9}
    2440:	00000075 	andeq	r0, r0, r5, ror r0
    2444:	0000a108 	andeq	sl, r0, r8, lsl #2
    2448:	03220600 			; <UNDEFINED> instruction: 0x03220600
    244c:	21020000 	mrscs	r0, (UNDEF: 2)
    2450:	0000b90e 	andeq	fp, r0, lr, lsl #18
    2454:	8c040700 	stchi	7, cr0, [r4], {-0}
    2458:	09000000 	stmdbeq	r0, {}	; <UNPREDICTABLE>
    245c:	000003c1 	andeq	r0, r0, r1, asr #7
    2460:	34070401 	strcc	r0, [r7], #-1025	; 0xfffffbff
    2464:	40000001 	andmi	r0, r0, r1
    2468:	3400008d 	strcc	r0, [r0], #-141	; 0xffffff73
    246c:	01000000 	mrseq	r0, (UNDEF: 0)
    2470:	0001349c 	muleq	r1, ip, r4
    2474:	07bb0a00 	ldreq	r0, [fp, r0, lsl #20]!
    2478:	04010000 	streq	r0, [r1], #-0
    247c:	00013415 	andeq	r3, r1, r5, lsl r4
    2480:	0b500100 	bleq	1402888 <__bss_end__+0x13f94f8>
    2484:	00637273 	rsbeq	r7, r3, r3, ror r2
    2488:	9b270401 	blls	9c3494 <__bss_end__+0x9ba104>
    248c:	b8000000 	stmdalt	r0, {}	; <UNPREDICTABLE>
    2490:	b400000d 	strlt	r0, [r0], #-13
    2494:	0c00000d 	stceq	0, cr0, [r0], {13}
    2498:	01003173 	tsteq	r0, r3, ror r1
    249c:	01340b05 	teqeq	r4, r5, lsl #22
    24a0:	0de30000 	stcleq	0, cr0, [r3]
    24a4:	0dd90000 	ldcleq	0, cr0, [r9]
    24a8:	730c0000 	movwvc	r0, #49152	; 0xc000
    24ac:	06010032 			; <UNDEFINED> instruction: 0x06010032
    24b0:	00009b11 	andeq	r9, r0, r1, lsl fp
    24b4:	000e2800 	andeq	r2, lr, r0, lsl #16
    24b8:	000e2400 	andeq	r2, lr, r0, lsl #8
    24bc:	00630c00 	rsbeq	r0, r3, r0, lsl #24
    24c0:	a10a0701 	tstge	sl, r1, lsl #14
    24c4:	4c000000 	stcmi	0, cr0, [r0], {-0}
    24c8:	4800000e 	stmdami	r0, {r1, r2, r3}
    24cc:	0000000e 	andeq	r0, r0, lr
    24d0:	00a10407 	adceq	r0, r1, r7, lsl #8
    24d4:	4e000000 	cdpmi	0, 0, cr0, cr0, cr0, {0}
    24d8:	04000001 	streq	r0, [r0], #-1
    24dc:	000f5900 	andeq	r5, pc, r0, lsl #18
    24e0:	ef010400 	svc	0x00010400
    24e4:	0c000000 	stceq	0, cr0, [r0], {-0}
    24e8:	000007c7 	andeq	r0, r0, r7, asr #15
    24ec:	000002e7 	andeq	r0, r0, r7, ror #5
    24f0:	00000028 	andeq	r0, r0, r8, lsr #32
    24f4:	00000000 	andeq	r0, r0, r0
    24f8:	000012d8 	ldrdeq	r1, [r0], -r8
    24fc:	69050402 	stmdbvs	r5, {r1, sl}
    2500:	0300746e 	movweq	r7, #1134	; 0x46e
    2504:	000007c0 	andeq	r0, r0, r0, asr #15
    2508:	3817d103 	ldmdacc	r7, {r0, r1, r8, ip, lr, pc}
    250c:	04000000 	streq	r0, [r0], #-0
    2510:	00be0704 	adcseq	r0, lr, r4, lsl #14
    2514:	01040000 	mrseq	r0, (UNDEF: 4)
    2518:	00006e06 	andeq	r6, r0, r6, lsl #28
    251c:	05020400 	streq	r0, [r2, #-1024]	; 0xfffffc00
    2520:	000000e5 	andeq	r0, r0, r5, ror #1
    2524:	d0050404 	andle	r0, r5, r4, lsl #8
    2528:	04000000 	streq	r0, [r0], #-0
    252c:	00cb0508 	sbceq	r0, fp, r8, lsl #10
    2530:	01040000 	mrseq	r0, (UNDEF: 4)
    2534:	00006c08 	andeq	r6, r0, r8, lsl #24
    2538:	005b0500 	subseq	r0, fp, r0, lsl #10
    253c:	02040000 	andeq	r0, r4, #0, 0
    2540:	00009307 	andeq	r9, r0, r7, lsl #6
    2544:	07040400 	streq	r0, [r4, -r0, lsl #8]
    2548:	000000b9 	strheq	r0, [r0], -r9
    254c:	b4070804 	strlt	r0, [r7], #-2052	; 0xfffff7fc
    2550:	06000000 	streq	r0, [r0], -r0
    2554:	00000025 	andeq	r0, r0, r5, lsr #32
    2558:	0000008b 	andeq	r0, r0, fp, lsl #1
    255c:	00002507 	andeq	r2, r0, r7, lsl #10
    2560:	d9080000 	stmdble	r8, {}	; <UNPREDICTABLE>
    2564:	02000000 	andeq	r0, r0, #0, 0
    2568:	00970e1c 	addseq	r0, r7, ip, lsl lr
    256c:	04090000 	streq	r0, [r9], #-0
    2570:	0000007c 	andeq	r0, r0, ip, ror r0
    2574:	00002506 	andeq	r2, r0, r6, lsl #10
    2578:	0000ac00 	andeq	sl, r0, r0, lsl #24
    257c:	00ac0700 	adceq	r0, ip, r0, lsl #14
    2580:	09000000 	stmdbeq	r0, {}	; <UNPREDICTABLE>
    2584:	0000b904 	andeq	fp, r0, r4, lsl #18
    2588:	08010400 	stmdaeq	r1, {sl}
    258c:	00000075 	andeq	r0, r0, r5, ror r0
    2590:	0000b205 	andeq	fp, r0, r5, lsl #4
    2594:	03220800 			; <UNDEFINED> instruction: 0x03220800
    2598:	21020000 	mrscs	r0, (UNDEF: 2)
    259c:	0000ca0e 	andeq	ip, r0, lr, lsl #20
    25a0:	9d040900 	vstrls.16	s0, [r4, #-0]	; <UNPREDICTABLE>
    25a4:	0a000000 	beq	25ac <__code_start__-0x5a54>
    25a8:	00000411 	andeq	r0, r0, r1, lsl r4
    25ac:	25050401 	strcs	r0, [r5, #-1025]	; 0xfffffbff
    25b0:	74000000 	strvc	r0, [r0], #-0
    25b4:	2c00008d 	stccs	0, cr0, [r0], {141}	; 0x8d
    25b8:	01000000 	mrseq	r0, (UNDEF: 0)
    25bc:	00014b9c 	muleq	r1, ip, fp
    25c0:	735f0b00 	cmpvc	pc, #0, 22
    25c4:	04010031 	streq	r0, [r1], #-49	; 0xffffffcf
    25c8:	0000ac19 	andeq	sl, r0, r9, lsl ip
    25cc:	000e6e00 	andeq	r6, lr, r0, lsl #28
    25d0:	000e6a00 	andeq	r6, lr, r0, lsl #20
    25d4:	735f0b00 	cmpvc	pc, #0, 22
    25d8:	04010032 	streq	r0, [r1], #-50	; 0xffffffce
    25dc:	0000ac2a 	andeq	sl, r0, sl, lsr #24
    25e0:	000e9300 	andeq	r9, lr, r0, lsl #6
    25e4:	000e8f00 	andeq	r8, lr, r0, lsl #30
    25e8:	006e0b00 	rsbeq	r0, lr, r0, lsl #22
    25ec:	2c360401 	cfldrscs	mvf0, [r6], #-4
    25f0:	ba000000 	blt	25f8 <__code_start__-0x5a08>
    25f4:	b400000e 	strlt	r0, [r0], #-14
    25f8:	0c00000e 	stceq	0, cr0, [r0], {14}
    25fc:	01003173 	tsteq	r0, r3, ror r1
    2600:	014b1a05 	cmpeq	fp, r5, lsl #20
    2604:	0eed0000 	cdpeq	0, 14, cr0, cr13, cr0, {0}
    2608:	0ee50000 	cdpeq	0, 14, cr0, cr5, cr0, {0}
    260c:	730c0000 	movwvc	r0, #49152	; 0xc000
    2610:	05010032 	streq	r0, [r1, #-50]	; 0xffffffce
    2614:	00014b2c 	andeq	r4, r1, ip, lsr #22
    2618:	000f2900 	andeq	r2, pc, r0, lsl #18
    261c:	000f2300 	andeq	r2, pc, r0, lsl #6
    2620:	04090000 	streq	r0, [r9], #-0
    2624:	00000062 	andeq	r0, r0, r2, rrx
	...

Disassembly of section .debug_abbrev:

00000000 <.debug_abbrev>:
       0:	25011101 	strcs	r1, [r1, #-257]	; 0xfffffeff
       4:	030b130e 	movweq	r1, #45838	; 0xb30e
       8:	110e1b0e 	tstne	lr, lr, lsl #22
       c:	10061201 	andne	r1, r6, r1, lsl #4
      10:	02000017 	andeq	r0, r0, #23, 0
      14:	0b0b0024 	bleq	2c00ac <__bss_end__+0x2b6d1c>
      18:	08030b3e 	stmdaeq	r3, {r1, r2, r3, r4, r5, r8, r9, fp}
      1c:	24030000 	strcs	r0, [r3], #-0
      20:	3e0b0b00 	vmlacc.f64	d0, d11, d0
      24:	000e030b 	andeq	r0, lr, fp, lsl #6
      28:	01150400 	tsteq	r5, r0, lsl #8
      2c:	13491927 	movtne	r1, #39207	; 0x9927
      30:	00001301 	andeq	r1, r0, r1, lsl #6
      34:	49000505 	stmdbmi	r0, {r0, r2, r8, sl}
      38:	06000013 			; <UNDEFINED> instruction: 0x06000013
      3c:	0e030034 	mcreq	0, 0, r0, cr3, cr4, {1}
      40:	0b3b0b3a 	bleq	ec2d30 <__bss_end__+0xeb99a0>
      44:	13490b39 	movtne	r0, #39737	; 0x9b39
      48:	193c193f 	ldmdbne	ip!, {r0, r1, r2, r3, r4, r5, r8, fp, ip}
      4c:	0f070000 	svceq	0x00070000
      50:	490b0b00 	stmdbmi	fp, {r8, r9, fp}
      54:	08000013 	stmdaeq	r0, {r0, r1, r4}
      58:	13490026 	movtne	r0, #36902	; 0x9026
      5c:	2e090000 	cdpcs	0, 0, cr0, cr9, cr0, {0}
      60:	03193f01 	tsteq	r9, #1, 30
      64:	3b0b3a0e 	blcc	2ce8a4 <__bss_end__+0x2c5514>
      68:	270b390b 	strcs	r3, [fp, -fp, lsl #18]
      6c:	12011119 	andne	r1, r1, #1073741830	; 0x40000006
      70:	97184006 	ldrls	r4, [r8, -r6]
      74:	13011942 	movwne	r1, #6466	; 0x1942
      78:	340a0000 	strcc	r0, [sl], #-0
      7c:	3a080300 	bcc	200c84 <__bss_end__+0x1f78f4>
      80:	390b3b0b 	stmdbcc	fp, {r0, r1, r3, r8, r9, fp, ip, sp}
      84:	0213490b 	andseq	r4, r3, #180224	; 0x2c000
      88:	1742b717 	smlaldne	fp, r2, r7, r7
      8c:	890b0000 	stmdbhi	fp, {}	; <UNPREDICTABLE>
      90:	11000182 	smlabbne	r0, r2, r1, r0
      94:	00133101 	andseq	r3, r3, r1, lsl #2
      98:	82890c00 	addhi	r0, r9, #0, 24
      9c:	01110101 	tsteq	r1, r1, lsl #2
      a0:	13011331 	movwne	r1, #4913	; 0x1331
      a4:	8a0d0000 	bhi	3400ac <__bss_end__+0x336d1c>
      a8:	02000182 	andeq	r0, r0, #-2147483616	; 0x80000020
      ac:	18429118 	stmdane	r2, {r3, r4, r8, ip, pc}^
      b0:	2e0e0000 	cdpcs	0, 0, cr0, cr14, cr0, {0}
      b4:	3c193f00 	ldccc	15, cr3, [r9], {-0}
      b8:	030e6e19 	movweq	r6, #60953	; 0xee19
      bc:	3b0b3a0e 	blcc	2ce8fc <__bss_end__+0x2c556c>
      c0:	000b390b 	andeq	r3, fp, fp, lsl #18
      c4:	11010000 	mrsne	r0, (UNDEF: 1)
      c8:	130e2501 	movwne	r2, #58625	; 0xe501
      cc:	1b0e030b 	blne	380d00 <__bss_end__+0x377970>
      d0:	1201110e 	andne	r1, r1, #-2147483645	; 0x80000003
      d4:	00171006 	andseq	r1, r7, r6
      d8:	00240200 	eoreq	r0, r4, r0, lsl #4
      dc:	0b3e0b0b 	bleq	f82d10 <__bss_end__+0xf79980>
      e0:	00000803 	andeq	r0, r0, r3, lsl #16
      e4:	0b002403 	bleq	90f8 <buf.3918+0x170>
      e8:	030b3e0b 	movweq	r3, #48651	; 0xbe0b
      ec:	0400000e 	streq	r0, [r0], #-14
      f0:	0e030016 	mcreq	0, 0, r0, cr3, cr6, {0}
      f4:	0b3b0b3a 	bleq	ec2de4 <__bss_end__+0xeb9a54>
      f8:	13490b39 	movtne	r0, #39737	; 0x9b39
      fc:	15050000 	strne	r0, [r5, #-0]
     100:	49192701 	ldmdbmi	r9, {r0, r8, r9, sl, sp}
     104:	00130113 	andseq	r0, r3, r3, lsl r1
     108:	00050600 	andeq	r0, r5, r0, lsl #12
     10c:	00001349 	andeq	r1, r0, r9, asr #6
     110:	03003407 	movweq	r3, #1031	; 0x407
     114:	3b0b3a0e 	blcc	2ce954 <__bss_end__+0x2c55c4>
     118:	490b390b 	stmdbmi	fp, {r0, r1, r3, r8, fp, ip, sp}
     11c:	3c193f13 	ldccc	15, cr3, [r9], {19}
     120:	08000019 	stmdaeq	r0, {r0, r3, r4}
     124:	0b0b000f 	bleq	2c0168 <__bss_end__+0x2b6dd8>
     128:	00001349 	andeq	r1, r0, r9, asr #6
     12c:	49002609 	stmdbmi	r0, {r0, r3, r9, sl, sp}
     130:	0a000013 	beq	184 <__code_start__-0x7e7c>
     134:	0e030034 	mcreq	0, 0, r0, cr3, cr4, {1}
     138:	0b3b0b3a 	bleq	ec2e28 <__bss_end__+0xeb9a98>
     13c:	13490b39 	movtne	r0, #39737	; 0x9b39
     140:	1802193f 	stmdane	r2, {r0, r1, r2, r3, r4, r5, r8, fp, ip}
     144:	040b0000 	streq	r0, [fp], #-0
     148:	0b0b3e01 	bleq	2cf954 <__bss_end__+0x2c65c4>
     14c:	3a13490b 	bcc	4d2580 <__bss_end__+0x4c91f0>
     150:	390b3b0b 	stmdbcc	fp, {r0, r1, r3, r8, r9, fp, ip, sp}
     154:	0013010b 	andseq	r0, r3, fp, lsl #2
     158:	00280c00 	eoreq	r0, r8, r0, lsl #24
     15c:	0b1c0e03 	bleq	703970 <__bss_end__+0x6fa5e0>
     160:	340d0000 	strcc	r0, [sp], #-0
     164:	3a0e0300 	bcc	380d6c <__bss_end__+0x3779dc>
     168:	390b3b0b 	stmdbcc	fp, {r0, r1, r3, r8, r9, fp, ip, sp}
     16c:	0213490b 	andseq	r4, r3, #180224	; 0x2c000
     170:	0e000018 	mcreq	0, 0, r0, cr0, cr8, {0}
     174:	193f012e 	ldmdbne	pc!, {r1, r2, r3, r5, r8}	; <UNPREDICTABLE>
     178:	0b3a0e03 	bleq	e8398c <__bss_end__+0xe7a5fc>
     17c:	0b390b3b 	bleq	e42e70 <__bss_end__+0xe39ae0>
     180:	13491927 	movtne	r1, #39207	; 0x9927
     184:	06120111 			; <UNDEFINED> instruction: 0x06120111
     188:	42971840 	addsmi	r1, r7, #64, 16	; 0x400000
     18c:	00130119 	andseq	r0, r3, r9, lsl r1
     190:	00050f00 	andeq	r0, r5, r0, lsl #30
     194:	0b3a0e03 	bleq	e839a8 <__bss_end__+0xe7a618>
     198:	0b390b3b 	bleq	e42e8c <__bss_end__+0xe39afc>
     19c:	17021349 	strne	r1, [r2, -r9, asr #6]
     1a0:	001742b7 			; <UNDEFINED> instruction: 0x001742b7
     1a4:	00341000 	eorseq	r1, r4, r0
     1a8:	0b3a0803 	bleq	e821bc <__bss_end__+0xe78e2c>
     1ac:	0b390b3b 	bleq	e42ea0 <__bss_end__+0xe39b10>
     1b0:	17021349 	strne	r1, [r2, -r9, asr #6]
     1b4:	001742b7 			; <UNDEFINED> instruction: 0x001742b7
     1b8:	82891100 	addhi	r1, r9, #0
     1bc:	01110101 	tsteq	r1, r1, lsl #2
     1c0:	13011331 	movwne	r1, #4913	; 0x1331
     1c4:	8a120000 	bhi	4801cc <__bss_end__+0x476e3c>
     1c8:	02000182 	andeq	r0, r0, #-2147483616	; 0x80000020
     1cc:	18429118 	stmdane	r2, {r3, r4, r8, ip, pc}^
     1d0:	89130000 	ldmdbhi	r3, {}	; <UNPREDICTABLE>
     1d4:	11010182 	smlabbne	r1, r2, r1, r0
     1d8:	00133101 	andseq	r3, r3, r1, lsl #2
     1dc:	012e1400 			; <UNDEFINED> instruction: 0x012e1400
     1e0:	0e03193f 			; <UNDEFINED> instruction: 0x0e03193f
     1e4:	0b3b0b3a 	bleq	ec2ed4 <__bss_end__+0xeb9b44>
     1e8:	19270b39 	stmdbne	r7!, {r0, r3, r4, r5, r8, r9, fp}
     1ec:	06120111 			; <UNDEFINED> instruction: 0x06120111
     1f0:	42971840 	addsmi	r1, r7, #64, 16	; 0x400000
     1f4:	00130119 	andseq	r0, r3, r9, lsl r1
     1f8:	00051500 	andeq	r1, r5, r0, lsl #10
     1fc:	0b3a0803 	bleq	e82210 <__bss_end__+0xe78e80>
     200:	0b390b3b 	bleq	e42ef4 <__bss_end__+0xe39b64>
     204:	17021349 	strne	r1, [r2, -r9, asr #6]
     208:	001742b7 			; <UNDEFINED> instruction: 0x001742b7
     20c:	82891600 	addhi	r1, r9, #0, 12
     210:	01110001 	tsteq	r1, r1
     214:	00001331 	andeq	r1, r0, r1, lsr r3
     218:	03012e17 	movweq	r2, #7703	; 0x1e17
     21c:	3b0b3a0e 	blcc	2cea5c <__bss_end__+0x2c56cc>
     220:	270b390b 	strcs	r3, [fp, -fp, lsl #18]
     224:	12011119 	andne	r1, r1, #1073741830	; 0x40000006
     228:	97184006 	ldrls	r4, [r8, -r6]
     22c:	13011942 	movwne	r1, #6466	; 0x1942
     230:	34180000 	ldrcc	r0, [r8], #-0
     234:	490e0300 	stmdbmi	lr, {r8, r9}
     238:	02193413 	andseq	r3, r9, #318767104	; 0x13000000
     23c:	19000018 	stmdbne	r0, {r3, r4}
     240:	13490101 	movtne	r0, #37121	; 0x9101
     244:	00001301 	andeq	r1, r0, r1, lsl #6
     248:	4900211a 	stmdbmi	r0, {r1, r3, r4, r8, sp}
     24c:	000b2f13 	andeq	r2, fp, r3, lsl pc
     250:	002e1b00 	eoreq	r1, lr, r0, lsl #22
     254:	193c193f 	ldmdbne	ip!, {r0, r1, r2, r3, r4, r5, r8, fp, ip}
     258:	0e030e6e 	cdpeq	14, 0, cr0, cr3, cr14, {3}
     25c:	0b3b0b3a 	bleq	ec2f4c <__bss_end__+0xeb9bbc>
     260:	00000b39 	andeq	r0, r0, r9, lsr fp
     264:	01110100 	tsteq	r1, r0, lsl #2
     268:	0b130e25 	bleq	4c3b04 <__bss_end__+0x4ba774>
     26c:	0e1b0e03 	cdpeq	14, 1, cr0, cr11, cr3, {0}
     270:	06120111 			; <UNDEFINED> instruction: 0x06120111
     274:	00001710 	andeq	r1, r0, r0, lsl r7
     278:	03001602 	movweq	r1, #1538	; 0x602
     27c:	3b0b3a0e 	blcc	2ceabc <__bss_end__+0x2c572c>
     280:	490b390b 	stmdbmi	fp, {r0, r1, r3, r8, fp, ip, sp}
     284:	03000013 	movweq	r0, #19
     288:	0e030113 	mcreq	1, 0, r0, cr3, cr3, {0}
     28c:	0b3a0b0b 	bleq	e82ec0 <__bss_end__+0xe79b30>
     290:	13010b3b 	movwne	r0, #6971	; 0x1b3b
     294:	0d040000 	stceq	0, cr0, [r4, #-0]
     298:	490e0300 	stmdbmi	lr, {r8, r9}
     29c:	340b3813 	strcc	r3, [fp], #-2067	; 0xfffff7ed
     2a0:	05000019 	streq	r0, [r0, #-25]	; 0xffffffe7
     2a4:	0b0b000f 	bleq	2c02e8 <__bss_end__+0x2b6f58>
     2a8:	24060000 	strcs	r0, [r6], #-0
     2ac:	3e0b0b00 	vmlacc.f64	d0, d11, d0
     2b0:	0008030b 	andeq	r0, r8, fp, lsl #6
     2b4:	00240700 	eoreq	r0, r4, r0, lsl #14
     2b8:	0b3e0b0b 	bleq	f82eec <__bss_end__+0xf79b5c>
     2bc:	00000e03 	andeq	r0, r0, r3, lsl #28
     2c0:	27011508 	strcs	r1, [r1, -r8, lsl #10]
     2c4:	01134919 	tsteq	r3, r9, lsl r9
     2c8:	09000013 	stmdbeq	r0, {r0, r1, r4}
     2cc:	13490005 	movtne	r0, #36869	; 0x9005
     2d0:	340a0000 	strcc	r0, [sl], #-0
     2d4:	3a0e0300 	bcc	380edc <__bss_end__+0x377b4c>
     2d8:	390b3b0b 	stmdbcc	fp, {r0, r1, r3, r8, r9, fp, ip, sp}
     2dc:	3f13490b 	svccc	0x0013490b
     2e0:	00193c19 	andseq	r3, r9, r9, lsl ip
     2e4:	000f0b00 	andeq	r0, pc, r0, lsl #22
     2e8:	13490b0b 	movtne	r0, #39691	; 0x9b0b
     2ec:	260c0000 	strcs	r0, [ip], -r0
     2f0:	00134900 	andseq	r4, r3, r0, lsl #18
     2f4:	012e0d00 			; <UNDEFINED> instruction: 0x012e0d00
     2f8:	0e03193f 			; <UNDEFINED> instruction: 0x0e03193f
     2fc:	0b3b0b3a 	bleq	ec2fec <__bss_end__+0xeb9c5c>
     300:	19270b39 	stmdbne	r7!, {r0, r3, r4, r5, r8, r9, fp}
     304:	01111349 	tsteq	r1, r9, asr #6
     308:	18400612 	stmdane	r0, {r1, r4, r9, sl}^
     30c:	01194297 			; <UNDEFINED> instruction: 0x01194297
     310:	0e000013 	mcreq	0, 0, r0, cr0, cr3, {0}
     314:	08030005 	stmdaeq	r3, {r0, r2}
     318:	0b3b0b3a 	bleq	ec3008 <__bss_end__+0xeb9c78>
     31c:	13490b39 	movtne	r0, #39737	; 0x9b39
     320:	00001802 	andeq	r1, r0, r2, lsl #16
     324:	0000180f 	andeq	r1, r0, pc, lsl #16
     328:	00341000 	eorseq	r1, r4, r0
     32c:	0b3a0803 	bleq	e82340 <__bss_end__+0xe78fb0>
     330:	0b390b3b 	bleq	e43024 <__bss_end__+0xe39c94>
     334:	18021349 	stmdane	r2, {r0, r3, r6, r8, r9, ip}
     338:	34110000 	ldrcc	r0, [r1], #-0
     33c:	3a0e0300 	bcc	380f44 <__bss_end__+0x377bb4>
     340:	390b3b0b 	stmdbcc	fp, {r0, r1, r3, r8, r9, fp, ip, sp}
     344:	0213490b 	andseq	r4, r3, #180224	; 0x2c000
     348:	12000018 	andne	r0, r0, #24, 0
     34c:	08030034 	stmdaeq	r3, {r2, r4, r5}
     350:	0b3b0b3a 	bleq	ec3040 <__bss_end__+0xeb9cb0>
     354:	13490b39 	movtne	r0, #39737	; 0x9b39
     358:	42b71702 	adcsmi	r1, r7, #524288	; 0x80000
     35c:	13000017 	movwne	r0, #23
     360:	01018289 	smlabbeq	r1, r9, r2, r8
     364:	13310111 	teqne	r1, #1073741828	; 0x40000004
     368:	00001301 	andeq	r1, r0, r1, lsl #6
     36c:	01828a14 	orreq	r8, r2, r4, lsl sl
     370:	91180200 	tstls	r8, r0, lsl #4
     374:	00001842 	andeq	r1, r0, r2, asr #16
     378:	01828915 	orreq	r8, r2, r5, lsl r9
     37c:	00011101 	andeq	r1, r1, r1, lsl #2
     380:	01011600 	tsteq	r1, r0, lsl #12
     384:	13011349 	movwne	r1, #4937	; 0x1349
     388:	21170000 	tstcs	r7, r0
     38c:	2f134900 	svccs	0x00134900
     390:	18000005 	stmdane	r0, {r0, r2}
     394:	193f002e 	ldmdbne	pc!, {r1, r2, r3, r5}	; <UNPREDICTABLE>
     398:	0e6e193c 			; <UNDEFINED> instruction: 0x0e6e193c
     39c:	0b3a0e03 	bleq	e83bb0 <__bss_end__+0xe7a820>
     3a0:	0b390b3b 	bleq	e43094 <__bss_end__+0xe39d04>
     3a4:	01000000 	mrseq	r0, (UNDEF: 0)
     3a8:	0e250111 	mcreq	1, 1, r0, cr5, cr1, {0}
     3ac:	0e030b13 	vmoveq.32	d3[0], r0
     3b0:	01110e1b 	tsteq	r1, fp, lsl lr
     3b4:	17100612 			; <UNDEFINED> instruction: 0x17100612
     3b8:	24020000 	strcs	r0, [r2], #-0
     3bc:	3e0b0b00 	vmlacc.f64	d0, d11, d0
     3c0:	0008030b 	andeq	r0, r8, fp, lsl #6
     3c4:	00240300 	eoreq	r0, r4, r0, lsl #6
     3c8:	0b3e0b0b 	bleq	f82ffc <__bss_end__+0xf79c6c>
     3cc:	00000e03 	andeq	r0, r0, r3, lsl #28
     3d0:	27011504 	strcs	r1, [r1, -r4, lsl #10]
     3d4:	01134919 	tsteq	r3, r9, lsl r9
     3d8:	05000013 	streq	r0, [r0, #-19]	; 0xffffffed
     3dc:	13490005 	movtne	r0, #36869	; 0x9005
     3e0:	34060000 	strcc	r0, [r6], #-0
     3e4:	3a0e0300 	bcc	380fec <__bss_end__+0x377c5c>
     3e8:	390b3b0b 	stmdbcc	fp, {r0, r1, r3, r8, r9, fp, ip, sp}
     3ec:	3f13490b 	svccc	0x0013490b
     3f0:	00193c19 	andseq	r3, r9, r9, lsl ip
     3f4:	000f0700 	andeq	r0, pc, r0, lsl #14
     3f8:	13490b0b 	movtne	r0, #39691	; 0x9b0b
     3fc:	26080000 	strcs	r0, [r8], -r0
     400:	00134900 	andseq	r4, r3, r0, lsl #18
     404:	00340900 	eorseq	r0, r4, r0, lsl #18
     408:	0b3a1347 	bleq	e8512c <__bss_end__+0xe7bd9c>
     40c:	0b390b3b 	bleq	e43100 <__bss_end__+0xe39d70>
     410:	00001802 	andeq	r1, r0, r2, lsl #16
     414:	3f012e0a 	svccc	0x00012e0a
     418:	3a0e0319 	bcc	381084 <__bss_end__+0x377cf4>
     41c:	390b3b0b 	stmdbcc	fp, {r0, r1, r3, r8, r9, fp, ip, sp}
     420:	4919270b 	ldmdbmi	r9, {r0, r1, r3, r8, r9, sl, sp}
     424:	12011113 	andne	r1, r1, #-1073741820	; 0xc0000004
     428:	96184006 	ldrls	r4, [r8], -r6
     42c:	00001942 	andeq	r1, r0, r2, asr #18
     430:	0300050b 	movweq	r0, #1291	; 0x50b
     434:	3b0b3a08 	blcc	2cec5c <__bss_end__+0x2c58cc>
     438:	490b390b 	stmdbmi	fp, {r0, r1, r3, r8, fp, ip, sp}
     43c:	b7170213 			; <UNDEFINED> instruction: 0xb7170213
     440:	00001742 	andeq	r1, r0, r2, asr #14
     444:	01110100 	tsteq	r1, r0, lsl #2
     448:	0b130e25 	bleq	4c3ce4 <__bss_end__+0x4ba954>
     44c:	0e1b0e03 	cdpeq	14, 1, cr0, cr11, cr3, {0}
     450:	06120111 			; <UNDEFINED> instruction: 0x06120111
     454:	00001710 	andeq	r1, r0, r0, lsl r7
     458:	0b002402 	bleq	9468 <__bss_end__+0xd8>
     45c:	030b3e0b 	movweq	r3, #48651	; 0xbe0b
     460:	03000008 	movweq	r0, #8
     464:	0b0b0024 	bleq	2c04fc <__bss_end__+0x2b716c>
     468:	0e030b3e 	vmoveq.16	d3[0], r0
     46c:	16040000 	strne	r0, [r4], -r0
     470:	3a0e0300 	bcc	381078 <__bss_end__+0x377ce8>
     474:	390b3b0b 	stmdbcc	fp, {r0, r1, r3, r8, r9, fp, ip, sp}
     478:	0013490b 	andseq	r4, r3, fp, lsl #18
     47c:	01150500 	tsteq	r5, r0, lsl #10
     480:	13491927 	movtne	r1, #39207	; 0x9927
     484:	00001301 	andeq	r1, r0, r1, lsl #6
     488:	49000506 	stmdbmi	r0, {r1, r2, r8, sl}
     48c:	07000013 	smladeq	r0, r3, r0, r0
     490:	0e030034 	mcreq	0, 0, r0, cr3, cr4, {1}
     494:	0b3b0b3a 	bleq	ec3184 <__bss_end__+0xeb9df4>
     498:	13490b39 	movtne	r0, #39737	; 0x9b39
     49c:	193c193f 	ldmdbne	ip!, {r0, r1, r2, r3, r4, r5, r8, fp, ip}
     4a0:	0f080000 	svceq	0x00080000
     4a4:	490b0b00 	stmdbmi	fp, {r8, r9, fp}
     4a8:	09000013 	stmdbeq	r0, {r0, r1, r4}
     4ac:	13490026 	movtne	r0, #36902	; 0x9026
     4b0:	130a0000 	movwne	r0, #40960	; 0xa000
     4b4:	0b0e0301 	bleq	3810c0 <__bss_end__+0x377d30>
     4b8:	3b0b3a0b 	blcc	2cecec <__bss_end__+0x2c595c>
     4bc:	0013010b 	andseq	r0, r3, fp, lsl #2
     4c0:	000d0b00 	andeq	r0, sp, r0, lsl #22
     4c4:	13490e03 	movtne	r0, #40451	; 0x9e03
     4c8:	19340b38 	ldmdbne	r4!, {r3, r4, r5, r8, r9, fp}
     4cc:	0f0c0000 	svceq	0x000c0000
     4d0:	000b0b00 	andeq	r0, fp, r0, lsl #22
     4d4:	012e0d00 			; <UNDEFINED> instruction: 0x012e0d00
     4d8:	0e03193f 			; <UNDEFINED> instruction: 0x0e03193f
     4dc:	0b3b0b3a 	bleq	ec31cc <__bss_end__+0xeb9e3c>
     4e0:	19270b39 	stmdbne	r7!, {r0, r3, r4, r5, r8, r9, fp}
     4e4:	01111349 	tsteq	r1, r9, asr #6
     4e8:	18400612 	stmdane	r0, {r1, r4, r9, sl}^
     4ec:	01194297 			; <UNDEFINED> instruction: 0x01194297
     4f0:	0e000013 	mcreq	0, 0, r0, cr0, cr3, {0}
     4f4:	08030005 	stmdaeq	r3, {r0, r2}
     4f8:	0b3b0b3a 	bleq	ec31e8 <__bss_end__+0xeb9e58>
     4fc:	13490b39 	movtne	r0, #39737	; 0x9b39
     500:	42b71702 	adcsmi	r1, r7, #524288	; 0x80000
     504:	0f000017 	svceq	0x00000017
     508:	0e030005 	cdpeq	0, 0, cr0, cr3, cr5, {0}
     50c:	0b3b0b3a 	bleq	ec31fc <__bss_end__+0xeb9e6c>
     510:	13490b39 	movtne	r0, #39737	; 0x9b39
     514:	00001802 	andeq	r1, r0, r2, lsl #16
     518:	03003410 	movweq	r3, #1040	; 0x410
     51c:	3b0b3a08 	blcc	2ced44 <__bss_end__+0x2c59b4>
     520:	490b390b 	stmdbmi	fp, {r0, r1, r3, r8, fp, ip, sp}
     524:	b7170213 			; <UNDEFINED> instruction: 0xb7170213
     528:	00001742 	andeq	r1, r0, r2, asr #14
     52c:	03003411 	movweq	r3, #1041	; 0x411
     530:	3b0b3a08 	blcc	2ced58 <__bss_end__+0x2c59c8>
     534:	490b390b 	stmdbmi	fp, {r0, r1, r3, r8, fp, ip, sp}
     538:	12000013 	andne	r0, r0, #19, 0
     53c:	0e030034 	mcreq	0, 0, r0, cr3, cr4, {1}
     540:	0b3b0b3a 	bleq	ec3230 <__bss_end__+0xeb9ea0>
     544:	13490b39 	movtne	r0, #39737	; 0x9b39
     548:	42b71702 	adcsmi	r1, r7, #524288	; 0x80000
     54c:	13000017 	movwne	r0, #23
     550:	0e030034 	mcreq	0, 0, r0, cr3, cr4, {1}
     554:	19341349 	ldmdbne	r4!, {r0, r3, r6, r8, r9, ip}
     558:	00001802 	andeq	r1, r0, r2, lsl #16
     55c:	11010b14 	tstne	r1, r4, lsl fp
     560:	00061201 	andeq	r1, r6, r1, lsl #4
     564:	00341500 	eorseq	r1, r4, r0, lsl #10
     568:	0b3a0803 	bleq	e8257c <__bss_end__+0xe791ec>
     56c:	0b390b3b 	bleq	e43260 <__bss_end__+0xe39ed0>
     570:	18021349 	stmdane	r2, {r0, r3, r6, r8, r9, ip}
     574:	34160000 	ldrcc	r0, [r6], #-0
     578:	3a0e0300 	bcc	381180 <__bss_end__+0x377df0>
     57c:	390b3b0b 	stmdbcc	fp, {r0, r1, r3, r8, r9, fp, ip, sp}
     580:	0213490b 	andseq	r4, r3, #180224	; 0x2c000
     584:	17000018 	smladne	r0, r8, r0, r0
     588:	1755010b 	ldrbne	r0, [r5, -fp, lsl #2]
     58c:	00001301 	andeq	r1, r0, r1, lsl #6
     590:	01828918 	orreq	r8, r2, r8, lsl r9
     594:	31011101 	tstcc	r1, r1, lsl #2
     598:	00130113 	andseq	r0, r3, r3, lsl r1
     59c:	828a1900 	addhi	r1, sl, #0, 18
     5a0:	18020001 	stmdane	r2, {r0}
     5a4:	00184291 	mulseq	r8, r1, r2
     5a8:	82891a00 	addhi	r1, r9, #0, 20
     5ac:	01110001 	tsteq	r1, r1
     5b0:	00001331 	andeq	r1, r0, r1, lsr r3
     5b4:	0182891b 	orreq	r8, r2, fp, lsl r9
     5b8:	01011101 	tsteq	r1, r1, lsl #2
     5bc:	1c000013 	stcne	0, cr0, [r0], {19}
     5c0:	13490101 	movtne	r0, #37121	; 0x9101
     5c4:	00001301 	andeq	r1, r0, r1, lsl #6
     5c8:	4900211d 	stmdbmi	r0, {r0, r2, r3, r4, r8, sp}
     5cc:	000b2f13 	andeq	r2, fp, r3, lsl pc
     5d0:	012e1e00 			; <UNDEFINED> instruction: 0x012e1e00
     5d4:	0b3a0e03 	bleq	e83de8 <__bss_end__+0xe7aa58>
     5d8:	0b390b3b 	bleq	e432cc <__bss_end__+0xe39f3c>
     5dc:	13491927 	movtne	r1, #39207	; 0x9927
     5e0:	06120111 			; <UNDEFINED> instruction: 0x06120111
     5e4:	42971840 	addsmi	r1, r7, #64, 16	; 0x400000
     5e8:	00130119 	andseq	r0, r3, r9, lsl r1
     5ec:	00051f00 	andeq	r1, r5, r0, lsl #30
     5f0:	0b3a0e03 	bleq	e83e04 <__bss_end__+0xe7aa74>
     5f4:	0b390b3b 	bleq	e432e8 <__bss_end__+0xe39f58>
     5f8:	17021349 	strne	r1, [r2, -r9, asr #6]
     5fc:	001742b7 			; <UNDEFINED> instruction: 0x001742b7
     600:	010b2000 	mrseq	r2, (UNDEF: 11)
     604:	06120111 			; <UNDEFINED> instruction: 0x06120111
     608:	00001301 	andeq	r1, r0, r1, lsl #6
     60c:	03012e21 	movweq	r2, #7713	; 0x1e21
     610:	3b0b3a08 	blcc	2cee38 <__bss_end__+0x2c5aa8>
     614:	270b390b 	strcs	r3, [fp, -fp, lsl #18]
     618:	11134919 	tstne	r3, r9, lsl r9
     61c:	40061201 	andmi	r1, r6, r1, lsl #4
     620:	19429718 	stmdbne	r2, {r3, r4, r8, r9, sl, ip, pc}^
     624:	00001301 	andeq	r1, r0, r1, lsl #6
     628:	3f012e22 	svccc	0x00012e22
     62c:	3a0e0319 	bcc	381298 <__bss_end__+0x377f08>
     630:	390b3b0b 	stmdbcc	fp, {r0, r1, r3, r8, r9, fp, ip, sp}
     634:	1119270b 	tstne	r9, fp, lsl #14
     638:	40061201 	andmi	r1, r6, r1, lsl #4
     63c:	19429718 	stmdbne	r2, {r3, r4, r8, r9, sl, ip, pc}^
     640:	00001301 	andeq	r1, r0, r1, lsl #6
     644:	3f002e23 	svccc	0x00002e23
     648:	6e193c19 	mrcvs	12, 0, r3, cr9, cr9, {0}
     64c:	3a0e030e 	bcc	38128c <__bss_end__+0x377efc>
     650:	390b3b0b 	stmdbcc	fp, {r0, r1, r3, r8, r9, fp, ip, sp}
     654:	0000000b 	andeq	r0, r0, fp
     658:	25011101 	strcs	r1, [r1, #-257]	; 0xfffffeff
     65c:	030b130e 	movweq	r1, #45838	; 0xb30e
     660:	110e1b0e 	tstne	lr, lr, lsl #22
     664:	10061201 	andne	r1, r6, r1, lsl #4
     668:	02000017 	andeq	r0, r0, #23, 0
     66c:	0b0b0024 	bleq	2c0704 <__bss_end__+0x2b7374>
     670:	08030b3e 	stmdaeq	r3, {r1, r2, r3, r4, r5, r8, r9, fp}
     674:	24030000 	strcs	r0, [r3], #-0
     678:	3e0b0b00 	vmlacc.f64	d0, d11, d0
     67c:	000e030b 	andeq	r0, lr, fp, lsl #6
     680:	01150400 	tsteq	r5, r0, lsl #8
     684:	13491927 	movtne	r1, #39207	; 0x9927
     688:	00001301 	andeq	r1, r0, r1, lsl #6
     68c:	49000505 	stmdbmi	r0, {r0, r2, r8, sl}
     690:	06000013 			; <UNDEFINED> instruction: 0x06000013
     694:	0e030034 	mcreq	0, 0, r0, cr3, cr4, {1}
     698:	0b3b0b3a 	bleq	ec3388 <__bss_end__+0xeb9ff8>
     69c:	13490b39 	movtne	r0, #39737	; 0x9b39
     6a0:	193c193f 	ldmdbne	ip!, {r0, r1, r2, r3, r4, r5, r8, fp, ip}
     6a4:	0f070000 	svceq	0x00070000
     6a8:	490b0b00 	stmdbmi	fp, {r8, r9, fp}
     6ac:	08000013 	stmdaeq	r0, {r0, r1, r4}
     6b0:	13490026 	movtne	r0, #36902	; 0x9026
     6b4:	2e090000 	cdpcs	0, 0, cr0, cr9, cr0, {0}
     6b8:	03193f01 	tsteq	r9, #1, 30
     6bc:	3b0b3a0e 	blcc	2ceefc <__bss_end__+0x2c5b6c>
     6c0:	270b390b 	strcs	r3, [fp, -fp, lsl #18]
     6c4:	19018719 	stmdbne	r1, {r0, r3, r4, r8, r9, sl, pc}
     6c8:	06120111 			; <UNDEFINED> instruction: 0x06120111
     6cc:	42971840 	addsmi	r1, r7, #64, 16	; 0x400000
     6d0:	00130119 	andseq	r0, r3, r9, lsl r1
     6d4:	82890a00 	addhi	r0, r9, #0, 20
     6d8:	01110101 	tsteq	r1, r1, lsl #2
     6dc:	00001301 	andeq	r1, r0, r1, lsl #6
     6e0:	01828a0b 	orreq	r8, r2, fp, lsl #20
     6e4:	91180200 	tstls	r8, r0, lsl #4
     6e8:	00001842 	andeq	r1, r0, r2, asr #16
     6ec:	0182890c 	orreq	r8, r2, ip, lsl #18
     6f0:	31011100 	mrscc	r1, (UNDEF: 17)
     6f4:	0d000013 	stceq	0, cr0, [r0, #-76]	; 0xffffffb4
     6f8:	01018289 	smlabbeq	r1, r9, r2, r8
     6fc:	13310111 	teqne	r1, #1073741828	; 0x40000004
     700:	00001301 	andeq	r1, r0, r1, lsl #6
     704:	3f002e0e 	svccc	0x00002e0e
     708:	6e193c19 	mrcvs	12, 0, r3, cr9, cr9, {0}
     70c:	3a0e030e 	bcc	38134c <__bss_end__+0x377fbc>
     710:	390b3b0b 	stmdbcc	fp, {r0, r1, r3, r8, r9, fp, ip, sp}
     714:	0000000b 	andeq	r0, r0, fp
     718:	25011101 	strcs	r1, [r1, #-257]	; 0xfffffeff
     71c:	030b130e 	movweq	r1, #45838	; 0xb30e
     720:	110e1b0e 	tstne	lr, lr, lsl #22
     724:	10061201 	andne	r1, r6, r1, lsl #4
     728:	02000017 	andeq	r0, r0, #23, 0
     72c:	0b0b0024 	bleq	2c07c4 <__bss_end__+0x2b7434>
     730:	08030b3e 	stmdaeq	r3, {r1, r2, r3, r4, r5, r8, r9, fp}
     734:	24030000 	strcs	r0, [r3], #-0
     738:	3e0b0b00 	vmlacc.f64	d0, d11, d0
     73c:	000e030b 	andeq	r0, lr, fp, lsl #6
     740:	01150400 	tsteq	r5, r0, lsl #8
     744:	13491927 	movtne	r1, #39207	; 0x9927
     748:	00001301 	andeq	r1, r0, r1, lsl #6
     74c:	49000505 	stmdbmi	r0, {r0, r2, r8, sl}
     750:	06000013 			; <UNDEFINED> instruction: 0x06000013
     754:	0e030034 	mcreq	0, 0, r0, cr3, cr4, {1}
     758:	0b3b0b3a 	bleq	ec3448 <__bss_end__+0xeba0b8>
     75c:	13490b39 	movtne	r0, #39737	; 0x9b39
     760:	193c193f 	ldmdbne	ip!, {r0, r1, r2, r3, r4, r5, r8, fp, ip}
     764:	0f070000 	svceq	0x00070000
     768:	490b0b00 	stmdbmi	fp, {r8, r9, fp}
     76c:	08000013 	stmdaeq	r0, {r0, r1, r4}
     770:	13490026 	movtne	r0, #36902	; 0x9026
     774:	2e090000 	cdpcs	0, 0, cr0, cr9, cr0, {0}
     778:	03193f01 	tsteq	r9, #1, 30
     77c:	3b0b3a0e 	blcc	2cefbc <__bss_end__+0x2c5c2c>
     780:	110b390b 	tstne	fp, fp, lsl #18
     784:	40061201 	andmi	r1, r6, r1, lsl #4
     788:	19429718 	stmdbne	r2, {r3, r4, r8, r9, sl, ip, pc}^
     78c:	00001301 	andeq	r1, r0, r1, lsl #6
     790:	3f002e0a 	svccc	0x00002e0a
     794:	3a0e0319 	bcc	381400 <__bss_end__+0x378070>
     798:	390b3b0b 	stmdbcc	fp, {r0, r1, r3, r8, r9, fp, ip, sp}
     79c:	3c19270b 	ldccc	7, cr2, [r9], {11}
     7a0:	0b000019 	bleq	80c <__code_start__-0x77f4>
     7a4:	08030034 	stmdaeq	r3, {r2, r4, r5}
     7a8:	0b3b0b3a 	bleq	ec3498 <__bss_end__+0xeba108>
     7ac:	13490b39 	movtne	r0, #39737	; 0x9b39
     7b0:	42b71702 	adcsmi	r1, r7, #524288	; 0x80000
     7b4:	0c000017 	stceq	0, cr0, [r0], {23}
     7b8:	0e030034 	mcreq	0, 0, r0, cr3, cr4, {1}
     7bc:	0b3b0b3a 	bleq	ec34ac <__bss_end__+0xeba11c>
     7c0:	13490b39 	movtne	r0, #39737	; 0x9b39
     7c4:	890d0000 	stmdbhi	sp, {}	; <UNPREDICTABLE>
     7c8:	11000182 	smlabbne	r0, r2, r1, r0
     7cc:	00133101 	andseq	r3, r3, r1, lsl #2
     7d0:	002e0e00 	eoreq	r0, lr, r0, lsl #28
     7d4:	193c193f 	ldmdbne	ip!, {r0, r1, r2, r3, r4, r5, r8, fp, ip}
     7d8:	0e030e6e 	cdpeq	14, 0, cr0, cr3, cr14, {3}
     7dc:	053b0b3a 	ldreq	r0, [fp, #-2874]!	; 0xfffff4c6
     7e0:	00000b39 	andeq	r0, r0, r9, lsr fp
     7e4:	3f002e0f 	svccc	0x00002e0f
     7e8:	6e193c19 	mrcvs	12, 0, r3, cr9, cr9, {0}
     7ec:	3a0e030e 	bcc	38142c <__bss_end__+0x37809c>
     7f0:	390b3b0b 	stmdbcc	fp, {r0, r1, r3, r8, r9, fp, ip, sp}
     7f4:	0000000b 	andeq	r0, r0, fp
     7f8:	25011101 	strcs	r1, [r1, #-257]	; 0xfffffeff
     7fc:	030b130e 	movweq	r1, #45838	; 0xb30e
     800:	110e1b0e 	tstne	lr, lr, lsl #22
     804:	10061201 	andne	r1, r6, r1, lsl #4
     808:	02000017 	andeq	r0, r0, #23, 0
     80c:	0b0b0024 	bleq	2c08a4 <__bss_end__+0x2b7514>
     810:	08030b3e 	stmdaeq	r3, {r1, r2, r3, r4, r5, r8, r9, fp}
     814:	24030000 	strcs	r0, [r3], #-0
     818:	3e0b0b00 	vmlacc.f64	d0, d11, d0
     81c:	000e030b 	andeq	r0, lr, fp, lsl #6
     820:	01150400 	tsteq	r5, r0, lsl #8
     824:	13491927 	movtne	r1, #39207	; 0x9927
     828:	00001301 	andeq	r1, r0, r1, lsl #6
     82c:	49000505 	stmdbmi	r0, {r0, r2, r8, sl}
     830:	06000013 			; <UNDEFINED> instruction: 0x06000013
     834:	0e030034 	mcreq	0, 0, r0, cr3, cr4, {1}
     838:	0b3b0b3a 	bleq	ec3528 <__bss_end__+0xeba198>
     83c:	13490b39 	movtne	r0, #39737	; 0x9b39
     840:	193c193f 	ldmdbne	ip!, {r0, r1, r2, r3, r4, r5, r8, fp, ip}
     844:	0f070000 	svceq	0x00070000
     848:	490b0b00 	stmdbmi	fp, {r8, r9, fp}
     84c:	08000013 	stmdaeq	r0, {r0, r1, r4}
     850:	13490026 	movtne	r0, #36902	; 0x9026
     854:	2e090000 	cdpcs	0, 0, cr0, cr9, cr0, {0}
     858:	03193f00 	tsteq	r9, #0, 30
     85c:	3b0b3a0e 	blcc	2cf09c <__bss_end__+0x2c5d0c>
     860:	270b390b 	strcs	r3, [fp, -fp, lsl #18]
     864:	12011119 	andne	r1, r1, #1073741830	; 0x40000006
     868:	97184006 	ldrls	r4, [r8, -r6]
     86c:	00001942 	andeq	r1, r0, r2, asr #18
     870:	01110100 	tsteq	r1, r0, lsl #2
     874:	0b130e25 	bleq	4c4110 <__bss_end__+0x4bad80>
     878:	0e1b0e03 	cdpeq	14, 1, cr0, cr11, cr3, {0}
     87c:	01111755 	tsteq	r1, r5, asr r7
     880:	00001710 	andeq	r1, r0, r0, lsl r7
     884:	0b002402 	bleq	9894 <__bss_end__+0x504>
     888:	030b3e0b 	movweq	r3, #48651	; 0xbe0b
     88c:	03000008 	movweq	r0, #8
     890:	13490026 	movtne	r0, #36902	; 0x9026
     894:	24040000 	strcs	r0, [r4], #-0
     898:	3e0b0b00 	vmlacc.f64	d0, d11, d0
     89c:	000e030b 	andeq	r0, lr, fp, lsl #6
     8a0:	01150500 	tsteq	r5, r0, lsl #10
     8a4:	13491927 	movtne	r1, #39207	; 0x9927
     8a8:	00001301 	andeq	r1, r0, r1, lsl #6
     8ac:	49000506 	stmdbmi	r0, {r1, r2, r8, sl}
     8b0:	07000013 	smladeq	r0, r3, r0, r0
     8b4:	0e030034 	mcreq	0, 0, r0, cr3, cr4, {1}
     8b8:	0b3b0b3a 	bleq	ec35a8 <__bss_end__+0xeba218>
     8bc:	13490b39 	movtne	r0, #39737	; 0x9b39
     8c0:	193c193f 	ldmdbne	ip!, {r0, r1, r2, r3, r4, r5, r8, fp, ip}
     8c4:	0f080000 	svceq	0x00080000
     8c8:	490b0b00 	stmdbmi	fp, {r8, r9, fp}
     8cc:	09000013 	stmdbeq	r0, {r0, r1, r4}
     8d0:	0e030034 	mcreq	0, 0, r0, cr3, cr4, {1}
     8d4:	0b3b0b3a 	bleq	ec35c4 <__bss_end__+0xeba234>
     8d8:	13490b39 	movtne	r0, #39737	; 0x9b39
     8dc:	2e0a0000 	cdpcs	0, 0, cr0, cr10, cr0, {0}
     8e0:	03193f01 	tsteq	r9, #1, 30
     8e4:	3b0b3a0e 	blcc	2cf124 <__bss_end__+0x2c5d94>
     8e8:	270b390b 	strcs	r3, [fp, -fp, lsl #18]
     8ec:	19018719 	stmdbne	r1, {r0, r3, r4, r8, r9, sl, pc}
     8f0:	06120111 			; <UNDEFINED> instruction: 0x06120111
     8f4:	42971840 	addsmi	r1, r7, #64, 16	; 0x400000
     8f8:	00130119 	andseq	r0, r3, r9, lsl r1
     8fc:	00340b00 	eorseq	r0, r4, r0, lsl #22
     900:	0b3a0e03 	bleq	e84114 <__bss_end__+0xe7ad84>
     904:	0b390b3b 	bleq	e435f8 <__bss_end__+0xe3a268>
     908:	17021349 	strne	r1, [r2, -r9, asr #6]
     90c:	001742b7 			; <UNDEFINED> instruction: 0x001742b7
     910:	82890c00 	addhi	r0, r9, #0, 24
     914:	01110001 	tsteq	r1, r1
     918:	00001331 	andeq	r1, r0, r1, lsr r3
     91c:	0182890d 	orreq	r8, r2, sp, lsl #18
     920:	31011101 	tstcc	r1, r1, lsl #2
     924:	00130113 	andseq	r0, r3, r3, lsl r1
     928:	828a0e00 	addhi	r0, sl, #0, 28
     92c:	18020001 	stmdane	r2, {r0}
     930:	00184291 	mulseq	r8, r1, r2
     934:	012e0f00 			; <UNDEFINED> instruction: 0x012e0f00
     938:	0e03193f 			; <UNDEFINED> instruction: 0x0e03193f
     93c:	0b3b0b3a 	bleq	ec362c <__bss_end__+0xeba29c>
     940:	19270b39 	stmdbne	r7!, {r0, r3, r4, r5, r8, r9, fp}
     944:	06120111 			; <UNDEFINED> instruction: 0x06120111
     948:	42971840 	addsmi	r1, r7, #64, 16	; 0x400000
     94c:	00130119 	andseq	r0, r3, r9, lsl r1
     950:	012e1000 			; <UNDEFINED> instruction: 0x012e1000
     954:	0e03193f 			; <UNDEFINED> instruction: 0x0e03193f
     958:	0b3b0b3a 	bleq	ec3648 <__bss_end__+0xeba2b8>
     95c:	19270b39 	stmdbne	r7!, {r0, r3, r4, r5, r8, r9, fp}
     960:	01111349 	tsteq	r1, r9, asr #6
     964:	18400612 	stmdane	r0, {r1, r4, r9, sl}^
     968:	01194297 			; <UNDEFINED> instruction: 0x01194297
     96c:	11000013 	tstne	r0, r3, lsl r0
     970:	193f002e 	ldmdbne	pc!, {r1, r2, r3, r5}	; <UNPREDICTABLE>
     974:	0e6e193c 			; <UNDEFINED> instruction: 0x0e6e193c
     978:	0b3a0e03 	bleq	e8418c <__bss_end__+0xe7adfc>
     97c:	0b390b3b 	bleq	e43670 <__bss_end__+0xe3a2e0>
     980:	01000000 	mrseq	r0, (UNDEF: 0)
     984:	0e250111 	mcreq	1, 1, r0, cr5, cr1, {0}
     988:	0e030b13 	vmoveq.32	d3[0], r0
     98c:	01110e1b 	tsteq	r1, fp, lsl lr
     990:	17100612 			; <UNDEFINED> instruction: 0x17100612
     994:	24020000 	strcs	r0, [r2], #-0
     998:	3e0b0b00 	vmlacc.f64	d0, d11, d0
     99c:	0008030b 	andeq	r0, r8, fp, lsl #6
     9a0:	00240300 	eoreq	r0, r4, r0, lsl #6
     9a4:	0b3e0b0b 	bleq	f835d8 <__bss_end__+0xf7a248>
     9a8:	00000e03 	andeq	r0, r0, r3, lsl #28
     9ac:	27011504 	strcs	r1, [r1, -r4, lsl #10]
     9b0:	01134919 	tsteq	r3, r9, lsl r9
     9b4:	05000013 	streq	r0, [r0, #-19]	; 0xffffffed
     9b8:	13490005 	movtne	r0, #36869	; 0x9005
     9bc:	34060000 	strcc	r0, [r6], #-0
     9c0:	3a0e0300 	bcc	3815c8 <__bss_end__+0x378238>
     9c4:	390b3b0b 	stmdbcc	fp, {r0, r1, r3, r8, r9, fp, ip, sp}
     9c8:	3f13490b 	svccc	0x0013490b
     9cc:	00193c19 	andseq	r3, r9, r9, lsl ip
     9d0:	000f0700 	andeq	r0, pc, r0, lsl #14
     9d4:	13490b0b 	movtne	r0, #39691	; 0x9b0b
     9d8:	26080000 	strcs	r0, [r8], -r0
     9dc:	00134900 	andseq	r4, r3, r0, lsl #18
     9e0:	012e0900 			; <UNDEFINED> instruction: 0x012e0900
     9e4:	0e03193f 			; <UNDEFINED> instruction: 0x0e03193f
     9e8:	0b3b0b3a 	bleq	ec36d8 <__bss_end__+0xeba348>
     9ec:	19270b39 	stmdbne	r7!, {r0, r3, r4, r5, r8, r9, fp}
     9f0:	06120111 			; <UNDEFINED> instruction: 0x06120111
     9f4:	42971840 	addsmi	r1, r7, #64, 16	; 0x400000
     9f8:	00130119 	andseq	r0, r3, r9, lsl r1
     9fc:	00050a00 	andeq	r0, r5, r0, lsl #20
     a00:	0b3a0803 	bleq	e82a14 <__bss_end__+0xe79684>
     a04:	0b390b3b 	bleq	e436f8 <__bss_end__+0xe3a368>
     a08:	17021349 	strne	r1, [r2, -r9, asr #6]
     a0c:	001742b7 			; <UNDEFINED> instruction: 0x001742b7
     a10:	82890b00 	addhi	r0, r9, #0, 22
     a14:	01110101 	tsteq	r1, r1, lsl #2
     a18:	00001331 	andeq	r1, r0, r1, lsr r3
     a1c:	01828a0c 	orreq	r8, r2, ip, lsl #20
     a20:	91180200 	tstls	r8, r0, lsl #4
     a24:	00001842 	andeq	r1, r0, r2, asr #16
     a28:	0300340d 	movweq	r3, #1037	; 0x40d
     a2c:	3b0b3a08 	blcc	2cf254 <__bss_end__+0x2c5ec4>
     a30:	490b390b 	stmdbmi	fp, {r0, r1, r3, r8, fp, ip, sp}
     a34:	b7170213 			; <UNDEFINED> instruction: 0xb7170213
     a38:	00001742 	andeq	r1, r0, r2, asr #14
     a3c:	11010b0e 	tstne	r1, lr, lsl #22
     a40:	01061201 	tsteq	r6, r1, lsl #4
     a44:	0f000013 	svceq	0x00000013
     a48:	00018289 	andeq	r8, r1, r9, lsl #5
     a4c:	13310111 	teqne	r1, #1073741828	; 0x40000004
     a50:	2e100000 	cdpcs	0, 1, cr0, cr0, cr0, {0}
     a54:	03193f01 	tsteq	r9, #1, 30
     a58:	3b0b3a0e 	blcc	2cf298 <__bss_end__+0x2c5f08>
     a5c:	270b390b 	strcs	r3, [fp, -fp, lsl #18]
     a60:	11134919 	tstne	r3, r9, lsl r9
     a64:	40061201 	andmi	r1, r6, r1, lsl #4
     a68:	19429718 	stmdbne	r2, {r3, r4, r8, r9, sl, ip, pc}^
     a6c:	00001301 	andeq	r1, r0, r1, lsl #6
     a70:	03000511 	movweq	r0, #1297	; 0x511
     a74:	3b0b3a0e 	blcc	2cf2b4 <__bss_end__+0x2c5f24>
     a78:	490b390b 	stmdbmi	fp, {r0, r1, r3, r8, fp, ip, sp}
     a7c:	b7170213 			; <UNDEFINED> instruction: 0xb7170213
     a80:	00001742 	andeq	r1, r0, r2, asr #14
     a84:	3f002e12 	svccc	0x00002e12
     a88:	6e193c19 	mrcvs	12, 0, r3, cr9, cr9, {0}
     a8c:	3a0e030e 	bcc	3816cc <__bss_end__+0x37833c>
     a90:	390b3b0b 	stmdbcc	fp, {r0, r1, r3, r8, r9, fp, ip, sp}
     a94:	0000000b 	andeq	r0, r0, fp
     a98:	25011101 	strcs	r1, [r1, #-257]	; 0xfffffeff
     a9c:	030b130e 	movweq	r1, #45838	; 0xb30e
     aa0:	110e1b0e 	tstne	lr, lr, lsl #22
     aa4:	10061201 	andne	r1, r6, r1, lsl #4
     aa8:	02000017 	andeq	r0, r0, #23, 0
     aac:	0b0b0024 	bleq	2c0b44 <__bss_end__+0x2b77b4>
     ab0:	08030b3e 	stmdaeq	r3, {r1, r2, r3, r4, r5, r8, r9, fp}
     ab4:	24030000 	strcs	r0, [r3], #-0
     ab8:	3e0b0b00 	vmlacc.f64	d0, d11, d0
     abc:	000e030b 	andeq	r0, lr, fp, lsl #6
     ac0:	00350400 	eorseq	r0, r5, r0, lsl #8
     ac4:	00001349 	andeq	r1, r0, r9, asr #6
     ac8:	03001605 	movweq	r1, #1541	; 0x605
     acc:	3b0b3a0e 	blcc	2cf30c <__bss_end__+0x2c5f7c>
     ad0:	490b390b 	stmdbmi	fp, {r0, r1, r3, r8, fp, ip, sp}
     ad4:	06000013 			; <UNDEFINED> instruction: 0x06000013
     ad8:	19270115 	stmdbne	r7!, {r0, r2, r4, r8}
     adc:	13011349 	movwne	r1, #4937	; 0x1349
     ae0:	05070000 	streq	r0, [r7, #-0]
     ae4:	00134900 	andseq	r4, r3, r0, lsl #18
     ae8:	00340800 	eorseq	r0, r4, r0, lsl #16
     aec:	0b3a0e03 	bleq	e84300 <__bss_end__+0xe7af70>
     af0:	0b390b3b 	bleq	e437e4 <__bss_end__+0xe3a454>
     af4:	193f1349 	ldmdbne	pc!, {r0, r3, r6, r8, r9, ip}	; <UNPREDICTABLE>
     af8:	0000193c 	andeq	r1, r0, ip, lsr r9
     afc:	0b000f09 	bleq	4728 <__code_start__-0x38d8>
     b00:	0013490b 	andseq	r4, r3, fp, lsl #18
     b04:	00260a00 	eoreq	r0, r6, r0, lsl #20
     b08:	00001349 	andeq	r1, r0, r9, asr #6
     b0c:	3e01040b 	cdpcc	4, 0, cr0, cr1, cr11, {0}
     b10:	490b0b0b 	stmdbmi	fp, {r0, r1, r3, r8, r9, fp}
     b14:	3b0b3a13 	blcc	2cf368 <__bss_end__+0x2c5fd8>
     b18:	010b390b 	tsteq	fp, fp, lsl #18
     b1c:	0c000013 	stceq	0, cr0, [r0], {19}
     b20:	0e030028 	cdpeq	0, 0, cr0, cr3, cr8, {1}
     b24:	00000b1c 	andeq	r0, r0, ip, lsl fp
     b28:	0301130d 	movweq	r1, #4877	; 0x130d
     b2c:	3a0b0b0e 	bcc	2c376c <__bss_end__+0x2ba3dc>
     b30:	390b3b0b 	stmdbcc	fp, {r0, r1, r3, r8, r9, fp, ip, sp}
     b34:	0013010b 	andseq	r0, r3, fp, lsl #2
     b38:	000d0e00 	andeq	r0, sp, r0, lsl #28
     b3c:	0b3a0803 	bleq	e82b50 <__bss_end__+0xe797c0>
     b40:	0b390b3b 	bleq	e43834 <__bss_end__+0xe3a4a4>
     b44:	0b381349 	bleq	e05870 <__bss_end__+0xdfc4e0>
     b48:	0d0f0000 	stceq	0, cr0, [pc, #-0]	; b50 <__code_start__-0x74b0>
     b4c:	3a0e0300 	bcc	381754 <__bss_end__+0x3783c4>
     b50:	390b3b0b 	stmdbcc	fp, {r0, r1, r3, r8, r9, fp, ip, sp}
     b54:	3813490b 	ldmdacc	r3, {r0, r1, r3, r8, fp, lr}
     b58:	1000000b 	andne	r0, r0, fp
     b5c:	0e030034 	mcreq	0, 0, r0, cr3, cr4, {1}
     b60:	0b3b0b3a 	bleq	ec3850 <__bss_end__+0xeba4c0>
     b64:	13490b39 	movtne	r0, #39737	; 0x9b39
     b68:	0000061c 	andeq	r0, r0, ip, lsl r6
     b6c:	3f012e11 	svccc	0x00012e11
     b70:	3a0e0319 	bcc	3817dc <__bss_end__+0x37844c>
     b74:	390b3b0b 	stmdbcc	fp, {r0, r1, r3, r8, r9, fp, ip, sp}
     b78:	1119270b 	tstne	r9, fp, lsl #14
     b7c:	40061201 	andmi	r1, r6, r1, lsl #4
     b80:	19429718 	stmdbne	r2, {r3, r4, r8, r9, sl, ip, pc}^
     b84:	00001301 	andeq	r1, r0, r1, lsl #6
     b88:	01828912 	orreq	r8, r2, r2, lsl r9
     b8c:	31011100 	mrscc	r1, (UNDEF: 17)
     b90:	13000013 	movwne	r0, #19
     b94:	193f012e 	ldmdbne	pc!, {r1, r2, r3, r5, r8}	; <UNPREDICTABLE>
     b98:	0b3a0e03 	bleq	e843ac <__bss_end__+0xe7b01c>
     b9c:	0b390b3b 	bleq	e43890 <__bss_end__+0xe3a500>
     ba0:	13491927 	movtne	r1, #39207	; 0x9927
     ba4:	06120111 			; <UNDEFINED> instruction: 0x06120111
     ba8:	42971840 	addsmi	r1, r7, #64, 16	; 0x400000
     bac:	00130119 	andseq	r0, r3, r9, lsl r1
     bb0:	82891400 	addhi	r1, r9, #0, 8
     bb4:	01110101 	tsteq	r1, r1, lsl #2
     bb8:	00001331 	andeq	r1, r0, r1, lsr r3
     bbc:	01828a15 	orreq	r8, r2, r5, lsl sl
     bc0:	91180200 	tstls	r8, r0, lsl #4
     bc4:	00001842 	andeq	r1, r0, r2, asr #16
     bc8:	03000516 	movweq	r0, #1302	; 0x516
     bcc:	3b0b3a08 	blcc	2cf3f4 <__bss_end__+0x2c6064>
     bd0:	490b390b 	stmdbmi	fp, {r0, r1, r3, r8, fp, ip, sp}
     bd4:	b7170213 			; <UNDEFINED> instruction: 0xb7170213
     bd8:	00001742 	andeq	r1, r0, r2, asr #14
     bdc:	01828917 	orreq	r8, r2, r7, lsl r9
     be0:	31011101 	tstcc	r1, r1, lsl #2
     be4:	00130113 	andseq	r0, r3, r3, lsl r1
     be8:	00341800 	eorseq	r1, r4, r0, lsl #16
     bec:	0b3a0803 	bleq	e82c00 <__bss_end__+0xe79870>
     bf0:	0b390b3b 	bleq	e438e4 <__bss_end__+0xe3a554>
     bf4:	17021349 	strne	r1, [r2, -r9, asr #6]
     bf8:	001742b7 			; <UNDEFINED> instruction: 0x001742b7
     bfc:	00341900 	eorseq	r1, r4, r0, lsl #18
     c00:	0b3a0e03 	bleq	e84414 <__bss_end__+0xe7b084>
     c04:	0b390b3b 	bleq	e438f8 <__bss_end__+0xe3a568>
     c08:	051c1349 	ldreq	r1, [ip, #-841]	; 0xfffffcb7
     c0c:	2e1a0000 	cdpcs	0, 1, cr0, cr10, cr0, {0}
     c10:	3a0e0301 	bcc	38181c <__bss_end__+0x37848c>
     c14:	390b3b0b 	stmdbcc	fp, {r0, r1, r3, r8, r9, fp, ip, sp}
     c18:	1119270b 	tstne	r9, fp, lsl #14
     c1c:	40061201 	andmi	r1, r6, r1, lsl #4
     c20:	19429718 	stmdbne	r2, {r3, r4, r8, r9, sl, ip, pc}^
     c24:	00001301 	andeq	r1, r0, r1, lsl #6
     c28:	0300051b 	movweq	r0, #1307	; 0x51b
     c2c:	3b0b3a0e 	blcc	2cf46c <__bss_end__+0x2c60dc>
     c30:	490b390b 	stmdbmi	fp, {r0, r1, r3, r8, fp, ip, sp}
     c34:	b7170213 			; <UNDEFINED> instruction: 0xb7170213
     c38:	00001742 	andeq	r1, r0, r2, asr #14
     c3c:	0000351c 	andeq	r3, r0, ip, lsl r5
     c40:	002e1d00 	eoreq	r1, lr, r0, lsl #26
     c44:	193c193f 	ldmdbne	ip!, {r0, r1, r2, r3, r4, r5, r8, fp, ip}
     c48:	0e030e6e 	cdpeq	14, 0, cr0, cr3, cr14, {3}
     c4c:	0b3b0b3a 	bleq	ec393c <__bss_end__+0xeba5ac>
     c50:	00000b39 	andeq	r0, r0, r9, lsr fp
     c54:	01110100 	tsteq	r1, r0, lsl #2
     c58:	0b130e25 	bleq	4c44f4 <__bss_end__+0x4bb164>
     c5c:	0e1b0e03 	cdpeq	14, 1, cr0, cr11, cr3, {0}
     c60:	06120111 			; <UNDEFINED> instruction: 0x06120111
     c64:	00001710 	andeq	r1, r0, r0, lsl r7
     c68:	0b002402 	bleq	9c78 <__bss_end__+0x8e8>
     c6c:	030b3e0b 	movweq	r3, #48651	; 0xbe0b
     c70:	03000008 	movweq	r0, #8
     c74:	0b0b0024 	bleq	2c0d0c <__bss_end__+0x2b797c>
     c78:	0e030b3e 	vmoveq.16	d3[0], r0
     c7c:	26040000 	strcs	r0, [r4], -r0
     c80:	00134900 	andseq	r4, r3, r0, lsl #18
     c84:	00160500 	andseq	r0, r6, r0, lsl #10
     c88:	0b3a0e03 	bleq	e8449c <__bss_end__+0xe7b10c>
     c8c:	0b390b3b 	bleq	e43980 <__bss_end__+0xe3a5f0>
     c90:	00001349 	andeq	r1, r0, r9, asr #6
     c94:	27011506 	strcs	r1, [r1, -r6, lsl #10]
     c98:	01134919 	tsteq	r3, r9, lsl r9
     c9c:	07000013 	smladeq	r0, r3, r0, r0
     ca0:	13490005 	movtne	r0, #36869	; 0x9005
     ca4:	34080000 	strcc	r0, [r8], #-0
     ca8:	3a0e0300 	bcc	3818b0 <__bss_end__+0x378520>
     cac:	390b3b0b 	stmdbcc	fp, {r0, r1, r3, r8, r9, fp, ip, sp}
     cb0:	3f13490b 	svccc	0x0013490b
     cb4:	00193c19 	andseq	r3, r9, r9, lsl ip
     cb8:	000f0900 	andeq	r0, pc, r0, lsl #18
     cbc:	13490b0b 	movtne	r0, #39691	; 0x9b0b
     cc0:	040a0000 	streq	r0, [sl], #-0
     cc4:	0b0b3e01 	bleq	2d04d0 <__bss_end__+0x2c7140>
     cc8:	3a13490b 	bcc	4d30fc <__bss_end__+0x4c9d6c>
     ccc:	390b3b0b 	stmdbcc	fp, {r0, r1, r3, r8, r9, fp, ip, sp}
     cd0:	0013010b 	andseq	r0, r3, fp, lsl #2
     cd4:	00280b00 	eoreq	r0, r8, r0, lsl #22
     cd8:	0b1c0e03 	bleq	7044ec <__bss_end__+0x6fb15c>
     cdc:	340c0000 	strcc	r0, [ip], #-0
     ce0:	3a0e0300 	bcc	3818e8 <__bss_end__+0x378558>
     ce4:	390b3b0b 	stmdbcc	fp, {r0, r1, r3, r8, r9, fp, ip, sp}
     ce8:	1c13490b 			; <UNDEFINED> instruction: 0x1c13490b
     cec:	0d000006 	stceq	0, cr0, [r0, #-24]	; 0xffffffe8
     cf0:	193f012e 	ldmdbne	pc!, {r1, r2, r3, r5, r8}	; <UNPREDICTABLE>
     cf4:	0b3a0e03 	bleq	e84508 <__bss_end__+0xe7b178>
     cf8:	0b390b3b 	bleq	e439ec <__bss_end__+0xe3a65c>
     cfc:	13491927 	movtne	r1, #39207	; 0x9927
     d00:	06120111 			; <UNDEFINED> instruction: 0x06120111
     d04:	42971840 	addsmi	r1, r7, #64, 16	; 0x400000
     d08:	00130119 	andseq	r0, r3, r9, lsl r1
     d0c:	00050e00 	andeq	r0, r5, r0, lsl #28
     d10:	0b3a0803 	bleq	e82d24 <__bss_end__+0xe79994>
     d14:	0b390b3b 	bleq	e43a08 <__bss_end__+0xe3a678>
     d18:	17021349 	strne	r1, [r2, -r9, asr #6]
     d1c:	001742b7 			; <UNDEFINED> instruction: 0x001742b7
     d20:	82890f00 	addhi	r0, r9, #0, 30
     d24:	01110101 	tsteq	r1, r1, lsl #2
     d28:	00001331 	andeq	r1, r0, r1, lsr r3
     d2c:	01828a10 	orreq	r8, r2, r0, lsl sl
     d30:	91180200 	tstls	r8, r0, lsl #4
     d34:	00001842 	andeq	r1, r0, r2, asr #16
     d38:	3f012e11 	svccc	0x00012e11
     d3c:	3a0e0319 	bcc	3819a8 <__bss_end__+0x378618>
     d40:	390b3b0b 	stmdbcc	fp, {r0, r1, r3, r8, r9, fp, ip, sp}
     d44:	1119270b 	tstne	r9, fp, lsl #14
     d48:	40061201 	andmi	r1, r6, r1, lsl #4
     d4c:	19429718 	stmdbne	r2, {r3, r4, r8, r9, sl, ip, pc}^
     d50:	00001301 	andeq	r1, r0, r1, lsl #6
     d54:	01828912 	orreq	r8, r2, r2, lsl r9
     d58:	31011101 	tstcc	r1, r1, lsl #2
     d5c:	00130113 	andseq	r0, r3, r3, lsl r1
     d60:	82891300 	addhi	r1, r9, #0, 6
     d64:	01110001 	tsteq	r1, r1
     d68:	00001331 	andeq	r1, r0, r1, lsr r3
     d6c:	03003414 	movweq	r3, #1044	; 0x414
     d70:	3b0b3a0e 	blcc	2cf5b0 <__bss_end__+0x2c6220>
     d74:	490b390b 	stmdbmi	fp, {r0, r1, r3, r8, fp, ip, sp}
     d78:	b7170213 			; <UNDEFINED> instruction: 0xb7170213
     d7c:	00001742 	andeq	r1, r0, r2, asr #14
     d80:	3f002e15 	svccc	0x00002e15
     d84:	6e193c19 	mrcvs	12, 0, r3, cr9, cr9, {0}
     d88:	3a0e030e 	bcc	3819c8 <__bss_end__+0x378638>
     d8c:	390b3b0b 	stmdbcc	fp, {r0, r1, r3, r8, r9, fp, ip, sp}
     d90:	0000000b 	andeq	r0, r0, fp
     d94:	25011101 	strcs	r1, [r1, #-257]	; 0xfffffeff
     d98:	030b130e 	movweq	r1, #45838	; 0xb30e
     d9c:	110e1b0e 	tstne	lr, lr, lsl #22
     da0:	10061201 	andne	r1, r6, r1, lsl #4
     da4:	02000017 	andeq	r0, r0, #23, 0
     da8:	0b0b0024 	bleq	2c0e40 <__bss_end__+0x2b7ab0>
     dac:	08030b3e 	stmdaeq	r3, {r1, r2, r3, r4, r5, r8, r9, fp}
     db0:	24030000 	strcs	r0, [r3], #-0
     db4:	3e0b0b00 	vmlacc.f64	d0, d11, d0
     db8:	000e030b 	andeq	r0, lr, fp, lsl #6
     dbc:	01150400 	tsteq	r5, r0, lsl #8
     dc0:	13491927 	movtne	r1, #39207	; 0x9927
     dc4:	00001301 	andeq	r1, r0, r1, lsl #6
     dc8:	49000505 	stmdbmi	r0, {r0, r2, r8, sl}
     dcc:	06000013 			; <UNDEFINED> instruction: 0x06000013
     dd0:	0e030034 	mcreq	0, 0, r0, cr3, cr4, {1}
     dd4:	0b3b0b3a 	bleq	ec3ac4 <__bss_end__+0xeba734>
     dd8:	13490b39 	movtne	r0, #39737	; 0x9b39
     ddc:	193c193f 	ldmdbne	ip!, {r0, r1, r2, r3, r4, r5, r8, fp, ip}
     de0:	0f070000 	svceq	0x00070000
     de4:	490b0b00 	stmdbmi	fp, {r8, r9, fp}
     de8:	08000013 	stmdaeq	r0, {r0, r1, r4}
     dec:	13490026 	movtne	r0, #36902	; 0x9026
     df0:	34090000 	strcc	r0, [r9], #-0
     df4:	3a134700 	bcc	4d29fc <__bss_end__+0x4c966c>
     df8:	390b3b0b 	stmdbcc	fp, {r0, r1, r3, r8, r9, fp, ip, sp}
     dfc:	0018020b 	andseq	r0, r8, fp, lsl #4
     e00:	012e0a00 			; <UNDEFINED> instruction: 0x012e0a00
     e04:	0e03193f 			; <UNDEFINED> instruction: 0x0e03193f
     e08:	0b3b0b3a 	bleq	ec3af8 <__bss_end__+0xeba768>
     e0c:	19270b39 	stmdbne	r7!, {r0, r3, r4, r5, r8, r9, fp}
     e10:	06120111 			; <UNDEFINED> instruction: 0x06120111
     e14:	42971840 	addsmi	r1, r7, #64, 16	; 0x400000
     e18:	00130119 	andseq	r0, r3, r9, lsl r1
     e1c:	00050b00 	andeq	r0, r5, r0, lsl #22
     e20:	0b3a0803 	bleq	e82e34 <__bss_end__+0xe79aa4>
     e24:	0b390b3b 	bleq	e43b18 <__bss_end__+0xe3a788>
     e28:	18021349 	stmdane	r2, {r0, r3, r6, r8, r9, ip}
     e2c:	2e0c0000 	cdpcs	0, 0, cr0, cr12, cr0, {0}
     e30:	03193f00 	tsteq	r9, #0, 30
     e34:	3b0b3a0e 	blcc	2cf674 <__bss_end__+0x2c62e4>
     e38:	270b390b 	strcs	r3, [fp, -fp, lsl #18]
     e3c:	12011119 	andne	r1, r1, #1073741830	; 0x40000006
     e40:	97184006 	ldrls	r4, [r8, -r6]
     e44:	00001942 	andeq	r1, r0, r2, asr #18
     e48:	03012e0d 	movweq	r2, #7693	; 0x1e0d
     e4c:	3b0b3a0e 	blcc	2cf68c <__bss_end__+0x2c62fc>
     e50:	270b390b 	strcs	r3, [fp, -fp, lsl #18]
     e54:	11134919 	tstne	r3, r9, lsl r9
     e58:	40061201 	andmi	r1, r6, r1, lsl #4
     e5c:	19429718 	stmdbne	r2, {r3, r4, r8, r9, sl, ip, pc}^
     e60:	00001301 	andeq	r1, r0, r1, lsl #6
     e64:	0300050e 	movweq	r0, #1294	; 0x50e
     e68:	3b0b3a08 	blcc	2cf690 <__bss_end__+0x2c6300>
     e6c:	490b390b 	stmdbmi	fp, {r0, r1, r3, r8, fp, ip, sp}
     e70:	b7170213 			; <UNDEFINED> instruction: 0xb7170213
     e74:	00001742 	andeq	r1, r0, r2, asr #14
     e78:	0182890f 	orreq	r8, r2, pc, lsl #18
     e7c:	31011101 	tstcc	r1, r1, lsl #2
     e80:	10000013 	andne	r0, r0, r3, lsl r0
     e84:	0001828a 	andeq	r8, r1, sl, lsl #5
     e88:	42911802 	addsmi	r1, r1, #131072	; 0x20000
     e8c:	11000018 	tstne	r0, r8, lsl r0
     e90:	193f002e 	ldmdbne	pc!, {r1, r2, r3, r5}	; <UNPREDICTABLE>
     e94:	0e6e193c 			; <UNDEFINED> instruction: 0x0e6e193c
     e98:	0b3a0e03 	bleq	e846ac <__bss_end__+0xe7b31c>
     e9c:	0b390b3b 	bleq	e43b90 <__bss_end__+0xe3a800>
     ea0:	01000000 	mrseq	r0, (UNDEF: 0)
     ea4:	0e250111 	mcreq	1, 1, r0, cr5, cr1, {0}
     ea8:	0e030b13 	vmoveq.32	d3[0], r0
     eac:	01110e1b 	tsteq	r1, fp, lsl lr
     eb0:	17100612 			; <UNDEFINED> instruction: 0x17100612
     eb4:	24020000 	strcs	r0, [r2], #-0
     eb8:	3e0b0b00 	vmlacc.f64	d0, d11, d0
     ebc:	0008030b 	andeq	r0, r8, fp, lsl #6
     ec0:	00240300 	eoreq	r0, r4, r0, lsl #6
     ec4:	0b3e0b0b 	bleq	f83af8 <__bss_end__+0xf7a768>
     ec8:	00000e03 	andeq	r0, r0, r3, lsl #28
     ecc:	27011504 	strcs	r1, [r1, -r4, lsl #10]
     ed0:	01134919 	tsteq	r3, r9, lsl r9
     ed4:	05000013 	streq	r0, [r0, #-19]	; 0xffffffed
     ed8:	13490005 	movtne	r0, #36869	; 0x9005
     edc:	34060000 	strcc	r0, [r6], #-0
     ee0:	3a0e0300 	bcc	381ae8 <__bss_end__+0x378758>
     ee4:	390b3b0b 	stmdbcc	fp, {r0, r1, r3, r8, r9, fp, ip, sp}
     ee8:	3f13490b 	svccc	0x0013490b
     eec:	00193c19 	andseq	r3, r9, r9, lsl ip
     ef0:	000f0700 	andeq	r0, pc, r0, lsl #14
     ef4:	13490b0b 	movtne	r0, #39691	; 0x9b0b
     ef8:	26080000 	strcs	r0, [r8], -r0
     efc:	00134900 	andseq	r4, r3, r0, lsl #18
     f00:	012e0900 			; <UNDEFINED> instruction: 0x012e0900
     f04:	0e03193f 			; <UNDEFINED> instruction: 0x0e03193f
     f08:	0b3b0b3a 	bleq	ec3bf8 <__bss_end__+0xeba868>
     f0c:	19270b39 	stmdbne	r7!, {r0, r3, r4, r5, r8, r9, fp}
     f10:	01111349 	tsteq	r1, r9, asr #6
     f14:	18400612 	stmdane	r0, {r1, r4, r9, sl}^
     f18:	01194297 			; <UNDEFINED> instruction: 0x01194297
     f1c:	0a000013 	beq	f70 <__code_start__-0x7090>
     f20:	0e030005 	cdpeq	0, 0, cr0, cr3, cr5, {0}
     f24:	0b3b0b3a 	bleq	ec3c14 <__bss_end__+0xeba884>
     f28:	13490b39 	movtne	r0, #39737	; 0x9b39
     f2c:	00001802 	andeq	r1, r0, r2, lsl #16
     f30:	0300050b 	movweq	r0, #1291	; 0x50b
     f34:	3b0b3a08 	blcc	2cf75c <__bss_end__+0x2c63cc>
     f38:	490b390b 	stmdbmi	fp, {r0, r1, r3, r8, fp, ip, sp}
     f3c:	b7170213 			; <UNDEFINED> instruction: 0xb7170213
     f40:	00001742 	andeq	r1, r0, r2, asr #14
     f44:	0300340c 	movweq	r3, #1036	; 0x40c
     f48:	3b0b3a08 	blcc	2cf770 <__bss_end__+0x2c63e0>
     f4c:	490b390b 	stmdbmi	fp, {r0, r1, r3, r8, fp, ip, sp}
     f50:	b7170213 			; <UNDEFINED> instruction: 0xb7170213
     f54:	00001742 	andeq	r1, r0, r2, asr #14
     f58:	01110100 	tsteq	r1, r0, lsl #2
     f5c:	0b130e25 	bleq	4c47f8 <__bss_end__+0x4bb468>
     f60:	0e1b0e03 	cdpeq	14, 1, cr0, cr11, cr3, {0}
     f64:	01111755 	tsteq	r1, r5, asr r7
     f68:	00001710 	andeq	r1, r0, r0, lsl r7
     f6c:	0b002402 	bleq	9f7c <__bss_end__+0xbec>
     f70:	030b3e0b 	movweq	r3, #48651	; 0xbe0b
     f74:	03000008 	movweq	r0, #8
     f78:	0e030016 	mcreq	0, 0, r0, cr3, cr6, {0}
     f7c:	0b3b0b3a 	bleq	ec3c6c <__bss_end__+0xeba8dc>
     f80:	13490b39 	movtne	r0, #39737	; 0x9b39
     f84:	24040000 	strcs	r0, [r4], #-0
     f88:	3e0b0b00 	vmlacc.f64	d0, d11, d0
     f8c:	000e030b 	andeq	r0, lr, fp, lsl #6
     f90:	00260500 	eoreq	r0, r6, r0, lsl #10
     f94:	00001349 	andeq	r1, r0, r9, asr #6
     f98:	27011506 	strcs	r1, [r1, -r6, lsl #10]
     f9c:	01134919 	tsteq	r3, r9, lsl r9
     fa0:	07000013 	smladeq	r0, r3, r0, r0
     fa4:	13490005 	movtne	r0, #36869	; 0x9005
     fa8:	34080000 	strcc	r0, [r8], #-0
     fac:	3a0e0300 	bcc	381bb4 <__bss_end__+0x378824>
     fb0:	390b3b0b 	stmdbcc	fp, {r0, r1, r3, r8, r9, fp, ip, sp}
     fb4:	3f13490b 	svccc	0x0013490b
     fb8:	00193c19 	andseq	r3, r9, r9, lsl ip
     fbc:	000f0900 	andeq	r0, pc, r0, lsl #18
     fc0:	13490b0b 	movtne	r0, #39691	; 0x9b0b
     fc4:	2e0a0000 	cdpcs	0, 0, cr0, cr10, cr0, {0}
     fc8:	03193f01 	tsteq	r9, #1, 30
     fcc:	3b0b3a0e 	blcc	2cf80c <__bss_end__+0x2c647c>
     fd0:	270b390b 	strcs	r3, [fp, -fp, lsl #18]
     fd4:	11134919 	tstne	r3, r9, lsl r9
     fd8:	40061201 	andmi	r1, r6, r1, lsl #4
     fdc:	19429718 	stmdbne	r2, {r3, r4, r8, r9, sl, ip, pc}^
     fe0:	00001301 	andeq	r1, r0, r1, lsl #6
     fe4:	0300050b 	movweq	r0, #1291	; 0x50b
     fe8:	3b0b3a08 	blcc	2cf810 <__bss_end__+0x2c6480>
     fec:	490b390b 	stmdbmi	fp, {r0, r1, r3, r8, fp, ip, sp}
     ff0:	b7170213 			; <UNDEFINED> instruction: 0xb7170213
     ff4:	00001742 	andeq	r1, r0, r2, asr #14
     ff8:	0300340c 	movweq	r3, #1036	; 0x40c
     ffc:	3b0b3a08 	blcc	2cf824 <__bss_end__+0x2c6494>
    1000:	490b390b 	stmdbmi	fp, {r0, r1, r3, r8, fp, ip, sp}
    1004:	b7170213 			; <UNDEFINED> instruction: 0xb7170213
    1008:	00001742 	andeq	r1, r0, r2, asr #14
	...

Disassembly of section .debug_loc:

00000000 <.debug_loc>:
   0:	00000000 	andeq	r0, r0, r0
   4:	00000024 	andeq	r0, r0, r4, lsr #32
   8:	00000027 	andeq	r0, r0, r7, lsr #32
   c:	27500001 	ldrbcs	r0, [r0, -r1]
  10:	40000000 	andmi	r0, r0, r0
  14:	01000000 	mrseq	r0, (UNDEF: 0)
  18:	00005400 	andeq	r5, r0, r0, lsl #8
	...
  24:	01500000 	cmpeq	r0, r0
  28:	015b0000 	cmpeq	fp, r0
  2c:	00010000 	andeq	r0, r1, r0
  30:	00015b50 	andeq	r5, r1, r0, asr fp
  34:	0001b400 	andeq	fp, r1, r0, lsl #8
  38:	55000100 	strpl	r0, [r0, #-256]	; 0xffffff00
	...
  4c:	00000160 	andeq	r0, r0, r0, ror #2
  50:	00000170 	andeq	r0, r0, r0, ror r1
  54:	70500001 	subsvc	r0, r0, r1
  58:	78000001 	stmdavc	r0, {r0}
  5c:	01000001 	tsteq	r0, r1
  60:	01785400 	cmneq	r8, r0, lsl #8
  64:	019c0000 	orrseq	r0, ip, r0
  68:	00010000 	andeq	r0, r1, r0
  6c:	00019c50 	andeq	r9, r1, r0, asr ip
  70:	0001b400 	andeq	fp, r1, r0, lsl #8
  74:	54000100 	strpl	r0, [r0], #-256	; 0xffffff00
	...
  88:	000000f0 	strdeq	r0, [r0], -r0	; <UNPREDICTABLE>
  8c:	0000010c 	andeq	r0, r0, ip, lsl #2
  90:	0c500001 	mrrceq	0, 0, r0, r0, cr1	; <UNPREDICTABLE>
  94:	1c000001 	stcne	0, cr0, [r0], {1}
  98:	01000001 	tsteq	r0, r1
  9c:	011c5400 	tsteq	ip, r0, lsl #8
  a0:	013b0000 	teqeq	fp, r0
  a4:	00010000 	andeq	r0, r1, r0
  a8:	00013b50 	andeq	r3, r1, r0, asr fp
  ac:	00015000 	andeq	r5, r1, r0
  b0:	54000100 	strpl	r0, [r0], #-256	; 0xffffff00
	...
  c4:	000000f0 	strdeq	r0, [r0], -r0	; <UNPREDICTABLE>
  c8:	0000010c 	andeq	r0, r0, ip, lsl #2
  cc:	0c510001 	mrrceq	0, 0, r0, r1, cr1
  d0:	1c000001 	stcne	0, cr0, [r0], {1}
  d4:	01000001 	tsteq	r0, r1
  d8:	011c5500 	tsteq	ip, r0, lsl #10
  dc:	013b0000 	teqeq	fp, r0
  e0:	00010000 	andeq	r0, r1, r0
  e4:	00013b51 	andeq	r3, r1, r1, asr fp
  e8:	00015000 	andeq	r5, r1, r0
  ec:	55000100 	strpl	r0, [r0, #-256]	; 0xffffff00
	...
  fc:	001c0000 	andseq	r0, ip, r0
 100:	002c0000 	eoreq	r0, ip, r0
 104:	00010000 	andeq	r0, r1, r0
 108:	00002c50 	andeq	r2, r0, r0, asr ip
 10c:	00002f00 	andeq	r2, r0, r0, lsl #30
 110:	51000100 	mrspl	r0, (UNDEF: 16)
 114:	0000002f 	andeq	r0, r0, pc, lsr #32
 118:	00000038 	andeq	r0, r0, r8, lsr r0
 11c:	01f30004 	mvnseq	r0, r4
 120:	00009f50 	andeq	r9, r0, r0, asr pc
	...
 130:	0000001c 	andeq	r0, r0, ip, lsl r0
 134:	00000028 	andeq	r0, r0, r8, lsr #32
 138:	28510001 	ldmdacs	r1, {r0}^
 13c:	2f000000 	svccs	0x00000000
 140:	01000000 	mrseq	r0, (UNDEF: 0)
 144:	002f5200 	eoreq	r5, pc, r0, lsl #4
 148:	00380000 	eorseq	r0, r8, r0
 14c:	00040000 	andeq	r0, r4, r0
 150:	9f5101f3 	svcls	0x005101f3
	...
 164:	00100000 	andseq	r0, r0, r0
 168:	00010000 	andeq	r0, r1, r0
 16c:	00001050 	andeq	r1, r0, r0, asr r0
 170:	00001300 	andeq	r1, r0, r0, lsl #6
 174:	51000100 	mrspl	r0, (UNDEF: 16)
 178:	00000013 	andeq	r0, r0, r3, lsl r0
 17c:	0000001c 	andeq	r0, r0, ip, lsl r0
 180:	01f30004 	mvnseq	r0, r4
 184:	00009f50 	andeq	r9, r0, r0, asr pc
	...
 198:	0000000c 	andeq	r0, r0, ip
 19c:	0c510001 	mrrceq	0, 0, r0, r1, cr1
 1a0:	13000000 	movwne	r0, #0
 1a4:	01000000 	mrseq	r0, (UNDEF: 0)
 1a8:	00135200 	andseq	r5, r3, r0, lsl #4
 1ac:	001c0000 	andseq	r0, ip, r0
 1b0:	00040000 	andeq	r0, r4, r0
 1b4:	9f5101f3 	svcls	0x005101f3
	...
 1c4:	00000038 	andeq	r0, r0, r8, lsr r0
 1c8:	00000078 	andeq	r0, r0, r8, ror r0
 1cc:	78500001 	ldmdavc	r0, {r0}^
 1d0:	94000000 	strls	r0, [r0], #-0
 1d4:	04000000 	streq	r0, [r0], #-0
 1d8:	5001f300 	andpl	pc, r1, r0, lsl #6
 1dc:	0000009f 	muleq	r0, pc, r0	; <UNPREDICTABLE>
	...
 1e8:	2c000000 	stccs	0, cr0, [r0], {-0}
 1ec:	38000000 	stmdacc	r0, {}	; <UNPREDICTABLE>
 1f0:	01000000 	mrseq	r0, (UNDEF: 0)
 1f4:	00385000 	eorseq	r5, r8, r0
 1f8:	00480000 	subeq	r0, r8, r0
 1fc:	00010000 	andeq	r0, r1, r0
 200:	00004854 	andeq	r4, r0, r4, asr r8
 204:	00005800 	andeq	r5, r0, r0, lsl #16
 208:	50000100 	andpl	r0, r0, r0, lsl #2
	...
 214:	00010100 	andeq	r0, r1, r0, lsl #2
 218:	00000000 	andeq	r0, r0, r0
 21c:	00000008 	andeq	r0, r0, r8
 220:	08500001 	ldmdaeq	r0, {r0}^
 224:	34000000 	strcc	r0, [r0], #-0
 228:	01000000 	mrseq	r0, (UNDEF: 0)
 22c:	00005400 	andeq	r5, r0, r0, lsl #8
	...
 23c:	00000288 	andeq	r0, r0, r8, lsl #5
 240:	000002b8 			; <UNDEFINED> instruction: 0x000002b8
 244:	b8500001 	ldmdalt	r0, {r0}^
 248:	04000002 	streq	r0, [r0], #-2
 24c:	01000006 	tsteq	r0, r6
 250:	06045900 	streq	r5, [r4], -r0, lsl #18
 254:	062c0000 	strteq	r0, [ip], -r0
 258:	00040000 	andeq	r0, r4, r0
 25c:	9f5001f3 	svcls	0x005001f3
	...
 26c:	02880000 	addeq	r0, r8, #0, 0
 270:	02a00000 	adceq	r0, r0, #0, 0
 274:	00010000 	andeq	r0, r1, r0
 278:	0002a051 	andeq	sl, r2, r1, asr r0
 27c:	0002b800 	andeq	fp, r2, r0, lsl #16
 280:	71000300 	mrsvc	r0, LR_irq
 284:	02b89f01 	adcseq	r9, r8, #1, 30
 288:	062c0000 	strteq	r0, [ip], -r0
 28c:	00040000 	andeq	r0, r4, r0
 290:	9f5101f3 	svcls	0x005101f3
	...
 2a0:	00000288 	andeq	r0, r0, r8, lsl #5
 2a4:	000002b8 			; <UNDEFINED> instruction: 0x000002b8
 2a8:	b8520001 	ldmdalt	r2, {r0}^
 2ac:	04000002 	streq	r0, [r0], #-2
 2b0:	01000006 	tsteq	r0, r6
 2b4:	00005600 	andeq	r5, r0, r0, lsl #12
 2b8:	00000000 	andeq	r0, r0, r0
 2bc:	00010000 	andeq	r0, r1, r0
 2c0:	00000000 	andeq	r0, r0, r0
 2c4:	00010100 	andeq	r0, r1, r0, lsl #2
 2c8:	00000000 	andeq	r0, r0, r0
 2cc:	00020200 	andeq	r0, r2, r0, lsl #4
 2d0:	029c0000 	addseq	r0, ip, #0, 0
 2d4:	02b80000 	adcseq	r0, r8, #0, 0
 2d8:	00010000 	andeq	r0, r1, r0
 2dc:	0002b850 	andeq	fp, r2, r0, asr r8
 2e0:	0002bc00 	andeq	fp, r2, r0, lsl #24
 2e4:	54000100 	strpl	r0, [r0], #-256	; 0xffffff00
 2e8:	000002bc 			; <UNDEFINED> instruction: 0x000002bc
 2ec:	000002c0 	andeq	r0, r0, r0, asr #5
 2f0:	01740003 	cmneq	r4, r3
 2f4:	0002c09f 	muleq	r2, pc, r0	; <UNPREDICTABLE>
 2f8:	0002e400 	andeq	lr, r2, r0, lsl #8
 2fc:	54000100 	strpl	r0, [r0], #-256	; 0xffffff00
 300:	000002e4 	andeq	r0, r0, r4, ror #5
 304:	000002e8 	andeq	r0, r0, r8, ror #5
 308:	01740003 	cmneq	r4, r3
 30c:	0002e89f 	muleq	r2, pc, r8	; <UNPREDICTABLE>
 310:	0005d400 	andeq	sp, r5, r0, lsl #8
 314:	54000100 	strpl	r0, [r0], #-256	; 0xffffff00
 318:	000005d4 	ldrdeq	r0, [r0], -r4
 31c:	000005d8 	ldrdeq	r0, [r0], -r8
 320:	01740003 	cmneq	r4, r3
 324:	0005d89f 	muleq	r5, pc, r8	; <UNPREDICTABLE>
 328:	0005f000 	andeq	pc, r5, r0
 32c:	54000100 	strpl	r0, [r0], #-256	; 0xffffff00
 330:	000005f0 	strdeq	r0, [r0], -r0	; <UNPREDICTABLE>
 334:	000005f8 	strdeq	r0, [r0], -r8
 338:	01740003 	cmneq	r4, r3
 33c:	0005f89f 	muleq	r5, pc, r8	; <UNPREDICTABLE>
 340:	00060400 	andeq	r0, r6, r0, lsl #8
 344:	54000100 	strpl	r0, [r0], #-256	; 0xffffff00
	...
 354:	000002a4 	andeq	r0, r0, r4, lsr #5
 358:	00000604 	andeq	r0, r0, r4, lsl #12
 35c:	04580001 	ldrbeq	r0, [r8], #-1
 360:	2c000006 	stccs	0, cr0, [r0], {6}
 364:	0a000006 	beq	384 <__code_start__-0x7c7c>
 368:	5101f300 	mrspl	pc, SP_irq	; <UNPREDICTABLE>
 36c:	225001f3 	subscs	r0, r0, #-1073741764	; 0xc000003c
 370:	009f1c31 	addseq	r1, pc, r1, lsr ip	; <UNPREDICTABLE>
 374:	00000000 	andeq	r0, r0, r0
 378:	01000000 	mrseq	r0, (UNDEF: 0)
 37c:	0003f000 	andeq	pc, r3, r0
 380:	00040b00 	andeq	r0, r4, r0, lsl #22
 384:	53000100 	movwpl	r0, #256	; 0x100
	...
 390:	00000001 	andeq	r0, r0, r1
 394:	000002ac 	andeq	r0, r0, ip, lsr #5
 398:	000002b8 			; <UNDEFINED> instruction: 0x000002b8
 39c:	b8520001 	ldmdalt	r2, {r0}^
 3a0:	2c000002 	stccs	0, cr0, [r0], {2}
 3a4:	03000006 	movweq	r0, #6
 3a8:	7dc89100 	stfvcp	f1, [r8]
	...
 3b8:	00010100 	andeq	r0, r1, r0, lsl #2
	...
 3c4:	04100000 	ldreq	r0, [r0], #-0
 3c8:	04280000 	strteq	r0, [r8], #-0
 3cc:	00010000 	andeq	r0, r1, r0
 3d0:	00042850 	andeq	r2, r4, r0, asr r8
 3d4:	00043c00 	andeq	r3, r4, r0, lsl #24
 3d8:	57000100 	strpl	r0, [r0, -r0, lsl #2]
 3dc:	000004a4 	andeq	r0, r0, r4, lsr #9
 3e0:	000004a4 	andeq	r0, r0, r4, lsr #9
 3e4:	a4500001 	ldrbge	r0, [r0], #-1
 3e8:	ac000004 	stcge	0, cr0, [r0], {4}
 3ec:	01000004 	tsteq	r0, r4
 3f0:	04dc5700 	ldrbeq	r5, [ip], #1792	; 0x700
 3f4:	04e00000 	strbteq	r0, [r0], #0
 3f8:	00010000 	andeq	r0, r1, r0
 3fc:	00051050 	andeq	r1, r5, r0, asr r0
 400:	00051400 	andeq	r1, r5, r0, lsl #8
 404:	50000100 	andpl	r0, r0, r0, lsl #2
 408:	00000544 	andeq	r0, r0, r4, asr #10
 40c:	00000548 	andeq	r0, r0, r8, asr #10
 410:	8c500001 	mrrchi	0, 0, r0, r0, cr1	; <UNPREDICTABLE>
 414:	90000005 	andls	r0, r0, r5
 418:	01000005 	tsteq	r0, r5
 41c:	05d05000 	ldrbeq	r5, [r0]
 420:	05f00000 	ldrbeq	r0, [r0, #0]!
 424:	00010000 	andeq	r0, r1, r0
 428:	00000057 	andeq	r0, r0, r7, asr r0
 42c:	00000000 	andeq	r0, r0, r0
 430:	00000200 	andeq	r0, r0, r0, lsl #4
 434:	f4000000 	vst4.8	{d0-d3}, [r0], r0
 438:	f8000002 			; <UNDEFINED> instruction: 0xf8000002
 43c:	02000002 	andeq	r0, r0, #2, 0
 440:	f89f3000 			; <UNDEFINED> instruction: 0xf89f3000
 444:	14000002 	strne	r0, [r0], #-2
 448:	01000003 	tsteq	r0, r3
 44c:	031c5500 	tsteq	ip, #0, 10
 450:	05f00000 	ldrbeq	r0, [r0, #0]!
 454:	00010000 	andeq	r0, r1, r0
 458:	00000055 	andeq	r0, r0, r5, asr r0
	...
 464:	70000000 	andvc	r0, r0, r0
 468:	94000000 	strls	r0, [r0], #-0
 46c:	01000000 	mrseq	r0, (UNDEF: 0)
 470:	00945000 	addseq	r5, r4, r0
 474:	00fc0000 	rscseq	r0, ip, r0
 478:	00030000 	andeq	r0, r3, r0
 47c:	fc9f0270 	ldc2	2, cr0, [pc], {112}	; 0x70
 480:	24000000 	strcs	r0, [r0], #-0
 484:	04000002 	streq	r0, [r0], #-2
 488:	5001f300 	andpl	pc, r1, r0, lsl #6
 48c:	0000009f 	muleq	r0, pc, r0	; <UNPREDICTABLE>
	...
 4a4:	00007000 	andeq	r7, r0, r0
 4a8:	0000e000 	andeq	lr, r0, r0
 4ac:	51000100 	mrspl	r0, (UNDEF: 16)
 4b0:	000000e0 	andeq	r0, r0, r0, ror #1
 4b4:	00000154 	andeq	r0, r0, r4, asr r1
 4b8:	54550001 	ldrbpl	r0, [r5], #-1
 4bc:	58000001 	stmdapl	r0, {r0}
 4c0:	01000001 	tsteq	r0, r1
 4c4:	01585100 	cmpeq	r8, r0, lsl #2
 4c8:	01b00000 	movseq	r0, r0
 4cc:	00010000 	andeq	r0, r1, r0
 4d0:	0001b055 	andeq	fp, r1, r5, asr r0
 4d4:	0001c000 	andeq	ip, r1, r0
 4d8:	51000100 	mrspl	r0, (UNDEF: 16)
 4dc:	000001c0 	andeq	r0, r0, r0, asr #3
 4e0:	000001e4 	andeq	r0, r0, r4, ror #3
 4e4:	e4550001 	ldrb	r0, [r5], #-1
 4e8:	f8000001 			; <UNDEFINED> instruction: 0xf8000001
 4ec:	01000001 	tsteq	r0, r1
 4f0:	01f85100 	mvnseq	r5, r0, lsl #2
 4f4:	02240000 	eoreq	r0, r4, #0, 0
 4f8:	00010000 	andeq	r0, r1, r0
 4fc:	00000055 	andeq	r0, r0, r5, asr r0
	...
 508:	00007000 	andeq	r7, r0, r0
 50c:	00008400 	andeq	r8, r0, r0, lsl #8
 510:	52000100 	andpl	r0, r0, #0
 514:	00000084 	andeq	r0, r0, r4, lsl #1
 518:	00000224 	andeq	r0, r0, r4, lsr #4
 51c:	00540001 	subseq	r0, r4, r1
	...
 52c:	00000001 	andeq	r0, r0, r1
 530:	70000000 	andvc	r0, r0, r0
 534:	f4000000 	vst4.8	{d0-d3}, [r0], r0
 538:	01000000 	mrseq	r0, (UNDEF: 0)
 53c:	014c5300 	mrseq	r5, SPSR_mon
 540:	01800000 	orreq	r0, r0, r0
 544:	00010000 	andeq	r0, r1, r0
 548:	00018053 	andeq	r8, r1, r3, asr r0
 54c:	00018c00 	andeq	r8, r1, r0, lsl #24
 550:	f3000400 	vshl.u8	d0, d0, d0
 554:	b09f5301 	addslt	r5, pc, r1, lsl #6
 558:	e8000001 	stmda	r0, {r0}
 55c:	01000001 	tsteq	r0, r1
 560:	01e85300 	mvneq	r5, r0, lsl #6
 564:	01ff0000 	mvnseq	r0, r0
 568:	00010000 	andeq	r0, r1, r0
 56c:	0001ff5c 	andeq	pc, r1, ip, asr pc	; <UNPREDICTABLE>
 570:	00022400 	andeq	r2, r2, r0, lsl #8
 574:	f3000400 	vshl.u8	d0, d0, d0
 578:	009f5301 	addseq	r5, pc, r1, lsl #6
	...
 588:	00007000 	andeq	r7, r0, r0
 58c:	00008c00 	andeq	r8, r0, r0, lsl #24
 590:	91000200 	mrsls	r0, R8_usr
 594:	00008c00 	andeq	r8, r0, r0, lsl #24
 598:	00019300 	andeq	r9, r1, r0, lsl #6
 59c:	52000100 	andpl	r0, r0, #0
 5a0:	000001b0 			; <UNDEFINED> instruction: 0x000001b0
 5a4:	000001f4 	strdeq	r0, [r0], -r4
 5a8:	00520001 	subseq	r0, r2, r1
 5ac:	00000000 	andeq	r0, r0, r0
 5b0:	01000000 	mrseq	r0, (UNDEF: 0)
 5b4:	01010000 	mrseq	r0, (UNDEF: 1)
	...
 5c0:	01010101 	tsteq	r1, r1, lsl #2
 5c4:	01010000 	mrseq	r0, (UNDEF: 1)
	...
 5d0:	8c000000 	stchi	0, cr0, [r0], {-0}
 5d4:	fc000000 	stc2	0, cr0, [r0], {-0}
 5d8:	04000000 	streq	r0, [r0], #-0
 5dc:	7fa09100 	svcvc	0x00a09100
 5e0:	0000fc9f 	muleq	r0, pc, ip	; <UNPREDICTABLE>
 5e4:	00013c00 	andeq	r3, r1, r0, lsl #24
 5e8:	50000100 	andpl	r0, r0, r0, lsl #2
 5ec:	0000013c 	andeq	r0, r0, ip, lsr r1
 5f0:	00000148 	andeq	r0, r0, r8, asr #2
 5f4:	02710003 	rsbseq	r0, r1, #3, 0
 5f8:	0001489f 	muleq	r1, pc, r8	; <UNPREDICTABLE>
 5fc:	00014c00 	andeq	r4, r1, r0, lsl #24
 600:	50000100 	andpl	r0, r0, r0, lsl #2
 604:	0000014c 	andeq	r0, r0, ip, asr #2
 608:	00000158 	andeq	r0, r0, r8, asr r1
 60c:	a0910004 	addsge	r0, r1, r4
 610:	01589f7f 	cmpeq	r8, pc, ror pc
 614:	016c0000 	cmneq	ip, r0
 618:	00010000 	andeq	r0, r1, r0
 61c:	00016c51 	andeq	r6, r1, r1, asr ip
 620:	00017800 	andeq	r7, r1, r0, lsl #16
 624:	71000300 	mrsvc	r0, LR_irq
 628:	01789f7f 	cmneq	r8, pc, ror pc
 62c:	01840000 	orreq	r0, r4, r0
 630:	00030000 	andeq	r0, r3, r0
 634:	849f0171 	ldrhi	r0, [pc], #369	; 63c <__code_start__-0x79c4>
 638:	93000001 	movwls	r0, #1
 63c:	01000001 	tsteq	r0, r1
 640:	01b05000 	movseq	r5, r0
 644:	01b00000 	movseq	r0, r0
 648:	00040000 	andeq	r0, r4, r0
 64c:	9f7fa091 	svcls	0x007fa091
 650:	000001b0 			; <UNDEFINED> instruction: 0x000001b0
 654:	000001b8 			; <UNDEFINED> instruction: 0x000001b8
 658:	a1910004 	orrsge	r0, r1, r4
 65c:	01b89f7f 			; <UNDEFINED> instruction: 0x01b89f7f
 660:	01bc0000 			; <UNDEFINED> instruction: 0x01bc0000
 664:	00010000 	andeq	r0, r1, r0
 668:	0001bc50 	andeq	fp, r1, r0, asr ip
 66c:	0001c000 	andeq	ip, r1, r0
 670:	91000400 	tstls	r0, r0, lsl #8
 674:	c09f7fa0 	addsgt	r7, pc, r0, lsr #31
 678:	d4000001 	strle	r0, [r0], #-1
 67c:	01000001 	tsteq	r0, r1
 680:	01d45000 	bicseq	r5, r4, r0
 684:	01e40000 	mvneq	r0, r0
 688:	00030000 	andeq	r0, r3, r0
 68c:	e49f7f70 	ldr	r7, [pc], #3952	; 694 <__code_start__-0x796c>
 690:	24000001 	strcs	r0, [r0], #-1
 694:	04000002 	streq	r0, [r0], #-2
 698:	7fa09100 	svcvc	0x00a09100
 69c:	0000009f 	muleq	r0, pc, r0	; <UNPREDICTABLE>
	...
 6a8:	00000101 	andeq	r0, r0, r1, lsl #2
	...
 6b8:	00009000 	andeq	r9, r0, r0
 6bc:	0000dc00 	andeq	sp, r0, r0, lsl #24
 6c0:	5c000100 	stfpls	f0, [r0], {-0}
 6c4:	000000dc 	ldrdeq	r0, [r0], -ip
 6c8:	000000f4 	strdeq	r0, [r0], -r4
 6cc:	f4530001 			; <UNDEFINED> instruction: 0xf4530001
 6d0:	4c000000 	stcmi	0, cr0, [r0], {-0}
 6d4:	01000001 	tsteq	r0, r1
 6d8:	014c5c00 	cmpeq	ip, r0, lsl #24
 6dc:	01580000 	cmpeq	r8, r0
 6e0:	00010000 	andeq	r0, r1, r0
 6e4:	00015853 	andeq	r5, r1, r3, asr r8
 6e8:	00017400 	andeq	r7, r1, r0, lsl #8
 6ec:	5c000100 	stfpls	f0, [r0], {-0}
 6f0:	000001b0 			; <UNDEFINED> instruction: 0x000001b0
 6f4:	000001c0 	andeq	r0, r0, r0, asr #3
 6f8:	c0530001 	subsgt	r0, r3, r1
 6fc:	dc000001 	stcle	0, cr0, [r0], {1}
 700:	01000001 	tsteq	r0, r1
 704:	01e45c00 	mvneq	r5, r0, lsl #24
 708:	01e80000 	mvneq	r0, r0
 70c:	00010000 	andeq	r0, r1, r0
 710:	0001e853 	andeq	lr, r1, r3, asr r8
 714:	0001ff00 	andeq	pc, r1, r0, lsl #30
 718:	5c000100 	stfpls	f0, [r0], {-0}
 71c:	000001ff 	strdeq	r0, [r0], -pc	; <UNPREDICTABLE>
 720:	00000224 	andeq	r0, r0, r4, lsr #4
 724:	01f30004 	mvnseq	r0, r4
 728:	00009f53 	andeq	r9, r0, r3, asr pc
 72c:	00000000 	andeq	r0, r0, r0
 730:	01010000 	mrseq	r0, (UNDEF: 1)
 734:	00000001 	andeq	r0, r0, r1
 738:	00dc0000 	sbcseq	r0, ip, r0
 73c:	00f00000 	rscseq	r0, r0, r0
 740:	00020000 	andeq	r0, r2, r0
 744:	00f09f30 	rscseq	r9, r0, r0, lsr pc
 748:	00f80000 	rscseq	r0, r8, r0
 74c:	00020000 	andeq	r0, r2, r0
 750:	00fc9f31 	rscseq	r9, ip, r1, lsr pc
 754:	014c0000 	mrseq	r0, (UNDEF: 76)
 758:	00010000 	andeq	r0, r1, r0
 75c:	00014c56 	andeq	r4, r1, r6, asr ip
 760:	00015400 	andeq	r5, r1, r0, lsl #8
 764:	30000200 	andcc	r0, r0, r0, lsl #4
 768:	0000009f 	muleq	r0, pc, r0	; <UNPREDICTABLE>
	...
 774:	00000101 	andeq	r0, r0, r1, lsl #2
 778:	38000101 	stmdacc	r0, {r0, r8}
 77c:	54000000 	strpl	r0, [r0], #-0
 780:	01000000 	mrseq	r0, (UNDEF: 0)
 784:	00545000 	subseq	r5, r4, r0
 788:	00580000 	subseq	r0, r8, r0
 78c:	00010000 	andeq	r0, r1, r0
 790:	00005852 	andeq	r5, r0, r2, asr r8
 794:	00006000 	andeq	r6, r0, r0
 798:	72000300 	andvc	r0, r0, #0, 6
 79c:	00609f01 	rsbeq	r9, r0, r1, lsl #30
 7a0:	00640000 	rsbeq	r0, r4, r0
 7a4:	00010000 	andeq	r0, r1, r0
 7a8:	00006452 	andeq	r6, r0, r2, asr r4
 7ac:	00007000 	andeq	r7, r0, r0
 7b0:	72000300 	andvc	r0, r0, #0, 6
 7b4:	00009f01 	andeq	r9, r0, r1, lsl #30
	...
 7c0:	00380000 	eorseq	r0, r8, r0
 7c4:	00500000 	subseq	r0, r0, r0
 7c8:	00010000 	andeq	r0, r1, r0
 7cc:	00005051 	andeq	r5, r0, r1, asr r0
 7d0:	00007000 	andeq	r7, r0, r0
 7d4:	f3000400 	vshl.u8	d0, d0, d0
 7d8:	009f5101 	addseq	r5, pc, r1, lsl #2
	...
 7e8:	38000101 	stmdacc	r0, {r0, r8}
 7ec:	50000000 	andpl	r0, r0, r0
 7f0:	01000000 	mrseq	r0, (UNDEF: 0)
 7f4:	00505200 	subseq	r5, r0, r0, lsl #4
 7f8:	005c0000 	subseq	r0, ip, r0
 7fc:	00010000 	andeq	r0, r1, r0
 800:	00005c51 	andeq	r5, r0, r1, asr ip
 804:	00006000 	andeq	r6, r0, r0
 808:	71000300 	mrsvc	r0, LR_irq
 80c:	00609f01 	rsbeq	r9, r0, r1, lsl #30
 810:	00700000 	rsbseq	r0, r0, r0
 814:	00010000 	andeq	r0, r1, r0
 818:	00000051 	andeq	r0, r0, r1, asr r0
	...
 824:	00003800 	andeq	r3, r0, r0, lsl #16
 828:	00004c00 	andeq	r4, r0, r0, lsl #24
 82c:	53000100 	movwpl	r0, #256	; 0x100
 830:	0000004c 	andeq	r0, r0, ip, asr #32
 834:	00000068 	andeq	r0, r0, r8, rrx
 838:	00530001 	subseq	r0, r3, r1
	...
 848:	40000000 	andmi	r0, r0, r0
 84c:	48000000 	stmdami	r0, {}	; <UNPREDICTABLE>
 850:	01000000 	mrseq	r0, (UNDEF: 0)
 854:	00485c00 	subeq	r5, r8, r0, lsl #24
 858:	004c0000 	subeq	r0, ip, r0
 85c:	00080000 	andeq	r0, r8, r0
 860:	00730072 	rsbseq	r0, r3, r2, ror r0
 864:	9f01231c 	svcls	0x0001231c
 868:	0000004c 	andeq	r0, r0, ip, asr #32
 86c:	00000054 	andeq	r0, r0, r4, asr r0
 870:	00720009 	rsbseq	r0, r2, r9
 874:	1c5301f3 	ldfnee	f0, [r3], {243}	; 0xf3
 878:	549f0123 	ldrpl	r0, [pc], #291	; 880 <__code_start__-0x7780>
 87c:	70000000 	andvc	r0, r0, r0
 880:	0a000000 	beq	888 <__code_start__-0x7778>
 884:	5201f300 	andpl	pc, r1, #0, 6
 888:	1c5301f3 	ldfnee	f0, [r3], {243}	; 0xf3
 88c:	009f0123 	addseq	r0, pc, r3, lsr #2
 890:	00000000 	andeq	r0, r0, r0
 894:	01000000 	mrseq	r0, (UNDEF: 0)
 898:	00004c00 	andeq	r4, r0, r0, lsl #24
 89c:	00007000 	andeq	r7, r0, r0
 8a0:	50000100 	andpl	r0, r0, r0, lsl #2
	...
 8ac:	00010100 	andeq	r0, r1, r0, lsl #2
 8b0:	00140000 	andseq	r0, r4, r0
 8b4:	001c0000 	andseq	r0, ip, r0
 8b8:	00010000 	andeq	r0, r1, r0
 8bc:	00001c50 	andeq	r1, r0, r0, asr ip
 8c0:	00002400 	andeq	r2, r0, r0, lsl #8
 8c4:	70000300 	andvc	r0, r0, r0, lsl #6
 8c8:	00249f01 	eoreq	r9, r4, r1, lsl #30
 8cc:	00380000 	eorseq	r0, r8, r0
 8d0:	00010000 	andeq	r0, r1, r0
 8d4:	00000050 	andeq	r0, r0, r0, asr r0
	...
 8e0:	00001400 	andeq	r1, r0, r0, lsl #8
 8e4:	00001800 	andeq	r1, r0, r0, lsl #16
 8e8:	51000100 	mrspl	r0, (UNDEF: 16)
 8ec:	00000018 	andeq	r0, r0, r8, lsl r0
 8f0:	00000038 	andeq	r0, r0, r8, lsr r0
 8f4:	01f30004 	mvnseq	r0, r4
 8f8:	00009f51 	andeq	r9, r0, r1, asr pc
	...
 904:	00000018 	andeq	r0, r0, r8, lsl r0
 908:	00000038 	andeq	r0, r0, r8, lsr r0
 90c:	00510001 	subseq	r0, r1, r1
	...
 920:	00000400 	andeq	r0, r0, r0, lsl #8
 924:	50000100 	andpl	r0, r0, r0, lsl #2
 928:	00000004 	andeq	r0, r0, r4
 92c:	0000000c 	andeq	r0, r0, ip
 930:	30700003 	rsbscc	r0, r0, r3
 934:	00000c9f 	muleq	r0, pc, ip	; <UNPREDICTABLE>
 938:	00001400 	andeq	r1, r0, r0, lsl #8
 93c:	f3000400 	vshl.u8	d0, d0, d0
 940:	009f5001 	addseq	r5, pc, r1
	...
 94c:	24000000 	strcs	r0, [r0], #-0
 950:	68000002 	stmdavs	r0, {r1}
 954:	01000002 	tsteq	r0, r2
 958:	02685000 	rsbeq	r5, r8, #0, 0
 95c:	02880000 	addeq	r0, r8, #0, 0
 960:	00040000 	andeq	r0, r4, r0
 964:	9f5001f3 	svcls	0x005001f3
	...
 974:	00000224 	andeq	r0, r0, r4, lsr #4
 978:	00000264 	andeq	r0, r0, r4, ror #4
 97c:	64510001 	ldrbvs	r0, [r1], #-1
 980:	88000002 	stmdahi	r0, {r1}
 984:	04000002 	streq	r0, [r0], #-2
 988:	5101f300 	mrspl	pc, SP_irq	; <UNPREDICTABLE>
 98c:	0000009f 	muleq	r0, pc, r0	; <UNPREDICTABLE>
 990:	00000000 	andeq	r0, r0, r0
 994:	01010000 	mrseq	r0, (UNDEF: 1)
 998:	0c000000 	stceq	0, cr0, [r0], {-0}
 99c:	14000000 	strne	r0, [r0], #-0
 9a0:	01000000 	mrseq	r0, (UNDEF: 0)
 9a4:	00145300 	andseq	r5, r4, r0, lsl #6
 9a8:	001c0000 	andseq	r0, ip, r0
 9ac:	00030000 	andeq	r0, r3, r0
 9b0:	1c9f0473 	cfldrsne	mvf0, [pc], {115}	; 0x73
 9b4:	23000000 	movwcs	r0, #0
 9b8:	01000000 	mrseq	r0, (UNDEF: 0)
 9bc:	00005300 	andeq	r5, r0, r0, lsl #6
 9c0:	00000000 	andeq	r0, r0, r0
 9c4:	00010000 	andeq	r0, r1, r0
 9c8:	00008988 	andeq	r8, r0, r8, lsl #19
 9cc:	000089a4 	andeq	r8, r0, r4, lsr #19
 9d0:	1c0c0006 	stcne	0, cr0, [ip], {6}
 9d4:	9f201000 	svcls	0x00201000
	...
 9e0:	89880002 	stmibhi	r8, {r1}
 9e4:	89a40000 	stmibhi	r4!, {}	; <UNPREDICTABLE>
 9e8:	00060000 	andeq	r0, r6, r0
 9ec:	1000240c 	andne	r2, r0, ip, lsl #8
 9f0:	00009f20 	andeq	r9, r0, r0, lsr #30
 9f4:	00000000 	andeq	r0, r0, r0
 9f8:	00030000 	andeq	r0, r3, r0
 9fc:	00008988 	andeq	r8, r0, r8, lsl #19
 a00:	000089a4 	andeq	r8, r0, r4, lsr #19
 a04:	b4080005 	strlt	r0, [r8], #-5
 a08:	009f2447 	addseq	r2, pc, r7, asr #8
 a0c:	00000000 	andeq	r0, r0, r0
 a10:	04000000 	streq	r0, [r0], #-0
 a14:	00898800 	addeq	r8, r9, r0, lsl #16
 a18:	0089a400 	addeq	sl, r9, r0, lsl #8
 a1c:	08000300 	stmdaeq	r0, {r8, r9}
 a20:	00009f20 	andeq	r9, r0, r0, lsr #30
 a24:	00000000 	andeq	r0, r0, r0
 a28:	00020000 	andeq	r0, r2, r0
 a2c:	00000000 	andeq	r0, r0, r0
 a30:	00008958 	andeq	r8, r0, r8, asr r9
 a34:	0000895c 	andeq	r8, r0, ip, asr r9
 a38:	9f300002 	svcls	0x00300002
 a3c:	0000895c 	andeq	r8, r0, ip, asr r9
 a40:	00008960 	andeq	r8, r0, r0, ror #18
 a44:	64530001 	ldrbvs	r0, [r3], #-1
 a48:	6c000089 	stcvs	0, cr0, [r0], {137}	; 0x89
 a4c:	01000089 	smlabbeq	r0, r9, r0, r0
 a50:	00005300 	andeq	r5, r0, r0, lsl #6
 a54:	00000000 	andeq	r0, r0, r0
 a58:	00020000 	andeq	r0, r2, r0
 a5c:	89400000 	stmdbhi	r0, {}^	; <UNPREDICTABLE>
 a60:	89440000 	stmdbhi	r4, {}^	; <UNPREDICTABLE>
 a64:	00020000 	andeq	r0, r2, r0
 a68:	89449f30 	stmdbhi	r4, {r4, r5, r8, r9, sl, fp, ip, pc}^
 a6c:	89480000 	stmdbhi	r8, {}^	; <UNPREDICTABLE>
 a70:	00010000 	andeq	r0, r1, r0
 a74:	00000050 	andeq	r0, r0, r0, asr r0
	...
 a80:	00008400 	andeq	r8, r0, r0, lsl #8
 a84:	00009000 	andeq	r9, r0, r0
 a88:	50000100 	andpl	r0, r0, r0, lsl #2
 a8c:	00000090 	muleq	r0, r0, r0
 a90:	0000009c 	muleq	r0, ip, r0
 a94:	01f30004 	mvnseq	r0, r4
 a98:	00009f50 	andeq	r9, r0, r0, asr pc
	...
 aa4:	006c0000 	rsbeq	r0, ip, r0
 aa8:	00780000 	rsbseq	r0, r8, r0
 aac:	00010000 	andeq	r0, r1, r0
 ab0:	00007850 	andeq	r7, r0, r0, asr r8
 ab4:	00008400 	andeq	r8, r0, r0, lsl #8
 ab8:	f3000400 	vshl.u8	d0, d0, d0
 abc:	009f5001 	addseq	r5, pc, r1
	...
 ac8:	48000000 	stmdami	r0, {}	; <UNPREDICTABLE>
 acc:	53000000 	movwpl	r0, #0
 ad0:	01000000 	mrseq	r0, (UNDEF: 0)
 ad4:	00535000 	subseq	r5, r3, r0
 ad8:	006c0000 	rsbeq	r0, ip, r0
 adc:	00010000 	andeq	r0, r1, r0
 ae0:	00000055 	andeq	r0, r0, r5, asr r0
 ae4:	00000000 	andeq	r0, r0, r0
 ae8:	58000000 	stmdapl	r0, {}	; <UNPREDICTABLE>
 aec:	6c000000 	stcvs	0, cr0, [r0], {-0}
 af0:	01000000 	mrseq	r0, (UNDEF: 0)
 af4:	00005400 	andeq	r5, r0, r0, lsl #8
	...
 b00:	0000005c 	andeq	r0, r0, ip, asr r0
 b04:	00000060 	andeq	r0, r0, r0, rrx
 b08:	00500001 	subseq	r0, r0, r1
	...
 b14:	3c000000 	stccc	0, cr0, [r0], {-0}
 b18:	3f000000 	svccc	0x00000000
 b1c:	01000000 	mrseq	r0, (UNDEF: 0)
 b20:	003f5000 	eorseq	r5, pc, r0
 b24:	00480000 	subeq	r0, r8, r0
 b28:	00010000 	andeq	r0, r1, r0
 b2c:	00000054 	andeq	r0, r0, r4, asr r0
	...
 b3c:	00000400 	andeq	r0, r0, r0, lsl #8
 b40:	50000100 	andpl	r0, r0, r0, lsl #2
 b44:	00000004 	andeq	r0, r0, r4
 b48:	00000018 	andeq	r0, r0, r8, lsl r0
 b4c:	00530001 	subseq	r0, r3, r1
	...
 b58:	38000000 	stmdacc	r0, {}	; <UNPREDICTABLE>
 b5c:	43000001 	movwmi	r0, #1
 b60:	01000001 	tsteq	r0, r1
 b64:	01435000 	mrseq	r5, (UNDEF: 67)
 b68:	01680000 	cmneq	r8, r0
 b6c:	00010000 	andeq	r0, r1, r0
 b70:	00000054 	andeq	r0, r0, r4, asr r0
 b74:	00000000 	andeq	r0, r0, r0
 b78:	28000000 	stmdacs	r0, {}	; <UNPREDICTABLE>
 b7c:	38000001 	stmdacc	r0, {r0}
 b80:	01000001 	tsteq	r0, r1
 b84:	00005400 	andeq	r5, r0, r0, lsl #8
	...
 b94:	000f0000 	andeq	r0, pc, r0
 b98:	00010000 	andeq	r0, r1, r0
 b9c:	00000f50 	andeq	r0, r0, r0, asr pc
 ba0:	00002000 	andeq	r2, r0, r0
 ba4:	54000100 	strpl	r0, [r0], #-256	; 0xffffff00
	...
 bb8:	0000000f 	andeq	r0, r0, pc
 bbc:	0f510001 	svceq	0x00510001
 bc0:	20000000 	andcs	r0, r0, r0
 bc4:	01000000 	mrseq	r0, (UNDEF: 0)
 bc8:	00005500 	andeq	r5, r0, r0, lsl #10
	...
 bd4:	00c80000 	sbceq	r0, r8, r0
 bd8:	00d40000 	sbcseq	r0, r4, r0
 bdc:	00010000 	andeq	r0, r1, r0
 be0:	0000d450 	andeq	sp, r0, r0, asr r4
 be4:	0000e800 	andeq	lr, r0, r0, lsl #16
 be8:	54000100 	strpl	r0, [r0], #-256	; 0xffffff00
	...
 bf8:	000000b8 	strheq	r0, [r0], -r8
 bfc:	000000c3 	andeq	r0, r0, r3, asr #1
 c00:	c3500001 	cmpgt	r0, #1, 0
 c04:	c8000000 	stmdagt	r0, {}	; <UNPREDICTABLE>
 c08:	04000000 	streq	r0, [r0], #-0
 c0c:	5001f300 	andpl	pc, r1, r0, lsl #6
 c10:	0000009f 	muleq	r0, pc, r0	; <UNPREDICTABLE>
	...
 c20:	00009c00 	andeq	r9, r0, r0, lsl #24
 c24:	0000ab00 	andeq	sl, r0, r0, lsl #22
 c28:	50000100 	andpl	r0, r0, r0, lsl #2
 c2c:	000000ab 	andeq	r0, r0, fp, lsr #1
 c30:	000000b0 	strheq	r0, [r0], -r0	; <UNPREDICTABLE>
 c34:	01f30004 	mvnseq	r0, r4
 c38:	00b09f50 	adcseq	r9, r0, r0, asr pc
 c3c:	00b30000 	adcseq	r0, r3, r0
 c40:	00010000 	andeq	r0, r1, r0
 c44:	0000b350 	andeq	fp, r0, r0, asr r3
 c48:	0000b800 	andeq	fp, r0, r0, lsl #16
 c4c:	f3000400 	vshl.u8	d0, d0, d0
 c50:	009f5001 	addseq	r5, pc, r1
	...
 c60:	9c000000 	stcls	0, cr0, [r0], {-0}
 c64:	ab000000 	blge	c6c <__code_start__-0x7394>
 c68:	01000000 	mrseq	r0, (UNDEF: 0)
 c6c:	00ab5100 	adceq	r5, fp, r0, lsl #2
 c70:	00b00000 	adcseq	r0, r0, r0
 c74:	00040000 	andeq	r0, r4, r0
 c78:	9f5101f3 	svcls	0x005101f3
 c7c:	000000b0 	strheq	r0, [r0], -r0	; <UNPREDICTABLE>
 c80:	000000b3 	strheq	r0, [r0], -r3
 c84:	b3510001 	cmplt	r1, #1, 0
 c88:	b8000000 	stmdalt	r0, {}	; <UNPREDICTABLE>
 c8c:	04000000 	streq	r0, [r0], #-0
 c90:	5101f300 	mrspl	pc, SP_irq	; <UNPREDICTABLE>
 c94:	0000009f 	muleq	r0, pc, r0	; <UNPREDICTABLE>
	...
 ca0:	00008000 	andeq	r8, r0, r0
 ca4:	00009000 	andeq	r9, r0, r0
 ca8:	50000100 	andpl	r0, r0, r0, lsl #2
 cac:	00000090 	muleq	r0, r0, r0
 cb0:	0000009c 	muleq	r0, ip, r0
 cb4:	01f30004 	mvnseq	r0, r4
 cb8:	00009f50 	andeq	r9, r0, r0, asr pc
	...
 cc4:	00640000 	rsbeq	r0, r4, r0
 cc8:	00740000 	rsbseq	r0, r4, r0
 ccc:	00010000 	andeq	r0, r1, r0
 cd0:	00007450 	andeq	r7, r0, r0, asr r4
 cd4:	00008000 	andeq	r8, r0, r0
 cd8:	f3000400 	vshl.u8	d0, d0, d0
 cdc:	009f5001 	addseq	r5, pc, r1
	...
 ce8:	54000000 	strpl	r0, [r0], #-0
 cec:	5f000000 	svcpl	0x00000000
 cf0:	01000000 	mrseq	r0, (UNDEF: 0)
 cf4:	005f5000 	subseq	r5, pc, r0
 cf8:	00640000 	rsbeq	r0, r4, r0
 cfc:	00040000 	andeq	r0, r4, r0
 d00:	9f5001f3 	svcls	0x005001f3
	...
 d14:	00000028 	andeq	r0, r0, r8, lsr #32
 d18:	28500001 	ldmdacs	r0, {r0}^
 d1c:	54000000 	strpl	r0, [r0], #-0
 d20:	01000000 	mrseq	r0, (UNDEF: 0)
 d24:	00005400 	andeq	r5, r0, r0, lsl #8
	...
 d34:	002b0000 	eoreq	r0, fp, r0
 d38:	00010000 	andeq	r0, r1, r0
 d3c:	00002b51 	andeq	r2, r0, r1, asr fp
 d40:	00005400 	andeq	r5, r0, r0, lsl #8
 d44:	f3000400 	vshl.u8	d0, d0, d0
 d48:	009f5101 	addseq	r5, pc, r1, lsl #2
	...
 d54:	00002400 	andeq	r2, r0, r0, lsl #8
 d58:	00005400 	andeq	r5, r0, r0, lsl #8
 d5c:	57000100 	strpl	r0, [r0, -r0, lsl #2]
	...
 d68:	002c0000 	eoreq	r0, ip, r0
 d6c:	00480000 	subeq	r0, r8, r0
 d70:	00010000 	andeq	r0, r1, r0
 d74:	00000050 	andeq	r0, r0, r0, asr r0
 d78:	00000000 	andeq	r0, r0, r0
 d7c:	38000000 	stmdacc	r0, {}	; <UNPREDICTABLE>
 d80:	54000000 	strpl	r0, [r0], #-0
 d84:	01000000 	mrseq	r0, (UNDEF: 0)
 d88:	00005500 	andeq	r5, r0, r0, lsl #10
	...
 d98:	000b0000 	andeq	r0, fp, r0
 d9c:	00010000 	andeq	r0, r1, r0
 da0:	00000b50 	andeq	r0, r0, r0, asr fp
 da4:	00001400 	andeq	r1, r0, r0, lsl #8
 da8:	54000100 	strpl	r0, [r0], #-256	; 0xffffff00
	...
 dbc:	0000001c 	andeq	r0, r0, ip, lsl r0
 dc0:	1c510001 	mrrcne	0, 0, r0, r1, cr1
 dc4:	34000000 	strcc	r0, [r0], #-0
 dc8:	04000000 	streq	r0, [r0], #-0
 dcc:	5101f300 	mrspl	pc, SP_irq	; <UNPREDICTABLE>
 dd0:	0000009f 	muleq	r0, pc, r0	; <UNPREDICTABLE>
 dd4:	00000000 	andeq	r0, r0, r0
 dd8:	00000200 	andeq	r0, r0, r0, lsl #4
 ddc:	01010000 	mrseq	r0, (UNDEF: 1)
 de0:	00000000 	andeq	r0, r0, r0
 de4:	04000000 	streq	r0, [r0], #-0
 de8:	01000000 	mrseq	r0, (UNDEF: 0)
 dec:	00045000 	andeq	r5, r4, r0
 df0:	001c0000 	andseq	r0, ip, r0
 df4:	00010000 	andeq	r0, r1, r0
 df8:	00001c52 	andeq	r1, r0, r2, asr ip
 dfc:	00002400 	andeq	r2, r0, r0, lsl #8
 e00:	53000100 	movwpl	r0, #256	; 0x100
 e04:	00000024 	andeq	r0, r0, r4, lsr #32
 e08:	00000028 	andeq	r0, r0, r8, lsr #32
 e0c:	01730003 	cmneq	r3, r3
 e10:	0000289f 	muleq	r0, pc, r8	; <UNPREDICTABLE>
 e14:	00003400 	andeq	r3, r0, r0, lsl #8
 e18:	53000100 	movwpl	r0, #256	; 0x100
	...
 e24:	00000003 	andeq	r0, r0, r3
 e28:	00000000 	andeq	r0, r0, r0
 e2c:	00000024 	andeq	r0, r0, r4, lsr #32
 e30:	24510001 	ldrbcs	r0, [r1], #-1
 e34:	34000000 	strcc	r0, [r0], #-0
 e38:	03000000 	movweq	r0, #0
 e3c:	9f7f7100 	svcls	0x007f7100
	...
 e4c:	00000010 	andeq	r0, r0, r0, lsl r0
 e50:	0000001c 	andeq	r0, r0, ip, lsl r0
 e54:	245c0001 	ldrbcs	r0, [ip], #-1
 e58:	34000000 	strcc	r0, [r0], #-0
 e5c:	01000000 	mrseq	r0, (UNDEF: 0)
 e60:	00005200 	andeq	r5, r0, r0, lsl #4
 e64:	00000000 	andeq	r0, r0, r0
 e68:	03000000 	movweq	r0, #0
 e6c:	8d740003 	ldclhi	0, cr0, [r4, #-12]!
 e70:	8d740000 	ldclhi	0, cr0, [r4, #-0]
 e74:	00010000 	andeq	r0, r1, r0
 e78:	008d7450 	addeq	r7, sp, r0, asr r4
 e7c:	008da000 	addeq	sl, sp, r0
 e80:	f3000400 	vshl.u8	d0, d0, d0
 e84:	009f5001 	addseq	r5, pc, r1
	...
 e90:	74000303 	strvc	r0, [r0], #-771	; 0xfffffcfd
 e94:	7400008d 	strvc	r0, [r0], #-141	; 0xffffff73
 e98:	0100008d 	smlabbeq	r0, sp, r0, r0
 e9c:	8d745100 	ldfhie	f5, [r4, #-0]
 ea0:	8da00000 	stchi	0, cr0, [r0]
 ea4:	00040000 	andeq	r0, r4, r0
 ea8:	9f5101f3 	svcls	0x005101f3
	...
 eb4:	00030300 	andeq	r0, r3, r0, lsl #6
 eb8:	8d740000 	ldclhi	0, cr0, [r4, #-0]
 ebc:	8d740000 	ldclhi	0, cr0, [r4, #-0]
 ec0:	00010000 	andeq	r0, r1, r0
 ec4:	008d7452 	addeq	r7, sp, r2, asr r4
 ec8:	008d7c00 	addeq	r7, sp, r0, lsl #24
 ecc:	52000100 	andpl	r0, r0, #0
 ed0:	00008d7c 	andeq	r8, r0, ip, ror sp
 ed4:	00008da0 	andeq	r8, r0, r0, lsr #27
 ed8:	01720003 	cmneq	r2, r3
 edc:	0000009f 	muleq	r0, pc, r0	; <UNPREDICTABLE>
 ee0:	00000000 	andeq	r0, r0, r0
 ee4:	01010200 	mrseq	r0, R9_usr
 ee8:	00000000 	andeq	r0, r0, r0
 eec:	008d7400 	addeq	r7, sp, r0, lsl #8
 ef0:	008d8000 	addeq	r8, sp, r0
 ef4:	50000100 	andpl	r0, r0, r0, lsl #2
 ef8:	00008d80 	andeq	r8, r0, r0, lsl #27
 efc:	00008d84 	andeq	r8, r0, r4, lsl #27
 f00:	01700003 	cmneq	r0, r3
 f04:	008d849f 	umulleq	r8, sp, pc, r4	; <UNPREDICTABLE>
 f08:	008d9400 	addeq	r9, sp, r0, lsl #8
 f0c:	50000100 	andpl	r0, r0, r0, lsl #2
 f10:	00008d98 	muleq	r0, r8, sp
 f14:	00008d9c 	muleq	r0, ip, sp
 f18:	00500001 	subseq	r0, r0, r1
 f1c:	00000000 	andeq	r0, r0, r0
 f20:	02000000 	andeq	r0, r0, #0, 0
 f24:	00000000 	andeq	r0, r0, r0
 f28:	008d7400 	addeq	r7, sp, r0, lsl #8
 f2c:	008d8400 	addeq	r8, sp, r0, lsl #8
 f30:	51000100 	mrspl	r0, (UNDEF: 16)
 f34:	00008d84 	andeq	r8, r0, r4, lsl #27
 f38:	00008d88 	andeq	r8, r0, r8, lsl #27
 f3c:	01710003 	cmneq	r1, r3
 f40:	008d889f 	umulleq	r8, sp, pc, r8	; <UNPREDICTABLE>
 f44:	008da000 	addeq	sl, sp, r0
 f48:	51000100 	mrspl	r0, (UNDEF: 16)
	...

Disassembly of section .debug_aranges:

00000000 <.debug_aranges>:
   0:	0000001c 	andeq	r0, r0, ip, lsl r0
   4:	00000002 	andeq	r0, r0, r2
   8:	00040000 	andeq	r0, r4, r0
   c:	00000000 	andeq	r0, r0, r0
  10:	00008034 	andeq	r8, r0, r4, lsr r0
  14:	00000040 	andeq	r0, r0, r0, asr #32
	...
  20:	0000001c 	andeq	r0, r0, ip, lsl r0
  24:	01a60002 			; <UNDEFINED> instruction: 0x01a60002
  28:	00040000 	andeq	r0, r4, r0
  2c:	00000000 	andeq	r0, r0, r0
  30:	00008074 	andeq	r8, r0, r4, ror r0
  34:	000001b4 			; <UNDEFINED> instruction: 0x000001b4
	...
  40:	0000001c 	andeq	r0, r0, ip, lsl r0
  44:	05820002 	streq	r0, [r2, #2]
  48:	00040000 	andeq	r0, r4, r0
  4c:	00000000 	andeq	r0, r0, r0
  50:	00008228 	andeq	r8, r0, r8, lsr #4
  54:	00000058 	andeq	r0, r0, r8, asr r0
	...
  60:	0000001c 	andeq	r0, r0, ip, lsl r0
  64:	07230002 	streq	r0, [r3, -r2]!
  68:	00040000 	andeq	r0, r4, r0
  6c:	00000000 	andeq	r0, r0, r0
  70:	00008280 	andeq	r8, r0, r0, lsl #5
  74:	00000034 	andeq	r0, r0, r4, lsr r0
	...
  80:	0000001c 	andeq	r0, r0, ip, lsl r0
  84:	081a0002 	ldmdaeq	sl, {r1}
  88:	00040000 	andeq	r0, r4, r0
  8c:	00000000 	andeq	r0, r0, r0
  90:	000082b4 			; <UNDEFINED> instruction: 0x000082b4
  94:	0000062c 	andeq	r0, r0, ip, lsr #12
	...
  a0:	0000001c 	andeq	r0, r0, ip, lsl r0
  a4:	11220002 			; <UNDEFINED> instruction: 0x11220002
  a8:	00040000 	andeq	r0, r4, r0
  ac:	00000000 	andeq	r0, r0, r0
  b0:	000088e0 	andeq	r8, r0, r0, ror #17
  b4:	0000002c 	andeq	r0, r0, ip, lsr #32
	...
  c0:	0000001c 	andeq	r0, r0, ip, lsl r0
  c4:	12550002 	subsne	r0, r5, #2, 0
  c8:	00040000 	andeq	r0, r4, r0
  cc:	00000000 	andeq	r0, r0, r0
  d0:	0000890c 	andeq	r8, r0, ip, lsl #18
  d4:	00000030 	andeq	r0, r0, r0, lsr r0
	...
  e0:	0000001c 	andeq	r0, r0, ip, lsl r0
  e4:	13b20002 			; <UNDEFINED> instruction: 0x13b20002
  e8:	00040000 	andeq	r0, r4, r0
  ec:	00000000 	andeq	r0, r0, r0
  f0:	0000893c 	andeq	r8, r0, ip, lsr r9
  f4:	00000004 	andeq	r0, r0, r4
	...
 100:	0000001c 	andeq	r0, r0, ip, lsl r0
 104:	14840002 	strne	r0, [r4], #2
 108:	00040000 	andeq	r0, r4, r0
 10c:	00000000 	andeq	r0, r0, r0
 110:	00008940 	andeq	r8, r0, r0, asr #18
 114:	0000007c 	andeq	r0, r0, ip, ror r0
	...
 120:	0000001c 	andeq	r0, r0, ip, lsl r0
 124:	16a80002 	strtne	r0, [r8], r2
 128:	00040000 	andeq	r0, r4, r0
 12c:	00000000 	andeq	r0, r0, r0
 130:	000089bc 			; <UNDEFINED> instruction: 0x000089bc
 134:	0000009c 	muleq	r0, ip, r0
	...
 140:	0000001c 	andeq	r0, r0, ip, lsl r0
 144:	19240002 	stmdbne	r4!, {r1}
 148:	00040000 	andeq	r0, r4, r0
 14c:	00000000 	andeq	r0, r0, r0
 150:	00008a70 	andeq	r8, r0, r0, ror sl
 154:	000001ac 	andeq	r0, r0, ip, lsr #3
	...
 160:	0000001c 	andeq	r0, r0, ip, lsl r0
 164:	1e900002 	cdpne	0, 9, cr0, cr0, cr2, {0}
 168:	00040000 	andeq	r0, r4, r0
 16c:	00000000 	andeq	r0, r0, r0
 170:	00008c1c 	andeq	r8, r0, ip, lsl ip
 174:	000000e8 	andeq	r0, r0, r8, ror #1
	...
 180:	0000001c 	andeq	r0, r0, ip, lsl r0
 184:	224f0002 	subcs	r0, pc, #2, 0
 188:	00040000 	andeq	r0, r4, r0
 18c:	00000000 	andeq	r0, r0, r0
 190:	00008d04 	andeq	r8, r0, r4, lsl #26
 194:	0000003c 	andeq	r0, r0, ip, lsr r0
	...
 1a0:	0000001c 	andeq	r0, r0, ip, lsl r0
 1a4:	239c0002 	orrscs	r0, ip, #2, 0
 1a8:	00040000 	andeq	r0, r4, r0
 1ac:	00000000 	andeq	r0, r0, r0
 1b0:	00008d40 	andeq	r8, r0, r0, asr #26
 1b4:	00000034 	andeq	r0, r0, r4, lsr r0
	...
 1c0:	0000001c 	andeq	r0, r0, ip, lsl r0
 1c4:	24d70002 	ldrbcs	r0, [r7], #2
 1c8:	00040000 	andeq	r0, r4, r0
 1cc:	00000000 	andeq	r0, r0, r0
 1d0:	00008d74 	andeq	r8, r0, r4, ror sp
 1d4:	0000002c 	andeq	r0, r0, ip, lsr #32
	...

Disassembly of section .debug_line:

00000000 <.debug_line>:
       0:	000000a4 	andeq	r0, r0, r4, lsr #1
       4:	007f0003 	rsbseq	r0, pc, r3
       8:	01020000 	mrseq	r0, (UNDEF: 2)
       c:	000d0efb 	strdeq	r0, [sp], -fp
      10:	01010101 	tsteq	r1, r1, lsl #2
      14:	01000000 	mrseq	r0, (UNDEF: 0)
      18:	2f010000 	svccs	0x00010000
      1c:	72657355 	rsbvc	r7, r5, #1409286145	; 0x54000001
      20:	64612f73 	strbtvs	r2, [r1], #-3955	; 0xfffff08d
      24:	6e616972 			; <UNDEFINED> instruction: 0x6e616972
      28:	7472616d 	ldrbtvc	r6, [r2], #-365	; 0xfffffe93
      2c:	7a656e69 	bvc	195b9d8 <__bss_end__+0x1952648>
      30:	6f72702f 	svcvs	0x0072702f
      34:	7463656a 	strbtvc	r6, [r3], #-1386	; 0xfffffa96
      38:	73632f73 	cmnvc	r3, #460	; 0x1cc
      3c:	65303431 	ldrvs	r3, [r0, #-1073]!	; 0xfffffbcf
      40:	7331322d 	teqvc	r1, #-805306366	; 0xd0000002
      44:	6c2f7270 	sfmvs	f7, 4, [pc], #-448	; fffffe8c <__bss_end__+0xffff6afc>
      48:	69706269 	ldmdbvs	r0!, {r0, r3, r5, r6, r9, sp, lr}^
      4c:	636e692f 	cmnvs	lr, #770048	; 0xbc000
      50:	6564756c 	strbvs	r7, [r4, #-1388]!	; 0xfffffa94
      54:	002e2e00 	eoreq	r2, lr, r0, lsl #28
      58:	672d3000 	strvs	r3, [sp, -r0]!
      5c:	2d6f6970 			; <UNDEFINED> instruction: 0x2d6f6970
      60:	64616572 	strbtvs	r6, [r1], #-1394	; 0xfffffa8e
      64:	0000632e 	andeq	r6, r0, lr, lsr #6
      68:	70720000 	rsbsvc	r0, r2, r0
      6c:	00682e69 	rsbeq	r2, r8, r9, ror #28
      70:	74000001 	strvc	r0, [r0], #-1
      74:	65636172 	strbvs	r6, [r3, #-370]!	; 0xfffffe8e
      78:	0200682e 	andeq	r6, r0, #3014656	; 0x2e0000
      7c:	70670000 	rsbvc	r0, r7, r0
      80:	682e6f69 	stmdavs	lr!, {r0, r3, r5, r6, r8, r9, sl, fp, sp, lr}
      84:	00000100 	andeq	r0, r0, r0, lsl #2
      88:	00140500 	andseq	r0, r4, r0, lsl #10
      8c:	80340205 	eorshi	r0, r4, r5, lsl #4
      90:	05170000 	ldreq	r0, [r7, #-0]
      94:	4b302f05 	blmi	c0bcb0 <__bss_end__+0xc02920>
      98:	060d054b 	streq	r0, [sp], -fp, asr #10
      9c:	06050501 	streq	r0, [r5], -r1, lsl #10
      a0:	02682f67 	rsbeq	r2, r8, #412	; 0x19c
      a4:	01010006 	tsteq	r1, r6
      a8:	00000200 	andeq	r0, r0, r0, lsl #4
      ac:	00d10003 	sbcseq	r0, r1, r3
      b0:	01020000 	mrseq	r0, (UNDEF: 2)
      b4:	000d0efb 	strdeq	r0, [sp], -fp
      b8:	01010101 	tsteq	r1, r1, lsl #2
      bc:	01000000 	mrseq	r0, (UNDEF: 0)
      c0:	2f010000 	svccs	0x00010000
      c4:	72657355 	rsbvc	r7, r5, #1409286145	; 0x54000001
      c8:	64612f73 	strbtvs	r2, [r1], #-3955	; 0xfffff08d
      cc:	6e616972 			; <UNDEFINED> instruction: 0x6e616972
      d0:	7472616d 	ldrbtvc	r6, [r2], #-365	; 0xfffffe93
      d4:	7a656e69 	bvc	195ba80 <__bss_end__+0x19526f0>
      d8:	6f72702f 	svcvs	0x0072702f
      dc:	7463656a 	strbtvc	r6, [r3], #-1386	; 0xfffffa96
      e0:	73632f73 	cmnvc	r3, #460	; 0x1cc
      e4:	65303431 	ldrvs	r3, [r0, #-1073]!	; 0xfffffbcf
      e8:	7331322d 	teqvc	r1, #-805306366	; 0xd0000002
      ec:	6c2f7270 	sfmvs	f7, 4, [pc], #-448	; ffffff34 <__bss_end__+0xffff6ba4>
      f0:	69706269 	ldmdbvs	r0!, {r0, r3, r5, r6, r9, sp, lr}^
      f4:	636e692f 	cmnvs	lr, #770048	; 0xbc000
      f8:	6564756c 	strbvs	r7, [r4, #-1388]!	; 0xfffffa94
      fc:	73752f00 	cmnvc	r5, #0, 30
     100:	6f6c2f72 	svcvs	0x006c2f72
     104:	2f6c6163 	svccs	0x006c6163
     108:	6c6c6543 	cfstr64vs	mvdx6, [ip], #-268	; 0xfffffef4
     10c:	612f7261 			; <UNDEFINED> instruction: 0x612f7261
     110:	6e2d6d72 	mcrvs	13, 1, r6, cr13, cr2, {3}
     114:	2d656e6f 	stclcs	14, cr6, [r5, #-444]!	; 0xfffffe44
     118:	69626165 	stmdbvs	r2!, {r0, r2, r5, r6, r8, sp, lr}^
     11c:	7365742d 	cmnvc	r5, #754974720	; 0x2d000000
     120:	2d392f74 	ldccs	15, cr2, [r9, #-464]!	; 0xfffffe30
     124:	39313032 	ldmdbcc	r1!, {r1, r4, r5, ip, sp}
     128:	632d3471 			; <UNDEFINED> instruction: 0x632d3471
     12c:	37303173 			; <UNDEFINED> instruction: 0x37303173
     130:	696c2f65 	stmdbvs	ip!, {r0, r2, r5, r6, r8, r9, sl, fp, sp}^
     134:	63672f62 	cmnvs	r7, #392	; 0x188
     138:	72612f63 	rsbvc	r2, r1, #396	; 0x18c
     13c:	6f6e2d6d 	svcvs	0x006e2d6d
     140:	652d656e 	strvs	r6, [sp, #-1390]!	; 0xfffffa92
     144:	2f696261 	svccs	0x00696261
     148:	2e322e39 	mrccs	14, 1, r2, cr2, cr9, {1}
     14c:	6e692f31 	mcrvs	15, 3, r2, cr9, cr1, {1}
     150:	64756c63 	ldrbtvs	r6, [r5], #-3171	; 0xfffff39d
     154:	74000065 	strvc	r0, [r0], #-101	; 0xffffff9b
     158:	65636172 	strbvs	r6, [r3, #-370]!	; 0xfffffe8e
     15c:	6d69732d 	stclvs	3, cr7, [r9, #-180]!	; 0xffffff4c
     160:	2e656c70 	mcrcs	12, 3, r6, cr5, cr0, {3}
     164:	00000063 	andeq	r0, r0, r3, rrx
     168:	69707200 	ldmdbvs	r0!, {r9, ip, sp, lr}^
     16c:	0100682e 	tsteq	r0, lr, lsr #16
     170:	74730000 	ldrbtvc	r0, [r3], #-0
     174:	746e6964 	strbtvc	r6, [lr], #-2404	; 0xfffff69c
     178:	6363672d 	cmnvs	r3, #11796480	; 0xb40000
     17c:	0200682e 	andeq	r6, r0, #3014656	; 0x2e0000
     180:	05000000 	streq	r0, [r0, #-0]
     184:	02050035 	andeq	r0, r5, #53, 0	; 0x35
     188:	00008074 	andeq	r8, r0, r4, ror r0
     18c:	06013b03 	streq	r3, [r1], -r3, lsl #22
     190:	06050501 	streq	r0, [r5], -r1, lsl #10
     194:	2e2e064b 	cfmadda32cs	mvax2, mvax0, mvfx14, mvfx11
     198:	052f0105 	streq	r0, [pc, #-261]!	; 9b <__code_start__-0x7f65>
     19c:	064b0635 			; <UNDEFINED> instruction: 0x064b0635
     1a0:	06050501 	streq	r0, [r5], -r1, lsl #10
     1a4:	2e2e064b 	cfmadda32cs	mvax2, mvax0, mvfx14, mvfx11
     1a8:	052f0105 	streq	r0, [pc, #-261]!	; ab <__code_start__-0x7f55>
     1ac:	6d030620 	stcvs	6, cr0, [r3, #-128]	; 0xffffff80
     1b0:	1305054a 	movwne	r0, #21834	; 0x554a
     1b4:	04020001 	streq	r0, [r2], #-1
     1b8:	02008202 	andeq	r8, r0, #536870912	; 0x20000000
     1bc:	00010204 	andeq	r0, r1, r4, lsl #4
     1c0:	13020402 	movwne	r0, #9218	; 0x2402
     1c4:	02000b05 	andeq	r0, r0, #5120	; 0x1400
     1c8:	01060204 	tsteq	r6, r4, lsl #4
     1cc:	02002005 	andeq	r2, r0, #5, 0
     1d0:	05800104 	streq	r0, [r0, #260]	; 0x104
     1d4:	04020005 	streq	r0, [r2], #-5
     1d8:	004b0601 	subeq	r0, fp, r1, lsl #12
     1dc:	01010402 	tsteq	r1, r2, lsl #8
     1e0:	01040200 	mrseq	r0, R12_usr
     1e4:	0200ba06 	andeq	fp, r0, #24576	; 0x6000
     1e8:	2e060104 	adfcss	f0, f6, f4
     1ec:	05c01705 	strbeq	r1, [r0, #1797]	; 0x705
     1f0:	00011305 	andeq	r1, r1, r5, lsl #6
     1f4:	82020402 	andhi	r0, r2, #33554432	; 0x2000000
     1f8:	02040200 	andeq	r0, r4, #0, 4
     1fc:	04020001 	streq	r0, [r2], #-1
     200:	0b051302 	bleq	144e10 <__bss_end__+0x13ba80>
     204:	02040200 	andeq	r0, r4, #0, 4
     208:	17050106 	strne	r0, [r5, -r6, lsl #2]
     20c:	01040200 	mrseq	r0, R12_usr
     210:	00050580 	andeq	r0, r5, r0, lsl #11
     214:	06010402 	streq	r0, [r1], -r2, lsl #8
     218:	0402004b 	streq	r0, [r2], #-75	; 0xffffffb5
     21c:	02000101 	andeq	r0, r0, #1073741824	; 0x40000000
     220:	05d60104 	ldrbeq	r0, [r6, #260]	; 0x104
     224:	ba0e0330 	blt	380eec <__bss_end__+0x377b5c>
     228:	05050106 	streq	r0, [r5, #-262]	; 0xfffffefa
     22c:	0f056706 	svceq	0x00056706
     230:	08050106 	stmdaeq	r5, {r1, r2, r8}
     234:	0605054a 	streq	r0, [r5], -sl, asr #10
     238:	0601054f 	streq	r0, [r1], -pc, asr #10
     23c:	001e0567 	andseq	r0, lr, r7, ror #10
     240:	03010402 	movweq	r0, #5122	; 0x1402
     244:	1b052e7a 	blne	14bc34 <__bss_end__+0x1428a4>
     248:	01040200 	mrseq	r0, R12_usr
     24c:	0609054a 	streq	r0, [r9], -sl, asr #10
     250:	0621054b 	strteq	r0, [r1], -fp, asr #10
     254:	06090501 	streq	r0, [r9], -r1, lsl #10
     258:	21052f67 	tstcs	r5, r7, ror #30
     25c:	26050106 	strcs	r0, [r5], -r6, lsl #2
     260:	0106a406 	tsteq	r6, r6, lsl #8
     264:	4b060505 	blmi	181680 <__bss_end__+0x1782f0>
     268:	01061205 	tsteq	r6, r5, lsl #4
     26c:	0605052e 	streq	r0, [r5], -lr, lsr #10
     270:	060f052f 	streq	r0, [pc], -pc, lsr #10
     274:	4a080501 	bmi	201680 <__bss_end__+0x1f82f0>
     278:	05500105 	ldrbeq	r0, [r0, #-261]	; 0xfffffefb
     27c:	0402001e 	streq	r0, [r2], #-30	; 0xffffffe2
     280:	4a7a0301 	bmi	1e80e8c <__bss_end__+0x1e77afc>
     284:	02001b05 	andeq	r1, r0, #5120	; 0x1400
     288:	054a0104 	strbeq	r0, [sl, #-260]	; 0xfffffefc
     28c:	054b0609 	strbeq	r0, [fp, #-1545]	; 0xfffff9f7
     290:	05010621 	streq	r0, [r1, #-1569]	; 0xfffff9df
     294:	06670609 	strbteq	r0, [r7], -r9, lsl #12
     298:	052f064a 	streq	r0, [pc, #-1610]!	; fffffc56 <__bss_end__+0xffff68c6>
     29c:	05010621 	streq	r0, [r1, #-1569]	; 0xfffff9df
     2a0:	054c0605 	strbeq	r0, [ip, #-1541]	; 0xfffff9fb
     2a4:	0201060c 	andeq	r0, r1, #12, 12	; 0xc00000
     2a8:	01010006 	tsteq	r1, r6
     2ac:	0000011b 	andeq	r0, r0, fp, lsl r1
     2b0:	00e90003 	rsceq	r0, r9, r3
     2b4:	01020000 	mrseq	r0, (UNDEF: 2)
     2b8:	000d0efb 	strdeq	r0, [sp], -fp
     2bc:	01010101 	tsteq	r1, r1, lsl #2
     2c0:	01000000 	mrseq	r0, (UNDEF: 0)
     2c4:	6c010000 	stcvs	0, cr0, [r1], {-0}
     2c8:	00636269 	rsbeq	r6, r3, r9, ror #4
     2cc:	7273752f 	rsbsvc	r7, r3, #197132288	; 0xbc00000
     2d0:	636f6c2f 	cmnvs	pc, #12032	; 0x2f00
     2d4:	432f6c61 			; <UNDEFINED> instruction: 0x432f6c61
     2d8:	616c6c65 	cmnvs	ip, r5, ror #24
     2dc:	72612f72 	rsbvc	r2, r1, #456	; 0x1c8
     2e0:	6f6e2d6d 	svcvs	0x006e2d6d
     2e4:	652d656e 	strvs	r6, [sp, #-1390]!	; 0xfffffa92
     2e8:	2d696261 	sfmcs	f6, 2, [r9, #-388]!	; 0xfffffe7c
     2ec:	74736574 	ldrbtvc	r6, [r3], #-1396	; 0xfffffa8c
     2f0:	322d392f 	eorcc	r3, sp, #770048	; 0xbc000
     2f4:	71393130 	teqvc	r9, r0, lsr r1
     2f8:	73632d34 	cmnvc	r3, #52, 26	; 0xd00
     2fc:	65373031 	ldrvs	r3, [r7, #-49]!	; 0xffffffcf
     300:	62696c2f 	rsbvs	r6, r9, #12032	; 0x2f00
     304:	6363672f 	cmnvs	r3, #12320768	; 0xbc0000
     308:	6d72612f 	ldfvse	f6, [r2, #-188]!	; 0xffffff44
     30c:	6e6f6e2d 	cdpvs	14, 6, cr6, cr15, cr13, {1}
     310:	61652d65 	cmnvs	r5, r5, ror #26
     314:	392f6962 	stmdbcc	pc!, {r1, r5, r6, r8, fp, sp, lr}	; <UNPREDICTABLE>
     318:	312e322e 			; <UNDEFINED> instruction: 0x312e322e
     31c:	636e692f 	cmnvs	lr, #770048	; 0xbc000
     320:	6564756c 	strbvs	r7, [r4, #-1388]!	; 0xfffffa94
     324:	73552f00 	cmpvc	r5, #0, 30
     328:	2f737265 	svccs	0x00737265
     32c:	69726461 	ldmdbvs	r2!, {r0, r5, r6, sl, sp, lr}^
     330:	616d6e61 	cmnvs	sp, r1, ror #28
     334:	6e697472 	mcrvs	4, 3, r7, cr9, cr2, {3}
     338:	702f7a65 	eorvc	r7, pc, r5, ror #20
     33c:	656a6f72 	strbvs	r6, [sl, #-3954]!	; 0xfffff08e
     340:	2f737463 	svccs	0x00737463
     344:	34317363 	ldrtcc	r7, [r1], #-867	; 0xfffffc9d
     348:	322d6530 	eorcc	r6, sp, #48, 10	; 0xc000000
     34c:	72707331 	rsbsvc	r7, r0, #-1006632960	; 0xc4000000
     350:	62696c2f 	rsbvs	r6, r9, #12032	; 0x2f00
     354:	692f6970 	stmdbvs	pc!, {r4, r5, r6, r8, fp, sp, lr}	; <UNPREDICTABLE>
     358:	756c636e 	strbvc	r6, [ip, #-878]!	; 0xfffffc92
     35c:	00006564 	andeq	r6, r0, r4, ror #10
     360:	6e697270 	mcrvs	2, 3, r7, cr9, cr0, {3}
     364:	632e6b74 			; <UNDEFINED> instruction: 0x632e6b74
     368:	00000100 	andeq	r0, r0, r0, lsl #2
     36c:	61647473 	smcvs	18243	; 0x4743
     370:	682e6772 	stmdavs	lr!, {r1, r4, r5, r6, r8, r9, sl, sp, lr}
     374:	00000200 	andeq	r0, r0, r0, lsl #4
     378:	2e697072 	mcrcs	0, 3, r7, cr9, cr2, {3}
     37c:	00030068 	andeq	r0, r3, r8, rrx
     380:	75623c00 	strbvc	r3, [r2, #-3072]!	; 0xfffff400
     384:	2d746c69 	ldclcs	12, cr6, [r4, #-420]!	; 0xfffffe5c
     388:	003e6e69 	eorseq	r6, lr, r9, ror #28
     38c:	76000000 	strvc	r0, [r0], -r0
     390:	72702d61 	rsbsvc	r2, r0, #6208	; 0x1840
     394:	6b746e69 	blvs	1d1bd40 <__bss_end__+0x1d129b0>
     398:	0100682e 	tsteq	r0, lr, lsr #16
     39c:	05000000 	streq	r0, [r0, #-0]
     3a0:	02050022 	andeq	r0, r5, #34, 0	; 0x22
     3a4:	00008228 	andeq	r8, r0, r8, lsr #4
     3a8:	05010617 	streq	r0, [r1, #-1559]	; 0xfffff9e9
     3ac:	13680605 	cmnne	r8, #5242880	; 0x500000
     3b0:	4b090514 	blmi	241808 <__bss_end__+0x238478>
     3b4:	01061205 	tsteq	r6, r5, lsl #4
     3b8:	bb060505 	bllt	1817d4 <__bss_end__+0x178444>
     3bc:	06660616 			; <UNDEFINED> instruction: 0x06660616
     3c0:	06010534 			; <UNDEFINED> instruction: 0x06010534
     3c4:	08026613 	stmdaeq	r2, {r0, r1, r4, r9, sl, sp, lr}
     3c8:	b3010100 	movwlt	r0, #4352	; 0x1100
     3cc:	03000000 	movweq	r0, #0
     3d0:	00006500 	andeq	r6, r0, r0, lsl #10
     3d4:	fb010200 	blx	40bde <__bss_end__+0x3784e>
     3d8:	01000d0e 	tsteq	r0, lr, lsl #26
     3dc:	00010101 	andeq	r0, r1, r1, lsl #2
     3e0:	00010000 	andeq	r0, r1, r0
     3e4:	696c0100 	stmdbvs	ip!, {r8}^
     3e8:	2f006362 	svccs	0x00006362
     3ec:	72657355 	rsbvc	r7, r5, #1409286145	; 0x54000001
     3f0:	64612f73 	strbtvs	r2, [r1], #-3955	; 0xfffff08d
     3f4:	6e616972 			; <UNDEFINED> instruction: 0x6e616972
     3f8:	7472616d 	ldrbtvc	r6, [r2], #-365	; 0xfffffe93
     3fc:	7a656e69 	bvc	195bda8 <__bss_end__+0x1952a18>
     400:	6f72702f 	svcvs	0x0072702f
     404:	7463656a 	strbtvc	r6, [r3], #-1386	; 0xfffffa96
     408:	73632f73 	cmnvc	r3, #460	; 0x1cc
     40c:	65303431 	ldrvs	r3, [r0, #-1073]!	; 0xfffffbcf
     410:	7331322d 	teqvc	r1, #-805306366	; 0xd0000002
     414:	6c2f7270 	sfmvs	f7, 4, [pc], #-448	; 25c <__code_start__-0x7da4>
     418:	69706269 	ldmdbvs	r0!, {r0, r3, r5, r6, r9, sp, lr}^
     41c:	636e692f 	cmnvs	lr, #770048	; 0xbc000
     420:	6564756c 	strbvs	r7, [r4, #-1388]!	; 0xfffffa94
     424:	75700000 	ldrbvc	r0, [r0, #-0]!
     428:	632e6b74 			; <UNDEFINED> instruction: 0x632e6b74
     42c:	00000100 	andeq	r0, r0, r0, lsl #2
     430:	2e697072 	mcrcs	0, 3, r7, cr9, cr2, {3}
     434:	00020068 	andeq	r0, r2, r8, rrx
     438:	22050000 	andcs	r0, r5, #0, 0
     43c:	80020500 	andhi	r0, r2, r0, lsl #10
     440:	15000082 	strne	r0, [r0, #-130]	; 0xffffff7e
     444:	05050106 	streq	r0, [r5, #-262]	; 0xfffffefa
     448:	0b054b06 	bleq	153068 <__bss_end__+0x149cd8>
     44c:	01040200 	mrseq	r0, R12_usr
     450:	00050501 	andeq	r0, r5, r1, lsl #10
     454:	06010402 	streq	r0, [r1], -r2, lsl #8
     458:	0009052e 	andeq	r0, r9, lr, lsr #10
     45c:	06020402 	streq	r0, [r2], -r2, lsl #8
     460:	000f054b 	andeq	r0, pc, fp, asr #10
     464:	65020402 	strvs	r0, [r2, #-1026]	; 0xfffffbfe
     468:	02001005 	andeq	r1, r0, #5, 0
     46c:	01060204 	tsteq	r6, r4, lsl #4
     470:	02040200 	andeq	r0, r4, #0, 4
     474:	0605052e 	streq	r0, [r5], -lr, lsr #10
     478:	06010532 			; <UNDEFINED> instruction: 0x06010532
     47c:	00060213 	andeq	r0, r6, r3, lsl r2
     480:	05c50101 	strbeq	r0, [r5, #257]	; 0x101
     484:	00030000 	andeq	r0, r3, r0
     488:	000000ff 	strdeq	r0, [r0], -pc	; <UNPREDICTABLE>
     48c:	0efb0102 	cdpeq	1, 15, cr0, cr11, cr2, {0}
     490:	0101000d 	tsteq	r1, sp
     494:	00000101 	andeq	r0, r0, r1, lsl #2
     498:	00000100 	andeq	r0, r0, r0, lsl #2
     49c:	62696c01 	rsbvs	r6, r9, #256	; 0x100
     4a0:	752f0063 	strvc	r0, [pc, #-99]!	; 445 <__code_start__-0x7bbb>
     4a4:	6c2f7273 	sfmvs	f7, 4, [pc], #-460	; 2e0 <__code_start__-0x7d20>
     4a8:	6c61636f 	stclvs	3, cr6, [r1], #-444	; 0xfffffe44
     4ac:	6c65432f 	stclvs	3, cr4, [r5], #-188	; 0xffffff44
     4b0:	2f72616c 	svccs	0x0072616c
     4b4:	2d6d7261 	sfmcs	f7, 2, [sp, #-388]!	; 0xfffffe7c
     4b8:	656e6f6e 	strbvs	r6, [lr, #-3950]!	; 0xfffff092
     4bc:	6261652d 	rsbvs	r6, r1, #188743680	; 0xb400000
     4c0:	65742d69 	ldrbvs	r2, [r4, #-3433]!	; 0xfffff297
     4c4:	392f7473 	stmdbcc	pc!, {r0, r1, r4, r5, r6, sl, ip, sp, lr}	; <UNPREDICTABLE>
     4c8:	3130322d 	teqcc	r0, sp, lsr #4
     4cc:	2d347139 	ldfcss	f7, [r4, #-228]!	; 0xffffff1c
     4d0:	30317363 	eorscc	r7, r1, r3, ror #6
     4d4:	6c2f6537 	cfstr32vs	mvfx6, [pc], #-220	; 400 <__code_start__-0x7c00>
     4d8:	672f6269 	strvs	r6, [pc, -r9, ror #4]!
     4dc:	612f6363 			; <UNDEFINED> instruction: 0x612f6363
     4e0:	6e2d6d72 	mcrvs	13, 1, r6, cr13, cr2, {3}
     4e4:	2d656e6f 	stclcs	14, cr6, [r5, #-444]!	; 0xfffffe44
     4e8:	69626165 	stmdbvs	r2!, {r0, r2, r5, r6, r8, sp, lr}^
     4ec:	322e392f 	eorcc	r3, lr, #770048	; 0xbc000
     4f0:	692f312e 	stmdbvs	pc!, {r1, r2, r3, r5, r8, ip, sp}	; <UNPREDICTABLE>
     4f4:	756c636e 	strbvc	r6, [ip, #-878]!	; 0xfffffc92
     4f8:	2f006564 	svccs	0x00006564
     4fc:	72657355 	rsbvc	r7, r5, #1409286145	; 0x54000001
     500:	64612f73 	strbtvs	r2, [r1], #-3955	; 0xfffff08d
     504:	6e616972 			; <UNDEFINED> instruction: 0x6e616972
     508:	7472616d 	ldrbtvc	r6, [r2], #-365	; 0xfffffe93
     50c:	7a656e69 	bvc	195beb8 <__bss_end__+0x1952b28>
     510:	6f72702f 	svcvs	0x0072702f
     514:	7463656a 	strbtvc	r6, [r3], #-1386	; 0xfffffa96
     518:	73632f73 	cmnvc	r3, #460	; 0x1cc
     51c:	65303431 	ldrvs	r3, [r0, #-1073]!	; 0xfffffbcf
     520:	7331322d 	teqvc	r1, #-805306366	; 0xd0000002
     524:	6c2f7270 	sfmvs	f7, 4, [pc], #-448	; 36c <__code_start__-0x7c94>
     528:	69706269 	ldmdbvs	r0!, {r0, r3, r5, r6, r9, sp, lr}^
     52c:	636e692f 	cmnvs	lr, #770048	; 0xbc000
     530:	6564756c 	strbvs	r7, [r4, #-1388]!	; 0xfffffa94
     534:	61760000 	cmnvs	r6, r0
     538:	6972702d 	ldmdbvs	r2!, {r0, r2, r3, r5, ip, sp, lr}^
     53c:	2e6b746e 	cdpcs	4, 6, cr7, cr11, cr14, {3}
     540:	00010063 	andeq	r0, r1, r3, rrx
     544:	64747300 	ldrbtvs	r7, [r4], #-768	; 0xfffffd00
     548:	2d746e69 	ldclcs	14, cr6, [r4, #-420]!	; 0xfffffe5c
     54c:	2e636367 	cdpcs	3, 6, cr6, cr3, cr7, {3}
     550:	00020068 	andeq	r0, r2, r8, rrx
     554:	69707200 	ldmdbvs	r0!, {r9, ip, sp, lr}^
     558:	0300682e 	movweq	r6, #2094	; 0x82e
     55c:	70720000 	rsbsvc	r0, r2, r0
     560:	6e692d69 	cdpvs	13, 6, cr2, cr9, cr9, {3}
     564:	6e726574 	mrcvs	5, 3, r6, cr2, cr4, {3}
     568:	682e6c61 	stmdavs	lr!, {r0, r5, r6, sl, fp, sp, lr}
     56c:	00000300 	andeq	r0, r0, r0, lsl #6
     570:	61647473 	smcvs	18243	; 0x4743
     574:	682e6772 	stmdavs	lr!, {r1, r4, r5, r6, r8, r9, sl, sp, lr}
     578:	00000200 	andeq	r0, r0, r0, lsl #4
     57c:	6975623c 	ldmdbvs	r5!, {r2, r3, r4, r5, r9, sp, lr}^
     580:	692d746c 	pushvs	{r2, r3, r5, r6, sl, ip, sp, lr}
     584:	00003e6e 	andeq	r3, r0, lr, ror #28
     588:	05000000 	streq	r0, [r0, #-0]
     58c:	0205001b 	andeq	r0, r5, #27, 0
     590:	000082b4 			; <UNDEFINED> instruction: 0x000082b4
     594:	05012603 	streq	r2, [r1, #-1539]	; 0xfffff9fd
     598:	2d05011d 	stfcss	f0, [r5, #-116]	; 0xffffff8c
     59c:	01050106 	tsteq	r5, r6, lsl #2
     5a0:	33054a2e 	movwcc	r4, #23086	; 0x5a2e
     5a4:	02055106 	andeq	r5, r5, #-2147483647	; 0x80000001
     5a8:	06060513 			; <UNDEFINED> instruction: 0x06060513
     5ac:	06020501 	streq	r0, [r2], -r1, lsl #10
     5b0:	00080530 	andeq	r0, r8, r0, lsr r5
     5b4:	01010402 	tsteq	r1, r2, lsl #8
     5b8:	02000205 	andeq	r0, r0, #1342177280	; 0x50000000
     5bc:	01060104 	tsteq	r6, r4, lsl #2
     5c0:	02000305 	andeq	r0, r0, #335544320	; 0x14000000
     5c4:	2f060204 	svccs	0x00060204
     5c8:	02000805 	andeq	r0, r0, #327680	; 0x50000
     5cc:	01060204 	tsteq	r6, r4, lsl #4
     5d0:	02001505 	andeq	r1, r0, #20971520	; 0x1400000
     5d4:	49060204 	stmdbmi	r6, {r2, r9}
     5d8:	02001805 	andeq	r1, r0, #327680	; 0x50000
     5dc:	01060204 	tsteq	r6, r4, lsl #4
     5e0:	02040200 	andeq	r0, r4, #0, 4
     5e4:	0602052e 	streq	r0, [r2], -lr, lsr #10
     5e8:	06050530 			; <UNDEFINED> instruction: 0x06050530
     5ec:	06020501 	streq	r0, [r2], -r1, lsl #10
     5f0:	0601054b 	streq	r0, [r1], -fp, asr #10
     5f4:	063e0513 			; <UNDEFINED> instruction: 0x063e0513
     5f8:	14020531 	strne	r0, [r2], #-1329	; 0xfffffacf
     5fc:	01060e05 	tsteq	r6, r5, lsl #28
     600:	052e0605 	streq	r0, [lr, #-1541]!	; 0xfffff9fb
     604:	052f0602 	streq	r0, [pc, #-1538]!	; a <__code_start__-0x7ff6>
     608:	05010604 	streq	r0, [r1, #-1540]	; 0xfffff9fc
     60c:	052f0603 	streq	r0, [pc, #-1539]!	; 11 <__code_start__-0x7fef>
     610:	05010611 	streq	r0, [r1, #-1553]	; 0xfffff9ef
     614:	02052e09 	andeq	r2, r5, #144	; 0x90
     618:	05153006 	ldreq	r3, [r5, #-6]
     61c:	05010607 	streq	r0, [r1, #-1543]	; 0xfffff9f9
     620:	0b052e02 	bleq	14be30 <__bss_end__+0x142aa0>
     624:	01040200 	mrseq	r0, R12_usr
     628:	02052e06 	andeq	r2, r5, #96	; 0x60
     62c:	01040200 	mrseq	r0, R12_usr
     630:	03050106 	movweq	r0, #20742	; 0x5106
     634:	03040200 	movweq	r0, #16896	; 0x4200
     638:	0c052f06 	stceq	15, cr2, [r5], {6}
     63c:	03040200 	movweq	r0, #16896	; 0x4200
     640:	0a050106 	beq	140a60 <__bss_end__+0x1376d0>
     644:	03040200 	movweq	r0, #16896	; 0x4200
     648:	0017052e 	andseq	r0, r7, lr, lsr #10
     64c:	06030402 	streq	r0, [r3], -r2, lsl #8
     650:	0402002d 	streq	r0, [r2], #-45	; 0xffffffd3
     654:	05010603 	streq	r0, [r1, #-1539]	; 0xfffff9fd
     658:	05300602 	ldreq	r0, [r0, #-1538]!	; 0xfffff9fe
     65c:	2e010609 	cfmadd32cs	mvax0, mvfx0, mvfx1, mvfx9
     660:	30060205 	andcc	r0, r6, r5, lsl #4
     664:	13060105 	movwne	r0, #24837	; 0x6105
     668:	31064905 	tstcc	r6, r5, lsl #18
     66c:	02050106 	andeq	r0, r5, #-2147483647	; 0x80000001
     670:	0405a006 	streq	sl, [r5], #-6
     674:	03050106 	movweq	r0, #20742	; 0x5106
     678:	09052f06 	stmdbeq	r5, {r1, r2, r8, r9, sl, fp, sp}
     67c:	02050106 	andeq	r0, r5, #-2147483647	; 0x80000001
     680:	05133006 	ldreq	r3, [r3, #-6]
     684:	0501060b 	streq	r0, [r1, #-1547]	; 0xfffff9f5
     688:	06300602 	ldrteq	r0, [r0], -r2, lsl #12
     68c:	0604052e 	streq	r0, [r4], -lr, lsr #10
     690:	13152402 	tstne	r5, #33554432	; 0x2000000
     694:	01060f05 	tsteq	r6, r5, lsl #30
     698:	4a06052e 	bmi	181b58 <__bss_end__+0x1787c8>
     69c:	4b060505 	blmi	181ab8 <__bss_end__+0x178728>
     6a0:	06090513 			; <UNDEFINED> instruction: 0x06090513
     6a4:	06050501 	streq	r0, [r5], -r1, lsl #10
     6a8:	060b052f 	streq	r0, [fp], -pc, lsr #10
     6ac:	000d0510 	andeq	r0, sp, r0, lsl r5
     6b0:	2c010402 	cfstrscs	mvf0, [r1], {2}
     6b4:	02000405 	andeq	r0, r0, #83886080	; 0x5000000
     6b8:	34060104 	strcc	r0, [r6], #-260	; 0xfffffefc
     6bc:	02000505 	andeq	r0, r0, #20971520	; 0x1400000
     6c0:	05130104 	ldreq	r0, [r3, #-260]	; 0xfffffefc
     6c4:	0402001b 	streq	r0, [r2], #-27	; 0xffffffe5
     6c8:	05010601 	streq	r0, [r1, #-1537]	; 0xfffff9ff
     6cc:	04020007 	streq	r0, [r2], #-7
     6d0:	1805d601 	stmdane	r5, {r0, r9, sl, ip, lr, pc}
     6d4:	01040200 	mrseq	r0, R12_usr
     6d8:	000a052e 	andeq	r0, sl, lr, lsr #10
     6dc:	4a010402 	bmi	416ec <__bss_end__+0x3835c>
     6e0:	02000b05 	andeq	r0, r0, #5120	; 0x1400
     6e4:	2f060104 	svccs	0x00060104
     6e8:	02000e05 	andeq	r0, r0, #80	; 0x50
     6ec:	2e060104 	adfcss	f0, f6, f4
     6f0:	02000405 	andeq	r0, r0, #83886080	; 0x5000000
     6f4:	062e0104 	strteq	r0, [lr], -r4, lsl #2
     6f8:	0606054b 	streq	r0, [r6], -fp, asr #10
     6fc:	06050501 	streq	r0, [r5], -r1, lsl #10
     700:	060a052f 	streq	r0, [sl], -pc, lsr #10
     704:	4a070501 	bmi	1c1b10 <__bss_end__+0x1b8780>
     708:	030d052e 	movweq	r0, #54574	; 0xd52e
     70c:	054a2e76 	strbeq	r2, [sl, #-3702]	; 0xfffff18a
     710:	0d050d0b 	stceq	13, cr0, [r5, #-44]	; 0xffffffd4
     714:	01040200 	mrseq	r0, R12_usr
     718:	2e140306 	cdpcs	3, 1, cr0, cr4, cr6, {0}
     71c:	02001105 	andeq	r1, r0, #1073741825	; 0x40000001
     720:	05130104 	ldreq	r0, [r3, #-260]	; 0xfffffefc
     724:	0402002d 	streq	r0, [r2], #-45	; 0xffffffd3
     728:	05010601 	streq	r0, [r1, #-1537]	; 0xfffff9ff
     72c:	0402002a 	streq	r0, [r2], #-42	; 0xffffffd6
     730:	16052e01 	strne	r2, [r5], -r1, lsl #28
     734:	01040200 	mrseq	r0, R12_usr
     738:	0014054a 	andseq	r0, r4, sl, asr #10
     73c:	06010402 	streq	r0, [r1], -r2, lsl #8
     740:	000d054b 	andeq	r0, sp, fp, asr #10
     744:	06010402 	streq	r0, [r1], -r2, lsl #8
     748:	04020001 	streq	r0, [r2], #-1
     74c:	2f064a01 	svccs	0x00064a01
     750:	01061205 	tsteq	r6, r5, lsl #4
     754:	060d054a 	streq	r0, [sp], -sl, asr #10
     758:	0612052f 	ldreq	r0, [r2], -pc, lsr #10
     75c:	06190501 	ldreq	r0, [r9], -r1, lsl #10
     760:	0004054b 	andeq	r0, r4, fp, asr #10
     764:	03020402 	movweq	r0, #9218	; 0x2402
     768:	02000111 	andeq	r0, r0, #1073741828	; 0x40000004
     76c:	05010204 	streq	r0, [r1, #-516]	; 0xfffffdfc
     770:	04020002 	streq	r0, [r2], #-2
     774:	09051502 	stmdbeq	r5, {r1, r8, sl, ip}
     778:	02040200 	andeq	r0, r4, #0, 4
     77c:	02000106 	andeq	r0, r0, #-2147483647	; 0x80000001
     780:	054a0204 	strbeq	r0, [sl, #-516]	; 0xfffffdfc
     784:	04020001 	streq	r0, [r2], #-1
     788:	04059f02 	streq	r9, [r5], #-3842	; 0xfffff0fe
     78c:	4a6e0306 	bmi	1b813ac <__bss_end__+0x1b7801c>
     790:	01060905 	tsteq	r6, r5, lsl #18
     794:	2f060405 	svccs	0x00060405
     798:	11060605 	tstne	r6, r5, lsl #12
     79c:	052f0405 	streq	r0, [pc, #-1029]!	; 39f <__code_start__-0x7c61>
     7a0:	2e63030b 	cdpcs	3, 6, cr0, cr3, cr11, {0}
     7a4:	02001905 	andeq	r1, r0, #81920	; 0x14000
     7a8:	03060104 	movweq	r0, #24836	; 0x6104
     7ac:	1a052e24 	bne	14c044 <__bss_end__+0x142cb4>
     7b0:	01040200 	mrseq	r0, R12_usr
     7b4:	00280513 	eoreq	r0, r8, r3, lsl r5
     7b8:	06010402 	streq	r0, [r1], -r2, lsl #8
     7bc:	00250501 	eoreq	r0, r5, r1, lsl #10
     7c0:	2e010402 	cdpcs	4, 0, cr0, cr1, cr2, {0}
     7c4:	02001f05 	andeq	r1, r0, #5, 30
     7c8:	054a0104 	strbeq	r0, [sl, #-260]	; 0xfffffefc
     7cc:	0402000b 	streq	r0, [r2], #-11
     7d0:	054b0601 	strbeq	r0, [fp, #-1537]	; 0xfffff9ff
     7d4:	04020004 	streq	r0, [r2], #-4
     7d8:	00010601 	andeq	r0, r1, r1, lsl #12
     7dc:	4a010402 	bmi	417ec <__bss_end__+0x3845c>
     7e0:	01040200 	mrseq	r0, R12_usr
     7e4:	02004e06 	andeq	r4, r0, #96	; 0x60
     7e8:	00010104 	andeq	r0, r1, r4, lsl #2
     7ec:	01010402 	tsteq	r1, r2, lsl #8
     7f0:	01040200 	mrseq	r0, R12_usr
     7f4:	04020001 	streq	r0, [r2], #-1
     7f8:	002e0601 	eoreq	r0, lr, r1, lsl #12
     7fc:	66010402 	strvs	r0, [r1], -r2, lsl #8
     800:	01040200 	mrseq	r0, R12_usr
     804:	0402002e 	streq	r0, [r2], #-46	; 0xffffffd2
     808:	054a0601 	strbeq	r0, [sl, #-1537]	; 0xfffff9ff
     80c:	7fa60348 	svcvc	0x00a60348
     810:	05052008 	streq	r2, [r5, #-8]
     814:	2e060113 	mcrcs	1, 0, r0, cr6, cr3, {0}
     818:	02040200 	andeq	r0, r4, #0, 4
     81c:	02002e06 	andeq	r2, r0, #96	; 0x60
     820:	00010204 	andeq	r0, r1, r4, lsl #4
     824:	13020402 	movwne	r0, #9218	; 0x2402
     828:	02001105 	andeq	r1, r0, #1073741825	; 0x40000001
     82c:	01060204 	tsteq	r6, r4, lsl #4
     830:	02000505 	andeq	r0, r0, #20971520	; 0x1400000
     834:	4b060204 	blmi	18104c <__bss_end__+0x177cbc>
     838:	02000705 	andeq	r0, r0, #1310720	; 0x140000
     83c:	01060204 	tsteq	r6, r4, lsl #4
     840:	4b060905 	blmi	182c5c <__bss_end__+0x1798cc>
     844:	01060e05 	tsteq	r6, r5, lsl #28
     848:	02004805 	andeq	r4, r0, #327680	; 0x50000
     84c:	05620104 	strbeq	r0, [r2, #-260]!	; 0xfffffefc
     850:	04020005 	streq	r0, [r2], #-5
     854:	004b0601 	subeq	r0, fp, r1, lsl #12
     858:	01010402 	tsteq	r1, r2, lsl #8
     85c:	01040200 	mrseq	r0, R12_usr
     860:	02009e06 	andeq	r9, r0, #96	; 0x60
     864:	002e0104 	eoreq	r0, lr, r4, lsl #2
     868:	06010402 	streq	r0, [r1], -r2, lsl #8
     86c:	0340052e 	movteq	r0, #1326	; 0x52e
     870:	06d600e1 	ldrbeq	r0, [r6], r1, ror #1
     874:	06020501 	streq	r0, [r2], -r1, lsl #10
     878:	061e059f 			; <UNDEFINED> instruction: 0x061e059f
     87c:	2e120501 	cfmul32cs	mvfx0, mvfx2, mvfx1
     880:	2f060505 	svccs	0x00060505
     884:	05140205 	ldreq	r0, [r4, #-517]	; 0xfffffdfb
     888:	05010609 	streq	r0, [r1, #-1545]	; 0xfffff9f7
     88c:	054b0605 	strbeq	r0, [fp, #-1541]	; 0xfffff9fb
     890:	08051302 	stmdaeq	r5, {r1, r8, r9, ip}
     894:	02050d06 	andeq	r0, r5, #384	; 0x180
     898:	06040533 			; <UNDEFINED> instruction: 0x06040533
     89c:	060f054c 	streq	r0, [pc], -ip, asr #10
     8a0:	2e090501 	cfsh32cs	mvfx0, mvfx9, #1
     8a4:	2c060805 	stccs	8, cr0, [r6], {5}
     8a8:	2e060205 	cdpcs	2, 0, cr0, cr6, cr5, {0}
     8ac:	02000d05 	andeq	r0, r0, #320	; 0x140
     8b0:	054a0104 	strbeq	r0, [sl, #-260]	; 0xfffffefc
     8b4:	054b0603 	strbeq	r0, [fp, #-1539]	; 0xfffff9fd
     8b8:	05010605 	streq	r0, [r1, #-1541]	; 0xfffff9fb
     8bc:	054d0608 	strbeq	r0, [sp, #-1544]	; 0xfffff9f8
     8c0:	0501060e 	streq	r0, [r1, #-1550]	; 0xfffff9f2
     8c4:	04052e0a 	streq	r2, [r5], #-3594	; 0xfffff1f6
     8c8:	09052f06 	stmdbeq	r5, {r1, r2, r8, r9, sl, fp, sp}
     8cc:	04050106 	streq	r0, [r5], #-262	; 0xfffffefa
     8d0:	07052f06 	streq	r2, [r5, -r6, lsl #30]
     8d4:	052e0106 	streq	r0, [lr, #-262]!	; 0xfffffefa
     8d8:	05300604 	ldreq	r0, [r0, #-1540]!	; 0xfffff9fc
     8dc:	05010607 	streq	r0, [r1, #-1543]	; 0xfffff9f9
     8e0:	13300604 	teqne	r0, #4, 12	; 0x400000
     8e4:	060d0514 			; <UNDEFINED> instruction: 0x060d0514
     8e8:	06090510 			; <UNDEFINED> instruction: 0x06090510
     8ec:	06120530 			; <UNDEFINED> instruction: 0x06120530
     8f0:	2e0a0501 	cfsh32cs	mvfx0, mvfx10, #1
     8f4:	05660905 	strbeq	r0, [r6, #-2309]!	; 0xfffff6fb
     8f8:	054b0605 	strbeq	r0, [fp, #-1541]	; 0xfffff9fb
     8fc:	05010612 	streq	r0, [r1, #-1554]	; 0xfffff9ee
     900:	0b052e16 	bleq	14c160 <__bss_end__+0x142dd0>
     904:	0605052e 	streq	r0, [r5], -lr, lsr #10
     908:	0608052f 	streq	r0, [r8], -pc, lsr #10
     90c:	04052e01 	streq	r2, [r5], #-3585	; 0xfffff1ff
     910:	4a013006 	bmi	4c930 <__bss_end__+0x435a0>
     914:	02001501 	andeq	r1, r0, #4194304	; 0x400000
     918:	36020104 	strcc	r0, [r2], -r4, lsl #2
     91c:	0402000f 	streq	r0, [r2], #-15
     920:	02000101 	andeq	r0, r0, #1073741824	; 0x40000000
     924:	05d60104 	ldrbeq	r0, [r6, #260]	; 0x104
     928:	00013311 	andeq	r3, r1, r1, lsl r3
     92c:	ba020402 	blt	8193c <__bss_end__+0x785ac>
     930:	02040200 	andeq	r0, r4, #0, 4
     934:	04020001 	streq	r0, [r2], #-1
     938:	15051302 	strne	r1, [r5, #-770]	; 0xfffffcfe
     93c:	02040200 	andeq	r0, r4, #0, 4
     940:	11050106 	tstne	r5, r6, lsl #2
     944:	02040200 	andeq	r0, r4, #0, 4
     948:	1a052f06 	bne	14c568 <__bss_end__+0x1431d8>
     94c:	02040200 	andeq	r0, r4, #0, 4
     950:	11050106 	tstne	r5, r6, lsl #2
     954:	02040200 	andeq	r0, r4, #0, 4
     958:	0200d706 	andeq	sp, r0, #1572864	; 0x180000
     95c:	05130204 	ldreq	r0, [r3, #-516]	; 0xfffffdfc
     960:	04020005 	streq	r0, [r2], #-5
     964:	09051702 	stmdbeq	r5, {r1, r8, r9, sl, ip}
     968:	02040200 	andeq	r0, r4, #0, 4
     96c:	02000106 	andeq	r0, r0, #-2147483647	; 0x80000001
     970:	05d60204 	ldrbeq	r0, [r6, #516]	; 0x204
     974:	04020005 	streq	r0, [r2], #-5
     978:	00300602 	eorseq	r0, r0, r2, lsl #12
     97c:	06020402 	streq	r0, [r2], -r2, lsl #8
     980:	001105ba 			; <UNDEFINED> instruction: 0x001105ba
     984:	06020402 	streq	r0, [r2], -r2, lsl #8
     988:	0402002f 	streq	r0, [r2], #-47	; 0xffffffd1
     98c:	02006702 	andeq	r6, r0, #524288	; 0x80000
     990:	73030104 	movwvc	r0, #12548	; 0x3104
     994:	0402002e 	streq	r0, [r2], #-46	; 0xffffffd2
     998:	02000101 	andeq	r0, r0, #1073741824	; 0x40000000
     99c:	05d60104 	ldrbeq	r0, [r6, #260]	; 0x104
     9a0:	2e120305 	cdpcs	3, 1, cr0, cr2, cr5, {0}
     9a4:	032e9e01 			; <UNDEFINED> instruction: 0x032e9e01
     9a8:	0905010e 	stmdbeq	r5, {r1, r2, r3, r8}
     9ac:	05050106 	streq	r0, [r5, #-262]	; 0xfffffefa
     9b0:	06750806 	ldrbteq	r0, [r5], -r6, lsl #16
     9b4:	06040501 	streq	r0, [r4], -r1, lsl #10
     9b8:	05011803 	streq	r1, [r1, #-2051]	; 0xfffff7fd
     9bc:	05010607 	streq	r0, [r1, #-1543]	; 0xfffff9f9
     9c0:	05310604 	ldreq	r0, [r1, #-1540]!	; 0xfffff9fc
     9c4:	2e670305 	cdpcs	3, 6, cr0, cr7, cr5, {0}
     9c8:	01061c05 	tsteq	r6, r5, lsl #24
     9cc:	05820905 	streq	r0, [r2, #2309]	; 0x905
     9d0:	31f30605 	mvnscc	r0, r5, lsl #12
     9d4:	01061c05 	tsteq	r6, r5, lsl #24
     9d8:	05820905 	streq	r0, [r2, #2309]	; 0x905
     9dc:	30f30605 	rscscc	r0, r3, r5, lsl #12
     9e0:	01061b05 	tsteq	r6, r5, lsl #22
     9e4:	05820905 	streq	r0, [r2, #2309]	; 0x905
     9e8:	30f30605 	rscscc	r0, r3, r5, lsl #12
     9ec:	01060705 	tsteq	r6, r5, lsl #14
     9f0:	83060505 	movwhi	r0, #25861	; 0x6505
     9f4:	06090530 			; <UNDEFINED> instruction: 0x06090530
     9f8:	06050501 	streq	r0, [r5], -r1, lsl #10
     9fc:	11057508 	tstne	r5, r8, lsl #10
     a00:	06220530 			; <UNDEFINED> instruction: 0x06220530
     a04:	06050501 	streq	r0, [r5], -r1, lsl #10
     a08:	8311054b 	tsthi	r1, #314572800	; 0x12c00000
     a0c:	01830505 	orreq	r0, r3, r5, lsl #10
     a10:	062e069e 			; <UNDEFINED> instruction: 0x062e069e
     a14:	060e0519 			; <UNDEFINED> instruction: 0x060e0519
     a18:	2e0a0501 	cfsh32cs	mvfx0, mvfx10, #1
     a1c:	04052d06 	streq	r2, [r5], #-3334	; 0xfffff2fa
     a20:	13050106 	movwne	r0, #20742	; 0x5106
     a24:	01040200 	mrseq	r0, R12_usr
     a28:	0010054a 	andseq	r0, r0, sl, asr #10
     a2c:	2e010402 	cdpcs	4, 0, cr0, cr1, cr2, {0}
     a30:	01040200 	mrseq	r0, R12_usr
     a34:	06020566 	streq	r0, [r2], -r6, ror #10
     a38:	06070516 			; <UNDEFINED> instruction: 0x06070516
     a3c:	06020501 	streq	r0, [r2], -r1, lsl #10
     a40:	0601054b 	streq	r0, [r1], -fp, asr #10
     a44:	14026613 	strne	r6, [r2], #-1555	; 0xfffff9ed
     a48:	8d010100 	stfhis	f0, [r1, #-0]
     a4c:	03000000 	movweq	r0, #0
     a50:	00007200 	andeq	r7, r0, r0, lsl #4
     a54:	fb010200 	blx	4125e <__bss_end__+0x37ece>
     a58:	01000d0e 	tsteq	r0, lr, lsl #26
     a5c:	00010101 	andeq	r0, r1, r1, lsl #2
     a60:	00010000 	andeq	r0, r1, r0
     a64:	74730100 	ldrbtvc	r0, [r3], #-256	; 0xffffff00
     a68:	2d666661 	stclcs	6, cr6, [r6, #-388]!	; 0xfffffe7c
     a6c:	00637273 	rsbeq	r7, r3, r3, ror r2
     a70:	6573552f 	ldrbvs	r5, [r3, #-1327]!	; 0xfffffad1
     a74:	612f7372 			; <UNDEFINED> instruction: 0x612f7372
     a78:	61697264 	cmnvs	r9, r4, ror #4
     a7c:	72616d6e 	rsbvc	r6, r1, #7040	; 0x1b80
     a80:	656e6974 	strbvs	r6, [lr, #-2420]!	; 0xfffff68c
     a84:	72702f7a 	rsbsvc	r2, r0, #488	; 0x1e8
     a88:	63656a6f 	cmnvs	r5, #454656	; 0x6f000
     a8c:	632f7374 			; <UNDEFINED> instruction: 0x632f7374
     a90:	30343173 	eorscc	r3, r4, r3, ror r1
     a94:	31322d65 	teqcc	r2, r5, ror #26
     a98:	2f727073 	svccs	0x00727073
     a9c:	7062696c 	rsbvc	r6, r2, ip, ror #18
     aa0:	6e692f69 	cdpvs	15, 6, cr2, cr9, cr9, {3}
     aa4:	64756c63 	ldrbtvs	r6, [r5], #-3171	; 0xfffff39d
     aa8:	63000065 	movwvs	r0, #101	; 0x65
     aac:	6e61656c 	cdpvs	5, 6, cr6, cr1, cr12, {3}
     ab0:	6265722d 	rsbvs	r7, r5, #-805306366	; 0xd0000002
     ab4:	2e746f6f 	cdpcs	15, 7, cr6, cr4, cr15, {3}
     ab8:	00010063 	andeq	r0, r1, r3, rrx
     abc:	69707200 	ldmdbvs	r0!, {r9, ip, sp, lr}^
     ac0:	0200682e 	andeq	r6, r0, #3014656	; 0x2e0000
     ac4:	05000000 	streq	r0, [r0, #-0]
     ac8:	02050019 	andeq	r0, r5, #25, 0
     acc:	000088e0 	andeq	r8, r0, r0, ror #17
     ad0:	2f050515 	svccs	0x00050515
     ad4:	024b2f83 	subeq	r2, fp, #524	; 0x20c
     ad8:	01010006 	tsteq	r1, r6
     adc:	000000a2 	andeq	r0, r0, r2, lsr #1
     ae0:	006c0003 	rsbeq	r0, ip, r3
     ae4:	01020000 	mrseq	r0, (UNDEF: 2)
     ae8:	000d0efb 	strdeq	r0, [sp], -fp
     aec:	01010101 	tsteq	r1, r1, lsl #2
     af0:	01000000 	mrseq	r0, (UNDEF: 0)
     af4:	73010000 	movwvc	r0, #4096	; 0x1000
     af8:	66666174 			; <UNDEFINED> instruction: 0x66666174
     afc:	6372732d 	cmnvs	r2, #-1275068416	; 0xb4000000
     b00:	73552f00 	cmpvc	r5, #0, 30
     b04:	2f737265 	svccs	0x00737265
     b08:	69726461 	ldmdbvs	r2!, {r0, r5, r6, sl, sp, lr}^
     b0c:	616d6e61 	cmnvs	sp, r1, ror #28
     b10:	6e697472 	mcrvs	4, 3, r7, cr9, cr2, {3}
     b14:	702f7a65 	eorvc	r7, pc, r5, ror #20
     b18:	656a6f72 	strbvs	r6, [sl, #-3954]!	; 0xfffff08e
     b1c:	2f737463 	svccs	0x00737463
     b20:	34317363 	ldrtcc	r7, [r1], #-867	; 0xfffffc9d
     b24:	322d6530 	eorcc	r6, sp, #48, 10	; 0xc000000
     b28:	72707331 	rsbsvc	r7, r0, #-1006632960	; 0xc4000000
     b2c:	62696c2f 	rsbvs	r6, r9, #12032	; 0x2f00
     b30:	692f6970 	stmdbvs	pc!, {r4, r5, r6, r8, fp, sp, lr}	; <UNPREDICTABLE>
     b34:	756c636e 	strbvc	r6, [ip, #-878]!	; 0xfffffc92
     b38:	00006564 	andeq	r6, r0, r4, ror #10
     b3c:	61747363 	cmnvs	r4, r3, ror #6
     b40:	632e7472 			; <UNDEFINED> instruction: 0x632e7472
     b44:	00000100 	andeq	r0, r0, r0, lsl #2
     b48:	2e697072 	mcrcs	0, 3, r7, cr9, cr2, {3}
     b4c:	00020068 	andeq	r0, r2, r8, rrx
     b50:	10050000 	andne	r0, r5, r0
     b54:	0c020500 	cfstr32eq	mvfx0, [r2], {-0}
     b58:	14000089 	strne	r0, [r0], #-137	; 0xffffff77
     b5c:	052f0505 	streq	r0, [pc, #-1285]!	; 65f <__code_start__-0x79a1>
     b60:	05051302 	streq	r1, [r5, #-770]	; 0xfffffcfe
     b64:	14133014 	ldrne	r3, [r3], #-20	; 0xffffffec
     b68:	0f060a05 	svceq	0x00060a05
     b6c:	09053106 	stmdbeq	r5, {r1, r2, r8, ip, sp}
     b70:	0610054b 	ldreq	r0, [r0], -fp, asr #10
     b74:	05054a01 	streq	r4, [r5, #-2561]	; 0xfffff5ff
     b78:	02053006 	andeq	r3, r5, #6, 0
     b7c:	0006022f 	andeq	r0, r6, pc, lsr #4
     b80:	008b0101 	addeq	r0, fp, r1, lsl #2
     b84:	00030000 	andeq	r0, r3, r0
     b88:	00000073 	andeq	r0, r0, r3, ror r0
     b8c:	0efb0102 	cdpeq	1, 15, cr0, cr11, cr2, {0}
     b90:	0101000d 	tsteq	r1, sp
     b94:	00000101 	andeq	r0, r0, r1, lsl #2
     b98:	00000100 	andeq	r0, r0, r0, lsl #2
     b9c:	61747301 	cmnvs	r4, r1, lsl #6
     ba0:	732d6666 			; <UNDEFINED> instruction: 0x732d6666
     ba4:	2f006372 	svccs	0x00006372
     ba8:	72657355 	rsbvc	r7, r5, #1409286145	; 0x54000001
     bac:	64612f73 	strbtvs	r2, [r1], #-3955	; 0xfffff08d
     bb0:	6e616972 			; <UNDEFINED> instruction: 0x6e616972
     bb4:	7472616d 	ldrbtvc	r6, [r2], #-365	; 0xfffffe93
     bb8:	7a656e69 	bvc	195c564 <__bss_end__+0x19531d4>
     bbc:	6f72702f 	svcvs	0x0072702f
     bc0:	7463656a 	strbtvc	r6, [r3], #-1386	; 0xfffffa96
     bc4:	73632f73 	cmnvc	r3, #460	; 0x1cc
     bc8:	65303431 	ldrvs	r3, [r0, #-1073]!	; 0xfffffbcf
     bcc:	7331322d 	teqvc	r1, #-805306366	; 0xd0000002
     bd0:	6c2f7270 	sfmvs	f7, 4, [pc], #-448	; a18 <__code_start__-0x75e8>
     bd4:	69706269 	ldmdbvs	r0!, {r0, r3, r5, r6, r9, sp, lr}^
     bd8:	636e692f 	cmnvs	lr, #770048	; 0xbc000
     bdc:	6564756c 	strbvs	r7, [r4, #-1388]!	; 0xfffffa94
     be0:	75630000 	strbvc	r0, [r3, #-0]!
     be4:	6d6f7473 	cfstrdvs	mvd7, [pc, #-460]!	; a20 <__code_start__-0x75e0>
     be8:	616f6c2d 	cmnvs	pc, sp, lsr #24
     bec:	2e726564 	cdpcs	5, 7, cr6, cr2, cr4, {3}
     bf0:	00010063 	andeq	r0, r1, r3, rrx
     bf4:	69707200 	ldmdbvs	r0!, {r9, ip, sp, lr}^
     bf8:	0200682e 	andeq	r6, r0, #3014656	; 0x2e0000
     bfc:	05000000 	streq	r0, [r0, #-0]
     c00:	0205001a 	andeq	r0, r5, #26, 0
     c04:	0000893c 	andeq	r8, r0, ip, lsr r9
     c08:	14010515 	strne	r0, [r1], #-1301	; 0xfffffaeb
     c0c:	01000202 	tsteq	r0, r2, lsl #4
     c10:	0000dc01 	andeq	sp, r0, r1, lsl #24
     c14:	6c000300 	stcvs	3, cr0, [r0], {-0}
     c18:	02000000 	andeq	r0, r0, #0, 0
     c1c:	0d0efb01 	vstreq	d15, [lr, #-4]
     c20:	01010100 	mrseq	r0, (UNDEF: 17)
     c24:	00000001 	andeq	r0, r0, r1
     c28:	01000001 	tsteq	r0, r1
     c2c:	66617473 			; <UNDEFINED> instruction: 0x66617473
     c30:	72732d66 	rsbsvc	r2, r3, #6528	; 0x1980
     c34:	552f0063 	strpl	r0, [pc, #-99]!	; bd9 <__code_start__-0x7427>
     c38:	73726573 	cmnvc	r2, #482344960	; 0x1cc00000
     c3c:	7264612f 	rsbvc	r6, r4, #-1073741813	; 0xc000000b
     c40:	6d6e6169 	stfvse	f6, [lr, #-420]!	; 0xfffffe5c
     c44:	69747261 	ldmdbvs	r4!, {r0, r5, r6, r9, ip, sp, lr}^
     c48:	2f7a656e 	svccs	0x007a656e
     c4c:	6a6f7270 	bvs	1bdd614 <__bss_end__+0x1bd4284>
     c50:	73746365 	cmnvc	r4, #-1811939327	; 0x94000001
     c54:	3173632f 	cmncc	r3, pc, lsr #6
     c58:	2d653034 	stclcs	0, cr3, [r5, #-208]!	; 0xffffff30
     c5c:	70733132 	rsbsvc	r3, r3, r2, lsr r1
     c60:	696c2f72 	stmdbvs	ip!, {r1, r4, r5, r6, r8, r9, sl, fp, sp}^
     c64:	2f697062 	svccs	0x00697062
     c68:	6c636e69 	stclvs	14, cr6, [r3], #-420	; 0xfffffe5c
     c6c:	00656475 	rsbeq	r6, r5, r5, ror r4
     c70:	62657200 	rsbvs	r7, r5, #0, 4
     c74:	2e746f6f 	cdpcs	15, 7, cr6, cr4, cr15, {3}
     c78:	00010063 	andeq	r0, r1, r3, rrx
     c7c:	69707200 	ldmdbvs	r0!, {r9, ip, sp, lr}^
     c80:	0200682e 	andeq	r6, r0, #3014656	; 0x2e0000
     c84:	05000000 	streq	r0, [r0, #-0]
     c88:	02050019 	andeq	r0, r5, #25, 0
     c8c:	00008940 	andeq	r8, r0, r0, asr #18
     c90:	05010d03 	streq	r0, [r1, #-3331]	; 0xfffff2fd
     c94:	31131305 	tstcc	r3, r5, lsl #6
     c98:	01061305 	tsteq	r6, r5, lsl #6
     c9c:	052f0105 	streq	r0, [pc, #-261]!	; b9f <__code_start__-0x7461>
     ca0:	0585061b 	streq	r0, [r5, #1563]	; 0x61b
     ca4:	05141305 	ldreq	r1, [r4, #-773]	; 0xfffffcfb
     ca8:	16052f09 	strne	r2, [r5], -r9, lsl #30
     cac:	0e050106 	adfeqs	f0, f5, f6
     cb0:	0605052e 	streq	r0, [r5], -lr, lsr #10
     cb4:	0601052f 	streq	r0, [r1], -pc, lsr #10
     cb8:	0617052f 	ldreq	r0, [r7], -pc, lsr #10
     cbc:	2f050530 	svccs	0x00050530
     cc0:	01060805 	tsteq	r6, r5, lsl #16
     cc4:	052e0705 	streq	r0, [lr, #-1797]!	; 0xfffff8fb
     cc8:	0b030605 	bleq	c24e4 <__bss_end__+0xb9154>
     ccc:	134d2f4a 	movtne	r2, #57162	; 0xdf4a
     cd0:	67151313 			; <UNDEFINED> instruction: 0x67151313
     cd4:	01040200 	mrseq	r0, R12_usr
     cd8:	000d0567 	andeq	r0, sp, r7, ror #10
     cdc:	01010402 	tsteq	r1, r2, lsl #8
     ce0:	02000a05 	andeq	r0, r0, #20480	; 0x5000
     ce4:	05010104 	streq	r0, [r1, #-260]	; 0xfffffefc
     ce8:	2e6a0309 	cdpcs	3, 6, cr0, cr10, cr9, {0}
     cec:	01000c02 	tsteq	r0, r2, lsl #24
     cf0:	0000fd01 	andeq	pc, r0, r1, lsl #26
     cf4:	6b000300 	blvs	18fc <__code_start__-0x6704>
     cf8:	02000000 	andeq	r0, r0, #0, 0
     cfc:	0d0efb01 	vstreq	d15, [lr, #-4]
     d00:	01010100 	mrseq	r0, (UNDEF: 17)
     d04:	00000001 	andeq	r0, r0, r1
     d08:	01000001 	tsteq	r0, r1
     d0c:	66617473 			; <UNDEFINED> instruction: 0x66617473
     d10:	72732d66 	rsbsvc	r2, r3, #6528	; 0x1980
     d14:	552f0063 	strpl	r0, [pc, #-99]!	; cb9 <__code_start__-0x7347>
     d18:	73726573 	cmnvc	r2, #482344960	; 0x1cc00000
     d1c:	7264612f 	rsbvc	r6, r4, #-1073741813	; 0xc000000b
     d20:	6d6e6169 	stfvse	f6, [lr, #-420]!	; 0xfffffe5c
     d24:	69747261 	ldmdbvs	r4!, {r0, r5, r6, r9, ip, sp, lr}^
     d28:	2f7a656e 	svccs	0x007a656e
     d2c:	6a6f7270 	bvs	1bdd6f4 <__bss_end__+0x1bd4364>
     d30:	73746365 	cmnvc	r4, #-1811939327	; 0x94000001
     d34:	3173632f 	cmncc	r3, pc, lsr #6
     d38:	2d653034 	stclcs	0, cr3, [r5, #-208]!	; 0xffffff30
     d3c:	70733132 	rsbsvc	r3, r3, r2, lsr r1
     d40:	696c2f72 	stmdbvs	ip!, {r1, r4, r5, r6, r8, r9, sl, fp, sp}^
     d44:	2f697062 	svccs	0x00697062
     d48:	6c636e69 	stclvs	14, cr6, [r3], #-420	; 0xfffffe5c
     d4c:	00656475 	rsbeq	r6, r5, r5, ror r4
     d50:	6d697400 	cfstrdvs	mvd7, [r9, #-0]
     d54:	632e7265 			; <UNDEFINED> instruction: 0x632e7265
     d58:	00000100 	andeq	r0, r0, r0, lsl #2
     d5c:	2e697072 	mcrcs	0, 3, r7, cr9, cr2, {3}
     d60:	00020068 	andeq	r0, r2, r8, rrx
     d64:	23050000 	movwcs	r0, #20480	; 0x5000
     d68:	bc020500 	cfstr32lt	mvfx0, [r2], {-0}
     d6c:	16000089 	strne	r0, [r0], -r9, lsl #1
     d70:	05140505 	ldreq	r0, [r4, #-1285]	; 0xfffffafb
     d74:	1005010a 	andne	r0, r5, sl, lsl #2
     d78:	0a050106 	beq	141198 <__bss_end__+0x137e08>
     d7c:	0609052e 	streq	r0, [r9], -lr, lsr #10
     d80:	0610054b 	ldreq	r0, [r0], -fp, asr #10
     d84:	0623052d 	strteq	r0, [r3], -sp, lsr #10
     d88:	054a0a03 	strbeq	r0, [sl, #-2563]	; 0xfffff5fd
     d8c:	0c052f05 	stceq	15, cr2, [r5], {5}
     d90:	01050106 	tsteq	r5, r6, lsl #2
     d94:	061f054b 	ldreq	r0, [pc], -fp, asr #10
     d98:	3105054d 	tstcc	r5, sp, asr #10
     d9c:	0612052f 	ldreq	r0, [r2], -pc, lsr #10
     da0:	06050501 	streq	r0, [r5], -r1, lsl #10
     da4:	01052f4b 	tsteq	r5, fp, asr #30
     da8:	1c051306 	stcne	3, cr1, [r5], {6}
     dac:	01064c06 	tsteq	r6, r6, lsl #24
     db0:	4b060505 	blmi	1821cc <__bss_end__+0x178e3c>
     db4:	01061305 	tsteq	r6, r5, lsl #6
     db8:	0605052e 	streq	r0, [r5], -lr, lsr #10
     dbc:	1309052f 	movwne	r0, #38191	; 0x952f
     dc0:	01061705 	tsteq	r6, r5, lsl #14
     dc4:	2f060905 	svccs	0x00060905
     dc8:	01061105 	tsteq	r6, r5, lsl #2
     dcc:	052e0c05 	streq	r0, [lr, #-3077]!	; 0xfffff3fb
     dd0:	066b061c 			; <UNDEFINED> instruction: 0x066b061c
     dd4:	06050501 	streq	r0, [r5], -r1, lsl #10
     dd8:	054a062f 	strbeq	r0, [sl, #-1583]	; 0xfffff9d1
     ddc:	1e054b01 	vmlane.f64	d4, d5, d1
     de0:	01062f06 	tsteq	r6, r6, lsl #30
     de4:	2f060505 	svccs	0x00060505
     de8:	01054a06 	tsteq	r5, r6, lsl #20
     dec:	0002024b 	andeq	r0, r2, fp, asr #4
     df0:	01b50101 			; <UNDEFINED> instruction: 0x01b50101
     df4:	00030000 	andeq	r0, r3, r0
     df8:	0000009e 	muleq	r0, lr, r0
     dfc:	0efb0102 	cdpeq	1, 15, cr0, cr11, cr2, {0}
     e00:	0101000d 	tsteq	r1, sp
     e04:	00000101 	andeq	r0, r0, r1, lsl #2
     e08:	00000100 	andeq	r0, r0, r0, lsl #2
     e0c:	6f682f01 	svcvs	0x00682f01
     e10:	652f656d 	strvs	r6, [pc, #-1389]!	; 8ab <__code_start__-0x7755>
     e14:	656c676e 	strbvs	r6, [ip, #-1902]!	; 0xfffff892
     e18:	6c632f72 	stclvs	15, cr2, [r3], #-456	; 0xfffffe38
     e1c:	2f737361 	svccs	0x00737361
     e20:	34317363 	ldrtcc	r7, [r1], #-867	; 0xfffffc9d
     e24:	322d6530 	eorcc	r6, sp, #48, 10	; 0xc000000
     e28:	72707331 	rsbsvc	r7, r0, #-1006632960	; 0xc4000000
     e2c:	696c2f2f 	stmdbvs	ip!, {r0, r1, r2, r3, r5, r8, r9, sl, fp, sp}^
     e30:	2f697062 	svccs	0x00697062
     e34:	6c636e69 	stclvs	14, cr6, [r3], #-420	; 0xfffffe5c
     e38:	00656475 	rsbeq	r6, r5, r5, ror r4
     e3c:	7273752f 	rsbsvc	r7, r3, #197132288	; 0xbc00000
     e40:	62696c2f 	rsbvs	r6, r9, #12032	; 0x2f00
     e44:	6363672f 	cmnvs	r3, #12320768	; 0xbc0000
     e48:	6d72612f 	ldfvse	f6, [r2, #-188]!	; 0xffffff44
     e4c:	6e6f6e2d 	cdpvs	14, 6, cr6, cr15, cr13, {1}
     e50:	61652d65 	cmnvs	r5, r5, ror #26
     e54:	392f6962 	stmdbcc	pc!, {r1, r5, r6, r8, fp, sp, lr}	; <UNPREDICTABLE>
     e58:	312e322e 			; <UNDEFINED> instruction: 0x312e322e
     e5c:	636e692f 	cmnvs	lr, #770048	; 0xbc000
     e60:	6564756c 	strbvs	r7, [r4, #-1388]!	; 0xfffffa94
     e64:	61750000 	cmnvs	r5, r0
     e68:	632e7472 			; <UNDEFINED> instruction: 0x632e7472
     e6c:	00000000 	andeq	r0, r0, r0
     e70:	2e697072 	mcrcs	0, 3, r7, cr9, cr2, {3}
     e74:	00010068 	andeq	r0, r1, r8, rrx
     e78:	72617500 	rsbvc	r7, r1, #0, 10
     e7c:	00682e74 	rsbeq	r2, r8, r4, ror lr
     e80:	67000001 	strvs	r0, [r0, -r1]
     e84:	2e6f6970 			; <UNDEFINED> instruction: 0x2e6f6970
     e88:	00010068 	andeq	r0, r1, r8, rrx
     e8c:	64747300 	ldrbtvs	r7, [r4], #-768	; 0xfffffd00
     e90:	2e746e69 	cdpcs	14, 7, cr6, cr4, cr9, {3}
     e94:	00020068 	andeq	r0, r2, r8, rrx
     e98:	38050000 	stmdacc	r5, {}	; <UNPREDICTABLE>
     e9c:	70020500 	andvc	r0, r2, r0, lsl #10
     ea0:	0300008a 	movweq	r0, #138	; 0x8a
     ea4:	0106012d 	tsteq	r6, sp, lsr #2
     ea8:	67060505 	strvs	r0, [r6, -r5, lsl #10]
     eac:	01061105 	tsteq	r6, r5, lsl #2
     eb0:	052e0505 	streq	r0, [lr, #-1285]!	; 0xfffffafb
     eb4:	16056701 	strne	r6, [r5], -r1, lsl #14
     eb8:	2e0b0306 	cdpcs	3, 0, cr0, cr11, cr6, {0}
     ebc:	67350505 	ldrvs	r0, [r5, -r5, lsl #10]!
     ec0:	03683568 	cmneq	r8, #104, 10	; 0x1a000000
     ec4:	6b852e0c 	blvs	fe14c6fc <__bss_end__+0xfe14336c>
     ec8:	0c036969 			; <UNDEFINED> instruction: 0x0c036969
     ecc:	676b1366 	strbvs	r1, [fp, -r6, ror #6]!
     ed0:	2f060105 	svccs	0x00060105
     ed4:	08061905 	stmdaeq	r6, {r0, r2, r8, fp, ip}
     ed8:	34050525 	strcc	r0, [r5], #-1317	; 0xfffffadb
     edc:	01060d05 	tsteq	r6, r5, lsl #26
     ee0:	054c0105 	strbeq	r0, [ip, #-261]	; 0xfffffefb
     ee4:	05670619 	strbeq	r0, [r7, #-1561]!	; 0xfffff9e7
     ee8:	0d053605 	stceq	6, cr3, [r5, #-20]	; 0xffffffec
     eec:	28050106 	stmdacs	r5, {r1, r2, r8}
     ef0:	3001054a 	andcc	r0, r1, sl, asr #10
     ef4:	87061505 	strhi	r1, [r6, -r5, lsl #10]
     ef8:	2f2f0505 	svccs	0x002f0505
     efc:	02000905 	andeq	r0, r0, #81920	; 0x14000
     f00:	05130104 	ldreq	r0, [r3, #-260]	; 0xfffffefc
     f04:	0402000a 	streq	r0, [r2], #-10
     f08:	0c051101 	stfeqs	f1, [r5], {1}
     f0c:	01040200 	mrseq	r0, R12_usr
     f10:	0a050106 	beq	141330 <__bss_end__+0x137fa0>
     f14:	01040200 	mrseq	r0, R12_usr
     f18:	0605052e 	streq	r0, [r5], -lr, lsr #10
     f1c:	060e054c 	streq	r0, [lr], -ip, asr #10
     f20:	4a090501 	bmi	24232c <__bss_end__+0x238f9c>
     f24:	2f060505 	svccs	0x00060505
     f28:	0601052f 	streq	r0, [r1], -pc, lsr #10
     f2c:	061c0513 			; <UNDEFINED> instruction: 0x061c0513
     f30:	05010667 	streq	r0, [r1, #-1639]	; 0xfffff999
     f34:	2f4b0605 	svccs	0x004b0605
     f38:	02000905 	andeq	r0, r0, #81920	; 0x14000
     f3c:	05130104 	ldreq	r0, [r3, #-260]	; 0xfffffefc
     f40:	0402000a 	streq	r0, [r2], #-10
     f44:	0c051101 	stfeqs	f1, [r5], {1}
     f48:	01040200 	mrseq	r0, R12_usr
     f4c:	0a050106 	beq	14136c <__bss_end__+0x137fdc>
     f50:	01040200 	mrseq	r0, R12_usr
     f54:	0605052e 	streq	r0, [r5], -lr, lsr #10
     f58:	0105674c 	tsteq	r5, ip, asr #14
     f5c:	19052f06 	stmdbne	r5, {r1, r2, r8, r9, sl, fp, sp}
     f60:	1b054c06 	blne	153f80 <__bss_end__+0x14abf0>
     f64:	2e2a052e 	cfsh64cs	mvdx0, mvdx10, #30
     f68:	01063105 	tsteq	r6, r5, lsl #2
     f6c:	052e0105 	streq	r0, [lr, #-261]!	; 0xfffffefb
     f70:	0531061c 	ldreq	r0, [r1, #-1564]!	; 0xfffff9e4
     f74:	09032f05 	stmdbeq	r3, {r0, r2, r8, r9, sl, fp, sp}
     f78:	060e052e 	streq	r0, [lr], -lr, lsr #10
     f7c:	4a210501 	bmi	842388 <__bss_end__+0x838ff8>
     f80:	0a030105 	beq	c139c <__bss_end__+0xb800c>
     f84:	061a052e 	ldreq	r0, [sl], -lr, lsr #10
     f88:	00090568 	andeq	r0, r9, r8, ror #10
     f8c:	30010402 	andcc	r0, r1, r2, lsl #8
     f90:	02000a05 	andeq	r0, r0, #20480	; 0x5000
     f94:	05110104 	ldreq	r0, [r1, #-260]	; 0xfffffefc
     f98:	0402000c 	streq	r0, [r2], #-12
     f9c:	05010601 	streq	r0, [r1, #-1537]	; 0xfffff9ff
     fa0:	0402000a 	streq	r0, [r2], #-10
     fa4:	06022e01 	streq	r2, [r2], -r1, lsl #28
     fa8:	89010100 	stmdbhi	r1, {r8}
     fac:	03000001 	movweq	r0, #1
     fb0:	0000d700 	andeq	sp, r0, r0, lsl #14
     fb4:	fb010200 	blx	417be <__bss_end__+0x3842e>
     fb8:	01000d0e 	tsteq	r0, lr, lsl #26
     fbc:	00010101 	andeq	r0, r1, r1, lsl #2
     fc0:	00010000 	andeq	r0, r1, r0
     fc4:	72730100 	rsbsvc	r0, r3, #0
     fc8:	552f0063 	strpl	r0, [pc, #-99]!	; f6d <__code_start__-0x7093>
     fcc:	73726573 	cmnvc	r2, #482344960	; 0x1cc00000
     fd0:	7264612f 	rsbvc	r6, r4, #-1073741813	; 0xc000000b
     fd4:	6d6e6169 	stfvse	f6, [lr, #-420]!	; 0xfffffe5c
     fd8:	69747261 	ldmdbvs	r4!, {r0, r5, r6, r9, ip, sp, lr}^
     fdc:	2f7a656e 	svccs	0x007a656e
     fe0:	6a6f7270 	bvs	1bdd9a8 <__bss_end__+0x1bd4618>
     fe4:	73746365 	cmnvc	r4, #-1811939327	; 0x94000001
     fe8:	3173632f 	cmncc	r3, pc, lsr #6
     fec:	2d653034 	stclcs	0, cr3, [r5, #-208]!	; 0xffffff30
     ff0:	70733132 	rsbsvc	r3, r3, r2, lsr r1
     ff4:	696c2f72 	stmdbvs	ip!, {r1, r4, r5, r6, r8, r9, sl, fp, sp}^
     ff8:	2f697062 	svccs	0x00697062
     ffc:	6c636e69 	stclvs	14, cr6, [r3], #-420	; 0xfffffe5c
    1000:	00656475 	rsbeq	r6, r5, r5, ror r4
    1004:	7273752f 	rsbsvc	r7, r3, #197132288	; 0xbc00000
    1008:	636f6c2f 	cmnvs	pc, #12032	; 0x2f00
    100c:	432f6c61 			; <UNDEFINED> instruction: 0x432f6c61
    1010:	616c6c65 	cmnvs	ip, r5, ror #24
    1014:	72612f72 	rsbvc	r2, r1, #456	; 0x1c8
    1018:	6f6e2d6d 	svcvs	0x006e2d6d
    101c:	652d656e 	strvs	r6, [sp, #-1390]!	; 0xfffffa92
    1020:	2d696261 	sfmcs	f6, 2, [r9, #-388]!	; 0xfffffe7c
    1024:	74736574 	ldrbtvc	r6, [r3], #-1396	; 0xfffffa8c
    1028:	322d392f 	eorcc	r3, sp, #770048	; 0xbc000
    102c:	71393130 	teqvc	r9, r0, lsr r1
    1030:	73632d34 	cmnvc	r3, #52, 26	; 0xd00
    1034:	65373031 	ldrvs	r3, [r7, #-49]!	; 0xffffffcf
    1038:	62696c2f 	rsbvs	r6, r9, #12032	; 0x2f00
    103c:	6363672f 	cmnvs	r3, #12320768	; 0xbc0000
    1040:	6d72612f 	ldfvse	f6, [r2, #-188]!	; 0xffffff44
    1044:	6e6f6e2d 	cdpvs	14, 6, cr6, cr15, cr13, {1}
    1048:	61652d65 	cmnvs	r5, r5, ror #26
    104c:	392f6962 	stmdbcc	pc!, {r1, r5, r6, r8, fp, sp, lr}	; <UNPREDICTABLE>
    1050:	312e322e 			; <UNDEFINED> instruction: 0x312e322e
    1054:	636e692f 	cmnvs	lr, #770048	; 0xbc000
    1058:	6564756c 	strbvs	r7, [r4, #-1388]!	; 0xfffffa94
    105c:	70670000 	rsbvc	r0, r7, r0
    1060:	632e6f69 			; <UNDEFINED> instruction: 0x632e6f69
    1064:	00000100 	andeq	r0, r0, r0, lsl #2
    1068:	2e697072 	mcrcs	0, 3, r7, cr9, cr2, {3}
    106c:	00020068 	andeq	r0, r2, r8, rrx
    1070:	64747300 	ldrbtvs	r7, [r4], #-768	; 0xfffffd00
    1074:	2d746e69 	ldclcs	14, cr6, [r4, #-420]!	; 0xfffffe5c
    1078:	2e636367 	cdpcs	3, 6, cr6, cr3, cr7, {3}
    107c:	00030068 	andeq	r0, r3, r8, rrx
    1080:	69706700 	ldmdbvs	r0!, {r8, r9, sl, sp, lr}^
    1084:	00682e6f 	rsbeq	r2, r8, pc, ror #28
    1088:	00000002 	andeq	r0, r0, r2
    108c:	05003605 	streq	r3, [r0, #-1541]	; 0xfffff9fb
    1090:	008c1c02 	addeq	r1, ip, r2, lsl #24
    1094:	01130300 	tsteq	r3, r0, lsl #6
    1098:	05050106 	streq	r0, [r5, #-262]	; 0xfffffefa
    109c:	28056706 	stmdacs	r5, {r1, r2, r8, r9, sl, sp, lr}
    10a0:	22050106 	andcs	r0, r5, #-2147483647	; 0x80000001
    10a4:	4a0e0566 	bmi	382644 <__bss_end__+0x3792b4>
    10a8:	2f060505 	svccs	0x00060505
    10ac:	01061805 	tsteq	r6, r5, lsl #16
    10b0:	0605052e 	streq	r0, [r5], -lr, lsr #10
    10b4:	061f052f 	ldreq	r0, [pc], -pc, lsr #10
    10b8:	4a0e0501 	bmi	3824c4 <__bss_end__+0x379134>
    10bc:	2f060505 	svccs	0x00060505
    10c0:	01061d05 	tsteq	r6, r5, lsl #26
    10c4:	4a4a0505 	bmi	12824e0 <__bss_end__+0x1279150>
    10c8:	052f0105 	streq	r0, [pc, #-261]!	; fcb <__code_start__-0x7035>
    10cc:	0a030624 	beq	c2964 <__bss_end__+0xb95d4>
    10d0:	0501064a 	streq	r0, [r1, #-1610]	; 0xfffff9b6
    10d4:	052f0605 	streq	r0, [pc, #-1541]!	; ad7 <__code_start__-0x7529>
    10d8:	054b0601 	strbeq	r0, [fp, #-1537]	; 0xfffff9ff
    10dc:	06310620 	ldrteq	r0, [r1], -r0, lsr #12
    10e0:	06050501 	streq	r0, [r5], -r1, lsl #10
    10e4:	0566062f 	strbeq	r0, [r6, #-1583]!	; 0xfffff9d1
    10e8:	21052f01 	tstcs	r5, r1, lsl #30
    10ec:	01064d06 	tsteq	r6, r6, lsl #26
    10f0:	2f060505 	svccs	0x00060505
    10f4:	01056606 	tsteq	r5, r6, lsl #12
    10f8:	062b052f 	strteq	r0, [fp], -pc, lsr #10
    10fc:	0501064d 	streq	r0, [r1, #-1613]	; 0xfffff9b3
    1100:	052f0605 	streq	r0, [pc, #-1541]!	; b03 <__code_start__-0x74fd>
    1104:	05010607 	streq	r0, [r1, #-1543]	; 0xfffff9f9
    1108:	064b0608 	strbeq	r0, [fp], -r8, lsl #12
    110c:	0530062e 	ldreq	r0, [r0, #-1582]!	; 0xfffff9d2
    1110:	052f0601 	streq	r0, [pc, #-1537]!	; b17 <__code_start__-0x74e9>
    1114:	06350623 	ldrteq	r0, [r5], -r3, lsr #12
    1118:	06050501 	streq	r0, [r5], -r1, lsl #10
    111c:	0601052f 	streq	r0, [r1], -pc, lsr #10
    1120:	061d054b 	ldreq	r0, [sp], -fp, asr #10
    1124:	05010631 	streq	r0, [r1, #-1585]	; 0xfffff9cf
    1128:	054d0605 	strbeq	r0, [sp, #-1541]	; 0xfffff9fb
    112c:	2e01060c 	cfmadd32cs	mvax0, mvfx0, mvfx1, mvfx12
    1130:	022f0105 	eoreq	r0, pc, #1073741825	; 0x40000001
    1134:	01010008 	tsteq	r1, r8
    1138:	000000a6 	andeq	r0, r0, r6, lsr #1
    113c:	00680003 	rsbeq	r0, r8, r3
    1140:	01020000 	mrseq	r0, (UNDEF: 2)
    1144:	000d0efb 	strdeq	r0, [sp], -fp
    1148:	01010101 	tsteq	r1, r1, lsl #2
    114c:	01000000 	mrseq	r0, (UNDEF: 0)
    1150:	6c010000 	stcvs	0, cr0, [r1], {-0}
    1154:	00636269 	rsbeq	r6, r3, r9, ror #4
    1158:	6573552f 	ldrbvs	r5, [r3, #-1327]!	; 0xfffffad1
    115c:	612f7372 			; <UNDEFINED> instruction: 0x612f7372
    1160:	61697264 	cmnvs	r9, r4, ror #4
    1164:	72616d6e 	rsbvc	r6, r1, #7040	; 0x1b80
    1168:	656e6974 	strbvs	r6, [lr, #-2420]!	; 0xfffff68c
    116c:	72702f7a 	rsbsvc	r2, r0, #488	; 0x1e8
    1170:	63656a6f 	cmnvs	r5, #454656	; 0x6f000
    1174:	632f7374 			; <UNDEFINED> instruction: 0x632f7374
    1178:	30343173 	eorscc	r3, r4, r3, ror r1
    117c:	31322d65 	teqcc	r2, r5, ror #26
    1180:	2f727073 	svccs	0x00727073
    1184:	7062696c 	rsbvc	r6, r2, ip, ror #18
    1188:	6e692f69 	cdpvs	15, 6, cr2, cr9, cr9, {3}
    118c:	64756c63 	ldrbtvs	r6, [r5], #-3171	; 0xfffff39d
    1190:	70000065 	andvc	r0, r0, r5, rrx
    1194:	68637475 	stmdavs	r3!, {r0, r2, r4, r5, r6, sl, ip, sp, lr}^
    1198:	632e7261 			; <UNDEFINED> instruction: 0x632e7261
    119c:	00000100 	andeq	r0, r0, r0, lsl #2
    11a0:	2e697072 	mcrcs	0, 3, r7, cr9, cr2, {3}
    11a4:	00020068 	andeq	r0, r2, r8, rrx
    11a8:	24050000 	strcs	r0, [r5], #-0
    11ac:	04020500 	streq	r0, [r2], #-1280	; 0xfffffb00
    11b0:	1400008d 	strne	r0, [r0], #-141	; 0xffffff73
    11b4:	26050106 	strcs	r0, [r5], -r6, lsl #2
    11b8:	34054a06 	strcc	r4, [r5], #-2566	; 0xfffff5fa
    11bc:	0601052e 	streq	r0, [r1], -lr, lsr #10
    11c0:	061b0501 	ldreq	r0, [fp], -r1, lsl #10
    11c4:	1305054f 	movwne	r0, #21839	; 0x554f
    11c8:	01061105 	tsteq	r6, r5, lsl #2
    11cc:	05670105 	strbeq	r0, [r7, #-261]!	; 0xfffffefb
    11d0:	05670623 	strbeq	r0, [r7, #-1571]!	; 0xfffff9dd
    11d4:	11051305 	tstne	r5, r5, lsl #6
    11d8:	01050106 	tsteq	r5, r6, lsl #2
    11dc:	0004024b 	andeq	r0, r4, fp, asr #4
    11e0:	00f20101 	rscseq	r0, r2, r1, lsl #2
    11e4:	00030000 	andeq	r0, r3, r0
    11e8:	00000067 	andeq	r0, r0, r7, rrx
    11ec:	0efb0102 	cdpeq	1, 15, cr0, cr11, cr2, {0}
    11f0:	0101000d 	tsteq	r1, sp
    11f4:	00000101 	andeq	r0, r0, r1, lsl #2
    11f8:	00000100 	andeq	r0, r0, r0, lsl #2
    11fc:	62696c01 	rsbvs	r6, r9, #256	; 0x100
    1200:	552f0063 	strpl	r0, [pc, #-99]!	; 11a5 <__code_start__-0x6e5b>
    1204:	73726573 	cmnvc	r2, #482344960	; 0x1cc00000
    1208:	7264612f 	rsbvc	r6, r4, #-1073741813	; 0xc000000b
    120c:	6d6e6169 	stfvse	f6, [lr, #-420]!	; 0xfffffe5c
    1210:	69747261 	ldmdbvs	r4!, {r0, r5, r6, r9, ip, sp, lr}^
    1214:	2f7a656e 	svccs	0x007a656e
    1218:	6a6f7270 	bvs	1bddbe0 <__bss_end__+0x1bd4850>
    121c:	73746365 	cmnvc	r4, #-1811939327	; 0x94000001
    1220:	3173632f 	cmncc	r3, pc, lsr #6
    1224:	2d653034 	stclcs	0, cr3, [r5, #-208]!	; 0xffffff30
    1228:	70733132 	rsbsvc	r3, r3, r2, lsr r1
    122c:	696c2f72 	stmdbvs	ip!, {r1, r4, r5, r6, r8, r9, sl, fp, sp}^
    1230:	2f697062 	svccs	0x00697062
    1234:	6c636e69 	stclvs	14, cr6, [r3], #-420	; 0xfffffe5c
    1238:	00656475 	rsbeq	r6, r5, r5, ror r4
    123c:	72747300 	rsbsvc	r7, r4, #0, 6
    1240:	2e746163 	rpwcssz	f6, f4, f3
    1244:	00010063 	andeq	r0, r1, r3, rrx
    1248:	69707200 	ldmdbvs	r0!, {r9, ip, sp, lr}^
    124c:	0200682e 	andeq	r6, r0, #3014656	; 0x2e0000
    1250:	05000000 	streq	r0, [r0, #-0]
    1254:	0205002c 	andeq	r0, r5, #44, 0	; 0x2c
    1258:	00008d40 	andeq	r8, r0, r0, asr #26
    125c:	13050515 	movwne	r0, #21781	; 0x5515
    1260:	060b0513 			; <UNDEFINED> instruction: 0x060b0513
    1264:	00050511 	andeq	r0, r5, r1, lsl r5
    1268:	06010402 	streq	r0, [r1], -r2, lsl #8
    126c:	04020030 	streq	r0, [r2], #-48	; 0xffffffd0
    1270:	09051501 	stmdbeq	r5, {r0, r8, sl, ip}
    1274:	01040200 	mrseq	r0, R12_usr
    1278:	00100513 	andseq	r0, r0, r3, lsl r5
    127c:	06010402 	streq	r0, [r1], -r2, lsl #8
    1280:	000b052e 	andeq	r0, fp, lr, lsr #10
    1284:	2e010402 	cdpcs	4, 0, cr0, cr1, cr2, {0}
    1288:	01040200 	mrseq	r0, R12_usr
    128c:	05052f06 	streq	r2, [r5, #-3846]	; 0xfffff0fa
    1290:	01040200 	mrseq	r0, R12_usr
    1294:	4e060106 	adfmis	f0, f6, f6
    1298:	01060805 	tsteq	r6, r5, lsl #16
    129c:	02000505 	andeq	r0, r0, #20971520	; 0x1400000
    12a0:	2f060104 	svccs	0x00060104
    12a4:	02000905 	andeq	r0, r0, #81920	; 0x14000
    12a8:	05130104 	ldreq	r0, [r3, #-260]	; 0xfffffefc
    12ac:	0402000b 	streq	r0, [r2], #-11
    12b0:	05010601 	streq	r0, [r1, #-1537]	; 0xfffff9ff
    12b4:	04020009 	streq	r0, [r2], #-9
    12b8:	054b0601 	strbeq	r0, [fp, #-1537]	; 0xfffff9ff
    12bc:	0402000f 	streq	r0, [r2], #-15
    12c0:	05010601 	streq	r0, [r1, #-1537]	; 0xfffff9ff
    12c4:	0402000d 	streq	r0, [r2], #-13
    12c8:	052f0601 	streq	r0, [pc, #-1537]!	; ccf <__code_start__-0x7331>
    12cc:	04020005 	streq	r0, [r2], #-5
    12d0:	02010601 	andeq	r0, r1, #1048576	; 0x100000
    12d4:	01010006 	tsteq	r1, r6
    12d8:	00000109 	andeq	r0, r0, r9, lsl #2
    12dc:	00cd0003 	sbceq	r0, sp, r3
    12e0:	01020000 	mrseq	r0, (UNDEF: 2)
    12e4:	000d0efb 	strdeq	r0, [sp], -fp
    12e8:	01010101 	tsteq	r1, r1, lsl #2
    12ec:	01000000 	mrseq	r0, (UNDEF: 0)
    12f0:	6c010000 	stcvs	0, cr0, [r1], {-0}
    12f4:	00636269 	rsbeq	r6, r3, r9, ror #4
    12f8:	6573552f 	ldrbvs	r5, [r3, #-1327]!	; 0xfffffad1
    12fc:	612f7372 			; <UNDEFINED> instruction: 0x612f7372
    1300:	61697264 	cmnvs	r9, r4, ror #4
    1304:	72616d6e 	rsbvc	r6, r1, #7040	; 0x1b80
    1308:	656e6974 	strbvs	r6, [lr, #-2420]!	; 0xfffff68c
    130c:	72702f7a 	rsbsvc	r2, r0, #488	; 0x1e8
    1310:	63656a6f 	cmnvs	r5, #454656	; 0x6f000
    1314:	632f7374 			; <UNDEFINED> instruction: 0x632f7374
    1318:	30343173 	eorscc	r3, r4, r3, ror r1
    131c:	31322d65 	teqcc	r2, r5, ror #26
    1320:	2f727073 	svccs	0x00727073
    1324:	7062696c 	rsbvc	r6, r2, ip, ror #18
    1328:	6e692f69 	cdpvs	15, 6, cr2, cr9, cr9, {3}
    132c:	64756c63 	ldrbtvs	r6, [r5], #-3171	; 0xfffff39d
    1330:	752f0065 	strvc	r0, [pc, #-101]!	; 12d3 <__code_start__-0x6d2d>
    1334:	6c2f7273 	sfmvs	f7, 4, [pc], #-460	; 1170 <__code_start__-0x6e90>
    1338:	6c61636f 	stclvs	3, cr6, [r1], #-444	; 0xfffffe44
    133c:	6c65432f 	stclvs	3, cr4, [r5], #-188	; 0xffffff44
    1340:	2f72616c 	svccs	0x0072616c
    1344:	2d6d7261 	sfmcs	f7, 2, [sp, #-388]!	; 0xfffffe7c
    1348:	656e6f6e 	strbvs	r6, [lr, #-3950]!	; 0xfffff092
    134c:	6261652d 	rsbvs	r6, r1, #188743680	; 0xb400000
    1350:	65742d69 	ldrbvs	r2, [r4, #-3433]!	; 0xfffff297
    1354:	392f7473 	stmdbcc	pc!, {r0, r1, r4, r5, r6, sl, ip, sp, lr}	; <UNPREDICTABLE>
    1358:	3130322d 	teqcc	r0, sp, lsr #4
    135c:	2d347139 	ldfcss	f7, [r4, #-228]!	; 0xffffff1c
    1360:	30317363 	eorscc	r7, r1, r3, ror #6
    1364:	6c2f6537 	cfstr32vs	mvfx6, [pc], #-220	; 1290 <__code_start__-0x6d70>
    1368:	672f6269 	strvs	r6, [pc, -r9, ror #4]!
    136c:	612f6363 			; <UNDEFINED> instruction: 0x612f6363
    1370:	6e2d6d72 	mcrvs	13, 1, r6, cr13, cr2, {3}
    1374:	2d656e6f 	stclcs	14, cr6, [r5, #-444]!	; 0xfffffe44
    1378:	69626165 	stmdbvs	r2!, {r0, r2, r5, r6, r8, sp, lr}^
    137c:	322e392f 	eorcc	r3, lr, #770048	; 0xbc000
    1380:	692f312e 	stmdbvs	pc!, {r1, r2, r3, r5, r8, ip, sp}	; <UNPREDICTABLE>
    1384:	756c636e 	strbvc	r6, [ip, #-878]!	; 0xfffffc92
    1388:	00006564 	andeq	r6, r0, r4, ror #10
    138c:	6e727473 	mrcvs	4, 3, r7, cr2, cr3, {3}
    1390:	2e706d63 	cdpcs	13, 7, cr6, cr0, cr3, {3}
    1394:	00010063 	andeq	r0, r1, r3, rrx
    1398:	69707200 	ldmdbvs	r0!, {r9, ip, sp, lr}^
    139c:	0200682e 	andeq	r6, r0, #3014656	; 0x2e0000
    13a0:	74730000 	ldrbtvc	r0, [r3], #-0
    13a4:	66656464 	strbtvs	r6, [r5], -r4, ror #8
    13a8:	0300682e 	movweq	r6, #2094	; 0x82e
    13ac:	05000000 	streq	r0, [r0, #-0]
    13b0:	02050039 	andeq	r0, r5, #57, 0	; 0x39
    13b4:	00008d74 	andeq	r8, r0, r4, ror sp
    13b8:	13050515 	movwne	r0, #21781	; 0x5515
    13bc:	010a0513 	tsteq	sl, r3, lsl r5
    13c0:	054a0106 	strbeq	r0, [sl, #-262]	; 0xfffffefa
    13c4:	052f0609 	streq	r0, [pc, #-1545]!	; dc3 <__code_start__-0x723d>
    13c8:	0501060c 	streq	r0, [r1, #-1548]	; 0xfffff9f4
    13cc:	0b052e13 	bleq	14cc20 <__bss_end__+0x143890>
    13d0:	060d052e 	streq	r0, [sp], -lr, lsr #10
    13d4:	061b054b 	ldreq	r0, [fp], -fp, asr #10
    13d8:	0c052e01 	stceq	14, cr2, [r5], {1}
    13dc:	2f010530 	svccs	0x00010530
    13e0:	01000202 	tsteq	r0, r2, lsl #4
    13e4:	Address 0x00000000000013e4 is out of bounds.


Disassembly of section .debug_str:

00000000 <.debug_str>:
   0:	63617274 	cmnvs	r1, #116, 4	; 0x40000007
   4:	74735f65 	ldrbtvc	r5, [r3], #-3941	; 0xfffff09b
   8:	6700706f 	strvs	r7, [r0, -pc, rrx]
   c:	5f6f6970 	svcpl	0x006f6970
  10:	64616572 	strbtvs	r6, [r1], #-1394	; 0xfffffa8e
  14:	73552f00 	cmpvc	r5, #0, 30
  18:	2f737265 	svccs	0x00737265
  1c:	69726461 	ldmdbvs	r2!, {r0, r5, r6, sl, sp, lr}^
  20:	616d6e61 	cmnvs	sp, r1, ror #28
  24:	6e697472 	mcrvs	4, 3, r7, cr9, cr2, {3}
  28:	702f7a65 	eorvc	r7, pc, r5, ror #20
  2c:	656a6f72 	strbvs	r6, [sl, #-3954]!	; 0xfffff08e
  30:	2f737463 	svccs	0x00737463
  34:	34317363 	ldrtcc	r7, [r1], #-867	; 0xfffffc9d
  38:	322d6530 	eorcc	r6, sp, #48, 10	; 0xc000000
  3c:	72707331 	rsbsvc	r7, r0, #-1006632960	; 0xc4000000
  40:	62616c2f 	rsbvs	r6, r1, #12032	; 0x2f00
  44:	2d322f73 	ldccs	15, cr2, [r2, #-460]!	; 0xfffffe34
  48:	736f7263 	cmnvc	pc, #805306374	; 0x30000006
  4c:	68632d73 	stmdavs	r3!, {r0, r1, r4, r5, r6, r8, sl, fp, sp}^
  50:	2f6b6365 	svccs	0x006b6365
  54:	72742d32 	rsbsvc	r2, r4, #3200	; 0xc80
  58:	2f656361 	svccs	0x00656361
  5c:	74736574 	ldrbtvc	r6, [r3], #-1396	; 0xfffffa8c
  60:	61750073 	cmnvs	r5, r3, ror r0
  64:	695f7472 	ldmdbvs	pc, {r1, r4, r5, r6, sl, ip, sp, lr}^	; <UNPREDICTABLE>
  68:	0074696e 	rsbseq	r6, r4, lr, ror #18
  6c:	69736e75 	ldmdbvs	r3!, {r0, r2, r4, r5, r6, r9, sl, fp, sp, lr}^
  70:	64656e67 	strbtvs	r6, [r5], #-3687	; 0xfffff199
  74:	61686320 	cmnvs	r8, r0, lsr #6
  78:	6c630072 	stclvs	0, cr0, [r3], #-456	; 0xfffffe38
  7c:	5f6e6165 	svcpl	0x006e6165
  80:	6f626572 	svcvs	0x00626572
  84:	7400746f 	strvc	r7, [r0], #-1135	; 0xfffffb91
  88:	65636172 	strbvs	r6, [r3, #-370]!	; 0xfffffe8e
  8c:	6174735f 	cmnvs	r4, pc, asr r3
  90:	73007472 	movwvc	r7, #1138	; 0x472
  94:	74726f68 	ldrbtvc	r6, [r2], #-3944	; 0xfffff098
  98:	736e7520 	cmnvc	lr, #32, 10	; 0x8000000
  9c:	656e6769 	strbvs	r6, [lr, #-1897]!	; 0xfffff897
  a0:	6e692064 	cdpvs	0, 6, cr2, cr9, cr4, {3}
  a4:	2d300074 	ldccs	0, cr0, [r0, #-464]!	; 0xfffffe30
  a8:	6f697067 	svcvs	0x00697067
  ac:	6165722d 	cmnvs	r5, sp, lsr #4
  b0:	00632e64 	rsbeq	r2, r3, r4, ror #28
  b4:	676e6f6c 	strbvs	r6, [lr, -ip, ror #30]!
  b8:	6e6f6c20 	cdpvs	12, 6, cr6, cr15, cr0, {1}
  bc:	6e752067 	cdpvs	0, 7, cr2, cr5, cr7, {3}
  c0:	6e676973 			; <UNDEFINED> instruction: 0x6e676973
  c4:	69206465 	stmdbvs	r0!, {r0, r2, r5, r6, sl, sp, lr}
  c8:	6c00746e 	cfstrsvs	mvf7, [r0], {110}	; 0x6e
  cc:	20676e6f 	rsbcs	r6, r7, pc, ror #28
  d0:	676e6f6c 	strbvs	r6, [lr, -ip, ror #30]!
  d4:	746e6920 	strbtvc	r6, [lr], #-2336	; 0xfffff6e0
  d8:	69707200 	ldmdbvs	r0!, {r9, ip, sp, lr}^
  dc:	7475705f 	ldrbtvc	r7, [r5], #-95	; 0xffffffa1
  e0:	72616863 	rsbvc	r6, r1, #6488064	; 0x630000
  e4:	6f687300 	svcvs	0x00687300
  e8:	69207472 	stmdbvs	r0!, {r1, r4, r5, r6, sl, ip, sp, lr}
  ec:	4700746e 	strmi	r7, [r0, -lr, ror #8]
  f0:	4320554e 			; <UNDEFINED> instruction: 0x4320554e
  f4:	39203939 	stmdbcc	r0!, {r0, r3, r4, r5, r8, fp, ip, sp}
  f8:	312e322e 			; <UNDEFINED> instruction: 0x312e322e
  fc:	31303220 	teqcc	r0, r0, lsr #4
 100:	32303139 	eorscc	r3, r0, #1073741838	; 0x4000000e
 104:	72282035 	eorvc	r2, r8, #53, 0	; 0x35
 108:	61656c65 	cmnvs	r5, r5, ror #24
 10c:	20296573 	eorcs	r6, r9, r3, ror r5
 110:	4d52415b 	ldfmie	f4, [r2, #-364]	; 0xfffffe94
 114:	6d72612f 	ldfvse	f6, [r2, #-188]!	; 0xffffff44
 118:	622d392d 	eorvs	r3, sp, #737280	; 0xb4000
 11c:	636e6172 	cmnvs	lr, #-2147483620	; 0x8000001c
 120:	65722068 	ldrbvs	r2, [r2, #-104]!	; 0xffffff98
 124:	69736976 	ldmdbvs	r3!, {r1, r2, r4, r5, r6, r8, fp, sp, lr}^
 128:	32206e6f 	eorcc	r6, r0, #1776	; 0x6f0
 12c:	39353737 	ldmdbcc	r5!, {r0, r1, r2, r4, r5, r8, r9, sl, ip, sp}
 130:	2d205d39 	stccs	13, cr5, [r0, #-228]!	; 0xffffff1c
 134:	7570636d 	ldrbvc	r6, [r0, #-877]!	; 0xfffffc93
 138:	6d72613d 	ldfvse	f6, [r2, #-244]!	; 0xffffff0c
 13c:	36373131 			; <UNDEFINED> instruction: 0x36373131
 140:	2d667a6a 	vstmdbcs	r6!, {s15-s120}
 144:	6d2d2073 	stcvs	0, cr2, [sp, #-460]!	; 0xfffffe34
 148:	656e7574 	strbvs	r7, [lr, #-1396]!	; 0xfffffa8c
 14c:	6d72613d 	ldfvse	f6, [r2, #-244]!	; 0xffffff0c
 150:	36373131 			; <UNDEFINED> instruction: 0x36373131
 154:	2d667a6a 	vstmdbcs	r6!, {s15-s120}
 158:	6d2d2073 	stcvs	0, cr2, [sp, #-460]!	; 0xfffffe34
 15c:	616f6c66 	cmnvs	pc, r6, ror #24
 160:	62612d74 	rsbvs	r2, r1, #116, 26	; 0x1d00
 164:	6f733d69 	svcvs	0x00733d69
 168:	2d207466 	cfstrscs	mvf7, [r0, #-408]!	; 0xfffffe68
 16c:	6d72616d 	ldfvse	f6, [r2, #-436]!	; 0xfffffe4c
 170:	616d2d20 	cmnvs	sp, r0, lsr #26
 174:	3d686372 	stclcc	3, cr6, [r8, #-456]!	; 0xfffffe38
 178:	766d7261 	strbtvc	r7, [sp], -r1, ror #4
 17c:	207a6b36 	rsbscs	r6, sl, r6, lsr fp
 180:	6467672d 	strbtvs	r6, [r7], #-1837	; 0xfffff8d3
 184:	4f2d2062 	svcmi	0x002d2062
 188:	732d2067 			; <UNDEFINED> instruction: 0x732d2067
 18c:	673d6474 			; <UNDEFINED> instruction: 0x673d6474
 190:	3939756e 	ldmdbcc	r9!, {r1, r2, r3, r5, r6, r8, sl, ip, sp, lr}
 194:	66662d20 	strbtvs	r2, [r6], -r0, lsr #26
 198:	73656572 	cmnvc	r5, #478150656	; 0x1c800000
 19c:	646e6174 	strbtvs	r6, [lr], #-372	; 0xfffffe8c
 1a0:	00676e69 	rsbeq	r6, r7, r9, ror #28
 1a4:	6d746f6e 	ldclvs	15, cr6, [r4, #-440]!	; 0xfffffe48
 1a8:	006e6961 	rsbeq	r6, lr, r1, ror #18
 1ac:	65725f5f 	ldrbvs	r5, [r2, #-3935]!	; 0xfffff0a1
 1b0:	475f6c61 	ldrbmi	r6, [pc, -r1, ror #24]
 1b4:	32335445 	eorscc	r5, r3, #1157627904	; 0x45000000
 1b8:	61747300 	cmnvs	r4, r0, lsl #6
 1bc:	65006574 	strvs	r6, [r0, #-1396]	; 0xfffffa8c
 1c0:	5f74696d 	svcpl	0x0074696d
 1c4:	33746567 	cmncc	r4, #432013312	; 0x19c00000
 1c8:	6d650032 	stclvs	0, cr0, [r5, #-200]!	; 0xffffff38
 1cc:	705f7469 	subsvc	r7, pc, r9, ror #8
 1d0:	32337475 	eorscc	r7, r3, #1962934272	; 0x75000000
 1d4:	775f5f00 	ldrbvc	r5, [pc, -r0, lsl #30]
 1d8:	5f706172 	svcpl	0x00706172
 1dc:	33545550 	cmpcc	r4, #80, 10	; 0x14000000
 1e0:	52540032 	subspl	r0, r4, #50, 0	; 0x32
 1e4:	5f454341 	svcpl	0x00454341
 1e8:	61004e4f 	tstvs	r0, pc, asr #28
 1ec:	00726464 	rsbseq	r6, r2, r4, ror #8
 1f0:	66667562 	strbtvs	r7, [r6], -r2, ror #10
 1f4:	705f7265 	subsvc	r7, pc, r5, ror #4
 1f8:	465f5f00 	ldrbmi	r5, [pc], -r0, lsl #30
 1fc:	54434e55 	strbpl	r4, [r3], #-3669	; 0xfffff1ab
 200:	5f4e4f49 	svcpl	0x004e4f49
 204:	5f5f005f 	svcpl	0x005f005f
 208:	6c616572 	cfstr64vs	mvdx6, [r1], #-456	; 0xfffffe38
 20c:	5455505f 	ldrbpl	r5, [r5], #-95	; 0xffffffa1
 210:	5f003233 	svcpl	0x00003233
 214:	6172775f 	cmnvs	r2, pc, asr r7
 218:	45475f70 	strbmi	r5, [r7, #-3952]	; 0xfffff090
 21c:	00323354 	eorseq	r3, r2, r4, asr r3
 220:	63617274 	cmnvs	r1, #116, 4	; 0x40000007
 224:	69732d65 	ldmdbvs	r3!, {r0, r2, r5, r6, r8, sl, fp, sp}^
 228:	656c706d 	strbvs	r7, [ip, #-109]!	; 0xffffff93
 22c:	5400632e 	strpl	r6, [r0], #-814	; 0xfffffcd2
 230:	45434152 	strbmi	r4, [r3, #-338]	; 0xfffffeae
 234:	46464f5f 			; <UNDEFINED> instruction: 0x46464f5f
 238:	6e697500 	cdpvs	5, 6, cr7, cr9, cr0, {0}
 23c:	5f323374 	svcpl	0x00323374
 240:	69770074 	ldmdbvs	r7!, {r2, r4, r5, r6}^
 244:	6e696874 	mcrvs	8, 3, r6, cr9, cr4, {3}
 248:	6972705f 	ldmdbvs	r2!, {r0, r1, r2, r3, r4, r6, ip, sp, lr}^
 24c:	5f6b746e 	svcpl	0x006b746e
 250:	7265706f 	rsbvc	r7, r5, #111, 0	; 0x6f
 254:	6f697461 	svcvs	0x00697461
 258:	552f006e 	strpl	r0, [pc, #-110]!	; 1f2 <__code_start__-0x7e0e>
 25c:	73726573 	cmnvc	r2, #482344960	; 0x1cc00000
 260:	7264612f 	rsbvc	r6, r4, #-1073741813	; 0xc000000b
 264:	6d6e6169 	stfvse	f6, [lr, #-420]!	; 0xfffffe5c
 268:	69747261 	ldmdbvs	r4!, {r0, r5, r6, r9, ip, sp, lr}^
 26c:	2f7a656e 	svccs	0x007a656e
 270:	6a6f7270 	bvs	1bdcc38 <__bss_end__+0x1bd38a8>
 274:	73746365 	cmnvc	r4, #-1811939327	; 0x94000001
 278:	3173632f 	cmncc	r3, pc, lsr #6
 27c:	2d653034 	stclcs	0, cr3, [r5, #-208]!	; 0xffffff30
 280:	70733132 	rsbsvc	r3, r3, r2, lsr r1
 284:	616c2f72 	smcvs	49906	; 0xc2f2
 288:	322f7362 	eorcc	r7, pc, #-2013265919	; 0x88000001
 28c:	6f72632d 	svcvs	0x0072632d
 290:	632d7373 			; <UNDEFINED> instruction: 0x632d7373
 294:	6b636568 	blvs	18d983c <__bss_end__+0x18d04ac>
 298:	742d322f 	strtvc	r3, [sp], #-559	; 0xfffffdd1
 29c:	65636172 	strbvs	r6, [r3, #-370]!	; 0xfffffe8e
 2a0:	41525400 	cmpmi	r2, r0, lsl #8
 2a4:	535f4543 	cmppl	pc, #281018368	; 0x10c00000
 2a8:	0050494b 	subseq	r4, r0, fp, asr #18
 2ac:	73677261 	cmnvc	r7, #268435462	; 0x10000006
 2b0:	5f617600 	svcpl	0x00617600
 2b4:	6e697270 	mcrvs	2, 3, r7, cr9, cr0, {3}
 2b8:	5f006b74 	svcpl	0x00006b74
 2bc:	756e675f 	strbvc	r6, [lr, #-1887]!	; 0xfffff8a1
 2c0:	61765f63 	cmnvs	r6, r3, ror #30
 2c4:	73696c5f 	cmnvc	r9, #24320	; 0x5f00
 2c8:	696c0074 	stmdbvs	ip!, {r2, r4, r5, r6}^
 2cc:	702f6362 	eorvc	r6, pc, r2, ror #6
 2d0:	746e6972 	strbtvc	r6, [lr], #-2418	; 0xfffff68e
 2d4:	00632e6b 	rsbeq	r2, r3, fp, ror #28
 2d8:	70615f5f 	rsbvc	r5, r1, pc, asr pc
 2dc:	765f5f00 	ldrbvc	r5, [pc], -r0, lsl #30
 2e0:	696c5f61 	stmdbvs	ip!, {r0, r5, r6, r8, r9, sl, fp, ip, lr}^
 2e4:	2f007473 	svccs	0x00007473
 2e8:	72657355 	rsbvc	r7, r5, #1409286145	; 0x54000001
 2ec:	64612f73 	strbtvs	r2, [r1], #-3955	; 0xfffff08d
 2f0:	6e616972 			; <UNDEFINED> instruction: 0x6e616972
 2f4:	7472616d 	ldrbtvc	r6, [r2], #-365	; 0xfffffe93
 2f8:	7a656e69 	bvc	195bca4 <__bss_end__+0x1952914>
 2fc:	6f72702f 	svcvs	0x0072702f
 300:	7463656a 	strbtvc	r6, [r3], #-1386	; 0xfffffa96
 304:	73632f73 	cmnvc	r3, #460	; 0x1cc
 308:	65303431 	ldrvs	r3, [r0, #-1073]!	; 0xfffffbcf
 30c:	7331322d 	teqvc	r1, #-805306366	; 0xd0000002
 310:	6c2f7270 	sfmvs	f7, 4, [pc], #-448	; 158 <__code_start__-0x7ea8>
 314:	69706269 	ldmdbvs	r0!, {r0, r3, r5, r6, r9, sp, lr}^
 318:	746e6900 	strbtvc	r6, [lr], #-2304	; 0xfffff700
 31c:	616e7265 	cmnvs	lr, r5, ror #4
 320:	75705f6c 	ldrbvc	r5, [r0, #-3948]!	; 0xfffff094
 324:	6c006b74 			; <UNDEFINED> instruction: 0x6c006b74
 328:	2f636269 	svccs	0x00636269
 32c:	6b747570 	blvs	1d1d8f4 <__bss_end__+0x1d14564>
 330:	6900632e 	stmdbvs	r0, {r1, r2, r3, r5, r8, r9, sp, lr}
 334:	67696473 			; <UNDEFINED> instruction: 0x67696473
 338:	75007469 	strvc	r7, [r0, #-1129]	; 0xfffffb97
 33c:	36746e69 	ldrbtcc	r6, [r4], -r9, ror #28
 340:	00745f34 	rsbseq	r5, r4, r4, lsr pc
 344:	6f635f5f 	svcvs	0x00635f5f
 348:	735f6564 	cmpvc	pc, #100, 10	; 0x19000000
 34c:	74726174 	ldrbtvc	r6, [r2], #-372	; 0xfffffe8c
 350:	5f005f5f 	svcpl	0x00005f5f
 354:	7373625f 	cmnvc	r3, #-268435451	; 0xf0000005
 358:	6174735f 	cmnvs	r4, pc, asr r3
 35c:	5f5f7472 	svcpl	0x005f7472
 360:	64697700 	strbtvs	r7, [r9], #-1792	; 0xfffff900
 364:	5f006874 	svcpl	0x00006874
 368:	7461645f 	strbtvc	r6, [r1], #-1119	; 0xfffffba1
 36c:	6e655f61 	cdpvs	15, 6, cr5, cr5, cr1, {3}
 370:	005f5f64 	subseq	r5, pc, r4, ror #30
 374:	63747570 	cmnvs	r4, #112, 10	; 0x1c000000
 378:	0070665f 	rsbseq	r6, r0, pc, asr r6
 37c:	73625f5f 	cmnvc	r2, #380	; 0x17c
 380:	6e655f73 	mcrvs	15, 3, r5, cr5, cr3, {3}
 384:	005f5f64 	subseq	r5, pc, r4, ror #30
 388:	65685f5f 	strbvs	r5, [r8, #-3935]!	; 0xfffff0a1
 38c:	735f7061 	cmpvc	pc, #97, 0	; 0x61
 390:	74726174 	ldrbtvc	r6, [r2], #-372	; 0xfffffe8c
 394:	72005f5f 	andvc	r5, r0, #380	; 0x17c
 398:	735f6970 	cmpvc	pc, #112, 18	; 0x1c0000
 39c:	6f5f7465 	svcvs	0x005f7465
 3a0:	75707475 	ldrbvc	r7, [r0, #-1141]!	; 0xfffffb8b
 3a4:	6d660074 	stclvs	0, cr0, [r6, #-464]!	; 0xfffffe30
 3a8:	74735f74 	ldrbtvc	r5, [r3], #-3956	; 0xfffff08c
 3ac:	00747261 	rsbseq	r7, r4, r1, ror #4
 3b0:	6362696c 	cmnvs	r2, #108, 18	; 0x1b0000
 3b4:	2d61762f 	stclcs	6, cr7, [r1, #-188]!	; 0xffffff44
 3b8:	6e697270 	mcrvs	2, 3, r7, cr9, cr0, {3}
 3bc:	632e6b74 			; <UNDEFINED> instruction: 0x632e6b74
 3c0:	72747300 	rsbsvc	r7, r4, #0, 6
 3c4:	00746163 	rsbseq	r6, r4, r3, ror #2
 3c8:	5f67656e 	svcpl	0x0067656e
 3cc:	5f5f0070 	svcpl	0x005f0070
 3d0:	65646f63 	strbvs	r6, [r4, #-3939]!	; 0xfffff09d
 3d4:	646e655f 	strbtvs	r6, [lr], #-1375	; 0xfffffaa1
 3d8:	65005f5f 	strvs	r5, [r0, #-3935]	; 0xfffff0a1
 3dc:	0074696d 	rsbseq	r6, r4, sp, ror #18
 3e0:	73747570 	cmnvc	r4, #112, 10	; 0x1c000000
 3e4:	0070665f 	rsbseq	r6, r0, pc, asr r6
 3e8:	65766572 	ldrbvs	r6, [r6, #-1394]!	; 0xfffffa8e
 3ec:	00657372 	rsbeq	r7, r5, r2, ror r3
 3f0:	61645f5f 	cmnvs	r4, pc, asr pc
 3f4:	735f6174 	cmpvc	pc, #29
 3f8:	74726174 	ldrbtvc	r6, [r2], #-372	; 0xfffffe8c
 3fc:	5f005f5f 	svcpl	0x00005f5f
 400:	6f72705f 	svcvs	0x0072705f
 404:	6e655f67 	cdpvs	15, 6, cr5, cr5, cr7, {3}
 408:	005f5f64 	subseq	r5, pc, r4, ror #30
 40c:	316d756e 	cmncc	sp, lr, ror #10
 410:	72747300 	rsbsvc	r7, r4, #0, 6
 414:	706d636e 	rsbvc	r6, sp, lr, ror #6
 418:	73616200 	cmnvc	r1, #0, 4
 41c:	69730065 	ldmdbvs	r3!, {r0, r2, r5, r6}^
 420:	64656e67 	strbtvs	r6, [r5], #-3687	; 0xfffff199
 424:	7200705f 	andvc	r7, r0, #95, 0	; 0x5f
 428:	725f6970 	subsvc	r6, pc, #112, 18	; 0x1c0000
 42c:	6f6f6265 	svcvs	0x006f6265
 430:	65640074 	strbvs	r0, [r4, #-116]!	; 0xffffff8c
 434:	5f79616c 	svcpl	0x0079616c
 438:	7300736d 	movwvc	r7, #877	; 0x36d
 43c:	66666174 			; <UNDEFINED> instruction: 0x66666174
 440:	6372732d 	cmnvs	r2, #-1275068416	; 0xb4000000
 444:	656c632f 	strbvs	r6, [ip, #-815]!	; 0xfffffcd1
 448:	722d6e61 	eorvc	r6, sp, #1552	; 0x610
 44c:	6f6f6265 	svcvs	0x006f6265
 450:	00632e74 	rsbeq	r2, r3, r4, ror lr
 454:	74726175 	ldrbtvc	r6, [r2], #-373	; 0xfffffe8b
 458:	756c665f 	strbvc	r6, [ip, #-1631]!	; 0xfffff9a1
 45c:	745f6873 	ldrbvc	r6, [pc], #-2163	; 464 <__code_start__-0x7b9c>
 460:	635f0078 	cmpvs	pc, #120, 0	; 0x78
 464:	72617473 	rsbvc	r7, r1, #1929379840	; 0x73000000
 468:	73620074 	cmnvc	r2, #116, 0	; 0x74
 46c:	6e655f73 	mcrvs	15, 3, r5, cr5, cr3, {3}
 470:	75630064 	strbvc	r0, [r3, #-100]!	; 0xffffff9c
 474:	6d6f7473 	cfstrdvs	mvd7, [pc, #-460]!	; 2b0 <__code_start__-0x7d50>
 478:	616f6c5f 	cmnvs	pc, pc, asr ip	; <UNPREDICTABLE>
 47c:	00726564 	rsbseq	r6, r2, r4, ror #10
 480:	66617473 			; <UNDEFINED> instruction: 0x66617473
 484:	72732d66 	rsbsvc	r2, r3, #6528	; 0x1980
 488:	73632f63 	cmnvc	r3, #396	; 0x18c
 48c:	74726174 	ldrbtvc	r6, [r2], #-372	; 0xfffffe8c
 490:	7300632e 	movwvc	r6, #814	; 0x32e
 494:	66666174 			; <UNDEFINED> instruction: 0x66666174
 498:	6372732d 	cmnvs	r2, #-1275068416	; 0xb4000000
 49c:	7375632f 	cmnvc	r5, #-1140850688	; 0xbc000000
 4a0:	2d6d6f74 	stclcs	15, cr6, [sp, #-464]!	; 0xfffffe30
 4a4:	64616f6c 	strbtvs	r6, [r1], #-3948	; 0xfffff094
 4a8:	632e7265 			; <UNDEFINED> instruction: 0x632e7265
 4ac:	5f4d5000 	svcpl	0x004d5000
 4b0:	474f4457 	smlsldmi	r4, pc, r7, r4	; <UNPREDICTABLE>
 4b4:	74657300 	strbtvc	r7, [r5], #-768	; 0xfffffd00
 4b8:	6573755f 	ldrbvs	r7, [r3, #-1375]!	; 0xfffffaa1
 4bc:	656c5f72 	strbvs	r5, [ip, #-3954]!	; 0xfffff08e
 4c0:	006c6576 	rsbeq	r6, ip, r6, ror r5
 4c4:	505f4d50 	subspl	r4, pc, r0, asr sp	; <UNPREDICTABLE>
 4c8:	57535341 	ldrbpl	r5, [r3, -r1, asr #6]
 4cc:	0044524f 	subeq	r5, r4, pc, asr #4
 4d0:	755f7461 	ldrbvc	r7, [pc, #-1121]	; 77 <__code_start__-0x7f89>
 4d4:	5f726573 	svcpl	0x00726573
 4d8:	6576656c 	ldrbvs	r6, [r6, #-1388]!	; 0xfffffa94
 4dc:	7473006c 	ldrbtvc	r0, [r3], #-108	; 0xffffff94
 4e0:	2d666661 	stclcs	6, cr6, [r6, #-388]!	; 0xfffffe7c
 4e4:	2f637273 	svccs	0x00637273
 4e8:	6f626572 	svcvs	0x00626572
 4ec:	632e746f 			; <UNDEFINED> instruction: 0x632e746f
 4f0:	5f4d5000 	svcpl	0x004d5000
 4f4:	43545352 	cmpmi	r4, #1207959553	; 0x48000001
 4f8:	73706300 	cmnvc	r0, #0, 6
 4fc:	4d500072 	ldclmi	0, cr0, [r0, #-456]	; 0xfffffe38
 500:	5453525f 	ldrbpl	r5, [r3], #-607	; 0xfffffda1
 504:	52575f43 	subspl	r5, r7, #268	; 0x10c
 508:	5f474643 	svcpl	0x00474643
 50c:	4c4c5546 	cfstr64mi	mvdx5, [ip], {70}	; 0x46
 510:	5345525f 	movtpl	r5, #21087	; 0x525f
 514:	64005445 	strvs	r5, [r0], #-1093	; 0xfffffbbb
 518:	79616c65 	stmdbvc	r1!, {r0, r2, r5, r6, sl, fp, sp, lr}^
 51c:	6379635f 	cmnvs	r9, #2080374785	; 0x7c000001
 520:	0073656c 	rsbseq	r6, r3, ip, ror #10
 524:	5f766564 	svcpl	0x00766564
 528:	72726162 	rsbsvc	r6, r2, #-2147483624	; 0x80000018
 52c:	00726569 	rsbseq	r6, r2, r9, ror #10
 530:	6b636974 	blvs	18dab08 <__bss_end__+0x18d1778>
 534:	65640073 	strbvs	r0, [r4, #-115]!	; 0xffffff8d
 538:	5f79616c 	svcpl	0x0079616c
 53c:	00636573 	rsbeq	r6, r3, r3, ror r5
 540:	656d6974 	strbvs	r6, [sp, #-2420]!	; 0xfffff68c
 544:	65675f72 	strbvs	r5, [r7, #-3954]!	; 0xfffff08e
 548:	73755f74 	cmnvc	r5, #116, 30	; 0x1d0
 54c:	64006365 	strvs	r6, [r0], #-869	; 0xfffffc9b
 550:	79616c65 	stmdbvc	r1!, {r0, r2, r5, r6, sl, fp, sp, lr}^
 554:	0073755f 	rsbseq	r7, r3, pc, asr r5
 558:	656d6974 	strbvs	r6, [sp, #-2420]!	; 0xfffff68c
 55c:	65675f72 	strbvs	r5, [r7, #-3954]!	; 0xfffff08e
 560:	73755f74 	cmnvc	r5, #116, 30	; 0x1d0
 564:	725f6365 	subsvc	r6, pc, #-1811939327	; 0x94000001
 568:	73007761 	movwvc	r7, #1889	; 0x761
 56c:	66666174 			; <UNDEFINED> instruction: 0x66666174
 570:	6372732d 	cmnvs	r2, #-1275068416	; 0xb4000000
 574:	6d69742f 	cfstrdvs	mvd7, [r9, #-188]!	; 0xffffff44
 578:	632e7265 			; <UNDEFINED> instruction: 0x632e7265
 57c:	72617500 	rsbvc	r7, r1, #0, 10
 580:	75705f74 	ldrbvc	r5, [r0, #-3956]!	; 0xfffff08c
 584:	73006374 	movwvc	r6, #884	; 0x374
 588:	00746174 	rsbseq	r6, r4, r4, ror r1
 58c:	74726175 	ldrbtvc	r6, [r2], #-373	; 0xfffffe8b
 590:	6e61635f 	mcrvs	3, 3, r6, cr1, cr15, {2}
 594:	7465675f 	strbtvc	r6, [r5], #-1887	; 0xfffff8a1
 598:	50470063 	subpl	r0, r7, r3, rrx
 59c:	465f4f49 	ldrbmi	r4, [pc], -r9, asr #30
 5a0:	5f434e55 	svcpl	0x00434e55
 5a4:	5054554f 	subspl	r5, r4, pc, asr #10
 5a8:	61005455 	tstvs	r0, r5, asr r4
 5ac:	705f7875 	subsvc	r7, pc, r5, ror r8	; <UNPREDICTABLE>
 5b0:	70697265 	rsbvc	r7, r9, r5, ror #4
 5b4:	75007368 	strvc	r7, [r0, #-872]	; 0xfffffc98
 5b8:	2e747261 	cdpcs	2, 7, cr7, cr4, cr1, {3}
 5bc:	61750063 	cmnvs	r5, r3, rrx
 5c0:	635f7472 	cmpvs	pc, #1912602624	; 0x72000000
 5c4:	705f6e61 	subsvc	r6, pc, r1, ror #28
 5c8:	00637475 	rsbeq	r7, r3, r5, ror r4
 5cc:	6d6f682f 	stclvs	8, cr6, [pc, #-188]!	; 518 <__code_start__-0x7ae8>
 5d0:	6e652f65 	cdpvs	15, 6, cr2, cr5, cr5, {3}
 5d4:	72656c67 	rsbvc	r6, r5, #26368	; 0x6700
 5d8:	616c632f 	cmnvs	ip, pc, lsr #6
 5dc:	632f7373 			; <UNDEFINED> instruction: 0x632f7373
 5e0:	30343173 	eorscc	r3, r4, r3, ror r1
 5e4:	31322d65 	teqcc	r2, r5, ror #26
 5e8:	2f727073 	svccs	0x00727073
 5ec:	7062696c 	rsbvc	r6, r2, ip, ror #18
 5f0:	74732f69 	ldrbtvc	r2, [r3], #-3945	; 0xfffff097
 5f4:	2d666661 	stclcs	6, cr6, [r6, #-388]!	; 0xfffffe7c
 5f8:	76697270 			; <UNDEFINED> instruction: 0x76697270
 5fc:	00657461 	rsbeq	r7, r5, r1, ror #8
 600:	4f495047 	svcmi	0x00495047
 604:	4e55465f 	mrcmi	6, 2, r4, cr5, cr15, {2}
 608:	4c415f43 	mcrrmi	15, 4, r5, r1, cr3
 60c:	47003054 	smlsdmi	r0, r4, r0, r3
 610:	5f4f4950 	svcpl	0x004f4950
 614:	434e5546 	movtmi	r5, #58694	; 0xe546
 618:	544c415f 	strbpl	r4, [ip], #-351	; 0xfffffea1
 61c:	50470031 	subpl	r0, r7, r1, lsr r0
 620:	465f4f49 	ldrbmi	r4, [pc], -r9, asr #30
 624:	5f434e55 	svcpl	0x00434e55
 628:	32544c41 	subscc	r4, r4, #16640	; 0x4100
 62c:	49504700 	ldmdbmi	r0, {r8, r9, sl, lr}^
 630:	55465f4f 	strbpl	r5, [r6, #-3919]	; 0xfffff0b1
 634:	415f434e 	cmpmi	pc, lr, asr #6
 638:	0033544c 	eorseq	r5, r3, ip, asr #8
 63c:	4f495047 	svcmi	0x00495047
 640:	4e55465f 	mrcmi	6, 2, r4, cr5, cr15, {2}
 644:	4c415f43 	mcrrmi	15, 4, r5, r1, cr3
 648:	62003554 	andvs	r3, r0, #84, 10	; 0x15000000
 64c:	00647561 	rsbeq	r7, r4, r1, ror #10
 650:	5f787561 	svcpl	0x00787561
 654:	62616e65 	rsbvs	r6, r1, #1616	; 0x650
 658:	0073656c 	rsbseq	r6, r3, ip, ror #10
 65c:	74726175 	ldrbtvc	r6, [r2], #-373	; 0xfffffe8b
 660:	7465675f 	strbtvc	r6, [r5], #-1887	; 0xfffff8a1
 664:	61750063 	cmnvs	r5, r3, rrx
 668:	745f7472 	ldrbvc	r7, [pc], #-1138	; 670 <__code_start__-0x7990>
 66c:	73695f78 	cmnvc	r9, #120, 30	; 0x1e0
 670:	706d655f 	rsbvc	r6, sp, pc, asr r5
 674:	62007974 	andvs	r7, r0, #116, 18	; 0x1d0000
 678:	5f647561 	svcpl	0x00647561
 67c:	006c6176 	rsbeq	r6, ip, r6, ror r1
 680:	6c746e63 	ldclvs	14, cr6, [r4], #-396	; 0xfffffe74
 684:	72617500 	rsbvc	r7, r1, #0, 10
 688:	61685f74 	smcvs	34292	; 0x85f4
 68c:	61645f73 	smcvs	17907	; 0x45f3
 690:	47006174 	smlsdxmi	r0, r4, r1, r6
 694:	5f4f4950 	svcpl	0x004f4950
 698:	434e5546 	movtmi	r5, #58694	; 0xe546
 69c:	544c415f 	strbpl	r4, [ip], #-351	; 0xfffffea1
 6a0:	726f0034 	rsbvc	r0, pc, #52, 0	; 0x34
 6a4:	336e695f 	cmncc	lr, #1556480	; 0x17c000
 6a8:	63730032 	cmnvs	r3, #50, 0	; 0x32
 6ac:	63746172 	cmnvs	r4, #-2147483620	; 0x8000001c
 6b0:	61750068 	cmnvs	r5, r8, rrx
 6b4:	47007472 	smlsdxmi	r0, r2, r4, r7
 6b8:	5f4f4950 	svcpl	0x004f4950
 6bc:	434e5546 	movtmi	r5, #58694	; 0xe546
 6c0:	504e495f 	subpl	r4, lr, pc, asr r9
 6c4:	67005455 	smlsdvs	r0, r5, r4, r5
 6c8:	5f6f6970 	svcpl	0x006f6970
 6cc:	5f746573 	svcpl	0x00746573
 6d0:	636e7566 	cmnvs	lr, #427819008	; 0x19800000
 6d4:	6e6f6974 			; <UNDEFINED> instruction: 0x6e6f6974
 6d8:	69706700 	ldmdbvs	r0!, {r8, r9, sl, sp, lr}^
 6dc:	6c635f6f 	stclvs	15, cr5, [r3], #-444	; 0xfffffe44
 6e0:	73003072 	movwvc	r3, #114	; 0x72
 6e4:	74666968 	strbtvc	r6, [r6], #-2408	; 0xfffff698
 6e8:	69706700 	ldmdbvs	r0!, {r8, r9, sl, sp, lr}^
 6ec:	65735f6f 	ldrbvs	r5, [r3, #-3951]!	; 0xfffff091
 6f0:	63003074 	movwvs	r3, #116	; 0x74
 6f4:	65727275 	ldrbvs	r7, [r2, #-629]!	; 0xfffffd8b
 6f8:	6700746e 	strvs	r7, [r0, -lr, ror #8]
 6fc:	5f6f6970 	svcpl	0x006f6970
 700:	74697277 	strbtvc	r7, [r9], #-631	; 0xfffffd89
 704:	70670065 	rsbvc	r0, r7, r5, rrx
 708:	735f6f69 	cmpvc	pc, #420	; 0x1a4
 70c:	695f7465 	ldmdbvs	pc, {r0, r2, r5, r6, sl, ip, sp, lr}^	; <UNPREDICTABLE>
 710:	7475706e 	ldrbtvc	r7, [r5], #-110	; 0xffffff92
 714:	69706700 	ldmdbvs	r0!, {r8, r9, sl, sp, lr}^
 718:	65735f6f 	ldrbvs	r5, [r3, #-3951]!	; 0xfffff091
 71c:	666f5f74 	uqsub16vs	r5, pc, r4	; <UNPREDICTABLE>
 720:	70670066 	rsbvc	r0, r7, r6, rrx
 724:	735f6f69 	cmpvc	pc, #420	; 0x1a4
 728:	6f5f7465 	svcvs	0x005f7465
 72c:	75707475 	ldrbvc	r7, [r0, #-1141]!	; 0xfffffb8b
 730:	70670074 	rsbvc	r0, r7, r4, ror r0
 734:	665f6f69 	ldrbvs	r6, [pc], -r9, ror #30
 738:	5f636e75 	svcpl	0x00636e75
 73c:	64610074 	strbtvs	r0, [r1], #-116	; 0xffffff8c
 740:	73657264 	cmnvc	r5, #100, 4	; 0x40000006
 744:	70670073 	rsbvc	r0, r7, r3, ror r0
 748:	6c5f6f69 	mrrcvs	15, 6, r6, pc, cr9	; <UNPREDICTABLE>
 74c:	00307665 	eorseq	r7, r0, r5, ror #12
 750:	6f697067 	svcvs	0x00697067
 754:	6c65735f 	stclvs	3, cr7, [r5], #-380	; 0xfffffe84
 758:	72730030 	rsbsvc	r0, r3, #48, 0	; 0x30
 75c:	70672f63 	rsbvc	r2, r7, r3, ror #30
 760:	632e6f69 			; <UNDEFINED> instruction: 0x632e6f69
 764:	69706700 	ldmdbvs	r0!, {r8, r9, sl, sp, lr}^
 768:	65735f6f 	ldrbvs	r5, [r3, #-3951]!	; 0xfffff091
 76c:	6e6f5f74 	mcrvs	15, 3, r5, cr15, cr4, {3}
 770:	746e6900 	strbtvc	r6, [lr], #-2304	; 0xfffff700
 774:	616e7265 	cmnvs	lr, r5, ror #4
 778:	75705f6c 	ldrbvc	r5, [r0, #-3948]!	; 0xfffff094
 77c:	61686374 	smcvs	34356	; 0x8634
 780:	70720072 	rsbsvc	r0, r2, r2, ror r0
 784:	65735f69 	ldrbvs	r5, [r3, #-3945]!	; 0xfffff097
 788:	75705f74 	ldrbvc	r5, [r0, #-3956]!	; 0xfffff08c
 78c:	6c006374 	stcvs	3, cr6, [r0], {116}	; 0x74
 790:	2f636269 	svccs	0x00636269
 794:	63747570 	cmnvs	r4, #112, 10	; 0x1c000000
 798:	2e726168 	rpwcssz	f6, f2, #0.0
 79c:	70720063 	rsbsvc	r0, r2, r3, rrx
 7a0:	65725f69 	ldrbvs	r5, [r2, #-3945]!	; 0xfffff097
 7a4:	5f746573 	svcpl	0x00746573
 7a8:	63747570 	cmnvs	r4, #112, 10	; 0x1c000000
 7ac:	62696c00 	rsbvs	r6, r9, #0, 24
 7b0:	74732f63 	ldrbtvc	r2, [r3], #-3939	; 0xfffff09d
 7b4:	74616372 	strbtvc	r6, [r1], #-882	; 0xfffffc8e
 7b8:	6400632e 	strvs	r6, [r0], #-814	; 0xfffffcd2
 7bc:	00747365 	rsbseq	r7, r4, r5, ror #6
 7c0:	657a6973 	ldrbvs	r6, [sl, #-2419]!	; 0xfffff68d
 7c4:	6c00745f 	cfstrsvs	mvf7, [r0], {95}	; 0x5f
 7c8:	2f636269 	svccs	0x00636269
 7cc:	6e727473 	mrcvs	4, 3, r7, cr2, cr3, {3}
 7d0:	2e706d63 	cdpcs	13, 7, cr6, cr0, cr3, {3}
 7d4:	Address 0x00000000000007d4 is out of bounds.


Disassembly of section .debug_frame:

00000000 <.debug_frame>:
   0:	0000000c 	andeq	r0, r0, ip
   4:	ffffffff 			; <UNDEFINED> instruction: 0xffffffff
   8:	7c020001 	stcvc	0, cr0, [r2], {1}
   c:	000d0c0e 	andeq	r0, sp, lr, lsl #24
  10:	00000014 	andeq	r0, r0, r4, lsl r0
  14:	00000000 	andeq	r0, r0, r0
  18:	00008034 	andeq	r8, r0, r4, lsr r0
  1c:	00000040 	andeq	r0, r0, r0, asr #32
  20:	84080e42 	strhi	r0, [r8], #-3650	; 0xfffff1be
  24:	00018e02 	andeq	r8, r1, r2, lsl #28
  28:	0000000c 	andeq	r0, r0, ip
  2c:	ffffffff 			; <UNDEFINED> instruction: 0xffffffff
  30:	7c020001 	stcvc	0, cr0, [r2], {1}
  34:	000d0c0e 	andeq	r0, sp, lr, lsl #24
  38:	00000014 	andeq	r0, r0, r4, lsl r0
  3c:	00000028 	andeq	r0, r0, r8, lsr #32
  40:	00008074 	andeq	r8, r0, r4, ror r0
  44:	0000001c 	andeq	r0, r0, ip, lsl r0
  48:	84080e42 	strhi	r0, [r8], #-3650	; 0xfffff1be
  4c:	00018e02 	andeq	r8, r1, r2, lsl #28
  50:	00000014 	andeq	r0, r0, r4, lsl r0
  54:	00000028 	andeq	r0, r0, r8, lsr #32
  58:	00008090 	muleq	r0, r0, r0
  5c:	0000001c 	andeq	r0, r0, ip, lsl r0
  60:	84080e42 	strhi	r0, [r8], #-3650	; 0xfffff1be
  64:	00018e02 	andeq	r8, r1, r2, lsl #28
  68:	00000014 	andeq	r0, r0, r4, lsl r0
  6c:	00000028 	andeq	r0, r0, r8, lsr #32
  70:	000080ac 	andeq	r8, r0, ip, lsr #1
  74:	0000005c 	andeq	r0, r0, ip, asr r0
  78:	8e040e52 	mcrhi	14, 0, r0, cr4, cr2, {2}
  7c:	100e4201 	andne	r4, lr, r1, lsl #4
  80:	00000014 	andeq	r0, r0, r4, lsl r0
  84:	00000028 	andeq	r0, r0, r8, lsr #32
  88:	00008108 	andeq	r8, r0, r8, lsl #2
  8c:	0000005c 	andeq	r0, r0, ip, asr r0
  90:	8e040e52 	mcrhi	14, 0, r0, cr4, cr2, {2}
  94:	100e4201 	andne	r4, lr, r1, lsl #4
  98:	00000018 	andeq	r0, r0, r8, lsl r0
  9c:	00000028 	andeq	r0, r0, r8, lsr #32
  a0:	00008164 	andeq	r8, r0, r4, ror #2
  a4:	00000060 	andeq	r0, r0, r0, rrx
  a8:	84100e42 	ldrhi	r0, [r0], #-3650	; 0xfffff1be
  ac:	86038504 	strhi	r8, [r3], -r4, lsl #10
  b0:	00018e02 	andeq	r8, r1, r2, lsl #28
  b4:	00000018 	andeq	r0, r0, r8, lsl r0
  b8:	00000028 	andeq	r0, r0, r8, lsr #32
  bc:	000081c4 	andeq	r8, r0, r4, asr #3
  c0:	00000064 	andeq	r0, r0, r4, rrx
  c4:	84100e42 	ldrhi	r0, [r0], #-3650	; 0xfffff1be
  c8:	86038504 	strhi	r8, [r3], -r4, lsl #10
  cc:	00018e02 	andeq	r8, r1, r2, lsl #28
  d0:	0000000c 	andeq	r0, r0, ip
  d4:	ffffffff 			; <UNDEFINED> instruction: 0xffffffff
  d8:	7c020001 	stcvc	0, cr0, [r2], {1}
  dc:	000d0c0e 	andeq	r0, sp, lr, lsl #24
  e0:	00000034 	andeq	r0, r0, r4, lsr r0
  e4:	000000d0 	ldrdeq	r0, [r0], -r0	; <UNPREDICTABLE>
  e8:	00008228 	andeq	r8, r0, r8, lsr #4
  ec:	00000058 	andeq	r0, r0, r8, asr r0
  f0:	80100e42 	andshi	r0, r0, r2, asr #28
  f4:	82038104 	andhi	r8, r3, #1
  f8:	42018302 	andmi	r8, r1, #134217728	; 0x8000000
  fc:	07841c0e 	streq	r1, [r4, lr, lsl #24]
 100:	058e0685 	streq	r0, [lr, #1669]	; 0x685
 104:	5c280e42 	stcpl	14, cr0, [r8], #-264	; 0xfffffef8
 108:	ce421c0e 	cdpgt	12, 4, cr1, cr2, cr14, {0}
 10c:	100ec4c5 	andne	ip, lr, r5, asr #9
 110:	c1c2c342 	bicgt	ip, r2, r2, asr #6
 114:	00000ec0 	andeq	r0, r0, r0, asr #29
 118:	0000000c 	andeq	r0, r0, ip
 11c:	ffffffff 			; <UNDEFINED> instruction: 0xffffffff
 120:	7c020001 	stcvc	0, cr0, [r2], {1}
 124:	000d0c0e 	andeq	r0, sp, lr, lsl #24
 128:	00000014 	andeq	r0, r0, r4, lsl r0
 12c:	00000118 	andeq	r0, r0, r8, lsl r1
 130:	00008280 	andeq	r8, r0, r0, lsl #5
 134:	00000034 	andeq	r0, r0, r4, lsr r0
 138:	84080e42 	strhi	r0, [r8], #-3650	; 0xfffff1be
 13c:	00018e02 	andeq	r8, r1, r2, lsl #28
 140:	0000000c 	andeq	r0, r0, ip
 144:	ffffffff 			; <UNDEFINED> instruction: 0xffffffff
 148:	7c020001 	stcvc	0, cr0, [r2], {1}
 14c:	000d0c0e 	andeq	r0, sp, lr, lsl #24
 150:	0000000c 	andeq	r0, r0, ip
 154:	00000140 	andeq	r0, r0, r0, asr #2
 158:	000082b4 			; <UNDEFINED> instruction: 0x000082b4
 15c:	00000014 	andeq	r0, r0, r4, lsl r0
 160:	0000000c 	andeq	r0, r0, ip
 164:	00000140 	andeq	r0, r0, r0, asr #2
 168:	000082c8 	andeq	r8, r0, r8, asr #5
 16c:	00000024 	andeq	r0, r0, r4, lsr #32
 170:	0000000c 	andeq	r0, r0, ip
 174:	00000140 	andeq	r0, r0, r0, asr #2
 178:	000082ec 	andeq	r8, r0, ip, ror #5
 17c:	00000038 	andeq	r0, r0, r8, lsr r0
 180:	00000024 	andeq	r0, r0, r4, lsr #32
 184:	00000140 	andeq	r0, r0, r0, asr #2
 188:	00008324 	andeq	r8, r0, r4, lsr #6
 18c:	000001b4 			; <UNDEFINED> instruction: 0x000001b4
 190:	84140e42 	ldrhi	r0, [r4], #-3650	; 0xfffff1be
 194:	86048505 	strhi	r8, [r4], -r5, lsl #10
 198:	8e028703 	cdphi	7, 0, cr8, cr2, cr3, {0}
 19c:	600e4201 	andvs	r4, lr, r1, lsl #4
 1a0:	0e0a9a02 	vmlaeq.f32	s18, s20, s4
 1a4:	000b4214 	andeq	r4, fp, r4, lsl r2
 1a8:	00000014 	andeq	r0, r0, r4, lsl r0
 1ac:	00000140 	andeq	r0, r0, r0, asr #2
 1b0:	000084d8 	ldrdeq	r8, [r0], -r8	; <UNPREDICTABLE>
 1b4:	00000064 	andeq	r0, r0, r4, rrx
 1b8:	8e040e54 	mcrhi	14, 0, r0, cr4, cr4, {2}
 1bc:	100e4201 	andne	r4, lr, r1, lsl #4
 1c0:	0000002c 	andeq	r0, r0, ip, lsr #32
 1c4:	00000140 	andeq	r0, r0, r0, asr #2
 1c8:	0000853c 	andeq	r8, r0, ip, lsr r5
 1cc:	000003a4 	andeq	r0, r0, r4, lsr #7
 1d0:	84240e42 	strthi	r0, [r4], #-3650	; 0xfffff1be
 1d4:	86088509 	strhi	r8, [r8], -r9, lsl #10
 1d8:	88068707 	stmdahi	r6, {r0, r1, r2, r8, r9, sl, pc}
 1dc:	8a048905 	bhi	1225f8 <__bss_end__+0x119268>
 1e0:	8e028b03 	vmlahi.f64	d8, d2, d3
 1e4:	b80e4201 	stmdalt	lr, {r0, r9, lr}
 1e8:	01b80302 			; <UNDEFINED> instruction: 0x01b80302
 1ec:	0000240e 	andeq	r2, r0, lr, lsl #8
 1f0:	0000000c 	andeq	r0, r0, ip
 1f4:	ffffffff 			; <UNDEFINED> instruction: 0xffffffff
 1f8:	7c020001 	stcvc	0, cr0, [r2], {1}
 1fc:	000d0c0e 	andeq	r0, sp, lr, lsl #24
 200:	00000014 	andeq	r0, r0, r4, lsl r0
 204:	000001f0 	strdeq	r0, [r0], -r0	; <UNPREDICTABLE>
 208:	000088e0 	andeq	r8, r0, r0, ror #17
 20c:	0000002c 	andeq	r0, r0, ip, lsr #32
 210:	84080e42 	strhi	r0, [r8], #-3650	; 0xfffff1be
 214:	00018e02 	andeq	r8, r1, r2, lsl #28
 218:	0000000c 	andeq	r0, r0, ip
 21c:	ffffffff 			; <UNDEFINED> instruction: 0xffffffff
 220:	7c020001 	stcvc	0, cr0, [r2], {1}
 224:	000d0c0e 	andeq	r0, sp, lr, lsl #24
 228:	00000014 	andeq	r0, r0, r4, lsl r0
 22c:	00000218 	andeq	r0, r0, r8, lsl r2
 230:	0000890c 	andeq	r8, r0, ip, lsl #18
 234:	00000030 	andeq	r0, r0, r0, lsr r0
 238:	84080e42 	strhi	r0, [r8], #-3650	; 0xfffff1be
 23c:	00018e02 	andeq	r8, r1, r2, lsl #28
 240:	0000000c 	andeq	r0, r0, ip
 244:	ffffffff 			; <UNDEFINED> instruction: 0xffffffff
 248:	7c020001 	stcvc	0, cr0, [r2], {1}
 24c:	000d0c0e 	andeq	r0, sp, lr, lsl #24
 250:	0000000c 	andeq	r0, r0, ip
 254:	00000240 	andeq	r0, r0, r0, asr #4
 258:	0000893c 	andeq	r8, r0, ip, lsr r9
 25c:	00000004 	andeq	r0, r0, r4
 260:	0000000c 	andeq	r0, r0, ip
 264:	ffffffff 			; <UNDEFINED> instruction: 0xffffffff
 268:	7c020001 	stcvc	0, cr0, [r2], {1}
 26c:	000d0c0e 	andeq	r0, sp, lr, lsl #24
 270:	0000000c 	andeq	r0, r0, ip
 274:	00000260 	andeq	r0, r0, r0, ror #4
 278:	00008940 	andeq	r8, r0, r0, asr #18
 27c:	00000018 	andeq	r0, r0, r8, lsl r0
 280:	0000000c 	andeq	r0, r0, ip
 284:	00000260 	andeq	r0, r0, r0, ror #4
 288:	00008958 	andeq	r8, r0, r8, asr r9
 28c:	00000014 	andeq	r0, r0, r4, lsl r0
 290:	00000014 	andeq	r0, r0, r4, lsl r0
 294:	00000260 	andeq	r0, r0, r0, ror #4
 298:	0000896c 	andeq	r8, r0, ip, ror #18
 29c:	00000050 	andeq	r0, r0, r0, asr r0
 2a0:	84080e42 	strhi	r0, [r8], #-3650	; 0xfffff1be
 2a4:	00018e02 	andeq	r8, r1, r2, lsl #28
 2a8:	0000000c 	andeq	r0, r0, ip
 2ac:	ffffffff 			; <UNDEFINED> instruction: 0xffffffff
 2b0:	7c020001 	stcvc	0, cr0, [r2], {1}
 2b4:	000d0c0e 	andeq	r0, sp, lr, lsl #24
 2b8:	0000000c 	andeq	r0, r0, ip
 2bc:	000002a8 	andeq	r0, r0, r8, lsr #5
 2c0:	000089bc 			; <UNDEFINED> instruction: 0x000089bc
 2c4:	00000018 	andeq	r0, r0, r8, lsl r0
 2c8:	00000014 	andeq	r0, r0, r4, lsl r0
 2cc:	000002a8 	andeq	r0, r0, r8, lsr #5
 2d0:	000089d4 	ldrdeq	r8, [r0], -r4
 2d4:	00000014 	andeq	r0, r0, r4, lsl r0
 2d8:	84080e42 	strhi	r0, [r8], #-3650	; 0xfffff1be
 2dc:	00018e02 	andeq	r8, r1, r2, lsl #28
 2e0:	00000014 	andeq	r0, r0, r4, lsl r0
 2e4:	000002a8 	andeq	r0, r0, r8, lsr #5
 2e8:	000089e8 	andeq	r8, r0, r8, ror #19
 2ec:	0000001c 	andeq	r0, r0, ip, lsl r0
 2f0:	84080e42 	strhi	r0, [r8], #-3650	; 0xfffff1be
 2f4:	00018e02 	andeq	r8, r1, r2, lsl #28
 2f8:	00000018 	andeq	r0, r0, r8, lsl r0
 2fc:	000002a8 	andeq	r0, r0, r8, lsr #5
 300:	00008a04 	andeq	r8, r0, r4, lsl #20
 304:	00000024 	andeq	r0, r0, r4, lsr #32
 308:	84100e42 	ldrhi	r0, [r0], #-3650	; 0xfffff1be
 30c:	86038504 	strhi	r8, [r3], -r4, lsl #10
 310:	00018e02 	andeq	r8, r1, r2, lsl #28
 314:	00000014 	andeq	r0, r0, r4, lsl r0
 318:	000002a8 	andeq	r0, r0, r8, lsr #5
 31c:	00008a28 	andeq	r8, r0, r8, lsr #20
 320:	00000018 	andeq	r0, r0, r8, lsl r0
 324:	84080e42 	strhi	r0, [r8], #-3650	; 0xfffff1be
 328:	00018e02 	andeq	r8, r1, r2, lsl #28
 32c:	00000014 	andeq	r0, r0, r4, lsl r0
 330:	000002a8 	andeq	r0, r0, r8, lsr #5
 334:	00008a40 	andeq	r8, r0, r0, asr #20
 338:	00000018 	andeq	r0, r0, r8, lsl r0
 33c:	84080e42 	strhi	r0, [r8], #-3650	; 0xfffff1be
 340:	00018e02 	andeq	r8, r1, r2, lsl #28
 344:	0000000c 	andeq	r0, r0, ip
 348:	ffffffff 			; <UNDEFINED> instruction: 0xffffffff
 34c:	7c020001 	stcvc	0, cr0, [r2], {1}
 350:	000d0c0e 	andeq	r0, sp, lr, lsl #24
 354:	00000018 	andeq	r0, r0, r8, lsl r0
 358:	00000344 	andeq	r0, r0, r4, asr #6
 35c:	00008a70 	andeq	r8, r0, r0, ror sl
 360:	00000020 	andeq	r0, r0, r0, lsr #32
 364:	84100e42 	ldrhi	r0, [r0], #-3650	; 0xfffff1be
 368:	86038504 	strhi	r8, [r3], -r4, lsl #10
 36c:	00018e02 	andeq	r8, r1, r2, lsl #28
 370:	00000014 	andeq	r0, r0, r4, lsl r0
 374:	00000344 	andeq	r0, r0, r4, asr #6
 378:	00008a90 	muleq	r0, r0, sl
 37c:	000000b0 	strheq	r0, [r0], -r0	; <UNPREDICTABLE>
 380:	84080e42 	strhi	r0, [r8], #-3650	; 0xfffff1be
 384:	00018e02 	andeq	r8, r1, r2, lsl #28
 388:	00000014 	andeq	r0, r0, r4, lsl r0
 38c:	00000344 	andeq	r0, r0, r4, asr #6
 390:	00008b40 	andeq	r8, r0, r0, asr #22
 394:	00000018 	andeq	r0, r0, r8, lsl r0
 398:	84080e42 	strhi	r0, [r8], #-3650	; 0xfffff1be
 39c:	00018e02 	andeq	r8, r1, r2, lsl #28
 3a0:	00000014 	andeq	r0, r0, r4, lsl r0
 3a4:	00000344 	andeq	r0, r0, r4, asr #6
 3a8:	00008b58 	andeq	r8, r0, r8, asr fp
 3ac:	00000020 	andeq	r0, r0, r0, lsr #32
 3b0:	84080e42 	strhi	r0, [r8], #-3650	; 0xfffff1be
 3b4:	00018e02 	andeq	r8, r1, r2, lsl #28
 3b8:	00000014 	andeq	r0, r0, r4, lsl r0
 3bc:	00000344 	andeq	r0, r0, r4, asr #6
 3c0:	00008b78 	andeq	r8, r0, r8, ror fp
 3c4:	00000030 	andeq	r0, r0, r0, lsr r0
 3c8:	84080e42 	strhi	r0, [r8], #-3650	; 0xfffff1be
 3cc:	00018e02 	andeq	r8, r1, r2, lsl #28
 3d0:	00000014 	andeq	r0, r0, r4, lsl r0
 3d4:	00000344 	andeq	r0, r0, r4, asr #6
 3d8:	00008ba8 	andeq	r8, r0, r8, lsr #23
 3dc:	00000030 	andeq	r0, r0, r0, lsr r0
 3e0:	84080e42 	strhi	r0, [r8], #-3650	; 0xfffff1be
 3e4:	00018e02 	andeq	r8, r1, r2, lsl #28
 3e8:	00000014 	andeq	r0, r0, r4, lsl r0
 3ec:	00000344 	andeq	r0, r0, r4, asr #6
 3f0:	00008bd8 	ldrdeq	r8, [r0], -r8	; <UNPREDICTABLE>
 3f4:	00000010 	andeq	r0, r0, r0, lsl r0
 3f8:	84080e42 	strhi	r0, [r8], #-3650	; 0xfffff1be
 3fc:	00018e02 	andeq	r8, r1, r2, lsl #28
 400:	00000014 	andeq	r0, r0, r4, lsl r0
 404:	00000344 	andeq	r0, r0, r4, asr #6
 408:	00008be8 	andeq	r8, r0, r8, ror #23
 40c:	00000020 	andeq	r0, r0, r0, lsr #32
 410:	84080e42 	strhi	r0, [r8], #-3650	; 0xfffff1be
 414:	00018e02 	andeq	r8, r1, r2, lsl #28
 418:	00000014 	andeq	r0, r0, r4, lsl r0
 41c:	00000344 	andeq	r0, r0, r4, asr #6
 420:	00008c08 	andeq	r8, r0, r8, lsl #24
 424:	00000014 	andeq	r0, r0, r4, lsl r0
 428:	84080e42 	strhi	r0, [r8], #-3650	; 0xfffff1be
 42c:	00018e02 	andeq	r8, r1, r2, lsl #28
 430:	0000000c 	andeq	r0, r0, ip
 434:	ffffffff 			; <UNDEFINED> instruction: 0xffffffff
 438:	7c020001 	stcvc	0, cr0, [r2], {1}
 43c:	000d0c0e 	andeq	r0, sp, lr, lsl #24
 440:	0000001c 	andeq	r0, r0, ip, lsl r0
 444:	00000430 	andeq	r0, r0, r0, lsr r4
 448:	00008c1c 	andeq	r8, r0, ip, lsl ip
 44c:	00000054 	andeq	r0, r0, r4, asr r0
 450:	84180e42 	ldrhi	r0, [r8], #-3650	; 0xfffff1be
 454:	86058506 	strhi	r8, [r5], -r6, lsl #10
 458:	88038704 	stmdahi	r3, {r2, r8, r9, sl, pc}
 45c:	00018e02 	andeq	r8, r1, r2, lsl #28
 460:	00000014 	andeq	r0, r0, r4, lsl r0
 464:	00000430 	andeq	r0, r0, r0, lsr r4
 468:	00008c70 	andeq	r8, r0, r0, ror ip
 46c:	00000010 	andeq	r0, r0, r0, lsl r0
 470:	84080e42 	strhi	r0, [r8], #-3650	; 0xfffff1be
 474:	00018e02 	andeq	r8, r1, r2, lsl #28
 478:	00000014 	andeq	r0, r0, r4, lsl r0
 47c:	00000430 	andeq	r0, r0, r0, lsr r4
 480:	00008c80 	andeq	r8, r0, r0, lsl #25
 484:	0000001c 	andeq	r0, r0, ip, lsl r0
 488:	84080e42 	strhi	r0, [r8], #-3650	; 0xfffff1be
 48c:	00018e02 	andeq	r8, r1, r2, lsl #28
 490:	00000014 	andeq	r0, r0, r4, lsl r0
 494:	00000430 	andeq	r0, r0, r0, lsr r4
 498:	00008c9c 	muleq	r0, ip, ip
 49c:	0000001c 	andeq	r0, r0, ip, lsl r0
 4a0:	84080e42 	strhi	r0, [r8], #-3650	; 0xfffff1be
 4a4:	00018e02 	andeq	r8, r1, r2, lsl #28
 4a8:	00000014 	andeq	r0, r0, r4, lsl r0
 4ac:	00000430 	andeq	r0, r0, r0, lsr r4
 4b0:	00008cb8 			; <UNDEFINED> instruction: 0x00008cb8
 4b4:	0000001c 	andeq	r0, r0, ip, lsl r0
 4b8:	84080e42 	strhi	r0, [r8], #-3650	; 0xfffff1be
 4bc:	00018e02 	andeq	r8, r1, r2, lsl #28
 4c0:	00000014 	andeq	r0, r0, r4, lsl r0
 4c4:	00000430 	andeq	r0, r0, r0, lsr r4
 4c8:	00008cd4 	ldrdeq	r8, [r0], -r4
 4cc:	00000010 	andeq	r0, r0, r0, lsl r0
 4d0:	84080e42 	strhi	r0, [r8], #-3650	; 0xfffff1be
 4d4:	00018e02 	andeq	r8, r1, r2, lsl #28
 4d8:	00000014 	andeq	r0, r0, r4, lsl r0
 4dc:	00000430 	andeq	r0, r0, r0, lsr r4
 4e0:	00008ce4 	andeq	r8, r0, r4, ror #25
 4e4:	00000020 	andeq	r0, r0, r0, lsr #32
 4e8:	84080e42 	strhi	r0, [r8], #-3650	; 0xfffff1be
 4ec:	00018e02 	andeq	r8, r1, r2, lsl #28
 4f0:	0000000c 	andeq	r0, r0, ip
 4f4:	ffffffff 			; <UNDEFINED> instruction: 0xffffffff
 4f8:	7c020001 	stcvc	0, cr0, [r2], {1}
 4fc:	000d0c0e 	andeq	r0, sp, lr, lsl #24
 500:	00000014 	andeq	r0, r0, r4, lsl r0
 504:	000004f0 	strdeq	r0, [r0], -r0	; <UNPREDICTABLE>
 508:	00008d04 	andeq	r8, r0, r4, lsl #26
 50c:	00000014 	andeq	r0, r0, r4, lsl r0
 510:	84080e42 	strhi	r0, [r8], #-3650	; 0xfffff1be
 514:	00018e02 	andeq	r8, r1, r2, lsl #28
 518:	0000000c 	andeq	r0, r0, ip
 51c:	000004f0 	strdeq	r0, [r0], -r0	; <UNPREDICTABLE>
 520:	00008d18 	andeq	r8, r0, r8, lsl sp
 524:	00000018 	andeq	r0, r0, r8, lsl r0
 528:	0000000c 	andeq	r0, r0, ip
 52c:	000004f0 	strdeq	r0, [r0], -r0	; <UNPREDICTABLE>
 530:	00008d30 	andeq	r8, r0, r0, lsr sp
 534:	00000010 	andeq	r0, r0, r0, lsl r0
 538:	0000000c 	andeq	r0, r0, ip
 53c:	ffffffff 			; <UNDEFINED> instruction: 0xffffffff
 540:	7c020001 	stcvc	0, cr0, [r2], {1}
 544:	000d0c0e 	andeq	r0, sp, lr, lsl #24
 548:	0000000c 	andeq	r0, r0, ip
 54c:	00000538 	andeq	r0, r0, r8, lsr r5
 550:	00008d40 	andeq	r8, r0, r0, asr #26
 554:	00000034 	andeq	r0, r0, r4, lsr r0
 558:	0000000c 	andeq	r0, r0, ip
 55c:	ffffffff 			; <UNDEFINED> instruction: 0xffffffff
 560:	7c020001 	stcvc	0, cr0, [r2], {1}
 564:	000d0c0e 	andeq	r0, sp, lr, lsl #24
 568:	0000000c 	andeq	r0, r0, ip
 56c:	00000558 	andeq	r0, r0, r8, asr r5
 570:	00008d74 	andeq	r8, r0, r4, ror sp
 574:	0000002c 	andeq	r0, r0, ip, lsr #32

Disassembly of section .debug_ranges:

00000000 <.debug_ranges>:
   0:	000003b8 			; <UNDEFINED> instruction: 0x000003b8
   4:	000004a4 	andeq	r0, r0, r4, lsr #9
   8:	000004ac 	andeq	r0, r0, ip, lsr #9
   c:	000005d0 	ldrdeq	r0, [r0], -r0	; <UNPREDICTABLE>
	...
  18:	00008940 	andeq	r8, r0, r0, asr #18
  1c:	000089bc 			; <UNDEFINED> instruction: 0x000089bc
	...
  28:	00008d74 	andeq	r8, r0, r4, ror sp
  2c:	00008da0 	andeq	r8, r0, r0, lsr #27
	...
