
1-set-n-output.elf:     file format elf32-littlearm


Disassembly of section .text:

00008000 <__code_start__>:
    8000:	e3a00013 	mov	r0, #19, 0
    8004:	e3800080 	orr	r0, r0, #128, 0	; 0x80
    8008:	e129f000 	msr	CPSR_fc, r0
    800c:	e3a01000 	mov	r1, #0, 0
    8010:	ee071f95 	mcr	15, 0, r1, cr7, cr5, {4}
    8014:	e3a0d302 	mov	sp, #134217728	; 0x8000000
    8018:	e3a0b000 	mov	fp, #0, 0
    801c:	eb000241 	bl	8928 <_cstart>
    8020:	eb000258 	bl	8988 <rpi_reboot>

00008024 <PUT32>:
    8024:	e5801000 	str	r1, [r0]
    8028:	e12fff1e 	bx	lr

0000802c <GET32>:
    802c:	e5900000 	ldr	r0, [r0]
    8030:	e12fff1e 	bx	lr

00008034 <notmain>:
    8034:	e92d4070 	push	{r4, r5, r6, lr}
    8038:	eb00029b 	bl	8aac <uart_init>
    803c:	e3a04014 	mov	r4, #20, 0
    8040:	ea00000c 	b	8078 <notmain+0x44>
    8044:	e59f5038 	ldr	r5, [pc, #56]	; 8084 <notmain+0x50>
    8048:	e1a01005 	mov	r1, r5
    804c:	e59f0034 	ldr	r0, [pc, #52]	; 8088 <notmain+0x54>
    8050:	eb00007b 	bl	8244 <printk>
    8054:	e3a00000 	mov	r0, #0, 0
    8058:	eb00001a 	bl	80c8 <trace_start>
    805c:	e1a00004 	mov	r0, r4
    8060:	eb000309 	bl	8c8c <gpio_set_output>
    8064:	eb00002e 	bl	8124 <trace_stop>
    8068:	e1a01005 	mov	r1, r5
    806c:	e59f0018 	ldr	r0, [pc, #24]	; 808c <notmain+0x58>
    8070:	eb000073 	bl	8244 <printk>
    8074:	e2844001 	add	r4, r4, #1, 0
    8078:	e354001a 	cmp	r4, #26, 0
    807c:	dafffff0 	ble	8044 <notmain+0x10>
    8080:	eb00021d 	bl	88fc <clean_reboot>
    8084:	00008dc0 	andeq	r8, r0, r0, asr #27
    8088:	00008dd4 	ldrdeq	r8, [r0], -r4
    808c:	00008dec 	andeq	r8, r0, ip, ror #27

00008090 <emit_put32>:
    8090:	e92d4010 	push	{r4, lr}
    8094:	e1a02001 	mov	r2, r1
    8098:	e1a01000 	mov	r1, r0
    809c:	e59f0004 	ldr	r0, [pc, #4]	; 80a8 <emit_put32+0x18>
    80a0:	eb000067 	bl	8244 <printk>
    80a4:	e8bd8010 	pop	{r4, pc}
    80a8:	00008df8 	strdeq	r8, [r0], -r8	; <UNPREDICTABLE>

000080ac <emit_get32>:
    80ac:	e92d4010 	push	{r4, lr}
    80b0:	e1a02001 	mov	r2, r1
    80b4:	e1a01000 	mov	r1, r0
    80b8:	e59f0004 	ldr	r0, [pc, #4]	; 80c4 <emit_get32+0x18>
    80bc:	eb000060 	bl	8244 <printk>
    80c0:	e8bd8010 	pop	{r4, pc}
    80c4:	00008e0c 	andeq	r8, r0, ip, lsl #28

000080c8 <trace_start>:
    80c8:	e59f3040 	ldr	r3, [pc, #64]	; 8110 <trace_start+0x48>
    80cc:	e5933000 	ldr	r3, [r3]
    80d0:	e3530000 	cmp	r3, #0, 0
    80d4:	1a000003 	bne	80e8 <trace_start+0x20>
    80d8:	e59f3030 	ldr	r3, [pc, #48]	; 8110 <trace_start+0x48>
    80dc:	e3a02001 	mov	r2, #1, 0
    80e0:	e5832000 	str	r2, [r3]
    80e4:	e12fff1e 	bx	lr
    80e8:	e52de004 	push	{lr}		; (str lr, [sp, #-4]!)
    80ec:	e24dd00c 	sub	sp, sp, #12, 0
    80f0:	e59f301c 	ldr	r3, [pc, #28]	; 8114 <trace_start+0x4c>
    80f4:	e58d3000 	str	r3, [sp]
    80f8:	e3a0302f 	mov	r3, #47, 0	; 0x2f
    80fc:	e59f2014 	ldr	r2, [pc, #20]	; 8118 <trace_start+0x50>
    8100:	e59f1014 	ldr	r1, [pc, #20]	; 811c <trace_start+0x54>
    8104:	e59f0014 	ldr	r0, [pc, #20]	; 8120 <trace_start+0x58>
    8108:	eb00004d 	bl	8244 <printk>
    810c:	eb0001fa 	bl	88fc <clean_reboot>
    8110:	00008fa4 	andeq	r8, r0, r4, lsr #31
    8114:	00008e44 	andeq	r8, r0, r4, asr #28
    8118:	00008e6c 	andeq	r8, r0, ip, ror #28
    811c:	00008e20 	andeq	r8, r0, r0, lsr #28
    8120:	00008e30 	andeq	r8, r0, r0, lsr lr

00008124 <trace_stop>:
    8124:	e59f3040 	ldr	r3, [pc, #64]	; 816c <trace_stop+0x48>
    8128:	e5933000 	ldr	r3, [r3]
    812c:	e3530001 	cmp	r3, #1, 0
    8130:	1a000003 	bne	8144 <trace_stop+0x20>
    8134:	e59f3030 	ldr	r3, [pc, #48]	; 816c <trace_stop+0x48>
    8138:	e3a02000 	mov	r2, #0, 0
    813c:	e5832000 	str	r2, [r3]
    8140:	e12fff1e 	bx	lr
    8144:	e52de004 	push	{lr}		; (str lr, [sp, #-4]!)
    8148:	e24dd00c 	sub	sp, sp, #12, 0
    814c:	e59f301c 	ldr	r3, [pc, #28]	; 8170 <trace_stop+0x4c>
    8150:	e58d3000 	str	r3, [sp]
    8154:	e3a03036 	mov	r3, #54, 0	; 0x36
    8158:	e59f2014 	ldr	r2, [pc, #20]	; 8174 <trace_stop+0x50>
    815c:	e59f1014 	ldr	r1, [pc, #20]	; 8178 <trace_stop+0x54>
    8160:	e59f0014 	ldr	r0, [pc, #20]	; 817c <trace_stop+0x58>
    8164:	eb000036 	bl	8244 <printk>
    8168:	eb0001e3 	bl	88fc <clean_reboot>
    816c:	00008fa4 	andeq	r8, r0, r4, lsr #31
    8170:	00008e58 	andeq	r8, r0, r8, asr lr
    8174:	00008e78 	andeq	r8, r0, r8, ror lr
    8178:	00008e20 	andeq	r8, r0, r0, lsr #28
    817c:	00008e30 	andeq	r8, r0, r0, lsr lr

00008180 <__wrap_PUT32>:
    8180:	e92d4070 	push	{r4, r5, r6, lr}
    8184:	e1a04000 	mov	r4, r0
    8188:	e1a05001 	mov	r5, r1
    818c:	e59f3044 	ldr	r3, [pc, #68]	; 81d8 <__wrap_PUT32+0x58>
    8190:	e5933000 	ldr	r3, [r3]
    8194:	e3530001 	cmp	r3, #1, 0
    8198:	0a000003 	beq	81ac <__wrap_PUT32+0x2c>
    819c:	e1a01005 	mov	r1, r5
    81a0:	e1a00004 	mov	r0, r4
    81a4:	ebffff9e 	bl	8024 <PUT32>
    81a8:	e8bd8070 	pop	{r4, r5, r6, pc}
    81ac:	e59f3028 	ldr	r3, [pc, #40]	; 81dc <__wrap_PUT32+0x5c>
    81b0:	e5933000 	ldr	r3, [r3]
    81b4:	e3530000 	cmp	r3, #0, 0
    81b8:	1afffff7 	bne	819c <__wrap_PUT32+0x1c>
    81bc:	e59f6018 	ldr	r6, [pc, #24]	; 81dc <__wrap_PUT32+0x5c>
    81c0:	e3a03001 	mov	r3, #1, 0
    81c4:	e5863000 	str	r3, [r6]
    81c8:	ebffffb0 	bl	8090 <emit_put32>
    81cc:	e3a03000 	mov	r3, #0, 0
    81d0:	e5863000 	str	r3, [r6]
    81d4:	eafffff0 	b	819c <__wrap_PUT32+0x1c>
    81d8:	00008fa4 	andeq	r8, r0, r4, lsr #31
    81dc:	000093a8 	andeq	r9, r0, r8, lsr #7

000081e0 <__wrap_GET32>:
    81e0:	e92d4070 	push	{r4, r5, r6, lr}
    81e4:	e1a05000 	mov	r5, r0
    81e8:	ebffff8f 	bl	802c <GET32>
    81ec:	e1a04000 	mov	r4, r0
    81f0:	e59f3044 	ldr	r3, [pc, #68]	; 823c <__wrap_GET32+0x5c>
    81f4:	e5933000 	ldr	r3, [r3]
    81f8:	e3530001 	cmp	r3, #1, 0
    81fc:	0a000001 	beq	8208 <__wrap_GET32+0x28>
    8200:	e1a00004 	mov	r0, r4
    8204:	e8bd8070 	pop	{r4, r5, r6, pc}
    8208:	e59f3030 	ldr	r3, [pc, #48]	; 8240 <__wrap_GET32+0x60>
    820c:	e5933000 	ldr	r3, [r3]
    8210:	e3530000 	cmp	r3, #0, 0
    8214:	1afffff9 	bne	8200 <__wrap_GET32+0x20>
    8218:	e59f6020 	ldr	r6, [pc, #32]	; 8240 <__wrap_GET32+0x60>
    821c:	e3a03001 	mov	r3, #1, 0
    8220:	e5863000 	str	r3, [r6]
    8224:	e1a01000 	mov	r1, r0
    8228:	e1a00005 	mov	r0, r5
    822c:	ebffff9e 	bl	80ac <emit_get32>
    8230:	e3a03000 	mov	r3, #0, 0
    8234:	e5863000 	str	r3, [r6]
    8238:	eafffff0 	b	8200 <__wrap_GET32+0x20>
    823c:	00008fa4 	andeq	r8, r0, r4, lsr #31
    8240:	000093a8 	andeq	r9, r0, r8, lsr #7

00008244 <printk>:
    8244:	e92d000f 	push	{r0, r1, r2, r3}
    8248:	e92d4030 	push	{r4, r5, lr}
    824c:	e24dd00c 	sub	sp, sp, #12, 0
    8250:	e28d301c 	add	r3, sp, #28, 0
    8254:	e58d3004 	str	r3, [sp, #4]
    8258:	e59f5034 	ldr	r5, [pc, #52]	; 8294 <printk+0x50>
    825c:	e59d2018 	ldr	r2, [sp, #24]
    8260:	e3a01b01 	mov	r1, #1024	; 0x400
    8264:	e1a00005 	mov	r0, r5
    8268:	eb0000ba 	bl	8558 <va_printk>
    826c:	e1a04000 	mov	r4, r0
    8270:	e59f3020 	ldr	r3, [pc, #32]	; 8298 <printk+0x54>
    8274:	e5933000 	ldr	r3, [r3]
    8278:	e1a00005 	mov	r0, r5
    827c:	e12fff33 	blx	r3
    8280:	e1a00004 	mov	r0, r4
    8284:	e28dd00c 	add	sp, sp, #12, 0
    8288:	e8bd4030 	pop	{r4, r5, lr}
    828c:	e28dd010 	add	sp, sp, #16, 0
    8290:	e12fff1e 	bx	lr
    8294:	00008fa8 	andeq	r8, r0, r8, lsr #31
    8298:	00008f9c 	muleq	r0, ip, pc	; <UNPREDICTABLE>

0000829c <internal_putk>:
    829c:	e92d4010 	push	{r4, lr}
    82a0:	e1a04000 	mov	r4, r0
    82a4:	e5d40000 	ldrb	r0, [r4]
    82a8:	e3500000 	cmp	r0, #0, 0
    82ac:	0a000004 	beq	82c4 <internal_putk+0x28>
    82b0:	e59f3014 	ldr	r3, [pc, #20]	; 82cc <internal_putk+0x30>
    82b4:	e5933000 	ldr	r3, [r3]
    82b8:	e12fff33 	blx	r3
    82bc:	e2844001 	add	r4, r4, #1, 0
    82c0:	eafffff7 	b	82a4 <internal_putk+0x8>
    82c4:	e3a00001 	mov	r0, #1, 0
    82c8:	e8bd8010 	pop	{r4, pc}
    82cc:	00008fa0 	andeq	r8, r0, r0, lsr #31

000082d0 <isdigit>:
    82d0:	e2400030 	sub	r0, r0, #48, 0	; 0x30
    82d4:	e3500009 	cmp	r0, #9, 0
    82d8:	83a00000 	movhi	r0, #0, 0
    82dc:	93a00001 	movls	r0, #1, 0
    82e0:	e12fff1e 	bx	lr

000082e4 <pad>:
    82e4:	e0401001 	sub	r1, r0, r1
    82e8:	e1510002 	cmp	r1, r2
    82ec:	b3a03020 	movlt	r3, #32, 0
    82f0:	b4c03001 	strblt	r3, [r0], #1
    82f4:	b2811001 	addlt	r1, r1, #1, 0
    82f8:	bafffffa 	blt	82e8 <pad+0x4>
    82fc:	e3a03000 	mov	r3, #0, 0
    8300:	e5c03000 	strb	r3, [r0]
    8304:	e12fff1e 	bx	lr

00008308 <reverse>:
    8308:	e042c003 	sub	ip, r2, r3
    830c:	e28cc001 	add	ip, ip, #1, 0
    8310:	e15c0001 	cmp	ip, r1
    8314:	c04cc001 	subgt	ip, ip, r1
    8318:	c083300c 	addgt	r3, r3, ip
    831c:	e2421001 	sub	r1, r2, #1, 0
    8320:	e1a02000 	mov	r2, r0
    8324:	e1510003 	cmp	r1, r3
    8328:	2451c001 	ldrbcs	ip, [r1], #-1
    832c:	24c2c001 	strbcs	ip, [r2], #1
    8330:	2afffffb 	bcs	8324 <reverse+0x1c>
    8334:	e3a03000 	mov	r3, #0, 0
    8338:	e5c23000 	strb	r3, [r2]
    833c:	e12fff1e 	bx	lr

00008340 <emit>:
    8340:	e92d40f0 	push	{r4, r5, r6, r7, lr}
    8344:	e24dd04c 	sub	sp, sp, #76, 0	; 0x4c
    8348:	e1a05001 	mov	r5, r1
    834c:	e1a04002 	mov	r4, r2
    8350:	e59d2060 	ldr	r2, [sp, #96]	; 0x60
    8354:	e1520004 	cmp	r2, r4
    8358:	c2442001 	subgt	r2, r4, #1, 0
    835c:	e1a0c003 	mov	ip, r3
    8360:	e2400002 	sub	r0, r0, #2, 0
    8364:	e350000e 	cmp	r0, #14, 0
    8368:	979ff100 	ldrls	pc, [pc, r0, lsl #2]
    836c:	ea000050 	b	84b4 <emit+0x174>
    8370:	0000848c 	andeq	r8, r0, ip, lsl #9
    8374:	000084b4 			; <UNDEFINED> instruction: 0x000084b4
    8378:	000084b4 			; <UNDEFINED> instruction: 0x000084b4
    837c:	000084b4 			; <UNDEFINED> instruction: 0x000084b4
    8380:	000084b4 			; <UNDEFINED> instruction: 0x000084b4
    8384:	000084b4 			; <UNDEFINED> instruction: 0x000084b4
    8388:	00008480 	andeq	r8, r0, r0, lsl #9
    838c:	000084b4 			; <UNDEFINED> instruction: 0x000084b4
    8390:	000083ac 	andeq	r8, r0, ip, lsr #7
    8394:	000084b4 			; <UNDEFINED> instruction: 0x000084b4
    8398:	000084b4 			; <UNDEFINED> instruction: 0x000084b4
    839c:	000084b4 			; <UNDEFINED> instruction: 0x000084b4
    83a0:	000084b4 			; <UNDEFINED> instruction: 0x000084b4
    83a4:	000084b4 			; <UNDEFINED> instruction: 0x000084b4
    83a8:	00008424 	andeq	r8, r0, r4, lsr #8
    83ac:	e59d1064 	ldr	r1, [sp, #100]	; 0x64
    83b0:	e2511000 	subs	r1, r1, #0, 0
    83b4:	13a01001 	movne	r1, #1, 0
    83b8:	e0111fa3 	ands	r1, r1, r3, lsr #31
    83bc:	0a000016 	beq	841c <emit+0xdc>
    83c0:	e263c000 	rsb	ip, r3, #0, 0
    83c4:	e3a06001 	mov	r6, #1, 0
    83c8:	e28d0008 	add	r0, sp, #8, 0
    83cc:	e59f3100 	ldr	r3, [pc, #256]	; 84d4 <emit+0x194>
    83d0:	e0831c93 	umull	r1, r3, r3, ip
    83d4:	e1a031a3 	lsr	r3, r3, #3
    83d8:	e1a0e003 	mov	lr, r3
    83dc:	e0833103 	add	r3, r3, r3, lsl #2
    83e0:	e04c3083 	sub	r3, ip, r3, lsl #1
    83e4:	e1a01000 	mov	r1, r0
    83e8:	e2800001 	add	r0, r0, #1, 0
    83ec:	e59f70e4 	ldr	r7, [pc, #228]	; 84d8 <emit+0x198>
    83f0:	e7d73003 	ldrb	r3, [r7, r3]
    83f4:	e5c13000 	strb	r3, [r1]
    83f8:	e1a0300c 	mov	r3, ip
    83fc:	e1a0c00e 	mov	ip, lr
    8400:	e3530009 	cmp	r3, #9, 0
    8404:	8afffff0 	bhi	83cc <emit+0x8c>
    8408:	e3560000 	cmp	r6, #0, 0
    840c:	13a0302d 	movne	r3, #45, 0	; 0x2d
    8410:	15c03000 	strbne	r3, [r0]
    8414:	12810002 	addne	r0, r1, #2, 0
    8418:	ea00000f 	b	845c <emit+0x11c>
    841c:	e3a06000 	mov	r6, #0, 0
    8420:	eaffffe8 	b	83c8 <emit+0x88>
    8424:	e28d1008 	add	r1, sp, #8, 0
    8428:	e20c000f 	and	r0, ip, #15, 0
    842c:	e59fe0a8 	ldr	lr, [pc, #168]	; 84dc <emit+0x19c>
    8430:	e7de0000 	ldrb	r0, [lr, r0]
    8434:	e5c10000 	strb	r0, [r1]
    8438:	e2811001 	add	r1, r1, #1, 0
    843c:	e35c000f 	cmp	ip, #15, 0
    8440:	e1a0c22c 	lsr	ip, ip, #4
    8444:	8afffff7 	bhi	8428 <emit+0xe8>
    8448:	e1a00001 	mov	r0, r1
    844c:	e3a03078 	mov	r3, #120, 0	; 0x78
    8450:	e4c03002 	strb	r3, [r0], #2
    8454:	e3a03030 	mov	r3, #48, 0	; 0x30
    8458:	e5c13001 	strb	r3, [r1, #1]
    845c:	e28d1008 	add	r1, sp, #8, 0
    8460:	ebffff9f 	bl	82e4 <pad>
    8464:	e1a02000 	mov	r2, r0
    8468:	e28d3008 	add	r3, sp, #8, 0
    846c:	e1a01004 	mov	r1, r4
    8470:	e1a00005 	mov	r0, r5
    8474:	ebffffa3 	bl	8308 <reverse>
    8478:	e28dd04c 	add	sp, sp, #76, 0	; 0x4c
    847c:	e8bd80f0 	pop	{r4, r5, r6, r7, pc}
    8480:	e5cd3008 	strb	r3, [sp, #8]
    8484:	e28d0009 	add	r0, sp, #9, 0
    8488:	eafffff3 	b	845c <emit+0x11c>
    848c:	e28d0008 	add	r0, sp, #8, 0
    8490:	e20c1001 	and	r1, ip, #1, 0
    8494:	e59fe044 	ldr	lr, [pc, #68]	; 84e0 <emit+0x1a0>
    8498:	e7de1001 	ldrb	r1, [lr, r1]
    849c:	e5c01000 	strb	r1, [r0]
    84a0:	e2800001 	add	r0, r0, #1, 0
    84a4:	e35c0001 	cmp	ip, #1, 0
    84a8:	e1a0c0ac 	lsr	ip, ip, #1
    84ac:	8afffff7 	bhi	8490 <emit+0x150>
    84b0:	eaffffe9 	b	845c <emit+0x11c>
    84b4:	e59f3028 	ldr	r3, [pc, #40]	; 84e4 <emit+0x1a4>
    84b8:	e58d3000 	str	r3, [sp]
    84bc:	e3a03079 	mov	r3, #121, 0	; 0x79
    84c0:	e59f2020 	ldr	r2, [pc, #32]	; 84e8 <emit+0x1a8>
    84c4:	e59f1020 	ldr	r1, [pc, #32]	; 84ec <emit+0x1ac>
    84c8:	e59f0020 	ldr	r0, [pc, #32]	; 84f0 <emit+0x1b0>
    84cc:	ebffff5c 	bl	8244 <printk>
    84d0:	eb000109 	bl	88fc <clean_reboot>
    84d4:	cccccccd 	stclgt	12, cr12, [ip], {205}	; 0xcd
    84d8:	00008e9c 	muleq	r0, ip, lr
    84dc:	00008ea8 	andeq	r8, r0, r8, lsr #29
    84e0:	00008ebc 			; <UNDEFINED> instruction: 0x00008ebc
    84e4:	00008e98 	muleq	r0, r8, lr
    84e8:	00008f6c 	andeq	r8, r0, ip, ror #30
    84ec:	00008e84 	andeq	r8, r0, r4, lsl #29
    84f0:	00008e30 	andeq	r8, r0, r0, lsr lr

000084f4 <rpi_set_output>:
    84f4:	e3500000 	cmp	r0, #0, 0
    84f8:	0a000006 	beq	8518 <rpi_set_output+0x24>
    84fc:	e59f303c 	ldr	r3, [pc, #60]	; 8540 <rpi_set_output+0x4c>
    8500:	e5830000 	str	r0, [r3]
    8504:	e3510000 	cmp	r1, #0, 0
    8508:	012fff1e 	bxeq	lr
    850c:	e59f3030 	ldr	r3, [pc, #48]	; 8544 <rpi_set_output+0x50>
    8510:	e5831000 	str	r1, [r3]
    8514:	e12fff1e 	bx	lr
    8518:	e52de004 	push	{lr}		; (str lr, [sp, #-4]!)
    851c:	e24dd00c 	sub	sp, sp, #12, 0
    8520:	e59f3020 	ldr	r3, [pc, #32]	; 8548 <rpi_set_output+0x54>
    8524:	e58d3000 	str	r3, [sp]
    8528:	e3a03020 	mov	r3, #32, 0
    852c:	e59f2018 	ldr	r2, [pc, #24]	; 854c <rpi_set_output+0x58>
    8530:	e59f1018 	ldr	r1, [pc, #24]	; 8550 <rpi_set_output+0x5c>
    8534:	e59f0018 	ldr	r0, [pc, #24]	; 8554 <rpi_set_output+0x60>
    8538:	ebffff41 	bl	8244 <printk>
    853c:	eb0000ee 	bl	88fc <clean_reboot>
    8540:	00008fa0 	andeq	r8, r0, r0, lsr #31
    8544:	00008f9c 	muleq	r0, ip, pc	; <UNPREDICTABLE>
    8548:	00008ec0 	andeq	r8, r0, r0, asr #29
    854c:	00008f74 	andeq	r8, r0, r4, ror pc
    8550:	00008e84 	andeq	r8, r0, r4, lsl #29
    8554:	00008e30 	andeq	r8, r0, r0, lsr lr

00008558 <va_printk>:
    8558:	e92d4ff0 	push	{r4, r5, r6, r7, r8, r9, sl, fp, lr}
    855c:	e24ddf45 	sub	sp, sp, #276	; 0x114
    8560:	e1a09000 	mov	r9, r0
    8564:	e58d2008 	str	r2, [sp, #8]
    8568:	e58d300c 	str	r3, [sp, #12]
    856c:	e2411001 	sub	r1, r1, #1, 0
    8570:	e0808001 	add	r8, r0, r1
    8574:	e3a03000 	mov	r3, #0, 0
    8578:	e5c03000 	strb	r3, [r0]
    857c:	e1a04000 	mov	r4, r0
    8580:	e1a06002 	mov	r6, r2
    8584:	ea000001 	b	8590 <va_printk+0x38>
    8588:	e2866001 	add	r6, r6, #1, 0
    858c:	e4c43001 	strb	r3, [r4], #1
    8590:	e5d63000 	ldrb	r3, [r6]
    8594:	e3530000 	cmp	r3, #0, 0
    8598:	0a0000c8 	beq	88c0 <va_printk+0x368>
    859c:	e1540008 	cmp	r4, r8
    85a0:	2a0000c6 	bcs	88c0 <va_printk+0x368>
    85a4:	e3530025 	cmp	r3, #37, 0	; 0x25
    85a8:	1afffff6 	bne	8588 <va_printk+0x30>
    85ac:	e5d62001 	ldrb	r2, [r6, #1]
    85b0:	e3520025 	cmp	r2, #37, 0	; 0x25
    85b4:	04c43001 	strbeq	r3, [r4], #1
    85b8:	02866002 	addeq	r6, r6, #2, 0
    85bc:	0afffff3 	beq	8590 <va_printk+0x38>
    85c0:	e2866001 	add	r6, r6, #1, 0
    85c4:	e3a05000 	mov	r5, #0, 0
    85c8:	e5d67000 	ldrb	r7, [r6]
    85cc:	e1a0a007 	mov	sl, r7
    85d0:	e1a00007 	mov	r0, r7
    85d4:	ebffff3d 	bl	82d0 <isdigit>
    85d8:	e3500000 	cmp	r0, #0, 0
    85dc:	0a000004 	beq	85f4 <va_printk+0x9c>
    85e0:	e0855105 	add	r5, r5, r5, lsl #2
    85e4:	e0875085 	add	r5, r7, r5, lsl #1
    85e8:	e2455030 	sub	r5, r5, #48, 0	; 0x30
    85ec:	e2866001 	add	r6, r6, #1, 0
    85f0:	eafffff4 	b	85c8 <va_printk+0x70>
    85f4:	e355001f 	cmp	r5, #31, 0
    85f8:	8a00001a 	bhi	8668 <va_printk+0x110>
    85fc:	e2477062 	sub	r7, r7, #98, 0	; 0x62
    8600:	e3570016 	cmp	r7, #22, 0
    8604:	979ff107 	ldrls	pc, [pc, r7, lsl #2]
    8608:	ea000094 	b	8860 <va_printk+0x308>
    860c:	000087e4 	andeq	r8, r0, r4, ror #15
    8610:	0000882c 	andeq	r8, r0, ip, lsr #16
    8614:	00008744 	andeq	r8, r0, r4, asr #14
    8618:	00008860 	andeq	r8, r0, r0, ror #16
    861c:	0000872c 	andeq	r8, r0, ip, lsr #14
    8620:	00008860 	andeq	r8, r0, r0, ror #16
    8624:	00008860 	andeq	r8, r0, r0, ror #16
    8628:	00008860 	andeq	r8, r0, r0, ror #16
    862c:	00008860 	andeq	r8, r0, r0, ror #16
    8630:	00008860 	andeq	r8, r0, r0, ror #16
    8634:	00008688 	andeq	r8, r0, r8, lsl #13
    8638:	00008860 	andeq	r8, r0, r0, ror #16
    863c:	00008860 	andeq	r8, r0, r0, ror #16
    8640:	00008860 	andeq	r8, r0, r0, ror #16
    8644:	000087b0 			; <UNDEFINED> instruction: 0x000087b0
    8648:	00008860 	andeq	r8, r0, r0, ror #16
    864c:	00008860 	andeq	r8, r0, r0, ror #16
    8650:	00008818 	andeq	r8, r0, r8, lsl r8
    8654:	00008860 	andeq	r8, r0, r0, ror #16
    8658:	0000877c 	andeq	r8, r0, ip, ror r7
    865c:	00008860 	andeq	r8, r0, r0, ror #16
    8660:	00008860 	andeq	r8, r0, r0, ror #16
    8664:	000087b0 			; <UNDEFINED> instruction: 0x000087b0
    8668:	e59f3264 	ldr	r3, [pc, #612]	; 88d4 <va_printk+0x37c>
    866c:	e58d3000 	str	r3, [sp]
    8670:	e3a03098 	mov	r3, #152, 0	; 0x98
    8674:	e59f225c 	ldr	r2, [pc, #604]	; 88d8 <va_printk+0x380>
    8678:	e59f125c 	ldr	r1, [pc, #604]	; 88dc <va_printk+0x384>
    867c:	e59f025c 	ldr	r0, [pc, #604]	; 88e0 <va_printk+0x388>
    8680:	ebfffeef 	bl	8244 <printk>
    8684:	eb00009c 	bl	88fc <clean_reboot>
    8688:	e3a02003 	mov	r2, #3, 0
    868c:	e59f1250 	ldr	r1, [pc, #592]	; 88e4 <va_printk+0x38c>
    8690:	e1a00006 	mov	r0, r6
    8694:	eb0001bd 	bl	8d90 <strncmp>
    8698:	e3500000 	cmp	r0, #0, 0
    869c:	1a00001a 	bne	870c <va_printk+0x1b4>
    86a0:	e2866002 	add	r6, r6, #2, 0
    86a4:	e59d300c 	ldr	r3, [sp, #12]
    86a8:	e2833007 	add	r3, r3, #7, 0
    86ac:	e3c33007 	bic	r3, r3, #7, 0
    86b0:	e2832008 	add	r2, r3, #8, 0
    86b4:	e58d200c 	str	r2, [sp, #12]
    86b8:	e593b000 	ldr	fp, [r3]
    86bc:	e5933004 	ldr	r3, [r3, #4]
    86c0:	e3a0a000 	mov	sl, #0, 0
    86c4:	e58da004 	str	sl, [sp, #4]
    86c8:	e58d5000 	str	r5, [sp]
    86cc:	e3a02080 	mov	r2, #128, 0	; 0x80
    86d0:	e28d1010 	add	r1, sp, #16, 0
    86d4:	e3a00010 	mov	r0, #16, 0
    86d8:	ebffff18 	bl	8340 <emit>
    86dc:	e1a07000 	mov	r7, r0
    86e0:	e58da004 	str	sl, [sp, #4]
    86e4:	e58d5000 	str	r5, [sp]
    86e8:	e1a0300b 	mov	r3, fp
    86ec:	e3a02080 	mov	r2, #128, 0	; 0x80
    86f0:	e28d1090 	add	r1, sp, #144, 0	; 0x90
    86f4:	e3a00010 	mov	r0, #16, 0
    86f8:	ebffff10 	bl	8340 <emit>
    86fc:	e28d1092 	add	r1, sp, #146, 0	; 0x92
    8700:	e28d0010 	add	r0, sp, #16, 0
    8704:	eb000194 	bl	8d5c <strcat>
    8708:	ea000019 	b	8774 <va_printk+0x21c>
    870c:	e59f31d4 	ldr	r3, [pc, #468]	; 88e8 <va_printk+0x390>
    8710:	e58d3000 	str	r3, [sp]
    8714:	e3a0309d 	mov	r3, #157, 0	; 0x9d
    8718:	e59f21b8 	ldr	r2, [pc, #440]	; 88d8 <va_printk+0x380>
    871c:	e59f11b8 	ldr	r1, [pc, #440]	; 88dc <va_printk+0x384>
    8720:	e59f01b8 	ldr	r0, [pc, #440]	; 88e0 <va_printk+0x388>
    8724:	ebfffec6 	bl	8244 <printk>
    8728:	eb000073 	bl	88fc <clean_reboot>
    872c:	e3a030af 	mov	r3, #175, 0	; 0xaf
    8730:	e59f21a0 	ldr	r2, [pc, #416]	; 88d8 <va_printk+0x380>
    8734:	e59f11a0 	ldr	r1, [pc, #416]	; 88dc <va_printk+0x384>
    8738:	e59f01ac 	ldr	r0, [pc, #428]	; 88ec <va_printk+0x394>
    873c:	ebfffec0 	bl	8244 <printk>
    8740:	eb00006d 	bl	88fc <clean_reboot>
    8744:	e59d300c 	ldr	r3, [sp, #12]
    8748:	e2832004 	add	r2, r3, #4, 0
    874c:	e58d200c 	str	r2, [sp, #12]
    8750:	e5933000 	ldr	r3, [r3]
    8754:	e3a02001 	mov	r2, #1, 0
    8758:	e58d2004 	str	r2, [sp, #4]
    875c:	e58d5000 	str	r5, [sp]
    8760:	e3a02080 	mov	r2, #128, 0	; 0x80
    8764:	e28d1010 	add	r1, sp, #16, 0
    8768:	e3a0000a 	mov	r0, #10, 0
    876c:	ebfffef3 	bl	8340 <emit>
    8770:	e1a07000 	mov	r7, r0
    8774:	e2866001 	add	r6, r6, #1, 0
    8778:	ea00004a 	b	88a8 <va_printk+0x350>
    877c:	e59d300c 	ldr	r3, [sp, #12]
    8780:	e2832004 	add	r2, r3, #4, 0
    8784:	e58d200c 	str	r2, [sp, #12]
    8788:	e5933000 	ldr	r3, [r3]
    878c:	e3a02000 	mov	r2, #0, 0
    8790:	e58d2004 	str	r2, [sp, #4]
    8794:	e58d5000 	str	r5, [sp]
    8798:	e3a02080 	mov	r2, #128, 0	; 0x80
    879c:	e28d1010 	add	r1, sp, #16, 0
    87a0:	e3a0000a 	mov	r0, #10, 0
    87a4:	ebfffee5 	bl	8340 <emit>
    87a8:	e1a07000 	mov	r7, r0
    87ac:	eafffff0 	b	8774 <va_printk+0x21c>
    87b0:	e59d300c 	ldr	r3, [sp, #12]
    87b4:	e2832004 	add	r2, r3, #4, 0
    87b8:	e58d200c 	str	r2, [sp, #12]
    87bc:	e5933000 	ldr	r3, [r3]
    87c0:	e3a02000 	mov	r2, #0, 0
    87c4:	e58d2004 	str	r2, [sp, #4]
    87c8:	e58d5000 	str	r5, [sp]
    87cc:	e3a02080 	mov	r2, #128, 0	; 0x80
    87d0:	e28d1010 	add	r1, sp, #16, 0
    87d4:	e3a00010 	mov	r0, #16, 0
    87d8:	ebfffed8 	bl	8340 <emit>
    87dc:	e1a07000 	mov	r7, r0
    87e0:	eaffffe3 	b	8774 <va_printk+0x21c>
    87e4:	e59d300c 	ldr	r3, [sp, #12]
    87e8:	e2832004 	add	r2, r3, #4, 0
    87ec:	e58d200c 	str	r2, [sp, #12]
    87f0:	e5933000 	ldr	r3, [r3]
    87f4:	e3a02000 	mov	r2, #0, 0
    87f8:	e58d2004 	str	r2, [sp, #4]
    87fc:	e58d5000 	str	r5, [sp]
    8800:	e3a02080 	mov	r2, #128, 0	; 0x80
    8804:	e28d1010 	add	r1, sp, #16, 0
    8808:	e3a00002 	mov	r0, #2, 0
    880c:	ebfffecb 	bl	8340 <emit>
    8810:	e1a07000 	mov	r7, r0
    8814:	eaffffd6 	b	8774 <va_printk+0x21c>
    8818:	e59d300c 	ldr	r3, [sp, #12]
    881c:	e2832004 	add	r2, r3, #4, 0
    8820:	e58d200c 	str	r2, [sp, #12]
    8824:	e5937000 	ldr	r7, [r3]
    8828:	eaffffd1 	b	8774 <va_printk+0x21c>
    882c:	e59d300c 	ldr	r3, [sp, #12]
    8830:	e2832004 	add	r2, r3, #4, 0
    8834:	e58d200c 	str	r2, [sp, #12]
    8838:	e5933000 	ldr	r3, [r3]
    883c:	e3a02000 	mov	r2, #0, 0
    8840:	e58d2004 	str	r2, [sp, #4]
    8844:	e58d5000 	str	r5, [sp]
    8848:	e3a02080 	mov	r2, #128, 0	; 0x80
    884c:	e28d1010 	add	r1, sp, #16, 0
    8850:	e3a00008 	mov	r0, #8, 0
    8854:	ebfffeb9 	bl	8340 <emit>
    8858:	e1a07000 	mov	r7, r0
    885c:	eaffffc4 	b	8774 <va_printk+0x21c>
    8860:	e3a03000 	mov	r3, #0, 0
    8864:	e5c63001 	strb	r3, [r6, #1]
    8868:	e1a0200a 	mov	r2, sl
    886c:	e1a0100a 	mov	r1, sl
    8870:	e59f0078 	ldr	r0, [pc, #120]	; 88f0 <va_printk+0x398>
    8874:	ebfffe72 	bl	8244 <printk>
    8878:	e59f3074 	ldr	r3, [pc, #116]	; 88f4 <va_printk+0x39c>
    887c:	e5933000 	ldr	r3, [r3]
    8880:	e59d0008 	ldr	r0, [sp, #8]
    8884:	e12fff33 	blx	r3
    8888:	e3a030d3 	mov	r3, #211, 0	; 0xd3
    888c:	e59f2044 	ldr	r2, [pc, #68]	; 88d8 <va_printk+0x380>
    8890:	e59f1044 	ldr	r1, [pc, #68]	; 88dc <va_printk+0x384>
    8894:	e59f005c 	ldr	r0, [pc, #92]	; 88f8 <va_printk+0x3a0>
    8898:	ebfffe69 	bl	8244 <printk>
    889c:	eb000016 	bl	88fc <clean_reboot>
    88a0:	e2877001 	add	r7, r7, #1, 0
    88a4:	e4c43001 	strb	r3, [r4], #1
    88a8:	e1540008 	cmp	r4, r8
    88ac:	2affff37 	bcs	8590 <va_printk+0x38>
    88b0:	e5d73000 	ldrb	r3, [r7]
    88b4:	e3530000 	cmp	r3, #0, 0
    88b8:	1afffff8 	bne	88a0 <va_printk+0x348>
    88bc:	eaffff33 	b	8590 <va_printk+0x38>
    88c0:	e3a03000 	mov	r3, #0, 0
    88c4:	e4c43001 	strb	r3, [r4], #1
    88c8:	e0440009 	sub	r0, r4, r9
    88cc:	e28ddf45 	add	sp, sp, #276	; 0x114
    88d0:	e8bd8ff0 	pop	{r4, r5, r6, r7, r8, r9, sl, fp, pc}
    88d4:	00008ec8 	andeq	r8, r0, r8, asr #29
    88d8:	00008f84 	andeq	r8, r0, r4, lsl #31
    88dc:	00008e84 	andeq	r8, r0, r4, lsl #29
    88e0:	00008e30 	andeq	r8, r0, r0, lsr lr
    88e4:	00008ed4 	ldrdeq	r8, [r0], -r4
    88e8:	00008ed8 	ldrdeq	r8, [r0], -r8	; <UNPREDICTABLE>
    88ec:	00008ef4 	strdeq	r8, [r0], -r4
    88f0:	00008f1c 	andeq	r8, r0, ip, lsl pc
    88f4:	00008f9c 	muleq	r0, ip, pc	; <UNPREDICTABLE>
    88f8:	00008f4c 	andeq	r8, r0, ip, asr #30

000088fc <clean_reboot>:
    88fc:	e92d4010 	push	{r4, lr}
    8900:	e59f3018 	ldr	r3, [pc, #24]	; 8920 <clean_reboot+0x24>
    8904:	e5933000 	ldr	r3, [r3]
    8908:	e59f0014 	ldr	r0, [pc, #20]	; 8924 <clean_reboot+0x28>
    890c:	e12fff33 	blx	r3
    8910:	eb0000c3 	bl	8c24 <uart_flush_tx>
    8914:	e3a0000a 	mov	r0, #10, 0
    8918:	eb000049 	bl	8a44 <delay_ms>
    891c:	eb000019 	bl	8988 <rpi_reboot>
    8920:	00008f9c 	muleq	r0, ip, pc	; <UNPREDICTABLE>
    8924:	00008f90 	muleq	r0, r0, pc	; <UNPREDICTABLE>

00008928 <_cstart>:
    8928:	e92d4010 	push	{r4, lr}
    892c:	eb000009 	bl	8958 <custom_loader>
    8930:	e59f3018 	ldr	r3, [pc, #24]	; 8950 <_cstart+0x28>
    8934:	e59f2018 	ldr	r2, [pc, #24]	; 8954 <_cstart+0x2c>
    8938:	e1530002 	cmp	r3, r2
    893c:	33a02000 	movcc	r2, #0, 0
    8940:	34832004 	strcc	r2, [r3], #4
    8944:	3afffffa 	bcc	8934 <_cstart+0xc>
    8948:	ebfffdb9 	bl	8034 <notmain>
    894c:	ebffffea 	bl	88fc <clean_reboot>
    8950:	00008fa4 	andeq	r8, r0, r4, lsr #31
    8954:	000093b0 			; <UNDEFINED> instruction: 0x000093b0

00008958 <custom_loader>:
    8958:	e12fff1e 	bx	lr

0000895c <at_user_level>:
    895c:	e10f0000 	mrs	r0, CPSR
    8960:	e200001f 	and	r0, r0, #31, 0
    8964:	e3500010 	cmp	r0, #16, 0
    8968:	13a00000 	movne	r0, #0, 0
    896c:	03a00001 	moveq	r0, #1, 0
    8970:	e12fff1e 	bx	lr

00008974 <set_user_level>:
    8974:	e10f3000 	mrs	r3, CPSR
    8978:	e3c3301f 	bic	r3, r3, #31, 0
    897c:	e3833010 	orr	r3, r3, #16, 0
    8980:	e129f003 	msr	CPSR_fc, r3
    8984:	e12fff1e 	bx	lr

00008988 <rpi_reboot>:
    8988:	e92d4010 	push	{r4, lr}
    898c:	ebfffff2 	bl	895c <at_user_level>
    8990:	e3500000 	cmp	r0, #0, 0
    8994:	1a000009 	bne	89c0 <rpi_reboot+0x38>
    8998:	eb0000a1 	bl	8c24 <uart_flush_tx>
    899c:	e3a0000a 	mov	r0, #10, 0
    89a0:	eb000027 	bl	8a44 <delay_ms>
    89a4:	e59f101c 	ldr	r1, [pc, #28]	; 89c8 <rpi_reboot+0x40>
    89a8:	e59f001c 	ldr	r0, [pc, #28]	; 89cc <rpi_reboot+0x44>
    89ac:	ebfffdf3 	bl	8180 <__wrap_PUT32>
    89b0:	e59f1018 	ldr	r1, [pc, #24]	; 89d0 <rpi_reboot+0x48>
    89b4:	e59f0018 	ldr	r0, [pc, #24]	; 89d4 <rpi_reboot+0x4c>
    89b8:	ebfffdf0 	bl	8180 <__wrap_PUT32>
    89bc:	eafffffe 	b	89bc <rpi_reboot+0x34>
    89c0:	ebffffeb 	bl	8974 <set_user_level>
    89c4:	eafffff3 	b	8998 <rpi_reboot+0x10>
    89c8:	5a000001 	bpl	89d4 <rpi_reboot+0x4c>
    89cc:	20100024 	andscs	r0, r0, r4, lsr #32
    89d0:	5a000020 	bpl	8a58 <delay_ms+0x14>
    89d4:	2010001c 	andscs	r0, r0, ip, lsl r0

000089d8 <delay_cycles>:
    89d8:	e2403001 	sub	r3, r0, #1, 0
    89dc:	e3500000 	cmp	r0, #0, 0
    89e0:	012fff1e 	bxeq	lr
    89e4:	e2811000 	add	r1, r1, #0, 0
    89e8:	e1a00003 	mov	r0, r3
    89ec:	eafffff9 	b	89d8 <delay_cycles>

000089f0 <timer_get_usec_raw>:
    89f0:	e92d4010 	push	{r4, lr}
    89f4:	e59f0004 	ldr	r0, [pc, #4]	; 8a00 <timer_get_usec_raw+0x10>
    89f8:	ebfffdf8 	bl	81e0 <__wrap_GET32>
    89fc:	e8bd8010 	pop	{r4, pc}
    8a00:	20003004 	andcs	r3, r0, r4

00008a04 <timer_get_usec>:
    8a04:	e92d4010 	push	{r4, lr}
    8a08:	eb000019 	bl	8a74 <dev_barrier>
    8a0c:	ebfffff7 	bl	89f0 <timer_get_usec_raw>
    8a10:	e1a04000 	mov	r4, r0
    8a14:	eb000016 	bl	8a74 <dev_barrier>
    8a18:	e1a00004 	mov	r0, r4
    8a1c:	e8bd8010 	pop	{r4, pc}

00008a20 <delay_us>:
    8a20:	e92d4070 	push	{r4, r5, r6, lr}
    8a24:	e1a05000 	mov	r5, r0
    8a28:	ebfffff5 	bl	8a04 <timer_get_usec>
    8a2c:	e1a04000 	mov	r4, r0
    8a30:	ebfffff3 	bl	8a04 <timer_get_usec>
    8a34:	e0400004 	sub	r0, r0, r4
    8a38:	e1500005 	cmp	r0, r5
    8a3c:	3afffffb 	bcc	8a30 <delay_us+0x10>
    8a40:	e8bd8070 	pop	{r4, r5, r6, pc}

00008a44 <delay_ms>:
    8a44:	e92d4010 	push	{r4, lr}
    8a48:	e0603280 	rsb	r3, r0, r0, lsl #5
    8a4c:	e0800103 	add	r0, r0, r3, lsl #2
    8a50:	e1a00180 	lsl	r0, r0, #3
    8a54:	ebfffff1 	bl	8a20 <delay_us>
    8a58:	e8bd8010 	pop	{r4, pc}

00008a5c <delay_sec>:
    8a5c:	e92d4010 	push	{r4, lr}
    8a60:	e0603280 	rsb	r3, r0, r0, lsl #5
    8a64:	e0800103 	add	r0, r0, r3, lsl #2
    8a68:	e1a00180 	lsl	r0, r0, #3
    8a6c:	ebfffff4 	bl	8a44 <delay_ms>
    8a70:	e8bd8010 	pop	{r4, pc}

00008a74 <dev_barrier>:
    8a74:	ea000002 	b	8a84 <dsb>

00008a78 <dmb>:
    8a78:	e3a00000 	mov	r0, #0, 0
    8a7c:	ee070fba 	mcr	15, 0, r0, cr7, cr10, {5}
    8a80:	e12fff1e 	bx	lr

00008a84 <dsb>:
    8a84:	ee070f9a 	mcr	15, 0, r0, cr7, cr10, {4}
    8a88:	e12fff1e 	bx	lr

00008a8c <or_in32>:
    8a8c:	e92d4070 	push	{r4, r5, r6, lr}
    8a90:	e1a04000 	mov	r4, r0
    8a94:	e1a05001 	mov	r5, r1
    8a98:	ebfffd63 	bl	802c <GET32>
    8a9c:	e1801005 	orr	r1, r0, r5
    8aa0:	e1a00004 	mov	r0, r4
    8aa4:	ebfffd5e 	bl	8024 <PUT32>
    8aa8:	e8bd8070 	pop	{r4, r5, r6, pc}

00008aac <uart_init>:
    8aac:	e92d4010 	push	{r4, lr}
    8ab0:	e3a01002 	mov	r1, #2, 0
    8ab4:	e3a0000e 	mov	r0, #14, 0
    8ab8:	eb00005e 	bl	8c38 <gpio_set_function>
    8abc:	e3a01002 	mov	r1, #2, 0
    8ac0:	e3a0000f 	mov	r0, #15, 0
    8ac4:	eb00005b 	bl	8c38 <gpio_set_function>
    8ac8:	ebffffe9 	bl	8a74 <dev_barrier>
    8acc:	e3a01001 	mov	r1, #1, 0
    8ad0:	e59f0064 	ldr	r0, [pc, #100]	; 8b3c <uart_init+0x90>
    8ad4:	ebffffec 	bl	8a8c <or_in32>
    8ad8:	ebffffe5 	bl	8a74 <dev_barrier>
    8adc:	e59f405c 	ldr	r4, [pc, #92]	; 8b40 <uart_init+0x94>
    8ae0:	e3a01000 	mov	r1, #0, 0
    8ae4:	e1a00004 	mov	r0, r4
    8ae8:	ebfffd4d 	bl	8024 <PUT32>
    8aec:	e3a01000 	mov	r1, #0, 0
    8af0:	e59f004c 	ldr	r0, [pc, #76]	; 8b44 <uart_init+0x98>
    8af4:	ebfffd4a 	bl	8024 <PUT32>
    8af8:	e3a01003 	mov	r1, #3, 0
    8afc:	e59f0044 	ldr	r0, [pc, #68]	; 8b48 <uart_init+0x9c>
    8b00:	ebfffd47 	bl	8024 <PUT32>
    8b04:	e3a01000 	mov	r1, #0, 0
    8b08:	e59f003c 	ldr	r0, [pc, #60]	; 8b4c <uart_init+0xa0>
    8b0c:	ebfffd44 	bl	8024 <PUT32>
    8b10:	e3a010c7 	mov	r1, #199, 0	; 0xc7
    8b14:	e59f0034 	ldr	r0, [pc, #52]	; 8b50 <uart_init+0xa4>
    8b18:	ebfffd41 	bl	8024 <PUT32>
    8b1c:	e59f1030 	ldr	r1, [pc, #48]	; 8b54 <uart_init+0xa8>
    8b20:	e59f0030 	ldr	r0, [pc, #48]	; 8b58 <uart_init+0xac>
    8b24:	ebfffd3e 	bl	8024 <PUT32>
    8b28:	e3a01003 	mov	r1, #3, 0
    8b2c:	e1a00004 	mov	r0, r4
    8b30:	ebfffd3b 	bl	8024 <PUT32>
    8b34:	ebffffce 	bl	8a74 <dev_barrier>
    8b38:	e8bd8010 	pop	{r4, pc}
    8b3c:	20215004 	eorcs	r5, r1, r4
    8b40:	20215060 	eorcs	r5, r1, r0, rrx
    8b44:	20215044 	eorcs	r5, r1, r4, asr #32
    8b48:	2021504c 	eorcs	r5, r1, ip, asr #32
    8b4c:	20215050 	eorcs	r5, r1, r0, asr r0
    8b50:	20215048 	eorcs	r5, r1, r8, asr #32
    8b54:	0000010e 	andeq	r0, r0, lr, lsl #2
    8b58:	20215068 	eorcs	r5, r1, r8, rrx

00008b5c <uart_can_getc>:
    8b5c:	e92d4010 	push	{r4, lr}
    8b60:	e59f0008 	ldr	r0, [pc, #8]	; 8b70 <uart_can_getc+0x14>
    8b64:	ebfffd30 	bl	802c <GET32>
    8b68:	e2000001 	and	r0, r0, #1, 0
    8b6c:	e8bd8010 	pop	{r4, pc}
    8b70:	20215064 	eorcs	r5, r1, r4, rrx

00008b74 <uart_can_putc>:
    8b74:	e92d4010 	push	{r4, lr}
    8b78:	e59f0010 	ldr	r0, [pc, #16]	; 8b90 <uart_can_putc+0x1c>
    8b7c:	ebfffd2a 	bl	802c <GET32>
    8b80:	e3100002 	tst	r0, #2, 0
    8b84:	13a00001 	movne	r0, #1, 0
    8b88:	03a00000 	moveq	r0, #0, 0
    8b8c:	e8bd8010 	pop	{r4, pc}
    8b90:	20215064 	eorcs	r5, r1, r4, rrx

00008b94 <uart_getc>:
    8b94:	e92d4010 	push	{r4, lr}
    8b98:	ebffffb5 	bl	8a74 <dev_barrier>
    8b9c:	ebffffee 	bl	8b5c <uart_can_getc>
    8ba0:	e3500000 	cmp	r0, #0, 0
    8ba4:	0afffffc 	beq	8b9c <uart_getc+0x8>
    8ba8:	e59f0010 	ldr	r0, [pc, #16]	; 8bc0 <uart_getc+0x2c>
    8bac:	ebfffd1e 	bl	802c <GET32>
    8bb0:	e6ef4070 	uxtb	r4, r0
    8bb4:	ebffffae 	bl	8a74 <dev_barrier>
    8bb8:	e1a00004 	mov	r0, r4
    8bbc:	e8bd8010 	pop	{r4, pc}
    8bc0:	20215040 	eorcs	r5, r1, r0, asr #32

00008bc4 <uart_putc>:
    8bc4:	e92d4010 	push	{r4, lr}
    8bc8:	e1a04000 	mov	r4, r0
    8bcc:	ebffffa8 	bl	8a74 <dev_barrier>
    8bd0:	ebffffe7 	bl	8b74 <uart_can_putc>
    8bd4:	e3500000 	cmp	r0, #0, 0
    8bd8:	0afffffc 	beq	8bd0 <uart_putc+0xc>
    8bdc:	e6ef1074 	uxtb	r1, r4
    8be0:	e59f0008 	ldr	r0, [pc, #8]	; 8bf0 <uart_putc+0x2c>
    8be4:	ebfffd0e 	bl	8024 <PUT32>
    8be8:	ebffffa1 	bl	8a74 <dev_barrier>
    8bec:	e8bd8010 	pop	{r4, pc}
    8bf0:	20215040 	eorcs	r5, r1, r0, asr #32

00008bf4 <uart_has_data>:
    8bf4:	e92d4010 	push	{r4, lr}
    8bf8:	ebffff9d 	bl	8a74 <dev_barrier>
    8bfc:	ebffffd6 	bl	8b5c <uart_can_getc>
    8c00:	e8bd8010 	pop	{r4, pc}

00008c04 <uart_tx_is_empty>:
    8c04:	e92d4010 	push	{r4, lr}
    8c08:	ebffff99 	bl	8a74 <dev_barrier>
    8c0c:	e59f000c 	ldr	r0, [pc, #12]	; 8c20 <uart_tx_is_empty+0x1c>
    8c10:	ebfffd05 	bl	802c <GET32>
    8c14:	e1a004a0 	lsr	r0, r0, #9
    8c18:	e2000001 	and	r0, r0, #1, 0
    8c1c:	e8bd8010 	pop	{r4, pc}
    8c20:	20215064 	eorcs	r5, r1, r4, rrx

00008c24 <uart_flush_tx>:
    8c24:	e92d4010 	push	{r4, lr}
    8c28:	ebfffff5 	bl	8c04 <uart_tx_is_empty>
    8c2c:	e3500000 	cmp	r0, #0, 0
    8c30:	0afffffc 	beq	8c28 <uart_flush_tx+0x4>
    8c34:	e8bd8010 	pop	{r4, pc}

00008c38 <gpio_set_function>:
    8c38:	e92d41f0 	push	{r4, r5, r6, r7, r8, lr}
    8c3c:	e1a04000 	mov	r4, r0
    8c40:	e1a06001 	mov	r6, r1
    8c44:	e59f503c 	ldr	r5, [pc, #60]	; 8c88 <gpio_set_function+0x50>
    8c48:	e0853095 	umull	r3, r5, r5, r0
    8c4c:	e1a051a5 	lsr	r5, r5, #3
    8c50:	e2857302 	add	r7, r5, #134217728	; 0x8000000
    8c54:	e2877702 	add	r7, r7, #524288	; 0x80000
    8c58:	e1a07107 	lsl	r7, r7, #2
    8c5c:	e1a00007 	mov	r0, r7
    8c60:	ebfffd5e 	bl	81e0 <__wrap_GET32>
    8c64:	e0855105 	add	r5, r5, r5, lsl #2
    8c68:	e0445085 	sub	r5, r4, r5, lsl #1
    8c6c:	e0855085 	add	r5, r5, r5, lsl #1
    8c70:	e3a01007 	mov	r1, #7, 0
    8c74:	e1c01511 	bic	r1, r0, r1, lsl r5
    8c78:	e1811516 	orr	r1, r1, r6, lsl r5
    8c7c:	e1a00007 	mov	r0, r7
    8c80:	ebfffd3e 	bl	8180 <__wrap_PUT32>
    8c84:	e8bd81f0 	pop	{r4, r5, r6, r7, r8, pc}
    8c88:	cccccccd 	stclgt	12, cr12, [ip], {205}	; 0xcd

00008c8c <gpio_set_output>:
    8c8c:	e92d4010 	push	{r4, lr}
    8c90:	e3a01001 	mov	r1, #1, 0
    8c94:	ebffffe7 	bl	8c38 <gpio_set_function>
    8c98:	e8bd8010 	pop	{r4, pc}

00008c9c <gpio_set_on>:
    8c9c:	e92d4010 	push	{r4, lr}
    8ca0:	e3a01001 	mov	r1, #1, 0
    8ca4:	e1a01011 	lsl	r1, r1, r0
    8ca8:	e59f0004 	ldr	r0, [pc, #4]	; 8cb4 <gpio_set_on+0x18>
    8cac:	ebfffd33 	bl	8180 <__wrap_PUT32>
    8cb0:	e8bd8010 	pop	{r4, pc}
    8cb4:	2020001c 	eorcs	r0, r0, ip, lsl r0

00008cb8 <gpio_set_off>:
    8cb8:	e92d4010 	push	{r4, lr}
    8cbc:	e3a01001 	mov	r1, #1, 0
    8cc0:	e1a01011 	lsl	r1, r1, r0
    8cc4:	e59f0004 	ldr	r0, [pc, #4]	; 8cd0 <gpio_set_off+0x18>
    8cc8:	ebfffd2c 	bl	8180 <__wrap_PUT32>
    8ccc:	e8bd8010 	pop	{r4, pc}
    8cd0:	20200028 	eorcs	r0, r0, r8, lsr #32

00008cd4 <gpio_write>:
    8cd4:	e92d4010 	push	{r4, lr}
    8cd8:	e3510000 	cmp	r1, #0, 0
    8cdc:	0a000001 	beq	8ce8 <gpio_write+0x14>
    8ce0:	ebffffed 	bl	8c9c <gpio_set_on>
    8ce4:	e8bd8010 	pop	{r4, pc}
    8ce8:	ebfffff2 	bl	8cb8 <gpio_set_off>
    8cec:	e8bd8010 	pop	{r4, pc}

00008cf0 <gpio_set_input>:
    8cf0:	e92d4010 	push	{r4, lr}
    8cf4:	e3a01000 	mov	r1, #0, 0
    8cf8:	ebffffce 	bl	8c38 <gpio_set_function>
    8cfc:	e8bd8010 	pop	{r4, pc}

00008d00 <gpio_read>:
    8d00:	e92d4010 	push	{r4, lr}
    8d04:	e1a04000 	mov	r4, r0
    8d08:	e59f000c 	ldr	r0, [pc, #12]	; 8d1c <gpio_read+0x1c>
    8d0c:	ebfffd33 	bl	81e0 <__wrap_GET32>
    8d10:	e3a03001 	mov	r3, #1, 0
    8d14:	e0000413 	and	r0, r0, r3, lsl r4
    8d18:	e8bd8010 	pop	{r4, pc}
    8d1c:	20200034 	eorcs	r0, r0, r4, lsr r0

00008d20 <internal_putchar>:
    8d20:	e92d4010 	push	{r4, lr}
    8d24:	e1a04000 	mov	r4, r0
    8d28:	ebffffa5 	bl	8bc4 <uart_putc>
    8d2c:	e1a00004 	mov	r0, r4
    8d30:	e8bd8010 	pop	{r4, pc}

00008d34 <rpi_reset_putc>:
    8d34:	e59f3008 	ldr	r3, [pc, #8]	; 8d44 <rpi_reset_putc+0x10>
    8d38:	e59f2008 	ldr	r2, [pc, #8]	; 8d48 <rpi_reset_putc+0x14>
    8d3c:	e5832000 	str	r2, [r3]
    8d40:	e12fff1e 	bx	lr
    8d44:	00008fa0 	andeq	r8, r0, r0, lsr #31
    8d48:	00008d20 	andeq	r8, r0, r0, lsr #26

00008d4c <rpi_set_putc>:
    8d4c:	e59f3004 	ldr	r3, [pc, #4]	; 8d58 <rpi_set_putc+0xc>
    8d50:	e5830000 	str	r0, [r3]
    8d54:	e12fff1e 	bx	lr
    8d58:	00008fa0 	andeq	r8, r0, r0, lsr #31

00008d5c <strcat>:
    8d5c:	e1a02000 	mov	r2, r0
    8d60:	e1a03002 	mov	r3, r2
    8d64:	e2822001 	add	r2, r2, #1, 0
    8d68:	e5d3c000 	ldrb	ip, [r3]
    8d6c:	e35c0000 	cmp	ip, #0, 0
    8d70:	1afffffa 	bne	8d60 <strcat+0x4>
    8d74:	e2433001 	sub	r3, r3, #1, 0
    8d78:	e5d12000 	ldrb	r2, [r1]
    8d7c:	e2811001 	add	r1, r1, #1, 0
    8d80:	e5e32001 	strb	r2, [r3, #1]!
    8d84:	e3520000 	cmp	r2, #0, 0
    8d88:	1afffffa 	bne	8d78 <strcat+0x1c>
    8d8c:	e12fff1e 	bx	lr

00008d90 <strncmp>:
    8d90:	e3520000 	cmp	r2, #0, 0
    8d94:	e2422001 	sub	r2, r2, #1, 0
    8d98:	0a000005 	beq	8db4 <strncmp+0x24>
    8d9c:	e4d03001 	ldrb	r3, [r0], #1
    8da0:	e4d1c001 	ldrb	ip, [r1], #1
    8da4:	e153000c 	cmp	r3, ip
    8da8:	0afffff8 	beq	8d90 <strncmp>
    8dac:	e043000c 	sub	r0, r3, ip
    8db0:	e12fff1e 	bx	lr
    8db4:	e3a00000 	mov	r0, #0, 0
    8db8:	e12fff1e 	bx	lr

00008dbc <__code_end__>:
    8dbc:	00000000 	andeq	r0, r0, r0

Disassembly of section .rodata:

00008dc0 <__FUNCTION__.3935-0xac>:
    8dc0:	6f697067 	svcvs	0x00697067
    8dc4:	7465735f 	strbtvc	r7, [r5], #-863	; 0xfffffca1
    8dc8:	74756f5f 	ldrbtvc	r6, [r5], #-3935	; 0xfffff0a1
    8dcc:	28747570 	ldmdacs	r4!, {r4, r5, r6, r8, sl, ip, sp, lr}^
    8dd0:	00002969 	andeq	r2, r0, r9, ror #18
    8dd4:	756f6261 	strbvc	r6, [pc, #-609]!	; 8b7b <uart_can_putc+0x7>
    8dd8:	6f742074 	svcvs	0x00742074
    8ddc:	61727420 	cmnvs	r2, r0, lsr #8
    8de0:	203a6563 	eorscs	r6, sl, r3, ror #10
    8de4:	3e73253c 	mrccc	5, 3, r2, cr3, cr12, {1}
    8de8:	0000000a 	andeq	r0, r0, sl
    8dec:	656e6f64 	strbvs	r6, [lr, #-3940]!	; 0xfffff09c
    8df0:	253c203a 	ldrcs	r2, [ip, #-58]!	; 0xffffffc6
    8df4:	000a3e73 	andeq	r3, sl, r3, ror lr
    8df8:	43415254 	movtmi	r5, #4692	; 0x1254
    8dfc:	55503a45 	ldrbpl	r3, [r0, #-2629]	; 0xfffff5bb
    8e00:	28323354 	ldmdacs	r2!, {r2, r4, r6, r8, r9, ip, sp}
    8e04:	3d297825 	stccc	8, cr7, [r9, #-148]!	; 0xffffff6c
    8e08:	000a7825 	andeq	r7, sl, r5, lsr #16
    8e0c:	43415254 	movtmi	r5, #4692	; 0x1254
    8e10:	45473a45 	strbmi	r3, [r7, #-2629]	; 0xfffff5bb
    8e14:	28323354 	ldmdacs	r2!, {r2, r4, r6, r8, r9, ip, sp}
    8e18:	3d297825 	stccc	8, cr7, [r9, #-148]!	; 0xffffff6c
    8e1c:	000a7825 	andeq	r7, sl, r5, lsr #16
    8e20:	63617274 	cmnvs	r1, #116, 4	; 0x40000007
    8e24:	69732d65 	ldmdbvs	r3!, {r0, r2, r5, r6, r8, sl, fp, sp}^
    8e28:	656c706d 	strbvs	r7, [ip, #-109]!	; 0xffffff93
    8e2c:	0000632e 	andeq	r6, r0, lr, lsr #6
    8e30:	494e4150 	stmdbmi	lr, {r4, r6, r8, lr}^
    8e34:	73253a43 			; <UNDEFINED> instruction: 0x73253a43
    8e38:	3a73253a 	bcc	1cd2328 <__bss_end__+0x1cc8f78>
    8e3c:	253a6425 	ldrcs	r6, [sl, #-1061]!	; 0xfffffbdb
    8e40:	00000a73 	andeq	r0, r0, r3, ror sl
    8e44:	74617473 	strbtvc	r7, [r1], #-1139	; 0xfffffb8d
    8e48:	3d3d2065 	ldccc	0, cr2, [sp, #-404]!	; 0xfffffe6c
    8e4c:	41525420 	cmpmi	r2, r0, lsr #8
    8e50:	4f5f4543 	svcmi	0x005f4543
    8e54:	00004646 	andeq	r4, r0, r6, asr #12
    8e58:	74617473 	strbtvc	r7, [r1], #-1139	; 0xfffffb8d
    8e5c:	3d3d2065 	ldccc	0, cr2, [sp, #-404]!	; 0xfffffe6c
    8e60:	41525420 	cmpmi	r2, r0, lsr #8
    8e64:	4f5f4543 	svcmi	0x005f4543
    8e68:	0000004e 	andeq	r0, r0, lr, asr #32

00008e6c <__FUNCTION__.3935>:
    8e6c:	63617274 	cmnvs	r1, #116, 4	; 0x40000007
    8e70:	74735f65 	ldrbtvc	r5, [r3], #-3941	; 0xfffff09b
    8e74:	00747261 	rsbseq	r7, r4, r1, ror #4

00008e78 <__FUNCTION__.3939>:
    8e78:	63617274 	cmnvs	r1, #116, 4	; 0x40000007
    8e7c:	74735f65 	ldrbtvc	r5, [r3], #-3941	; 0xfffff09b
    8e80:	0000706f 	andeq	r7, r0, pc, rrx
    8e84:	6362696c 	cmnvs	r2, #108, 18	; 0x1b0000
    8e88:	2d61762f 	stclcs	6, cr7, [r1, #-188]!	; 0xffffff44
    8e8c:	6e697270 	mcrvs	2, 3, r7, cr9, cr0, {3}
    8e90:	632e6b74 			; <UNDEFINED> instruction: 0x632e6b74
    8e94:	00000000 	andeq	r0, r0, r0
    8e98:	00000030 	andeq	r0, r0, r0, lsr r0
    8e9c:	33323130 	teqcc	r2, #12
    8ea0:	37363534 			; <UNDEFINED> instruction: 0x37363534
    8ea4:	00003938 	andeq	r3, r0, r8, lsr r9
    8ea8:	33323130 	teqcc	r2, #12
    8eac:	37363534 			; <UNDEFINED> instruction: 0x37363534
    8eb0:	62613938 	rsbvs	r3, r1, #56, 18	; 0xe0000
    8eb4:	66656463 	strbtvs	r6, [r5], -r3, ror #8
    8eb8:	00000000 	andeq	r0, r0, r0
    8ebc:	00003130 	andeq	r3, r0, r0, lsr r1
    8ec0:	63747570 	cmnvs	r4, #112, 10	; 0x1c000000
    8ec4:	0070665f 	rsbseq	r6, r0, pc, asr r6
    8ec8:	74646977 	strbtvc	r6, [r4], #-2423	; 0xfffff689
    8ecc:	203c2068 	eorscs	r2, ip, r8, rrx
    8ed0:	00003233 	andeq	r3, r0, r3, lsr r2
    8ed4:	00786c6c 	rsbseq	r6, r8, ip, ror #24
    8ed8:	6e727473 	mrcvs	4, 3, r7, cr2, cr3, {3}
    8edc:	28706d63 	ldmdacs	r0!, {r0, r1, r5, r6, r8, sl, fp, sp, lr}^
    8ee0:	2c746d66 	ldclcs	13, cr6, [r4], #-408	; 0xfffffe68
    8ee4:	6c6c2220 	sfmvs	f2, 2, [ip], #-128	; 0xffffff80
    8ee8:	202c2278 	eorcs	r2, ip, r8, ror r2
    8eec:	3d202933 			; <UNDEFINED> instruction: 0x3d202933
    8ef0:	0030203d 	eorseq	r2, r0, sp, lsr r0
    8ef4:	494e4150 	stmdbmi	lr, {r4, r6, r8, lr}^
    8ef8:	73253a43 			; <UNDEFINED> instruction: 0x73253a43
    8efc:	3a73253a 	bcc	1cd23ec <__bss_end__+0x1cc903c>
    8f00:	663a6425 	ldrtvs	r6, [sl], -r5, lsr #8
    8f04:	74616f6c 	strbtvc	r6, [r1], #-3948	; 0xfffff094
    8f08:	746f6e20 	strbtvc	r6, [pc], #-3616	; 8f10 <__FUNCTION__.3939+0x98>
    8f0c:	616e6520 	cmnvs	lr, r0, lsr #10
    8f10:	64656c62 	strbtvs	r6, [r5], #-3170	; 0xfffff39e
    8f14:	0a212121 	beq	8513a0 <__bss_end__+0x847ff0>
    8f18:	00000000 	andeq	r0, r0, r0
    8f1c:	6e697270 	mcrvs	2, 3, r7, cr9, cr0, {3}
    8f20:	203a6b74 	eorscs	r6, sl, r4, ror fp
    8f24:	20746f6e 	rsbscs	r6, r4, lr, ror #30
    8f28:	646e6168 	strbtvs	r6, [lr], #-360	; 0xfffffe98
    8f2c:	676e696c 	strbvs	r6, [lr, -ip, ror #18]!
    8f30:	65707320 	ldrbvs	r7, [r0, #-800]!	; 0xfffffce0
    8f34:	69666963 	stmdbvs	r6!, {r0, r1, r5, r6, r8, fp, sp, lr}^
    8f38:	27207265 	strcs	r7, [r0, -r5, ror #4]!
    8f3c:	20276325 	eorcs	r6, r7, r5, lsr #6
    8f40:	63736128 	cmnvs	r3, #10
    8f44:	253d6969 	ldrcs	r6, [sp, #-2409]!	; 0xfffff697
    8f48:	000a2964 	andeq	r2, sl, r4, ror #18
    8f4c:	494e4150 	stmdbmi	lr, {r4, r6, r8, lr}^
    8f50:	73253a43 			; <UNDEFINED> instruction: 0x73253a43
    8f54:	3a73253a 	bcc	1cd2444 <__bss_end__+0x1cc9094>
    8f58:	703a6425 	eorsvc	r6, sl, r5, lsr #8
    8f5c:	746e6972 	strbtvc	r6, [lr], #-2418	; 0xfffff68e
    8f60:	7265206b 	rsbvc	r2, r5, #107, 0	; 0x6b
    8f64:	0a726f72 	beq	1ca4d34 <__bss_end__+0x1c9b984>
    8f68:	0000000a 	andeq	r0, r0, sl

00008f6c <__FUNCTION__.3978>:
    8f6c:	74696d65 	strbtvc	r6, [r9], #-3429	; 0xfffff29b
    8f70:	00000000 	andeq	r0, r0, r0

00008f74 <__FUNCTION__.3926>:
    8f74:	5f697072 	svcpl	0x00697072
    8f78:	5f746573 	svcpl	0x00746573
    8f7c:	7074756f 	rsbsvc	r7, r4, pc, ror #10
    8f80:	00007475 	andeq	r7, r0, r5, ror r4

00008f84 <__FUNCTION__.4004>:
    8f84:	705f6176 	subsvc	r6, pc, r6, ror r1	; <UNPREDICTABLE>
    8f88:	746e6972 	strbtvc	r6, [lr], #-2418	; 0xfffff68e
    8f8c:	0000006b 	andeq	r0, r0, fp, rrx
    8f90:	454e4f44 	strbmi	r4, [lr, #-3908]	; 0xfffff0bc
    8f94:	0a212121 	beq	851420 <__bss_end__+0x848070>
	...

Disassembly of section .data:

00008f9c <putk>:
    8f9c:	0000829c 	muleq	r0, ip, r2

00008fa0 <rpi_putchar>:
    8fa0:	00008d20 	andeq	r8, r0, r0, lsr #26

Disassembly of section .bss:

00008fa4 <__bss_start__>:
    8fa4:	00000000 	andeq	r0, r0, r0

00008fa8 <buf.3918>:
	...

000093a8 <within_printk_operation>:
	...

Disassembly of section .ARM.attributes:

00000000 <.ARM.attributes>:
   0:	00002a41 	andeq	r2, r0, r1, asr #20
   4:	61656100 	cmnvs	r5, r0, lsl #2
   8:	01006962 	tsteq	r0, r2, ror #18
   c:	00000020 	andeq	r0, r0, r0, lsr #32
  10:	4b5a3605 	blmi	168d82c <__bss_end__+0x168447c>
  14:	08070600 	stmdaeq	r7, {r9, sl}
  18:	12010901 	andne	r0, r1, #16384	; 0x4000
  1c:	15011404 	strne	r1, [r1, #-1028]	; 0xfffffbfc
  20:	18031701 	stmdane	r3, {r0, r8, r9, sl, ip}
  24:	22011a01 	andcs	r1, r1, #4096	; 0x1000
  28:	Address 0x0000000000000028 is out of bounds.


Disassembly of section .comment:

00000000 <.comment>:
   0:	3a434347 	bcc	10d0d24 <__bss_end__+0x10c7974>
   4:	4e472820 	cdpmi	8, 4, cr2, cr7, cr0, {1}
   8:	6f542055 	svcvs	0x00542055
   c:	20736c6f 	rsbscs	r6, r3, pc, ror #24
  10:	20726f66 	rsbscs	r6, r2, r6, ror #30
  14:	206d7241 	rsbcs	r7, sp, r1, asr #4
  18:	65626d45 	strbvs	r6, [r2, #-3397]!	; 0xfffff2bb
  1c:	64656464 	strbtvs	r6, [r5], #-1124	; 0xfffffb9c
  20:	6f725020 	svcvs	0x00725020
  24:	73736563 	cmnvc	r3, #415236096	; 0x18c00000
  28:	2073726f 	rsbscs	r7, r3, pc, ror #4
  2c:	30322d39 	eorscc	r2, r2, r9, lsr sp
  30:	712d3931 			; <UNDEFINED> instruction: 0x712d3931
  34:	616d2d34 	cmnvs	sp, r4, lsr sp
  38:	29726f6a 	ldmdbcs	r2!, {r1, r3, r5, r6, r8, r9, sl, fp, sp, lr}^
  3c:	322e3920 	eorcc	r3, lr, #32, 18	; 0x80000
  40:	3220312e 	eorcc	r3, r0, #-2147483637	; 0x8000000b
  44:	31393130 	teqcc	r9, r0, lsr r1
  48:	20353230 	eorscs	r3, r5, r0, lsr r2
  4c:	6c657228 	sfmvs	f7, 2, [r5], #-160	; 0xffffff60
  50:	65736165 	ldrbvs	r6, [r3, #-357]!	; 0xfffffe9b
  54:	415b2029 	cmpmi	fp, r9, lsr #32
  58:	612f4d52 			; <UNDEFINED> instruction: 0x612f4d52
  5c:	392d6d72 	pushcc	{r1, r4, r5, r6, r8, sl, fp, sp, lr}
  60:	6172622d 	cmnvs	r2, sp, lsr #4
  64:	2068636e 	rsbcs	r6, r8, lr, ror #6
  68:	69766572 	ldmdbvs	r6!, {r1, r4, r5, r6, r8, sl, sp, lr}^
  6c:	6e6f6973 			; <UNDEFINED> instruction: 0x6e6f6973
  70:	37373220 	ldrcc	r3, [r7, -r0, lsr #4]!
  74:	5d393935 			; <UNDEFINED> instruction: 0x5d393935
  78:	43434700 	movtmi	r4, #14080	; 0x3700
  7c:	3128203a 			; <UNDEFINED> instruction: 0x3128203a
  80:	2d393a35 	vldmdbcs	r9!, {s6-s58}
  84:	39313032 	ldmdbcc	r1!, {r1, r4, r5, ip, sp}
  88:	2d34712d 	ldfcss	f7, [r4, #-180]!	; 0xffffff4c
  8c:	75627530 	strbvc	r7, [r2, #-1328]!	; 0xfffffad0
  90:	3175746e 	cmncc	r5, lr, ror #8
  94:	2e392029 	cdpcs	0, 3, cr2, cr9, cr9, {1}
  98:	20312e32 	eorscs	r2, r1, r2, lsr lr
  9c:	39313032 	ldmdbcc	r1!, {r1, r4, r5, ip, sp}
  a0:	35323031 	ldrcc	r3, [r2, #-49]!	; 0xffffffcf
  a4:	65722820 	ldrbvs	r2, [r2, #-2080]!	; 0xfffff7e0
  a8:	7361656c 	cmnvc	r1, #108, 10	; 0x1b000000
  ac:	5b202965 	blpl	80a648 <__bss_end__+0x801298>
  b0:	2f4d5241 	svccs	0x004d5241
  b4:	2d6d7261 	sfmcs	f7, 2, [sp, #-388]!	; 0xfffffe7c
  b8:	72622d39 	rsbvc	r2, r2, #3648	; 0xe40
  bc:	68636e61 	stmdavs	r3!, {r0, r5, r6, r9, sl, fp, sp, lr}^
  c0:	76657220 	strbtvc	r7, [r5], -r0, lsr #4
  c4:	6f697369 	svcvs	0x00697369
  c8:	3732206e 	ldrcc	r2, [r2, -lr, rrx]!
  cc:	39393537 	ldmdbcc	r9!, {r0, r1, r2, r4, r5, r8, sl, ip, sp}
  d0:	Address 0x00000000000000d0 is out of bounds.


Disassembly of section .debug_info:

00000000 <.debug_info>:
       0:	000001b3 			; <UNDEFINED> instruction: 0x000001b3
       4:	00000004 	andeq	r0, r0, r4
       8:	01040000 	mrseq	r0, (UNDEF: 4)
       c:	000000f8 	strdeq	r0, [r0], -r8
      10:	00000b0c 	andeq	r0, r0, ip, lsl #22
      14:	00001c00 	andeq	r1, r0, r0, lsl #24
      18:	00803400 	addeq	r3, r0, r0, lsl #8
      1c:	00005c00 	andeq	r5, r0, r0, lsl #24
      20:	00000000 	andeq	r0, r0, r0
      24:	05040200 	streq	r0, [r4, #-512]	; 0xfffffe00
      28:	00746e69 	rsbseq	r6, r4, r9, ror #28
      2c:	c7070403 	strgt	r0, [r7, -r3, lsl #8]
      30:	03000000 	movweq	r0, #0
      34:	00750601 	rsbseq	r0, r5, r1, lsl #12
      38:	02030000 	andeq	r0, r3, #0, 0
      3c:	0000ee05 	andeq	lr, r0, r5, lsl #28
      40:	05040300 	streq	r0, [r4, #-768]	; 0xfffffd00
      44:	000000d9 	ldrdeq	r0, [r0], -r9
      48:	d4050803 	strle	r0, [r5], #-2051	; 0xfffff7fd
      4c:	03000000 	movweq	r0, #0
      50:	00730801 	rsbseq	r0, r3, r1, lsl #16
      54:	02030000 	andeq	r0, r3, #0, 0
      58:	00009a07 	andeq	r9, r0, r7, lsl #20
      5c:	07040300 	streq	r0, [r4, -r0, lsl #6]
      60:	000000c2 	andeq	r0, r0, r2, asr #1
      64:	bd070803 	stclt	8, cr0, [r7, #-12]
      68:	04000000 	streq	r0, [r0], #-0
      6c:	00000025 	andeq	r0, r0, r5, lsr #32
      70:	0000007a 	andeq	r0, r0, sl, ror r0
      74:	00002505 	andeq	r2, r0, r5, lsl #10
      78:	e2060000 	and	r0, r6, #0, 0
      7c:	02000000 	andeq	r0, r0, #0, 0
      80:	00860e1c 	addeq	r0, r6, ip, lsl lr
      84:	04070000 	streq	r0, [r7], #-0
      88:	0000006b 	andeq	r0, r0, fp, rrx
      8c:	00002504 	andeq	r2, r0, r4, lsl #10
      90:	00009b00 	andeq	r9, r0, r0, lsl #22
      94:	009b0500 	addseq	r0, fp, r0, lsl #10
      98:	07000000 	streq	r0, [r0, -r0]
      9c:	0000a804 	andeq	sl, r0, r4, lsl #16
      a0:	08010300 	stmdaeq	r1, {r8, r9}
      a4:	0000007c 	andeq	r0, r0, ip, ror r0
      a8:	0000a108 	andeq	sl, r0, r8, lsl #2
      ac:	032b0600 			; <UNDEFINED> instruction: 0x032b0600
      b0:	21020000 	mrscs	r0, (UNDEF: 2)
      b4:	0000b90e 	andeq	fp, r0, lr, lsl #18
      b8:	8c040700 	stchi	7, cr0, [r4], {-0}
      bc:	09000000 	stmdbeq	r0, {}	; <UNPREDICTABLE>
      c0:	000001ad 	andeq	r0, r0, sp, lsr #3
      c4:	34060401 	strcc	r0, [r6], #-1025	; 0xfffffbff
      c8:	5c000080 	stcpl	0, cr0, [r0], {128}	; 0x80
      cc:	01000000 	mrseq	r0, (UNDEF: 0)
      d0:	00016e9c 	muleq	r1, ip, lr
      d4:	803c0a00 	eorshi	r0, ip, r0, lsl #20
      d8:	00440000 	subeq	r0, r4, r0
      dc:	015b0000 	cmpeq	fp, r0
      e0:	690b0000 	stmdbvs	fp, {}	; <UNPREDICTABLE>
      e4:	0d070100 	stfeqs	f0, [r7, #-0]
      e8:	00000025 	andeq	r0, r0, r5, lsr #32
      ec:	00000004 	andeq	r0, r0, r4
      f0:	00000000 	andeq	r0, r0, r0
      f4:	0080540c 	addeq	r5, r0, ip, lsl #8
      f8:	00016e00 	andeq	r6, r1, r0, lsl #28
      fc:	00011100 	andeq	r1, r1, r0, lsl #2
     100:	50010d00 	andpl	r0, r1, r0, lsl #26
     104:	8dd40305 	ldclhi	3, cr0, [r4, #20]
     108:	010d0000 	mrseq	r0, (UNDEF: 13)
     10c:	00750251 	rsbseq	r0, r5, r1, asr r2
     110:	805c0c00 	subshi	r0, ip, r0, lsl #24
     114:	017a0000 	cmneq	sl, r0
     118:	01240000 			; <UNDEFINED> instruction: 0x01240000
     11c:	010d0000 	mrseq	r0, (UNDEF: 13)
     120:	00300150 	eorseq	r0, r0, r0, asr r1
     124:	0080640c 	addeq	r6, r0, ip, lsl #8
     128:	00018600 	andeq	r8, r1, r0, lsl #12
     12c:	00013800 	andeq	r3, r1, r0, lsl #16
     130:	50010d00 	andpl	r0, r1, r0, lsl #26
     134:	00007402 	andeq	r7, r0, r2, lsl #8
     138:	0080680e 	addeq	r6, r0, lr, lsl #16
     13c:	00019200 	andeq	r9, r1, r0, lsl #4
     140:	80740f00 	rsbshi	r0, r4, r0, lsl #30
     144:	016e0000 	cmneq	lr, r0
     148:	010d0000 	mrseq	r0, (UNDEF: 13)
     14c:	ec030550 	cfstr32	mvfx0, [r3], {80}	; 0x50
     150:	0d00008d 	stceq	0, cr0, [r0, #-564]	; 0xfffffdcc
     154:	75025101 	strvc	r5, [r2, #-257]	; 0xfffffeff
     158:	0e000000 	cdpeq	0, 0, cr0, cr0, cr0, {0}
     15c:	0000803c 	andeq	r8, r0, ip, lsr r0
     160:	0000019e 	muleq	r0, lr, r1
     164:	0080840e 	addeq	r8, r0, lr, lsl #8
     168:	0001aa00 	andeq	sl, r1, r0, lsl #20
     16c:	bd100000 	ldclt	0, cr0, [r0, #-0]
     170:	bd000002 	stclt	0, cr0, [r0, #-8]
     174:	02000002 	andeq	r0, r0, #2, 0
     178:	8e100628 	cfmsub32hi	mvax1, mvfx0, mvfx0, mvfx8
     17c:	8e000000 	cdphi	0, 0, cr0, cr0, cr0, {0}
     180:	03000000 	movweq	r0, #0
     184:	ad10060b 	ldcge	6, cr0, [r0, #-44]	; 0xffffffd4
     188:	ad000000 	stcge	0, cr0, [r0, #-0]
     18c:	04000000 	streq	r0, [r0], #-0
     190:	0010061d 	andseq	r0, r0, sp, lsl r6
     194:	00000000 	andeq	r0, r0, r0
     198:	03000000 	movweq	r0, #0
     19c:	6910060f 	ldmdbvs	r0, {r0, r1, r2, r3, r9, sl}
     1a0:	69000000 	stmdbvs	r0, {}	; <UNPREDICTABLE>
     1a4:	02000000 	andeq	r0, r0, #0, 0
     1a8:	81100639 	tsthi	r0, r9, lsr r6
     1ac:	81000000 	mrshi	r0, (UNDEF: 0)
     1b0:	02000000 	andeq	r0, r0, #0, 0
     1b4:	d8000667 	stmdale	r0, {r0, r1, r2, r5, r6, r9, sl}
     1b8:	04000003 	streq	r0, [r0], #-3
     1bc:	0000dc00 	andeq	sp, r0, r0, lsl #24
     1c0:	f8010400 			; <UNDEFINED> instruction: 0xf8010400
     1c4:	0c000000 	stceq	0, cr0, [r0], {-0}
     1c8:	00000229 	andeq	r0, r0, r9, lsr #4
     1cc:	00000263 	andeq	r0, r0, r3, ror #4
     1d0:	00008090 	muleq	r0, r0, r0
     1d4:	000001b4 			; <UNDEFINED> instruction: 0x000001b4
     1d8:	000000f0 	strdeq	r0, [r0], -r0	; <UNPREDICTABLE>
     1dc:	69050402 	stmdbvs	r5, {r1, sl}
     1e0:	0300746e 	movweq	r7, #1134	; 0x46e
     1e4:	00c70704 	sbceq	r0, r7, r4, lsl #14
     1e8:	01030000 	mrseq	r0, (UNDEF: 3)
     1ec:	00007506 	andeq	r7, r0, r6, lsl #10
     1f0:	05020300 	streq	r0, [r2, #-768]	; 0xfffffd00
     1f4:	000000ee 	andeq	r0, r0, lr, ror #1
     1f8:	d9050403 	stmdble	r5, {r0, r1, sl}
     1fc:	03000000 	movweq	r0, #0
     200:	00d40508 	sbcseq	r0, r4, r8, lsl #10
     204:	01030000 	mrseq	r0, (UNDEF: 3)
     208:	00007308 	andeq	r7, r0, r8, lsl #6
     20c:	07020300 	streq	r0, [r2, -r0, lsl #6]
     210:	0000009a 	muleq	r0, sl, r0
     214:	00024204 	andeq	r4, r2, r4, lsl #4
     218:	19340300 	ldmdbne	r4!, {r8, r9}
     21c:	00000069 	andeq	r0, r0, r9, rrx
     220:	c2070403 	andgt	r0, r7, #50331648	; 0x3000000
     224:	03000000 	movweq	r0, #0
     228:	00bd0708 	adcseq	r0, sp, r8, lsl #14
     22c:	25050000 	strcs	r0, [r5, #-0]
     230:	86000000 	strhi	r0, [r0], -r0
     234:	06000000 	streq	r0, [r0], -r0
     238:	00000025 	andeq	r0, r0, r5, lsr #32
     23c:	00e20700 	rsceq	r0, r2, r0, lsl #14
     240:	1c020000 	stcne	0, cr0, [r2], {-0}
     244:	0000920e 	andeq	r9, r0, lr, lsl #4
     248:	77040800 	strvc	r0, [r4, -r0, lsl #16]
     24c:	05000000 	streq	r0, [r0, #-0]
     250:	00000025 	andeq	r0, r0, r5, lsr #32
     254:	000000a7 	andeq	r0, r0, r7, lsr #1
     258:	0000a706 	andeq	sl, r0, r6, lsl #14
     25c:	04080000 	streq	r0, [r8], #-0
     260:	000000b4 	strheq	r0, [r0], -r4
     264:	7c080103 	stfvcs	f0, [r8], {3}
     268:	09000000 	stmdbeq	r0, {}	; <UNPREDICTABLE>
     26c:	000000ad 	andeq	r0, r0, sp, lsr #1
     270:	00032b07 	andeq	r2, r3, r7, lsl #22
     274:	0e210200 	cdpeq	2, 2, cr0, cr1, cr0, {0}
     278:	000000c5 	andeq	r0, r0, r5, asr #1
     27c:	00980408 	addseq	r0, r8, r8, lsl #8
     280:	4b0a0000 	blmi	280288 <__bss_end__+0x276ed8>
     284:	01000002 	tsteq	r0, r2
     288:	002c0a18 	eoreq	r0, ip, r8, lsl sl
     28c:	03050000 	movweq	r0, #20480	; 0x5000
     290:	000093a8 	andeq	r9, r0, r8, lsr #7
     294:	4f01070b 	svcmi	0x0001070b
     298:	01000000 	mrseq	r0, (UNDEF: 0)
     29c:	00fe0621 	rscseq	r0, lr, r1, lsr #12
     2a0:	380c0000 	stmdacc	ip, {}	; <UNPREDICTABLE>
     2a4:	00000002 	andeq	r0, r0, r2
     2a8:	0001eb0c 	andeq	lr, r1, ip, lsl #22
     2ac:	aa0c0100 	bge	3006b4 <__bss_end__+0x2f7304>
     2b0:	02000002 	andeq	r0, r0, #2, 0
     2b4:	01c20d00 	biceq	r0, r2, r0, lsl #26
     2b8:	26010000 	strcs	r0, [r1], -r0
     2bc:	0000250c 	andeq	r2, r0, ip, lsl #10
     2c0:	a4030500 	strge	r0, [r3], #-1280	; 0xfffffb00
     2c4:	0e00008f 	cdpeq	0, 0, cr0, cr0, cr15, {4}
     2c8:	0000021c 	andeq	r0, r0, ip, lsl r2
     2cc:	2c0a4e01 	stccs	14, cr4, [sl], {1}
     2d0:	e0000000 	and	r0, r0, r0
     2d4:	64000081 	strvs	r0, [r0], #-129	; 0xffffff7f
     2d8:	01000000 	mrseq	r0, (UNDEF: 0)
     2dc:	00017b9c 	muleq	r1, ip, fp
     2e0:	01f40f00 	mvnseq	r0, r0, lsl #30
     2e4:	4e010000 	cdpmi	0, 0, cr0, cr1, cr0, {0}
     2e8:	00002c20 	andeq	r2, r0, r0, lsr #24
     2ec:	00002700 	andeq	r2, r0, r0, lsl #14
     2f0:	00002300 	andeq	r2, r0, r0, lsl #6
     2f4:	00761000 	rsbseq	r1, r6, r0
     2f8:	2c0e4f01 	stccs	15, cr4, [lr], {1}
     2fc:	4d000000 	stcmi	0, cr0, [r0, #-0]
     300:	45000000 	strmi	r0, [r0, #-0]
     304:	11000000 	mrsne	r0, (UNDEF: 0)
     308:	000081ec 	andeq	r8, r0, ip, ror #3
     30c:	000003ab 	andeq	r0, r0, fp, lsr #7
     310:	00000164 	andeq	r0, r0, r4, ror #2
     314:	02500112 	subseq	r0, r0, #-2147483644	; 0x80000004
     318:	13000075 	movwne	r0, #117	; 0x75
     31c:	00008230 	andeq	r8, r0, r0, lsr r2
     320:	000001dd 	ldrdeq	r0, [r0], -sp
     324:	02500112 	subseq	r0, r0, #-2147483644	; 0x80000004
     328:	01120075 	tsteq	r2, r5, ror r0
     32c:	00740251 	rsbseq	r0, r4, r1, asr r2
     330:	de140000 	cdple	0, 1, cr0, cr4, cr0, {0}
     334:	01000001 	tsteq	r0, r1
     338:	81800644 	orrhi	r0, r0, r4, asr #12
     33c:	00600000 	rsbeq	r0, r0, r0
     340:	9c010000 	stcls	0, cr0, [r1], {-0}
     344:	000001dd 	ldrdeq	r0, [r0], -sp
     348:	0001f40f 	andeq	pc, r1, pc, lsl #8
     34c:	1c440100 	stfnee	f0, [r4], {-0}
     350:	0000002c 	andeq	r0, r0, ip, lsr #32
     354:	00000089 	andeq	r0, r0, r9, lsl #1
     358:	00000081 	andeq	r0, r0, r1, lsl #1
     35c:	6c617615 	stclvs	6, cr7, [r1], #-84	; 0xffffffac
     360:	2b440100 	blcs	1100768 <__bss_end__+0x10f73b8>
     364:	0000002c 	andeq	r0, r0, ip, lsr #32
     368:	000000c5 	andeq	r0, r0, r5, asr #1
     36c:	000000bd 	strheq	r0, [r0], -sp
     370:	0081a811 	addeq	sl, r1, r1, lsl r8
     374:	0003b700 	andeq	fp, r3, r0, lsl #14
     378:	0001d300 	andeq	sp, r1, r0, lsl #6
     37c:	50011200 	andpl	r1, r1, r0, lsl #4
     380:	12007402 	andne	r7, r0, #33554432	; 0x2000000
     384:	75025101 	strvc	r5, [r2, #-257]	; 0xfffffeff
     388:	cc160000 	ldcgt	0, cr0, [r6], {-0}
     38c:	3d000081 	stccc	0, cr0, [r0, #-516]	; 0xfffffdfc
     390:	00000002 	andeq	r0, r0, r2
     394:	0001c817 	andeq	ip, r1, r7, lsl r8
     398:	0d3f0100 	ldfeqs	f0, [pc, #-0]	; 3a0 <__code_start__-0x7c60>
     39c:	000080ac 	andeq	r8, r0, ip, lsr #1
     3a0:	0000001c 	andeq	r0, r0, ip, lsl r0
     3a4:	023d9c01 	eorseq	r9, sp, #256	; 0x100
     3a8:	f40f0000 	vst4.8	{d0-d3}, [pc], r0
     3ac:	01000001 	tsteq	r0, r1
     3b0:	005d213f 	subseq	r2, sp, pc, lsr r1
     3b4:	00ff0000 	rscseq	r0, pc, r0
     3b8:	00f90000 	rscseq	r0, r9, r0
     3bc:	76150000 	ldrvc	r0, [r5], -r0
     3c0:	01006c61 	tsteq	r0, r1, ror #24
     3c4:	005d303f 	subseq	r3, sp, pc, lsr r0
     3c8:	01310000 	teqeq	r1, r0
     3cc:	012b0000 			; <UNDEFINED> instruction: 0x012b0000
     3d0:	c0130000 	andsgt	r0, r3, r0
     3d4:	c3000080 	movwgt	r0, #128	; 0x80
     3d8:	12000003 	andne	r0, r0, #3, 0
     3dc:	03055001 	movweq	r5, #20481	; 0x5001
     3e0:	00008e0c 	andeq	r8, r0, ip, lsl #28
     3e4:	03510112 	cmpeq	r1, #-2147483644	; 0x80000004
     3e8:	125001f3 	subsne	r0, r0, #-1073741764	; 0xc000003c
     3ec:	f3035201 	vhsub.u8	d5, d3, d1
     3f0:	00005101 	andeq	r5, r0, r1, lsl #2
     3f4:	0001d317 	andeq	sp, r1, r7, lsl r3
     3f8:	0d3c0100 	ldfeqs	f0, [ip, #-0]
     3fc:	00008090 	muleq	r0, r0, r0
     400:	0000001c 	andeq	r0, r0, ip, lsl r0
     404:	029d9c01 	addseq	r9, sp, #256	; 0x100
     408:	f40f0000 	vst4.8	{d0-d3}, [pc], r0
     40c:	01000001 	tsteq	r0, r1
     410:	005d213c 	subseq	r2, sp, ip, lsr r1
     414:	01630000 	cmneq	r3, r0
     418:	015d0000 	cmpeq	sp, r0
     41c:	76150000 	ldrvc	r0, [r5], -r0
     420:	01006c61 	tsteq	r0, r1, ror #24
     424:	005d303c 	subseq	r3, sp, ip, lsr r0
     428:	01950000 	orrseq	r0, r5, r0
     42c:	018f0000 	orreq	r0, pc, r0
     430:	a4130000 	ldrge	r0, [r3], #-0
     434:	c3000080 	movwgt	r0, #128	; 0x80
     438:	12000003 	andne	r0, r0, #3, 0
     43c:	03055001 	movweq	r5, #20481	; 0x5001
     440:	00008df8 	strdeq	r8, [r0], -r8	; <UNPREDICTABLE>
     444:	03510112 	cmpeq	r1, #-2147483644	; 0x80000004
     448:	125001f3 	subsne	r0, r0, #-1073741764	; 0xc000003c
     44c:	f3035201 	vhsub.u8	d5, d3, d1
     450:	00005101 	andeq	r5, r0, r1, lsl #2
     454:	00000014 	andeq	r0, r0, r4, lsl r0
     458:	06350100 	ldrteq	r0, [r5], -r0, lsl #2
     45c:	00008124 	andeq	r8, r0, r4, lsr #2
     460:	0000005c 	andeq	r0, r0, ip, asr r0
     464:	03059c01 	movweq	r9, #23553	; 0x5c01
     468:	02180000 	andseq	r0, r8, #0, 0
     46c:	15000002 	strne	r0, [r0, #-2]
     470:	05000003 	streq	r0, [r0, #-3]
     474:	008e7803 	addeq	r7, lr, r3, lsl #16
     478:	81681100 	cmnhi	r8, r0, lsl #2
     47c:	03c30000 	biceq	r0, r3, #0, 0
     480:	02fb0000 	rscseq	r0, fp, #0, 0
     484:	01120000 	tsteq	r2, r0
     488:	30030550 	andcc	r0, r3, r0, asr r5
     48c:	1200008e 	andne	r0, r0, #142, 0	; 0x8e
     490:	03055101 	movweq	r5, #20737	; 0x5101
     494:	00008e20 	andeq	r8, r0, r0, lsr #28
     498:	05520112 	ldrbeq	r0, [r2, #-274]	; 0xfffffeee
     49c:	008e7803 	addeq	r7, lr, r3, lsl #16
     4a0:	53011200 	movwpl	r1, #4608	; 0x1200
     4a4:	12360802 	eorsne	r0, r6, #131072	; 0x20000
     4a8:	05007d02 	streq	r7, [r0, #-3330]	; 0xfffff2fe
     4ac:	008e5803 	addeq	r5, lr, r3, lsl #16
     4b0:	6c160000 	ldcvs	0, cr0, [r6], {-0}
     4b4:	cf000081 	svcgt	0x00000081
     4b8:	00000003 	andeq	r0, r0, r3
     4bc:	0000b419 	andeq	fp, r0, r9, lsl r4
     4c0:	00031500 	andeq	r1, r3, r0, lsl #10
     4c4:	002c1a00 	eoreq	r1, ip, r0, lsl #20
     4c8:	000a0000 	andeq	r0, sl, r0
     4cc:	00030509 	andeq	r0, r3, r9, lsl #10
     4d0:	008e1400 	addeq	r1, lr, r0, lsl #8
     4d4:	2e010000 	cdpcs	0, 0, cr0, cr1, cr0, {0}
     4d8:	0080c806 	addeq	ip, r0, r6, lsl #16
     4dc:	00005c00 	andeq	r5, r0, r0, lsl #24
     4e0:	969c0100 	ldrls	r0, [ip], r0, lsl #2
     4e4:	0f000003 	svceq	0x00000003
     4e8:	000001f9 	strdeq	r0, [r0], -r9
     4ec:	25162e01 	ldrcs	r2, [r6, #-3585]	; 0xfffff1ff
     4f0:	c5000000 	strgt	r0, [r0, #-0]
     4f4:	c1000001 	tstgt	r0, r1
     4f8:	18000001 	stmdane	r0, {r0}
     4fc:	00000202 	andeq	r0, r0, r2, lsl #4
     500:	000003a6 	andeq	r0, r0, r6, lsr #7
     504:	8e6c0305 	cdphi	3, 6, cr0, cr12, cr5, {0}
     508:	0c110000 	ldceq	0, cr0, [r1], {-0}
     50c:	c3000081 	movwgt	r0, #129	; 0x81
     510:	8c000003 	stchi	0, cr0, [r0], {3}
     514:	12000003 	andne	r0, r0, #3, 0
     518:	03055001 	movweq	r5, #20481	; 0x5001
     51c:	00008e30 	andeq	r8, r0, r0, lsr lr
     520:	05510112 	ldrbeq	r0, [r1, #-274]	; 0xfffffeee
     524:	008e2003 	addeq	r2, lr, r3
     528:	52011200 	andpl	r1, r1, #0, 4
     52c:	8e6c0305 	cdphi	3, 6, cr0, cr12, cr5, {0}
     530:	01120000 	tsteq	r2, r0
     534:	2f080253 	svccs	0x00080253
     538:	007d0212 	rsbseq	r0, sp, r2, lsl r2
     53c:	8e440305 	cdphi	3, 4, cr0, cr4, cr5, {0}
     540:	16000000 	strne	r0, [r0], -r0
     544:	00008110 	andeq	r8, r0, r0, lsl r1
     548:	000003cf 	andeq	r0, r0, pc, asr #7
     54c:	00b41900 	adcseq	r1, r4, r0, lsl #18
     550:	03a60000 			; <UNDEFINED> instruction: 0x03a60000
     554:	2c1a0000 	ldccs	0, cr0, [sl], {-0}
     558:	0b000000 	bleq	560 <__code_start__-0x7aa0>
     55c:	03960900 	orrseq	r0, r6, #0, 18
     560:	b51b0000 	ldrlt	r0, [fp, #-0]
     564:	b5000001 	strlt	r0, [r0, #-1]
     568:	01000001 	tsteq	r0, r1
     56c:	0f1b0a1c 	svceq	0x001b0a1c
     570:	0f000002 	svceq	0x00000002
     574:	01000002 	tsteq	r0, r2
     578:	bd1b061e 	ldclt	6, cr0, [fp, #-120]	; 0xffffff88
     57c:	bd000002 	stclt	0, cr0, [r0, #-8]
     580:	02000002 	andeq	r0, r0, #2, 0
     584:	811b0628 	tsthi	fp, r8, lsr #12
     588:	81000000 	mrshi	r0, (UNDEF: 0)
     58c:	02000000 	andeq	r0, r0, #0, 0
     590:	9d000667 	stcls	6, cr0, [r0, #-412]	; 0xfffffe64
     594:	04000001 	streq	r0, [r0], #-1
     598:	00027b00 	andeq	r7, r2, r0, lsl #22
     59c:	f8010400 			; <UNDEFINED> instruction: 0xf8010400
     5a0:	0c000000 	stceq	0, cr0, [r0], {-0}
     5a4:	000002d3 	ldrdeq	r0, [r0], -r3
     5a8:	000002f0 	strdeq	r0, [r0], -r0	; <UNPREDICTABLE>
     5ac:	00008244 	andeq	r8, r0, r4, asr #4
     5b0:	00000058 	andeq	r0, r0, r8, asr r0
     5b4:	000002f4 	strdeq	r0, [r0], -r4
     5b8:	0002c402 	andeq	ip, r2, r2, lsl #8
     5bc:	1b280200 	blne	a00dc4 <__bss_end__+0x9f7a14>
     5c0:	00000031 	andeq	r0, r0, r1, lsr r0
     5c4:	0002e603 	andeq	lr, r2, r3, lsl #12
     5c8:	00040400 	andeq	r0, r4, r0, lsl #8
     5cc:	00000048 	andeq	r0, r0, r8, asr #32
     5d0:	0002e104 	andeq	lr, r2, r4, lsl #2
     5d4:	00004800 	andeq	r4, r0, r0, lsl #16
     5d8:	05000000 	streq	r0, [r0, #-0]
     5dc:	02e80204 	rsceq	r0, r8, #4, 4	; 0x40000000
     5e0:	63020000 	movwvs	r0, #8192	; 0x2000
     5e4:	00002518 	andeq	r2, r0, r8, lsl r5
     5e8:	05040600 	streq	r0, [r4, #-1536]	; 0xfffffa00
     5ec:	00746e69 	rsbseq	r6, r4, r9, ror #28
     5f0:	c7070407 	strgt	r0, [r7, -r7, lsl #8]
     5f4:	07000000 	streq	r0, [r0, -r0]
     5f8:	00750601 	rsbseq	r0, r5, r1, lsl #12
     5fc:	02070000 	andeq	r0, r7, #0, 0
     600:	0000ee05 	andeq	lr, r0, r5, lsl #28
     604:	05040700 	streq	r0, [r4, #-1792]	; 0xfffff900
     608:	000000d9 	ldrdeq	r0, [r0], -r9
     60c:	d4050807 	strle	r0, [r5], #-2055	; 0xfffff7f9
     610:	07000000 	streq	r0, [r0, -r0]
     614:	00730801 	rsbseq	r0, r3, r1, lsl #16
     618:	02070000 	andeq	r0, r7, #0, 0
     61c:	00009a07 	andeq	r9, r0, r7, lsl #20
     620:	07040700 	streq	r0, [r4, -r0, lsl #14]
     624:	000000c2 	andeq	r0, r0, r2, asr #1
     628:	bd070807 	stclt	8, cr0, [r7, #-28]	; 0xffffffe4
     62c:	08000000 	stmdaeq	r0, {}	; <UNPREDICTABLE>
     630:	00000056 	andeq	r0, r0, r6, asr r0
     634:	000000ab 	andeq	r0, r0, fp, lsr #1
     638:	00005609 	andeq	r5, r0, r9, lsl #12
     63c:	e20a0000 	and	r0, sl, #0, 0
     640:	03000000 	movweq	r0, #0
     644:	00b70e1c 	adcseq	r0, r7, ip, lsl lr
     648:	040b0000 	streq	r0, [fp], #-0
     64c:	0000009c 	muleq	r0, ip, r0
     650:	00005608 	andeq	r5, r0, r8, lsl #12
     654:	0000cc00 	andeq	ip, r0, r0, lsl #24
     658:	00cc0900 	sbceq	r0, ip, r0, lsl #18
     65c:	0b000000 	bleq	664 <__code_start__-0x799c>
     660:	0000d904 	andeq	sp, r0, r4, lsl #18
     664:	08010700 	stmdaeq	r1, {r8, r9, sl}
     668:	0000007c 	andeq	r0, r0, ip, ror r0
     66c:	0000d20c 	andeq	sp, r0, ip, lsl #4
     670:	032b0a00 			; <UNDEFINED> instruction: 0x032b0a00
     674:	21030000 	mrscs	r0, (UNDEF: 3)
     678:	0000ea0e 	andeq	lr, r0, lr, lsl #20
     67c:	bd040b00 	vstrlt	d0, [r4, #-0]
     680:	0d000000 	stceq	0, cr0, [r0, #-0]
     684:	000002bd 			; <UNDEFINED> instruction: 0x000002bd
     688:	56050601 	strpl	r0, [r5], -r1, lsl #12
     68c:	44000000 	strmi	r0, [r0], #-0
     690:	58000082 	stmdapl	r0, {r1, r7}
     694:	01000000 	mrseq	r0, (UNDEF: 0)
     698:	0001839c 	muleq	r1, ip, r3
     69c:	6d660e00 	stclvs	14, cr0, [r6, #-0]
     6a0:	06010074 			; <UNDEFINED> instruction: 0x06010074
     6a4:	0000cc18 	andeq	ip, r0, r8, lsl ip
     6a8:	70910200 	addsvc	r0, r1, r0, lsl #4
     6ac:	7562100f 	strbvc	r1, [r2, #-15]!
     6b0:	08010066 	stmdaeq	r1, {r1, r2, r5, r6}
     6b4:	00018311 	andeq	r8, r1, r1, lsl r3
     6b8:	a8030500 	stmdage	r3, {r8, sl}
     6bc:	1100008f 	smlabbne	r0, pc, r0, r0	; <UNPREDICTABLE>
     6c0:	000002b5 			; <UNDEFINED> instruction: 0x000002b5
     6c4:	4a0d0901 	bmi	342ad0 <__bss_end__+0x339720>
     6c8:	02000000 	andeq	r0, r0, #0, 0
     6cc:	73125c91 	tstvc	r2, #37120	; 0x9100
     6d0:	0c01007a 	stceq	0, cr0, [r1], {122}	; 0x7a
     6d4:	0000560d 	andeq	r5, r0, sp, lsl #12
     6d8:	0001ec00 	andeq	lr, r1, r0, lsl #24
     6dc:	0001e600 	andeq	lr, r1, r0, lsl #12
     6e0:	826c1300 	rsbhi	r1, ip, #0, 6
     6e4:	01940000 	orrseq	r0, r4, r0
     6e8:	01760000 	cmneq	r6, r0
     6ec:	01140000 	tsteq	r4, r0
     6f0:	00750250 	rsbseq	r0, r5, r0, asr r2
     6f4:	03510114 	cmpeq	r1, #5
     6f8:	1404000a 	strne	r0, [r4], #-10
     6fc:	91035201 	tstls	r3, r1, lsl #4
     700:	01140648 	tsteq	r4, r8, asr #12
     704:	4c910253 	lfmmi	f0, 4, [r1], {83}	; 0x53
     708:	82801500 	addhi	r1, r0, #0, 10
     70c:	01140000 	tsteq	r4, r0
     710:	00750250 	rsbseq	r0, r5, r0, asr r2
     714:	d2160000 	andsle	r0, r6, #0, 0
     718:	94000000 	strls	r0, [r0], #-0
     71c:	17000001 	strne	r0, [r0, -r1]
     720:	0000005d 	andeq	r0, r0, sp, asr r0
     724:	180003ff 	stmdane	r0, {r0, r1, r2, r3, r4, r5, r6, r7, r8, r9}
     728:	000002ba 			; <UNDEFINED> instruction: 0x000002ba
     72c:	000002ba 			; <UNDEFINED> instruction: 0x000002ba
     730:	00050205 	andeq	r0, r5, r5, lsl #4
     734:	000000f3 	strdeq	r0, [r0], -r3
     738:	03bd0004 			; <UNDEFINED> instruction: 0x03bd0004
     73c:	01040000 	mrseq	r0, (UNDEF: 4)
     740:	000000f8 	strdeq	r0, [r0], -r8
     744:	0003300c 	andeq	r3, r3, ip
     748:	0002f000 	andeq	pc, r2, r0
     74c:	00829c00 	addeq	r9, r2, r0, lsl #24
     750:	00003400 	andeq	r3, r0, r0, lsl #8
     754:	00041300 	andeq	r1, r4, r0, lsl #6
     758:	05040200 	streq	r0, [r4, #-512]	; 0xfffffe00
     75c:	00746e69 	rsbseq	r6, r4, r9, ror #28
     760:	c7070403 	strgt	r0, [r7, -r3, lsl #8]
     764:	03000000 	movweq	r0, #0
     768:	00750601 	rsbseq	r0, r5, r1, lsl #12
     76c:	02030000 	andeq	r0, r3, #0, 0
     770:	0000ee05 	andeq	lr, r0, r5, lsl #28
     774:	05040300 	streq	r0, [r4, #-768]	; 0xfffffd00
     778:	000000d9 	ldrdeq	r0, [r0], -r9
     77c:	d4050803 	strle	r0, [r5], #-2051	; 0xfffff7fd
     780:	03000000 	movweq	r0, #0
     784:	00730801 	rsbseq	r0, r3, r1, lsl #16
     788:	02030000 	andeq	r0, r3, #0, 0
     78c:	00009a07 	andeq	r9, r0, r7, lsl #20
     790:	07040300 	streq	r0, [r4, -r0, lsl #6]
     794:	000000c2 	andeq	r0, r0, r2, asr #1
     798:	bd070803 	stclt	8, cr0, [r7, #-12]
     79c:	04000000 	streq	r0, [r0], #-0
     7a0:	00000025 	andeq	r0, r0, r5, lsr #32
     7a4:	0000007a 	andeq	r0, r0, sl, ror r0
     7a8:	00002505 	andeq	r2, r0, r5, lsl #10
     7ac:	e2060000 	and	r0, r6, #0, 0
     7b0:	02000000 	andeq	r0, r0, #0, 0
     7b4:	00860e1c 	addeq	r0, r6, ip, lsl lr
     7b8:	04070000 	streq	r0, [r7], #-0
     7bc:	0000006b 	andeq	r0, r0, fp, rrx
     7c0:	00002504 	andeq	r2, r0, r4, lsl #10
     7c4:	00009b00 	andeq	r9, r0, r0, lsl #22
     7c8:	009b0500 	addseq	r0, fp, r0, lsl #10
     7cc:	07000000 	streq	r0, [r0, -r0]
     7d0:	0000a804 	andeq	sl, r0, r4, lsl #16
     7d4:	08010300 	stmdaeq	r1, {r8, r9}
     7d8:	0000007c 	andeq	r0, r0, ip, ror r0
     7dc:	0000a108 	andeq	sl, r0, r8, lsl #2
     7e0:	032b0600 			; <UNDEFINED> instruction: 0x032b0600
     7e4:	21020000 	mrscs	r0, (UNDEF: 2)
     7e8:	0000b90e 	andeq	fp, r0, lr, lsl #18
     7ec:	8c040700 	stchi	7, cr0, [r4], {-0}
     7f0:	09000000 	stmdbeq	r0, {}	; <UNPREDICTABLE>
     7f4:	000000ad 	andeq	r0, r0, sp, lsr #1
     7f8:	05070c01 	streq	r0, [r7, #-3073]	; 0xfffff3ff
     7fc:	008f9c03 	addeq	r9, pc, r3, lsl #24
     800:	03220a00 			; <UNDEFINED> instruction: 0x03220a00
     804:	04010000 	streq	r0, [r1], #-0
     808:	00002505 	andeq	r2, r0, r5, lsl #10
     80c:	00829c00 	addeq	r9, r2, r0, lsl #24
     810:	00003400 	andeq	r3, r0, r0, lsl #8
     814:	0b9c0100 	bleq	fe700c1c <__bss_end__+0xfe6f786c>
     818:	04010070 	streq	r0, [r1], #-112	; 0xffffff90
     81c:	00009b1f 	andeq	r9, r0, pc, lsl fp
     820:	00021900 	andeq	r1, r2, r0, lsl #18
     824:	00021500 	andeq	r1, r2, r0, lsl #10
     828:	04000000 	streq	r0, [r0], #-0
     82c:	04000009 	streq	r0, [r0], #-9
     830:	00045b00 	andeq	r5, r4, r0, lsl #22
     834:	f8010400 			; <UNDEFINED> instruction: 0xf8010400
     838:	0c000000 	stceq	0, cr0, [r0], {-0}
     83c:	000003b9 			; <UNDEFINED> instruction: 0x000003b9
     840:	000002f0 	strdeq	r0, [r0], -r0	; <UNPREDICTABLE>
     844:	000082d0 	ldrdeq	r8, [r0], -r0
     848:	0000062c 	andeq	r0, r0, ip, lsr #12
     84c:	000004ca 	andeq	r0, r0, sl, asr #9
     850:	69050402 	stmdbvs	r5, {r1, sl}
     854:	0300746e 	movweq	r7, #1134	; 0x46e
     858:	00c70704 	sbceq	r0, r7, r4, lsl #14
     85c:	01030000 	mrseq	r0, (UNDEF: 3)
     860:	00007506 	andeq	r7, r0, r6, lsl #10
     864:	05020300 	streq	r0, [r2, #-768]	; 0xfffffd00
     868:	000000ee 	andeq	r0, r0, lr, ror #1
     86c:	d9050403 	stmdble	r5, {r0, r1, sl}
     870:	03000000 	movweq	r0, #0
     874:	00d40508 	sbcseq	r0, r4, r8, lsl #10
     878:	01030000 	mrseq	r0, (UNDEF: 3)
     87c:	00007308 	andeq	r7, r0, r8, lsl #6
     880:	07020300 	streq	r0, [r2, -r0, lsl #6]
     884:	0000009a 	muleq	r0, sl, r0
     888:	00024204 	andeq	r4, r2, r4, lsl #4
     88c:	19340200 	ldmdbne	r4!, {r9}
     890:	00000069 	andeq	r0, r0, r9, rrx
     894:	c2070403 	andgt	r0, r7, #50331648	; 0x3000000
     898:	04000000 	streq	r0, [r0], #-0
     89c:	00000344 	andeq	r0, r0, r4, asr #6
     8a0:	7c193702 	ldcvc	7, cr3, [r9], {2}
     8a4:	03000000 	movweq	r0, #0
     8a8:	00bd0708 	adcseq	r0, sp, r8, lsl #14
     8ac:	25050000 	strcs	r0, [r5, #-0]
     8b0:	92000000 	andls	r0, r0, #0, 0
     8b4:	06000000 	streq	r0, [r0], -r0
     8b8:	00000025 	andeq	r0, r0, r5, lsr #32
     8bc:	00e20700 	rsceq	r0, r2, r0, lsl #14
     8c0:	1c030000 	stcne	0, cr0, [r3], {-0}
     8c4:	00009e0e 	andeq	r9, r0, lr, lsl #28
     8c8:	83040800 	movwhi	r0, #18432	; 0x4800
     8cc:	05000000 	streq	r0, [r0, #-0]
     8d0:	00000025 	andeq	r0, r0, r5, lsr #32
     8d4:	000000b3 	strheq	r0, [r0], -r3
     8d8:	0000b306 	andeq	fp, r0, r6, lsl #6
     8dc:	04080000 	streq	r0, [r8], #-0
     8e0:	000000c0 	andeq	r0, r0, r0, asr #1
     8e4:	7c080103 	stfvcs	f0, [r8], {3}
     8e8:	09000000 	stmdbeq	r0, {}	; <UNPREDICTABLE>
     8ec:	000000b9 	strheq	r0, [r0], -r9
     8f0:	00032b07 	andeq	r2, r3, r7, lsl #22
     8f4:	0e210300 	cdpeq	3, 2, cr0, cr1, cr0, {0}
     8f8:	000000d1 	ldrdeq	r0, [r0], -r1
     8fc:	00a40408 	adceq	r0, r4, r8, lsl #8
     900:	4d070000 	stcmi	0, cr0, [r7, #-0]
     904:	04000003 	streq	r0, [r0], #-3
     908:	00b90d0b 	adcseq	r0, r9, fp, lsl #26
     90c:	d7070000 	strle	r0, [r7, -r0]
     910:	04000003 	streq	r0, [r0], #-3
     914:	00b90d0c 	adcseq	r0, r9, ip, lsl #26
     918:	5c070000 	stcpl	0, cr0, [r7], {-0}
     91c:	04000003 	streq	r0, [r0], #-3
     920:	00b90d0d 	adcseq	r0, r9, sp, lsl #26
     924:	85070000 	strhi	r0, [r7, #-0]
     928:	04000003 	streq	r0, [r0], #-3
     92c:	00b90d0e 	adcseq	r0, r9, lr, lsl #26
     930:	f9070000 			; <UNDEFINED> instruction: 0xf9070000
     934:	04000003 	streq	r0, [r0], #-3
     938:	00b90d0f 	adcseq	r0, r9, pc, lsl #26
     93c:	70070000 	andvc	r0, r7, r0
     940:	04000003 	streq	r0, [r0], #-3
     944:	00b90d10 	adcseq	r0, r9, r0, lsl sp
     948:	08070000 	stmdaeq	r7, {}	; <UNPREDICTABLE>
     94c:	04000004 	streq	r0, [r0], #-4
     950:	00b90d11 	adcseq	r0, r9, r1, lsl sp
     954:	91070000 	mrsls	r0, (UNDEF: 7)
     958:	04000003 	streq	r0, [r0], #-3
     95c:	00b90d12 	adcseq	r0, r9, r2, lsl sp
     960:	c4040000 	strgt	r0, [r4], #-0
     964:	05000002 	streq	r0, [r0, #-2]
     968:	01431b28 	cmpeq	r3, r8, lsr #22
     96c:	e60a0000 	str	r0, [sl], -r0
     970:	04000002 	streq	r0, [r0], #-2
     974:	015a0006 	cmpeq	sl, r6
     978:	e10b0000 	mrs	r0, (UNDEF: 11)
     97c:	5a000002 	bpl	98c <__code_start__-0x7674>
     980:	00000001 	andeq	r0, r0, r1
     984:	04040c00 	streq	r0, [r4], #-3072	; 0xfffff400
     988:	000002e8 	andeq	r0, r0, r8, ror #5
     98c:	37186305 	ldrcc	r6, [r8, -r5, lsl #6]
     990:	0d000001 	stceq	0, cr0, [r0, #-4]
     994:	000002ba 			; <UNDEFINED> instruction: 0x000002ba
     998:	25058101 	strcs	r8, [r5, #-257]	; 0xfffffeff
     99c:	58000000 	stmdapl	r0, {}	; <UNPREDICTABLE>
     9a0:	a4000085 	strge	r0, [r0], #-133	; 0xffffff7b
     9a4:	01000003 	tsteq	r0, r3
     9a8:	00055c9c 	muleq	r5, ip, ip
     9ac:	75620e00 	strbvc	r0, [r2, #-3584]!	; 0xfffff200
     9b0:	81010066 	tsthi	r1, r6, rrx
     9b4:	00055c15 	andeq	r5, r5, r5, lsl ip
     9b8:	00023d00 	andeq	r3, r2, r0, lsl #26
     9bc:	00023700 	andeq	r3, r2, r0, lsl #14
     9c0:	006e0e00 	rsbeq	r0, lr, r0, lsl #28
     9c4:	251e8101 	ldrcs	r8, [lr, #-257]	; 0xfffffeff
     9c8:	6f000000 	svcvs	0x00000000
     9cc:	69000002 	stmdbvs	r0, {r1}
     9d0:	0e000002 	cdpeq	0, 0, cr0, cr0, cr2, {0}
     9d4:	00746d66 	rsbseq	r6, r4, r6, ror #26
     9d8:	b32d8101 			; <UNDEFINED> instruction: 0xb32d8101
     9dc:	a1000000 	mrsge	r0, (UNDEF: 0)
     9e0:	9d000002 	stcls	0, cr0, [r0, #-8]
     9e4:	0f000002 	svceq	0x00000002
     9e8:	000002b5 			; <UNDEFINED> instruction: 0x000002b5
     9ec:	5c3a8101 	ldfpld	f0, [sl], #-4
     9f0:	03000001 	movweq	r0, #1
     9f4:	107dd491 			; <UNDEFINED> instruction: 0x107dd491
     9f8:	82010070 	andhi	r0, r1, #112, 0	; 0x70
     9fc:	00055c08 	andeq	r5, r5, r8, lsl #24
     a00:	0002d300 	andeq	sp, r2, r0, lsl #6
     a04:	0002bf00 	andeq	fp, r2, r0, lsl #30
     a08:	00651000 	rsbeq	r1, r5, r0
     a0c:	5c128201 	lfmpl	f0, 1, [r2], {1}
     a10:	55000005 	strpl	r0, [r0, #-5]
     a14:	51000003 	tstpl	r0, r3
     a18:	10000003 	andne	r0, r0, r3
     a1c:	01003078 	tsteq	r0, r8, ror r0
     a20:	005d0e83 	subseq	r0, sp, r3, lsl #29
     a24:	037e0000 	cmneq	lr, #0, 0
     a28:	037c0000 	cmneq	ip, #0, 0
     a2c:	78110000 	ldmdavc	r1, {}	; <UNPREDICTABLE>
     a30:	83010031 	movwhi	r0, #4145	; 0x1031
     a34:	00005d11 	andeq	r5, r0, r1, lsl sp
     a38:	03af1200 			; <UNDEFINED> instruction: 0x03af1200
     a3c:	86010000 	strhi	r0, [r1], -r0
     a40:	0000b311 	andeq	fp, r0, r1, lsl r3
     a44:	00039500 	andeq	r9, r3, r0, lsl #10
     a48:	00039100 	andeq	r9, r3, r0, lsl #2
     a4c:	02021300 	andeq	r1, r2, #0, 6
     a50:	05720000 	ldrbeq	r0, [r2, #-0]!
     a54:	03050000 	movweq	r0, #20480	; 0x5000
     a58:	00008f84 	andeq	r8, r0, r4, lsl #31
     a5c:	0085c014 	addeq	ip, r5, r4, lsl r0
     a60:	00030000 	andeq	r0, r3, r0
     a64:	00731000 	rsbseq	r1, r3, r0
     a68:	5c0a9101 	stfpld	f1, [sl], {1}
     a6c:	c7000005 	strgt	r0, [r0, -r5]
     a70:	b5000003 	strlt	r0, [r0, #-3]
     a74:	15000003 	strne	r0, [r0, #-3]
     a78:	006d756e 	rsbeq	r7, sp, lr, ror #10
     a7c:	770d9101 	strvc	r9, [sp, -r1, lsl #2]
     a80:	03000005 	movweq	r0, #5
     a84:	167dd891 			; <UNDEFINED> instruction: 0x167dd891
     a88:	00000415 	andeq	r0, r0, r5, lsl r4
     a8c:	77179101 	ldrvc	r9, [r7, -r1, lsl #2]
     a90:	03000005 	movweq	r0, #5
     a94:	127ed891 	rsbsne	sp, lr, #9502720	; 0x910000
     a98:	0000036a 	andeq	r0, r0, sl, ror #6
     a9c:	2c0d9201 	sfmcs	f1, 1, [sp], {1}
     aa0:	38000000 	stmdacc	r0, {}	; <UNPREDICTABLE>
     aa4:	32000004 	andcc	r0, r0, #4, 0
     aa8:	17000004 	strne	r0, [r0, -r4]
     aac:	00000000 	andeq	r0, r0, r0
     ab0:	00000504 	andeq	r0, r0, r4, lsl #10
     ab4:	00787815 	rsbseq	r7, r8, r5, lsl r8
     ab8:	701a9f01 	andsvc	r9, sl, r1, lsl #30
     abc:	06000000 	streq	r0, [r0], -r0
     ac0:	5304935b 	movwpl	r9, #17243	; 0x435b
     ac4:	98180493 	ldmdals	r8, {r0, r1, r4, r7, sl}
     ac8:	d7000086 	strle	r0, [r0, -r6, lsl #1]
     acc:	bd000008 	stclt	0, cr0, [r0, #-32]	; 0xffffffe0
     ad0:	19000002 	stmdbne	r0, {r1}
     ad4:	76025001 	strvc	r5, [r2], -r1
     ad8:	51011900 	tstpl	r1, r0, lsl #18
     adc:	8ed40305 	cdphi	3, 13, cr0, cr4, cr5, {0}
     ae0:	01190000 	tsteq	r9, r0
     ae4:	00330152 	eorseq	r0, r3, r2, asr r1
     ae8:	0086dc18 	addeq	sp, r6, r8, lsl ip
     aec:	00058700 	andeq	r8, r5, r0, lsl #14
     af0:	0002eb00 	andeq	lr, r2, r0, lsl #22
     af4:	50011900 	andpl	r1, r1, r0, lsl #18
     af8:	01194001 	tsteq	r9, r1
     afc:	d0910351 	addsle	r0, r1, r1, asr r3
     b00:	5201197d 	andpl	r1, r1, #2048000	; 0x1f4000
     b04:	19800802 	stmibne	r0, {r1, fp}
     b08:	02007d02 	andeq	r7, r0, #128	; 0x80
     b0c:	02190075 	andseq	r0, r9, #117, 0	; 0x75
     b10:	7a02047d 	bvc	81d0c <__bss_end__+0x7895c>
     b14:	fc180000 	ldc2	0, cr0, [r8], {-0}
     b18:	87000086 	strhi	r0, [r0, -r6, lsl #1]
     b1c:	1f000005 	svcne	0x00000005
     b20:	19000003 	stmdbne	r0, {r0, r1}
     b24:	40015001 	andmi	r5, r1, r1
     b28:	03510119 	cmpeq	r1, #1073741830	; 0x40000006
     b2c:	197ed091 	ldmdbne	lr!, {r0, r4, r7, ip, lr, pc}^
     b30:	08025201 	stmdaeq	r2, {r0, r9, ip, lr}
     b34:	53011980 	movwpl	r1, #6528	; 0x1980
     b38:	19007b02 	stmdbne	r0, {r1, r8, r9, fp, ip, sp, lr}
     b3c:	02007d02 	andeq	r7, r0, #128	; 0x80
     b40:	02190075 	andseq	r0, r9, #117, 0	; 0x75
     b44:	7a02047d 	bvc	81d40 <__bss_end__+0x78990>
     b48:	08180000 	ldmdaeq	r8, {}	; <UNPREDICTABLE>
     b4c:	e3000087 	movw	r0, #135	; 0x87
     b50:	3b000008 	blcc	b78 <__code_start__-0x7488>
     b54:	19000003 	stmdbne	r0, {r0, r1}
     b58:	91035001 	tstls	r3, r1
     b5c:	01197dd0 			; <UNDEFINED> instruction: 0x01197dd0
     b60:	d2910351 	addsle	r0, r1, #1140850689	; 0x44000001
     b64:	2818007e 	ldmdacs	r8, {r1, r2, r3, r4, r5, r6}
     b68:	ef000087 	svc	0x00000087
     b6c:	74000008 	strvc	r0, [r0], #-8
     b70:	19000003 	stmdbne	r0, {r0, r1}
     b74:	03055001 	movweq	r5, #20481	; 0x5001
     b78:	00008e30 	andeq	r8, r0, r0, lsr lr
     b7c:	05510119 	ldrbeq	r0, [r1, #-281]	; 0xfffffee7
     b80:	008e8403 	addeq	r8, lr, r3, lsl #8
     b84:	52011900 	andpl	r1, r1, #0, 18
     b88:	8f840305 	svchi	0x00840305
     b8c:	01190000 	tsteq	r9, r0
     b90:	9d080253 	sfmls	f0, 4, [r8, #-332]	; 0xfffffeb4
     b94:	007d0219 	rsbseq	r0, sp, r9, lsl r2
     b98:	8ed80305 	cdphi	3, 13, cr0, cr8, cr5, {0}
     b9c:	1a000000 	bne	ba4 <__code_start__-0x745c>
     ba0:	0000872c 	andeq	r8, r0, ip, lsr #14
     ba4:	000008fb 	strdeq	r0, [r0], -fp
     ba8:	00874018 	addeq	r4, r7, r8, lsl r0
     bac:	0008ef00 	andeq	lr, r8, r0, lsl #30
     bb0:	0003ac00 	andeq	sl, r3, r0, lsl #24
     bb4:	50011900 	andpl	r1, r1, r0, lsl #18
     bb8:	8ef40305 	cdphi	3, 15, cr0, cr4, cr5, {0}
     bbc:	01190000 	tsteq	r9, r0
     bc0:	84030551 	strhi	r0, [r3], #-1361	; 0xfffffaaf
     bc4:	1900008e 	stmdbne	r0, {r1, r2, r3, r7}
     bc8:	03055201 	movweq	r5, #20993	; 0x5201
     bcc:	00008f84 	andeq	r8, r0, r4, lsl #31
     bd0:	02530119 	subseq	r0, r3, #1073741830	; 0x40000006
     bd4:	1a00af08 	bne	2c7fc <__bss_end__+0x2344c>
     bd8:	00008744 	andeq	r8, r0, r4, asr #14
     bdc:	000008fb 	strdeq	r0, [r0], -fp
     be0:	00877018 	addeq	r7, r7, r8, lsl r0
     be4:	00058700 	andeq	r8, r5, r0, lsl #14
     be8:	0003e200 	andeq	lr, r3, r0, lsl #4
     bec:	50011900 	andpl	r1, r1, r0, lsl #18
     bf0:	01193a01 	tsteq	r9, r1, lsl #20
     bf4:	d0910351 	addsle	r0, r1, r1, asr r3
     bf8:	5201197d 	andpl	r1, r1, #2048000	; 0x1f4000
     bfc:	19800802 	stmibne	r0, {r1, fp}
     c00:	02007d02 	andeq	r7, r0, #128	; 0x80
     c04:	02190075 	andseq	r0, r9, #117, 0	; 0x75
     c08:	3101047d 	tstcc	r1, sp, ror r4
     c0c:	87a81800 	strhi	r1, [r8, r0, lsl #16]!
     c10:	05870000 	streq	r0, [r7]
     c14:	040f0000 	streq	r0, [pc], #-0	; c1c <__code_start__-0x73e4>
     c18:	01190000 	tsteq	r9, r0
     c1c:	193a0150 	ldmdbne	sl!, {r4, r6, r8}
     c20:	91035101 	tstls	r3, r1, lsl #2
     c24:	01197dd0 			; <UNDEFINED> instruction: 0x01197dd0
     c28:	80080252 	andhi	r0, r8, r2, asr r2
     c2c:	007d0219 	rsbseq	r0, sp, r9, lsl r2
     c30:	19007502 	stmdbne	r0, {r1, r8, sl, ip, sp, lr}
     c34:	01047d02 	tsteq	r4, r2, lsl #26
     c38:	dc180030 	ldcle	0, cr0, [r8], {48}	; 0x30
     c3c:	87000087 	strhi	r0, [r0, -r7, lsl #1]
     c40:	3c000005 	stccc	0, cr0, [r0], {5}
     c44:	19000004 	stmdbne	r0, {r2}
     c48:	40015001 	andmi	r5, r1, r1
     c4c:	03510119 	cmpeq	r1, #1073741830	; 0x40000006
     c50:	197dd091 	ldmdbne	sp!, {r0, r4, r7, ip, lr, pc}^
     c54:	08025201 	stmdaeq	r2, {r0, r9, ip, lr}
     c58:	7d021980 	vstrvc.16	s2, [r2, #-256]	; 0xffffff00	; <UNPREDICTABLE>
     c5c:	00750200 	rsbseq	r0, r5, r0, lsl #4
     c60:	047d0219 	ldrbteq	r0, [sp], #-537	; 0xfffffde7
     c64:	18003001 	stmdane	r0, {r0, ip, sp}
     c68:	00008810 	andeq	r8, r0, r0, lsl r8
     c6c:	00000587 	andeq	r0, r0, r7, lsl #11
     c70:	00000469 	andeq	r0, r0, r9, ror #8
     c74:	01500119 	cmpeq	r0, r9, lsl r1
     c78:	51011932 	tstpl	r1, r2, lsr r9
     c7c:	7dd09103 	ldfvcp	f1, [r0, #12]
     c80:	02520119 	subseq	r0, r2, #1073741830	; 0x40000006
     c84:	02198008 	andseq	r8, r9, #8, 0
     c88:	7502007d 	strvc	r0, [r2, #-125]	; 0xffffff83
     c8c:	7d021900 	vstrvc.16	s2, [r2, #-0]	; <UNPREDICTABLE>
     c90:	00300104 	eorseq	r0, r0, r4, lsl #2
     c94:	00885818 	addeq	r5, r8, r8, lsl r8
     c98:	00058700 	andeq	r8, r5, r0, lsl #14
     c9c:	00049600 	andeq	r9, r4, r0, lsl #12
     ca0:	50011900 	andpl	r1, r1, r0, lsl #18
     ca4:	01193801 	tsteq	r9, r1, lsl #16
     ca8:	d0910351 	addsle	r0, r1, r1, asr r3
     cac:	5201197d 	andpl	r1, r1, #2048000	; 0x1f4000
     cb0:	19800802 	stmibne	r0, {r1, fp}
     cb4:	02007d02 	andeq	r7, r0, #128	; 0x80
     cb8:	02190075 	andseq	r0, r9, #117, 0	; 0x75
     cbc:	3001047d 	andcc	r0, r1, sp, ror r4
     cc0:	88781800 	ldmdahi	r8!, {fp, ip}^
     cc4:	08ef0000 	stmiaeq	pc!, {}^	; <UNPREDICTABLE>
     cc8:	04b90000 	ldrteq	r0, [r9], #0
     ccc:	01190000 	tsteq	r9, r0
     cd0:	1c030550 	cfstr32ne	mvfx0, [r3], {80}	; 0x50
     cd4:	1900008f 	stmdbne	r0, {r0, r1, r2, r3, r7}
     cd8:	7a025101 	bvc	950e4 <__bss_end__+0x8bd34>
     cdc:	52011900 	andpl	r1, r1, #0, 18
     ce0:	00007a02 	andeq	r7, r0, r2, lsl #20
     ce4:	0088881b 	addeq	r8, r8, fp, lsl r8
     ce8:	0004cb00 	andeq	ip, r4, r0, lsl #22
     cec:	50011900 	andpl	r1, r1, r0, lsl #18
     cf0:	7dc89104 	stfvcp	f1, [r8, #16]
     cf4:	9c180006 	ldcls	0, cr0, [r8], {6}
     cf8:	ef000088 	svc	0x00000088
     cfc:	fa000008 	blx	d24 <__code_start__-0x72dc>
     d00:	19000004 	stmdbne	r0, {r2}
     d04:	03055001 	movweq	r5, #20481	; 0x5001
     d08:	00008f4c 	andeq	r8, r0, ip, asr #30
     d0c:	05510119 	ldrbeq	r0, [r1, #-281]	; 0xfffffee7
     d10:	008e8403 	addeq	r8, lr, r3, lsl #8
     d14:	52011900 	andpl	r1, r1, #0, 18
     d18:	8f840305 	svchi	0x00840305
     d1c:	01190000 	tsteq	r9, r0
     d20:	d3080253 	movwle	r0, #33363	; 0x8253
     d24:	88a01a00 	stmiahi	r0!, {r9, fp, ip}
     d28:	08fb0000 	ldmeq	fp!, {}^	; <UNPREDICTABLE>
     d2c:	18000000 	stmdane	r0, {}	; <UNPREDICTABLE>
     d30:	000085d8 	ldrdeq	r8, [r0], -r8	; <UNPREDICTABLE>
     d34:	00000805 	andeq	r0, r0, r5, lsl #16
     d38:	00000518 	andeq	r0, r0, r8, lsl r5
     d3c:	02500119 	subseq	r0, r0, #1073741830	; 0x40000006
     d40:	18000077 	stmdane	r0, {r0, r1, r2, r4, r5, r6}
     d44:	00008684 	andeq	r8, r0, r4, lsl #13
     d48:	000008ef 	andeq	r0, r0, pc, ror #17
     d4c:	00000551 	andeq	r0, r0, r1, asr r5
     d50:	05500119 	ldrbeq	r0, [r0, #-281]	; 0xfffffee7
     d54:	008e3003 	addeq	r3, lr, r3
     d58:	51011900 	tstpl	r1, r0, lsl #18
     d5c:	8e840305 	cdphi	3, 8, cr0, cr4, cr5, {0}
     d60:	01190000 	tsteq	r9, r0
     d64:	84030552 	strhi	r0, [r3], #-1362	; 0xfffffaae
     d68:	1900008f 	stmdbne	r0, {r0, r1, r2, r3, r7}
     d6c:	08025301 	stmdaeq	r2, {r0, r8, r9, ip, lr}
     d70:	7d021998 	vstrvc.16	s2, [r2, #-304]	; 0xfffffed0	; <UNPREDICTABLE>
     d74:	c8030500 	stmdagt	r3, {r8, sl}
     d78:	0000008e 	andeq	r0, r0, lr, lsl #1
     d7c:	0086881a 	addeq	r8, r6, sl, lsl r8
     d80:	0008fb00 	andeq	pc, r8, r0, lsl #22
     d84:	08000000 	stmdaeq	r0, {}	; <UNPREDICTABLE>
     d88:	0000b904 	andeq	fp, r0, r4, lsl #18
     d8c:	00c01c00 	sbceq	r1, r0, r0, lsl #24
     d90:	05720000 	ldrbeq	r0, [r2, #-0]!
     d94:	2c1d0000 	ldccs	0, cr0, [sp], {-0}
     d98:	09000000 	stmdbeq	r0, {}	; <UNPREDICTABLE>
     d9c:	05620900 	strbeq	r0, [r2, #-2304]!	; 0xfffff700
     da0:	b91c0000 	ldmdblt	ip, {}	; <UNPREDICTABLE>
     da4:	87000000 	strhi	r0, [r0, -r0]
     da8:	1d000005 	stcne	0, cr0, [r0, #-20]	; 0xffffffec
     dac:	0000002c 	andeq	r0, r0, ip, lsr #32
     db0:	e41e007f 	ldr	r0, [lr], #-127	; 0xffffff81
     db4:	01000003 	tsteq	r0, r3
     db8:	055c0149 	ldrbeq	r0, [ip, #-329]	; 0xfffffeb7
     dbc:	83400000 	movthi	r0, #0
     dc0:	01b40000 			; <UNDEFINED> instruction: 0x01b40000
     dc4:	9c010000 	stcls	0, cr0, [r1], {-0}
     dc8:	000006f0 	strdeq	r0, [r0], -r0	; <UNPREDICTABLE>
     dcc:	0004221f 	andeq	r2, r4, pc, lsl r2
     dd0:	0f490100 	svceq	0x00490100
     dd4:	0000002c 	andeq	r0, r0, ip, lsr #32
     dd8:	00000468 	andeq	r0, r0, r8, ror #8
     ddc:	00000462 	andeq	r0, r0, r2, ror #8
     de0:	7473640e 	ldrbtvc	r6, [r3], #-1038	; 0xfffffbf2
     de4:	1b490100 	blne	12411ec <__bss_end__+0x1237e3c>
     de8:	0000055c 	andeq	r0, r0, ip, asr r5
     dec:	000004a6 	andeq	r0, r0, r6, lsr #9
     df0:	00000496 	muleq	r0, r6, r4
     df4:	01006e0e 	tsteq	r0, lr, lsl #28
     df8:	00252449 	eoreq	r2, r5, r9, asr #8
     dfc:	050a0000 	streq	r0, [sl, #-0]
     e00:	05060000 	streq	r0, [r6, #-0]
     e04:	760e0000 	strvc	r0, [lr], -r0
     e08:	01006c61 	tsteq	r0, r1, ror #24
     e0c:	00252b49 	eoreq	r2, r5, r9, asr #22
     e10:	05340000 	ldreq	r0, [r4, #-0]!
     e14:	05280000 	streq	r0, [r8, #-0]!
     e18:	6a1f0000 	bvs	7c0e20 <__bss_end__+0x7b7a70>
     e1c:	01000003 	tsteq	r0, r3
     e20:	00253449 	eoreq	r3, r5, r9, asr #8
     e24:	058a0000 	streq	r0, [sl]
     e28:	05840000 	streq	r0, [r4]
     e2c:	270f0000 	strcs	r0, [pc, -r0]
     e30:	01000004 	tsteq	r0, r4
     e34:	00253f49 	eoreq	r3, r5, r9, asr #30
     e38:	91020000 	mrsls	r0, (UNDEF: 2)
     e3c:	75621504 	strbvc	r1, [r2, #-1284]!	; 0xfffffafc
     e40:	4e010066 	cdpmi	0, 0, cr0, cr1, cr6, {3}
     e44:	0006f007 	andeq	pc, r6, r7
     e48:	a8910300 	ldmge	r1, {r8, r9}
     e4c:	0070107f 	rsbseq	r1, r0, pc, ror r0
     e50:	5c114e01 	ldcpl	14, cr4, [r1], {1}
     e54:	d4000005 	strle	r0, [r0], #-5
     e58:	b4000005 	strlt	r0, [r0], #-5
     e5c:	10000005 	andne	r0, r0, r5
     e60:	4f010075 	svcmi	0x00010075
     e64:	00002c0b 	andeq	r2, r0, fp, lsl #24
     e68:	0006ba00 	andeq	fp, r6, r0, lsl #20
     e6c:	0006a600 	andeq	sl, r6, r0, lsl #12
     e70:	02021300 	andeq	r1, r2, #0, 6
     e74:	07100000 	ldreq	r0, [r0, -r0]
     e78:	03050000 	movweq	r0, #20480	; 0x5000
     e7c:	00008f6c 	andeq	r8, r0, ip, ror #30
     e80:	0083ac20 	addeq	sl, r3, r0, lsr #24
     e84:	00007800 	andeq	r7, r0, r0, lsl #16
     e88:	00067700 	andeq	r7, r6, r0, lsl #14
     e8c:	03d11200 	bicseq	r1, r1, #0, 4
     e90:	54010000 	strpl	r0, [r1], #-0
     e94:	00002c0d 	andeq	r2, r0, sp, lsl #24
     e98:	00073b00 	andeq	r3, r7, r0, lsl #22
     e9c:	00073300 	andeq	r3, r7, r0, lsl #6
     ea0:	64180000 	ldrvs	r0, [r8], #-0
     ea4:	a2000084 	andge	r0, r0, #132, 0	; 0x84
     ea8:	8c000007 	stchi	0, cr0, [r0], {7}
     eac:	19000006 	stmdbne	r0, {r1, r2}
     eb0:	91035101 	tstls	r3, r1, lsl #2
     eb4:	18007fa0 	stmdane	r0, {r5, r7, r8, r9, sl, fp, ip, sp, lr}
     eb8:	00008478 	andeq	r8, r0, r8, ror r4
     ebc:	00000715 	andeq	r0, r0, r5, lsl r7
     ec0:	000006ad 	andeq	r0, r0, sp, lsr #13
     ec4:	02500119 	subseq	r0, r0, #1073741830	; 0x40000006
     ec8:	01190075 	tsteq	r9, r5, ror r0
     ecc:	00740251 	rsbseq	r0, r4, r1, asr r2
     ed0:	03530119 	cmpeq	r3, #1073741830	; 0x40000006
     ed4:	007fa091 			; <UNDEFINED> instruction: 0x007fa091
     ed8:	0084d018 	addeq	sp, r4, r8, lsl r0
     edc:	0008ef00 	andeq	lr, r8, r0, lsl #30
     ee0:	0006e600 	andeq	lr, r6, r0, lsl #12
     ee4:	50011900 	andpl	r1, r1, r0, lsl #18
     ee8:	8e300305 	cdphi	3, 3, cr0, cr0, cr5, {0}
     eec:	01190000 	tsteq	r9, r0
     ef0:	84030551 	strhi	r0, [r3], #-1361	; 0xfffffaaf
     ef4:	1900008e 	stmdbne	r0, {r1, r2, r3, r7}
     ef8:	03055201 	movweq	r5, #20993	; 0x5201
     efc:	00008f6c 	andeq	r8, r0, ip, ror #30
     f00:	02530119 	subseq	r0, r3, #1073741830	; 0x40000006
     f04:	02197908 	andseq	r7, r9, #8, 18	; 0x20000
     f08:	0305007d 	movweq	r0, #20605	; 0x507d
     f0c:	00008e98 	muleq	r0, r8, lr
     f10:	84d41a00 	ldrbhi	r1, [r4], #2560	; 0xa00
     f14:	08fb0000 	ldmeq	fp!, {}^	; <UNPREDICTABLE>
     f18:	1c000000 	stcne	0, cr0, [r0], {-0}
     f1c:	000000b9 	strheq	r0, [r0], -r9
     f20:	00000700 	andeq	r0, r0, r0, lsl #14
     f24:	00002c1d 	andeq	r2, r0, sp, lsl ip
     f28:	1c003f00 	stcne	15, cr3, [r0], {-0}
     f2c:	000000c0 	andeq	r0, r0, r0, asr #1
     f30:	00000710 	andeq	r0, r0, r0, lsl r7
     f34:	00002c1d 	andeq	r2, r0, sp, lsl ip
     f38:	09000400 	stmdbeq	r0, {sl}
     f3c:	00000700 	andeq	r0, r0, r0, lsl #14
     f40:	0003f11e 	andeq	pc, r3, lr, lsl r1	; <UNPREDICTABLE>
     f44:	0e380100 	rsfeqe	f0, f0, f0
     f48:	0000055c 	andeq	r0, r0, ip, asr r5
     f4c:	00008308 	andeq	r8, r0, r8, lsl #6
     f50:	00000038 	andeq	r0, r0, r8, lsr r0
     f54:	07a29c01 	streq	r9, [r2, r1, lsl #24]!
     f58:	640e0000 	strvs	r0, [lr], #-0
     f5c:	01007473 	tsteq	r0, r3, ror r4
     f60:	055c1c38 	ldrbeq	r1, [ip, #-3128]	; 0xfffff3c8
     f64:	077c0000 	ldrbeq	r0, [ip, -r0]!
     f68:	07720000 	ldrbeq	r0, [r2, -r0]!
     f6c:	6e0e0000 	cdpvs	0, 0, cr0, cr14, cr0, {0}
     f70:	25380100 	ldrcs	r0, [r8, #-256]!	; 0xffffff00
     f74:	00000025 	andeq	r0, r0, r5, lsr #32
     f78:	000007c3 	andeq	r0, r0, r3, asr #15
     f7c:	000007bf 			; <UNDEFINED> instruction: 0x000007bf
     f80:	0100700e 	tsteq	r0, lr
     f84:	055c2e38 	ldrbeq	r2, [ip, #-3640]	; 0xfffff1c8
     f88:	07ec0000 	strbeq	r0, [ip, r0]!
     f8c:	07e40000 	strbeq	r0, [r4, r0]!
     f90:	941f0000 	ldrls	r0, [pc], #-0	; f98 <__code_start__-0x7068>
     f94:	01000000 	mrseq	r0, (UNDEF: 0)
     f98:	055c3738 	ldrbeq	r3, [ip, #-1848]	; 0xfffff8c8
     f9c:	08260000 	stmdaeq	r6!, {}	; <UNPREDICTABLE>
     fa0:	08220000 	stmdaeq	r2!, {}	; <UNPREDICTABLE>
     fa4:	6c100000 	ldcvs	0, cr0, [r0], {-0}
     fa8:	01006e65 	tsteq	r0, r5, ror #28
     fac:	0025063a 	eoreq	r0, r5, sl, lsr r6
     fb0:	084c0000 	stmdaeq	ip, {}^	; <UNPREDICTABLE>
     fb4:	08440000 	stmdaeq	r4, {}^	; <UNPREDICTABLE>
     fb8:	73100000 	tstvc	r0, #0, 0
     fbc:	083e0100 	ldmdaeq	lr!, {r8}
     fc0:	0000055c 	andeq	r0, r0, ip, asr r5
     fc4:	0000089a 	muleq	r0, sl, r8
     fc8:	00000898 	muleq	r0, r8, r8
     fcc:	61702100 	cmnvs	r0, r0, lsl #2
     fd0:	2e010064 	cdpcs	0, 0, cr0, cr1, cr4, {3}
     fd4:	00055c0e 	andeq	r5, r5, lr, lsl #24
     fd8:	0082e400 	addeq	lr, r2, r0, lsl #8
     fdc:	00002400 	andeq	r2, r0, r0, lsl #8
     fe0:	059c0100 	ldreq	r0, [ip, #256]	; 0x100
     fe4:	0e000008 	cdpeq	0, 0, cr0, cr0, cr8, {0}
     fe8:	2e010070 	mcrcs	0, 0, r0, cr1, cr0, {3}
     fec:	00055c18 	andeq	r5, r5, r8, lsl ip
     ff0:	0008b300 	andeq	fp, r8, r0, lsl #6
     ff4:	0008ad00 	andeq	sl, r8, r0, lsl #26
     ff8:	04221f00 	strteq	r1, [r2], #-3840	; 0xfffff100
     ffc:	2e010000 	cdpcs	0, 0, cr0, cr1, cr0, {0}
    1000:	00055c22 	andeq	r5, r5, r2, lsr #24
    1004:	0008e200 	andeq	lr, r8, r0, lsl #4
    1008:	0008de00 	andeq	sp, r8, r0, lsl #28
    100c:	036a0f00 	cmneq	sl, #0, 30
    1010:	2e010000 	cdpcs	0, 0, cr0, cr1, cr0, {0}
    1014:	0000252c 	andeq	r2, r0, ip, lsr #10
    1018:	10520100 	subsne	r0, r2, r0, lsl #2
    101c:	006e656c 	rsbeq	r6, lr, ip, ror #10
    1020:	25062f01 	strcs	r2, [r6, #-3841]	; 0xfffff0ff
    1024:	05000000 	streq	r0, [r0, #-0]
    1028:	03000009 	movweq	r0, #9
    102c:	00000009 	andeq	r0, r0, r9
    1030:	00033c1e 	andeq	r3, r3, lr, lsl ip
    1034:	0c270100 	stfeqs	f0, [r7], #-0
    1038:	00000025 	andeq	r0, r0, r5, lsr #32
    103c:	000082d0 	ldrdeq	r8, [r0], -r0
    1040:	00000014 	andeq	r0, r0, r4, lsl r0
    1044:	08329c01 	ldmdaeq	r2!, {r0, sl, fp, ip, pc}
    1048:	630e0000 	movwvs	r0, #57344	; 0xe000
    104c:	18270100 	stmdane	r7!, {r8}
    1050:	00000025 	andeq	r0, r0, r5, lsr #32
    1054:	0000091e 	andeq	r0, r0, lr, lsl r9
    1058:	00000918 	andeq	r0, r0, r8, lsl r9
    105c:	03a02200 	moveq	r2, #0, 4
    1060:	1f010000 	svcne	0x00010000
    1064:	0084f406 	addeq	pc, r4, r6, lsl #8
    1068:	00006400 	andeq	r6, r0, r0, lsl #8
    106c:	c29c0100 	addsgt	r0, ip, #0
    1070:	1f000008 	svcne	0x00000008
    1074:	0000037d 	andeq	r0, r0, sp, ror r3
    1078:	9e1b1f01 	cdpls	15, 1, cr1, cr11, cr1, {0}
    107c:	50000000 	andpl	r0, r0, r0
    1080:	4c000009 	stcmi	0, cr0, [r0], {9}
    1084:	1f000009 	svcne	0x00000009
    1088:	000003e9 	andeq	r0, r0, r9, ror #7
    108c:	d1301f01 	teqle	r0, r1, lsl #30
    1090:	75000000 	strvc	r0, [r0, #-0]
    1094:	71000009 	tstvc	r0, r9
    1098:	13000009 	movwne	r0, #9
    109c:	00000202 	andeq	r0, r0, r2, lsl #4
    10a0:	000008d2 	ldrdeq	r0, [r0], -r2
    10a4:	8f740305 	svchi	0x00740305
    10a8:	3c180000 	ldccc	0, cr0, [r8], {-0}
    10ac:	ef000085 	svc	0x00000085
    10b0:	b8000008 	stmdalt	r0, {r3}
    10b4:	19000008 	stmdbne	r0, {r3}
    10b8:	03055001 	movweq	r5, #20481	; 0x5001
    10bc:	00008e30 	andeq	r8, r0, r0, lsr lr
    10c0:	05510119 	ldrbeq	r0, [r1, #-281]	; 0xfffffee7
    10c4:	008e8403 	addeq	r8, lr, r3, lsl #8
    10c8:	52011900 	andpl	r1, r1, #0, 18
    10cc:	8f740305 	svchi	0x00740305
    10d0:	01190000 	tsteq	r9, r0
    10d4:	20080253 	andcs	r0, r8, r3, asr r2
    10d8:	007d0219 	rsbseq	r0, sp, r9, lsl r2
    10dc:	8ec00305 	cdphi	3, 12, cr0, cr0, cr5, {0}
    10e0:	1a000000 	bne	10e8 <__code_start__-0x6f18>
    10e4:	00008540 	andeq	r8, r0, r0, asr #10
    10e8:	000008fb 	strdeq	r0, [r0], -fp
    10ec:	00c01c00 	sbceq	r1, r0, r0, lsl #24
    10f0:	08d20000 	ldmeq	r2, {}^	; <UNPREDICTABLE>
    10f4:	2c1d0000 	ldccs	0, cr0, [sp], {-0}
    10f8:	0e000000 	cdpeq	0, 0, cr0, cr0, cr0, {0}
    10fc:	08c20900 	stmiaeq	r2, {r8, fp}^
    1100:	1a230000 	bne	8c1108 <__bss_end__+0x8b7d58>
    1104:	1a000004 	bne	111c <__code_start__-0x6ee4>
    1108:	03000004 	movweq	r0, #4
    110c:	ca2305d6 	bgt	8c286c <__bss_end__+0x8b94bc>
    1110:	ca000003 	bgt	1124 <__code_start__-0x6edc>
    1114:	03000003 	movweq	r0, #3
    1118:	bd2307d9 	stclt	7, cr0, [r3, #-868]!	; 0xfffffc9c
    111c:	bd000002 	stclt	0, cr0, [r0, #-8]
    1120:	03000002 	movweq	r0, #2
    1124:	81230628 			; <UNDEFINED> instruction: 0x81230628
    1128:	81000000 	mrshi	r0, (UNDEF: 0)
    112c:	03000000 	movweq	r0, #0
    1130:	2f000667 	svccs	0x00000667
    1134:	04000001 	streq	r0, [r0], #-1
    1138:	00066e00 	andeq	r6, r6, r0, lsl #28
    113c:	f8010400 			; <UNDEFINED> instruction: 0xf8010400
    1140:	0c000000 	stceq	0, cr0, [r0], {-0}
    1144:	00000444 	andeq	r0, r0, r4, asr #8
    1148:	000002f0 	strdeq	r0, [r0], -r0	; <UNPREDICTABLE>
    114c:	000088fc 	strdeq	r8, [r0], -ip
    1150:	0000002c 	andeq	r0, r0, ip, lsr #32
    1154:	00000a93 	muleq	r0, r3, sl
    1158:	69050402 	stmdbvs	r5, {r1, sl}
    115c:	0300746e 	movweq	r7, #1134	; 0x46e
    1160:	00c70704 	sbceq	r0, r7, r4, lsl #14
    1164:	01030000 	mrseq	r0, (UNDEF: 3)
    1168:	00007506 	andeq	r7, r0, r6, lsl #10
    116c:	05020300 	streq	r0, [r2, #-768]	; 0xfffffd00
    1170:	000000ee 	andeq	r0, r0, lr, ror #1
    1174:	d9050403 	stmdble	r5, {r0, r1, sl}
    1178:	03000000 	movweq	r0, #0
    117c:	00d40508 	sbcseq	r0, r4, r8, lsl #10
    1180:	01030000 	mrseq	r0, (UNDEF: 3)
    1184:	00007308 	andeq	r7, r0, r8, lsl #6
    1188:	07020300 	streq	r0, [r2, -r0, lsl #6]
    118c:	0000009a 	muleq	r0, sl, r0
    1190:	c2070403 	andgt	r0, r7, #50331648	; 0x3000000
    1194:	03000000 	movweq	r0, #0
    1198:	00bd0708 	adcseq	r0, sp, r8, lsl #14
    119c:	25040000 	strcs	r0, [r4, #-0]
    11a0:	7a000000 	bvc	11a8 <__code_start__-0x6e58>
    11a4:	05000000 	streq	r0, [r0, #-0]
    11a8:	00000025 	andeq	r0, r0, r5, lsr #32
    11ac:	00e20600 	rsceq	r0, r2, r0, lsl #12
    11b0:	1c020000 	stcne	0, cr0, [r2], {-0}
    11b4:	0000860e 	andeq	r8, r0, lr, lsl #12
    11b8:	6b040700 	blvs	102dc0 <__bss_end__+0xf9a10>
    11bc:	04000000 	streq	r0, [r0], #-0
    11c0:	00000025 	andeq	r0, r0, r5, lsr #32
    11c4:	0000009b 	muleq	r0, fp, r0
    11c8:	00009b05 	andeq	r9, r0, r5, lsl #22
    11cc:	04070000 	streq	r0, [r7], #-0
    11d0:	000000a8 	andeq	r0, r0, r8, lsr #1
    11d4:	7c080103 	stfvcs	f0, [r8], {3}
    11d8:	08000000 	stmdaeq	r0, {}	; <UNPREDICTABLE>
    11dc:	000000a1 	andeq	r0, r0, r1, lsr #1
    11e0:	00032b06 	andeq	r2, r3, r6, lsl #22
    11e4:	0e210200 	cdpeq	2, 2, cr0, cr1, cr0, {0}
    11e8:	000000b9 	strheq	r0, [r0], -r9
    11ec:	008c0407 	addeq	r0, ip, r7, lsl #8
    11f0:	81090000 	mrshi	r0, (UNDEF: 9)
    11f4:	01000000 	mrseq	r0, (UNDEF: 0)
    11f8:	88fc0604 	ldmhi	ip!, {r2, r9, sl}^
    11fc:	002c0000 	eoreq	r0, ip, r0
    1200:	9c010000 	stcls	0, cr0, [r1], {-0}
    1204:	0000010e 	andeq	r0, r0, lr, lsl #2
    1208:	0089100a 	addeq	r1, r9, sl
    120c:	0000e800 	andeq	lr, r0, r0, lsl #16
    1210:	50010b00 	andpl	r0, r1, r0, lsl #22
    1214:	8f900305 	svchi	0x00900305
    1218:	0c000000 	stceq	0, cr0, [r0], {-0}
    121c:	00008914 	andeq	r8, r0, r4, lsl r9
    1220:	0000010e 	andeq	r0, r0, lr, lsl #2
    1224:	00891c0d 	addeq	r1, r9, sp, lsl #24
    1228:	00011a00 	andeq	r1, r1, r0, lsl #20
    122c:	00010400 	andeq	r0, r1, r0, lsl #8
    1230:	50010b00 	andpl	r0, r1, r0, lsl #22
    1234:	0c003a01 			; <UNDEFINED> instruction: 0x0c003a01
    1238:	00008920 	andeq	r8, r0, r0, lsr #18
    123c:	00000126 	andeq	r0, r0, r6, lsr #2
    1240:	045d0e00 	ldrbeq	r0, [sp], #-3584	; 0xfffff200
    1244:	045d0000 	ldrbeq	r0, [sp], #-0
    1248:	46020000 	strmi	r0, [r2], -r0
    124c:	043b0e06 	ldrteq	r0, [fp], #-3590	; 0xfffff1fa
    1250:	043b0000 	ldrteq	r0, [fp], #-0
    1254:	51020000 	mrspl	r0, (UNDEF: 2)
    1258:	04300e06 	ldrteq	r0, [r0], #-3590	; 0xfffff1fa
    125c:	04300000 	ldrteq	r0, [r0], #-0
    1260:	64020000 	strvs	r0, [r2], #-0
    1264:	01590006 	cmpeq	r9, r6
    1268:	00040000 	andeq	r0, r4, r0
    126c:	0000072e 	andeq	r0, r0, lr, lsr #14
    1270:	00f80104 	rscseq	r0, r8, r4, lsl #2
    1274:	890c0000 	stmdbhi	ip, {}	; <UNPREDICTABLE>
    1278:	f0000004 			; <UNDEFINED> instruction: 0xf0000004
    127c:	28000002 	stmdacs	r0, {r1}
    1280:	30000089 	andcc	r0, r0, r9, lsl #1
    1284:	24000000 	strcs	r0, [r0], #-0
    1288:	0200000b 	andeq	r0, r0, #11, 0
    128c:	6e690504 	cdpvs	5, 6, cr0, cr9, cr4, {0}
    1290:	04030074 	streq	r0, [r3], #-116	; 0xffffff8c
    1294:	0000c707 	andeq	ip, r0, r7, lsl #14
    1298:	06010300 	streq	r0, [r1], -r0, lsl #6
    129c:	00000075 	andeq	r0, r0, r5, ror r0
    12a0:	ee050203 	cdp	2, 0, cr0, cr5, cr3, {0}
    12a4:	03000000 	movweq	r0, #0
    12a8:	00d90504 	sbcseq	r0, r9, r4, lsl #10
    12ac:	08030000 	stmdaeq	r3, {}	; <UNPREDICTABLE>
    12b0:	0000d405 	andeq	sp, r0, r5, lsl #8
    12b4:	08010300 	stmdaeq	r1, {r8, r9}
    12b8:	00000073 	andeq	r0, r0, r3, ror r0
    12bc:	9a070203 	bls	1c1ad0 <__bss_end__+0x1b8720>
    12c0:	03000000 	movweq	r0, #0
    12c4:	00c20704 	sbceq	r0, r2, r4, lsl #14
    12c8:	08030000 	stmdaeq	r3, {}	; <UNPREDICTABLE>
    12cc:	0000bd07 	andeq	fp, r0, r7, lsl #26
    12d0:	00250400 	eoreq	r0, r5, r0, lsl #8
    12d4:	007a0000 	rsbseq	r0, sl, r0
    12d8:	25050000 	strcs	r0, [r5, #-0]
    12dc:	00000000 	andeq	r0, r0, r0
    12e0:	0000e206 	andeq	lr, r0, r6, lsl #4
    12e4:	0e1c0200 	cdpeq	2, 1, cr0, cr12, cr0, {0}
    12e8:	00000086 	andeq	r0, r0, r6, lsl #1
    12ec:	006b0407 	rsbeq	r0, fp, r7, lsl #8
    12f0:	25040000 	strcs	r0, [r4, #-0]
    12f4:	9b000000 	blls	12fc <__code_start__-0x6d04>
    12f8:	05000000 	streq	r0, [r0, #-0]
    12fc:	0000009b 	muleq	r0, fp, r0
    1300:	a8040700 	stmdage	r4, {r8, r9, sl}
    1304:	03000000 	movweq	r0, #0
    1308:	007c0801 	rsbseq	r0, ip, r1, lsl #16
    130c:	a1080000 	mrsge	r0, (UNDEF: 8)
    1310:	06000000 	streq	r0, [r0], -r0
    1314:	0000032b 	andeq	r0, r0, fp, lsr #6
    1318:	b90e2102 	stmdblt	lr, {r1, r8, sp}
    131c:	07000000 	streq	r0, [r0, -r0]
    1320:	00008c04 	andeq	r8, r0, r4, lsl #24
    1324:	046b0900 	strbteq	r0, [fp], #-2304	; 0xfffff700
    1328:	03010000 	movweq	r0, #4096	; 0x1000
    132c:	00892806 	addeq	r2, r9, r6, lsl #16
    1330:	00003000 	andeq	r3, r0, r0
    1334:	319c0100 	orrscc	r0, ip, r0, lsl #2
    1338:	06000001 	streq	r0, [r0], -r1
    133c:	0000035c 	andeq	r0, r0, ip, asr r3
    1340:	25100401 	ldrcs	r0, [r0, #-1025]	; 0xfffffbff
    1344:	06000000 	streq	r0, [r0], -r0
    1348:	00000385 	andeq	r0, r0, r5, lsl #7
    134c:	251f0401 	ldrcs	r0, [pc, #-1025]	; f53 <__code_start__-0x70ad>
    1350:	0a000000 	beq	1358 <__code_start__-0x6ca8>
    1354:	000001ad 	andeq	r0, r0, sp, lsr #3
    1358:	0b070501 	bleq	1c2764 <__bss_end__+0x1b93b4>
    135c:	00737362 	rsbseq	r7, r3, r2, ror #6
    1360:	310a0901 	tstcc	sl, r1, lsl #18
    1364:	9c000001 	stcls	0, cr0, [r0], {1}
    1368:	96000009 	strls	r0, [r0], -r9
    136c:	0c000009 	stceq	0, cr0, [r0], {9}
    1370:	00000473 	andeq	r0, r0, r3, ror r4
    1374:	310a0a01 	tstcc	sl, r1, lsl #20
    1378:	0d000001 	stceq	0, cr0, [r0, #-4]
    137c:	00008930 	andeq	r8, r0, r0, lsr r9
    1380:	00000137 	andeq	r0, r0, r7, lsr r1
    1384:	00894c0d 	addeq	r4, r9, sp, lsl #24
    1388:	00014400 	andeq	r4, r1, r0, lsl #8
    138c:	89500d00 	ldmdbhi	r0, {r8, sl, fp}^
    1390:	01500000 	cmpeq	r0, r0
    1394:	07000000 	streq	r0, [r0, -r0]
    1398:	00002504 	andeq	r2, r0, r4, lsl #10
    139c:	047b0e00 	ldrbteq	r0, [fp], #-3584	; 0xfffff200
    13a0:	047b0000 	ldrbteq	r0, [fp], #-0
    13a4:	17020000 	strne	r0, [r2, -r0]
    13a8:	ad0f0601 	stcge	6, cr0, [pc, #-4]	; 13ac <__code_start__-0x6c54>
    13ac:	ad000001 	stcge	0, cr0, [r0, #-4]
    13b0:	02000001 	andeq	r0, r0, #1, 0
    13b4:	810f06eb 	smlatthi	pc, fp, r6, r0
    13b8:	81000000 	mrshi	r0, (UNDEF: 0)
    13bc:	02000000 	andeq	r0, r0, #0, 0
    13c0:	ce000667 	cfmadd32gt	mvax3, mvfx0, mvfx0, mvfx7
    13c4:	04000000 	streq	r0, [r0], #-0
    13c8:	00080e00 	andeq	r0, r8, r0, lsl #28
    13cc:	f8010400 			; <UNDEFINED> instruction: 0xf8010400
    13d0:	0c000000 	stceq	0, cr0, [r0], {-0}
    13d4:	0000049c 	muleq	r0, ip, r4
    13d8:	000002f0 	strdeq	r0, [r0], -r0	; <UNPREDICTABLE>
    13dc:	00008958 	andeq	r8, r0, r8, asr r9
    13e0:	00000004 	andeq	r0, r0, r4
    13e4:	00000bca 	andeq	r0, r0, sl, asr #23
    13e8:	69050402 	stmdbvs	r5, {r1, sl}
    13ec:	0300746e 	movweq	r7, #1134	; 0x46e
    13f0:	00c70704 	sbceq	r0, r7, r4, lsl #14
    13f4:	01030000 	mrseq	r0, (UNDEF: 3)
    13f8:	00007506 	andeq	r7, r0, r6, lsl #10
    13fc:	05020300 	streq	r0, [r2, #-768]	; 0xfffffd00
    1400:	000000ee 	andeq	r0, r0, lr, ror #1
    1404:	d9050403 	stmdble	r5, {r0, r1, sl}
    1408:	03000000 	movweq	r0, #0
    140c:	00d40508 	sbcseq	r0, r4, r8, lsl #10
    1410:	01030000 	mrseq	r0, (UNDEF: 3)
    1414:	00007308 	andeq	r7, r0, r8, lsl #6
    1418:	07020300 	streq	r0, [r2, -r0, lsl #6]
    141c:	0000009a 	muleq	r0, sl, r0
    1420:	c2070403 	andgt	r0, r7, #50331648	; 0x3000000
    1424:	03000000 	movweq	r0, #0
    1428:	00bd0708 	adcseq	r0, sp, r8, lsl #14
    142c:	25040000 	strcs	r0, [r4, #-0]
    1430:	7a000000 	bvc	1438 <__code_start__-0x6bc8>
    1434:	05000000 	streq	r0, [r0, #-0]
    1438:	00000025 	andeq	r0, r0, r5, lsr #32
    143c:	00e20600 	rsceq	r0, r2, r0, lsl #12
    1440:	1c020000 	stcne	0, cr0, [r2], {-0}
    1444:	0000860e 	andeq	r8, r0, lr, lsl #12
    1448:	6b040700 	blvs	103050 <__bss_end__+0xf9ca0>
    144c:	04000000 	streq	r0, [r0], #-0
    1450:	00000025 	andeq	r0, r0, r5, lsr #32
    1454:	0000009b 	muleq	r0, fp, r0
    1458:	00009b05 	andeq	r9, r0, r5, lsl #22
    145c:	04070000 	streq	r0, [r7], #-0
    1460:	000000a8 	andeq	r0, r0, r8, lsr #1
    1464:	7c080103 	stfvcs	f0, [r8], {3}
    1468:	08000000 	stmdaeq	r0, {}	; <UNPREDICTABLE>
    146c:	000000a1 	andeq	r0, r0, r1, lsr #1
    1470:	00032b06 	andeq	r2, r3, r6, lsl #22
    1474:	0e210200 	cdpeq	2, 2, cr0, cr1, cr0, {0}
    1478:	000000b9 	strheq	r0, [r0], -r9
    147c:	008c0407 	addeq	r0, ip, r7, lsl #8
    1480:	7b090000 	blvc	241488 <__bss_end__+0x2380d8>
    1484:	01000004 	tsteq	r0, r4
    1488:	89580604 	ldmdbhi	r8, {r2, r9, sl}^
    148c:	00040000 	andeq	r0, r4, r0
    1490:	9c010000 	stcls	0, cr0, [r1], {-0}
    1494:	00022000 	andeq	r2, r2, r0
    1498:	87000400 	strhi	r0, [r0, -r0, lsl #8]
    149c:	04000008 	streq	r0, [r0], #-8
    14a0:	0000f801 	andeq	pc, r0, r1, lsl #16
    14a4:	04e70c00 	strbteq	r0, [r7], #3072	; 0xc00
    14a8:	02f00000 	rscseq	r0, r0, #0, 0
    14ac:	00180000 	andseq	r0, r8, r0
    14b0:	00000000 	andeq	r0, r0, r0
    14b4:	0c590000 	mraeq	r0, r9, acc0
    14b8:	04020000 	streq	r0, [r2], #-0
    14bc:	746e6905 	strbtvc	r6, [lr], #-2309	; 0xfffff6fb
    14c0:	00250300 	eoreq	r0, r5, r0, lsl #6
    14c4:	04040000 	streq	r0, [r4], #-0
    14c8:	0000c707 	andeq	ip, r0, r7, lsl #14
    14cc:	06010400 	streq	r0, [r1], -r0, lsl #8
    14d0:	00000075 	andeq	r0, r0, r5, ror r0
    14d4:	ee050204 	cdp	2, 0, cr0, cr5, cr4, {0}
    14d8:	04000000 	streq	r0, [r0], #-0
    14dc:	00d90504 	sbcseq	r0, r9, r4, lsl #10
    14e0:	08040000 	stmdaeq	r4, {}	; <UNPREDICTABLE>
    14e4:	0000d405 	andeq	sp, r0, r5, lsl #8
    14e8:	08010400 	stmdaeq	r1, {sl}
    14ec:	00000073 	andeq	r0, r0, r3, ror r0
    14f0:	9a070204 	bls	1c1d08 <__bss_end__+0x1b8958>
    14f4:	04000000 	streq	r0, [r0], #-0
    14f8:	00c20704 	sbceq	r0, r2, r4, lsl #14
    14fc:	08040000 	stmdaeq	r4, {}	; <UNPREDICTABLE>
    1500:	0000bd07 	andeq	fp, r0, r7, lsl #26
    1504:	00250500 	eoreq	r0, r5, r0, lsl #10
    1508:	007f0000 	rsbseq	r0, pc, r0
    150c:	25060000 	strcs	r0, [r6, #-0]
    1510:	00000000 	andeq	r0, r0, r0
    1514:	0000e207 	andeq	lr, r0, r7, lsl #4
    1518:	0e1c0200 	cdpeq	2, 1, cr0, cr12, cr0, {0}
    151c:	0000008b 	andeq	r0, r0, fp, lsl #1
    1520:	00700408 	rsbseq	r0, r0, r8, lsl #8
    1524:	25050000 	strcs	r0, [r5, #-0]
    1528:	a0000000 	andge	r0, r0, r0
    152c:	06000000 	streq	r0, [r0], -r0
    1530:	000000a0 	andeq	r0, r0, r0, lsr #1
    1534:	ad040800 	stcge	8, cr0, [r4, #-0]
    1538:	04000000 	streq	r0, [r0], #-0
    153c:	007c0801 	rsbseq	r0, ip, r1, lsl #16
    1540:	a6030000 	strge	r0, [r3], -r0
    1544:	07000000 	streq	r0, [r0, -r0]
    1548:	0000032b 	andeq	r0, r0, fp, lsr #6
    154c:	be0e2102 	adflte	f2, f6, f2
    1550:	08000000 	stmdaeq	r0, {}	; <UNPREDICTABLE>
    1554:	00009104 	andeq	r9, r0, r4, lsl #2
    1558:	04dc0900 	ldrbeq	r0, [ip], #2304	; 0x900
    155c:	0d010000 	stceq	0, cr0, [r1, #-0]
    1560:	00003111 	andeq	r3, r0, r1, lsl r1
    1564:	04300a00 	ldrteq	r0, [r0], #-2560	; 0xfffff600
    1568:	1f010000 	svcne	0x00010000
    156c:	00898806 	addeq	r8, r9, r6, lsl #16
    1570:	00005000 	andeq	r5, r0, r0
    1574:	a59c0100 	ldrge	r0, [ip, #256]	; 0x100
    1578:	0b000001 	bleq	1584 <__code_start__-0x6a7c>
    157c:	000004fa 	strdeq	r0, [r0], -sl
    1580:	2c0f2f01 	stccs	15, cr2, [pc], {1}
    1584:	c9000000 	stmdbgt	r0, {}	; <UNPREDICTABLE>
    1588:	c7000009 	strgt	r0, [r0, -r9]
    158c:	0b000009 	bleq	15b8 <__code_start__-0x6a48>
    1590:	000004b6 			; <UNDEFINED> instruction: 0x000004b6
    1594:	2c0f3001 	stccs	0, cr3, [pc], {1}
    1598:	e3000000 	movw	r0, #0
    159c:	e1000009 	tst	r0, r9
    15a0:	0b000009 	bleq	15cc <__code_start__-0x6a34>
    15a4:	000004cd 	andeq	r0, r0, sp, asr #9
    15a8:	2c0f3101 	stfcss	f3, [pc], {1}
    15ac:	fd000000 	stc2	0, cr0, [r0, #-0]
    15b0:	fb000009 	blx	15de <__code_start__-0x6a22>
    15b4:	0b000009 	bleq	15e0 <__code_start__-0x6a20>
    15b8:	00000507 	andeq	r0, r0, r7, lsl #10
    15bc:	2c0f3201 	sfmcs	f3, 4, [pc], {1}
    15c0:	16000000 	strne	r0, [r0], -r0
    15c4:	1400000a 	strne	r0, [r0], #-10
    15c8:	0c00000a 	stceq	0, cr0, [r0], {10}
    15cc:	00008990 	muleq	r0, r0, r9
    15d0:	000001d0 	ldrdeq	r0, [r0], -r0	; <UNPREDICTABLE>
    15d4:	00899c0c 	addeq	r9, r9, ip, lsl #24
    15d8:	0001ff00 	andeq	pc, r1, r0, lsl #30
    15dc:	89a40d00 	stmibhi	r4!, {r8, sl, fp}
    15e0:	020b0000 	andeq	r0, fp, #0, 0
    15e4:	015b0000 	cmpeq	fp, r0
    15e8:	010e0000 	mrseq	r0, (UNDEF: 14)
    15ec:	003a0150 	eorseq	r0, sl, r0, asr r1
    15f0:	0089b00d 	addeq	fp, r9, sp
    15f4:	00021700 	andeq	r1, r2, r0, lsl #14
    15f8:	00017b00 	andeq	r7, r1, r0, lsl #22
    15fc:	50010e00 	andpl	r0, r1, r0, lsl #28
    1600:	00240c05 	eoreq	r0, r4, r5, lsl #24
    1604:	010e2010 	tsteq	lr, r0, lsl r0
    1608:	010c0551 	tsteq	ip, r1, asr r5
    160c:	005a0000 	subseq	r0, sl, r0
    1610:	0089bc0d 	addeq	fp, r9, sp, lsl #24
    1614:	00021700 	andeq	r1, r2, r0, lsl #14
    1618:	00019b00 	andeq	r9, r1, r0, lsl #22
    161c:	50010e00 	andpl	r0, r1, r0, lsl #28
    1620:	001c0c05 	andseq	r0, ip, r5, lsl #24
    1624:	010e2010 	tsteq	lr, r0, lsl r0
    1628:	200c0551 	andcs	r0, ip, r1, asr r5
    162c:	005a0000 	subseq	r0, sl, r0
    1630:	0089c40c 	addeq	ip, r9, ip, lsl #8
    1634:	0001a500 	andeq	sl, r1, r0, lsl #10
    1638:	be0f0000 	cdplt	0, 0, cr0, cr15, cr0, {0}
    163c:	01000004 	tsteq	r0, r4
    1640:	89740617 	ldmdbhi	r4!, {r0, r1, r2, r4, r9, sl}^
    1644:	00140000 	andseq	r0, r4, r0
    1648:	9c010000 	stcls	0, cr0, [r1], {-0}
    164c:	000001d0 	ldrdeq	r0, [r0], -r0	; <UNPREDICTABLE>
    1650:	0005020b 	andeq	r0, r5, fp, lsl #4
    1654:	0e180100 	mufeqe	f0, f0, f0
    1658:	00000031 	andeq	r0, r0, r1, lsr r0
    165c:	00000a31 	andeq	r0, r0, r1, lsr sl
    1660:	00000a2b 	andeq	r0, r0, fp, lsr #20
    1664:	04d91000 	ldrbeq	r1, [r9], #0
    1668:	0e010000 	cdpeq	0, 0, cr0, cr1, cr0, {0}
    166c:	00002505 	andeq	r2, r0, r5, lsl #10
    1670:	00895c00 	addeq	r5, r9, r0, lsl #24
    1674:	00001800 	andeq	r1, r0, r0, lsl #16
    1678:	ff9c0100 			; <UNDEFINED> instruction: 0xff9c0100
    167c:	0b000001 	bleq	1688 <__code_start__-0x6978>
    1680:	00000502 	andeq	r0, r0, r2, lsl #10
    1684:	310e0f01 	tstcc	lr, r1, lsl #30
    1688:	5f000000 	svcpl	0x00000000
    168c:	5b00000a 	blpl	16bc <__code_start__-0x6944>
    1690:	0000000a 	andeq	r0, r0, sl
    1694:	00045d11 	andeq	r5, r4, r1, lsl sp
    1698:	00045d00 	andeq	r5, r4, r0, lsl #26
    169c:	06460200 	strbeq	r0, [r6], -r0, lsl #4
    16a0:	00043b11 	andeq	r3, r4, r1, lsl fp
    16a4:	00043b00 	andeq	r3, r4, r0, lsl #22
    16a8:	06510200 	ldrbeq	r0, [r1], -r0, lsl #4
    16ac:	00021611 	andeq	r1, r2, r1, lsl r6
    16b0:	00021600 	andeq	r1, r2, r0, lsl #12
    16b4:	06a10200 	strteq	r0, [r1], r0, lsl #4
    16b8:	00027800 	andeq	r7, r2, r0, lsl #16
    16bc:	99000400 	stmdbls	r0, {sl}
    16c0:	04000009 	streq	r0, [r0], #-9
    16c4:	0000f801 	andeq	pc, r0, r1, lsl #16
    16c8:	05740c00 	ldrbeq	r0, [r4, #-3072]!	; 0xfffff400
    16cc:	02f00000 	rscseq	r0, r0, #0, 0
    16d0:	89d80000 	ldmibhi	r8, {}^	; <UNPREDICTABLE>
    16d4:	009c0000 	addseq	r0, ip, r0
    16d8:	0d390000 	ldceq	0, cr0, [r9, #-0]
    16dc:	04020000 	streq	r0, [r2], #-0
    16e0:	746e6905 	strbtvc	r6, [lr], #-2309	; 0xfffff6fb
    16e4:	07040300 	streq	r0, [r4, -r0, lsl #6]
    16e8:	000000c7 	andeq	r0, r0, r7, asr #1
    16ec:	75060103 	strvc	r0, [r6, #-259]	; 0xfffffefd
    16f0:	03000000 	movweq	r0, #0
    16f4:	00ee0502 	rsceq	r0, lr, r2, lsl #10
    16f8:	04030000 	streq	r0, [r3], #-0
    16fc:	0000d905 	andeq	sp, r0, r5, lsl #18
    1700:	05080300 	streq	r0, [r8, #-768]	; 0xfffffd00
    1704:	000000d4 	ldrdeq	r0, [r0], -r4
    1708:	73080103 	movwvc	r0, #33027	; 0x8103
    170c:	03000000 	movweq	r0, #0
    1710:	009a0702 	addseq	r0, sl, r2, lsl #14
    1714:	04030000 	streq	r0, [r3], #-0
    1718:	0000c207 	andeq	ip, r0, r7, lsl #4
    171c:	07080300 	streq	r0, [r8, -r0, lsl #6]
    1720:	000000bd 	strheq	r0, [r0], -sp
    1724:	00002504 	andeq	r2, r0, r4, lsl #10
    1728:	00007a00 	andeq	r7, r0, r0, lsl #20
    172c:	00250500 	eoreq	r0, r5, r0, lsl #10
    1730:	06000000 	streq	r0, [r0], -r0
    1734:	000000e2 	andeq	r0, r0, r2, ror #1
    1738:	860e1c02 	strhi	r1, [lr], -r2, lsl #24
    173c:	07000000 	streq	r0, [r0, -r0]
    1740:	00006b04 	andeq	r6, r0, r4, lsl #22
    1744:	00250400 	eoreq	r0, r5, r0, lsl #8
    1748:	009b0000 	addseq	r0, fp, r0
    174c:	9b050000 	blls	141754 <__bss_end__+0x1383a4>
    1750:	00000000 	andeq	r0, r0, r0
    1754:	00a80407 	adceq	r0, r8, r7, lsl #8
    1758:	01030000 	mrseq	r0, (UNDEF: 3)
    175c:	00007c08 	andeq	r7, r0, r8, lsl #24
    1760:	00a10800 	adceq	r0, r1, r0, lsl #16
    1764:	2b060000 	blcs	18176c <__bss_end__+0x1783bc>
    1768:	02000003 	andeq	r0, r0, #3, 0
    176c:	00b90e21 	adcseq	r0, r9, r1, lsr #28
    1770:	04070000 	streq	r0, [r7], #-0
    1774:	0000008c 	andeq	r0, r0, ip, lsl #1
    1778:	00053f09 	andeq	r3, r5, r9, lsl #30
    177c:	062b0100 	strteq	r0, [fp], -r0, lsl #2
    1780:	00008a5c 	andeq	r8, r0, ip, asr sl
    1784:	00000018 	andeq	r0, r0, r8, lsl r0
    1788:	01099c01 	tsteq	r9, r1, lsl #24
    178c:	730a0000 	movwvc	r0, #40960	; 0xa000
    1790:	01006365 	tsteq	r0, r5, ror #6
    1794:	002c192b 	eoreq	r1, ip, fp, lsr #18
    1798:	0a820000 	beq	fe0817a0 <__bss_end__+0xfe0783f0>
    179c:	0a7e0000 	beq	1f817a4 <__bss_end__+0x1f783f4>
    17a0:	700b0000 	andvc	r0, fp, r0
    17a4:	0900008a 	stmdbeq	r0, {r1, r3, r7}
    17a8:	0c000001 	stceq	0, cr0, [r0], {1}
    17ac:	f3115001 	vhadd.u16	d5, d1, d1
    17b0:	24355001 	ldrtcs	r5, [r5], #-1
    17b4:	1c5001f3 	ldfnee	f0, [r0], {243}	; 0xf3
    17b8:	01f32432 	mvnseq	r2, r2, lsr r4
    17bc:	24332250 	ldrtcs	r2, [r3], #-592	; 0xfffffdb0
    17c0:	3b090000 	blcc	2417c8 <__bss_end__+0x238418>
    17c4:	01000004 	tsteq	r0, r4
    17c8:	8a440628 	bhi	1103070 <__bss_end__+0x10f9cc0>
    17cc:	00180000 	andseq	r0, r8, r0
    17d0:	9c010000 	stcls	0, cr0, [r1], {-0}
    17d4:	00000152 	andeq	r0, r0, r2, asr r1
    17d8:	00736d0a 	rsbseq	r6, r3, sl, lsl #26
    17dc:	2c182801 	ldccs	8, cr2, [r8], {1}
    17e0:	a7000000 	strge	r0, [r0, -r0]
    17e4:	a300000a 	movwge	r0, #10
    17e8:	0b00000a 	bleq	1818 <__code_start__-0x67e8>
    17ec:	00008a58 	andeq	r8, r0, r8, asr sl
    17f0:	00000152 	andeq	r0, r0, r2, asr r1
    17f4:	1150010c 	cmpne	r0, ip, lsl #2
    17f8:	355001f3 	ldrbcc	r0, [r0, #-499]	; 0xfffffe0d
    17fc:	5001f324 	andpl	pc, r1, r4, lsr #6
    1800:	f324321c 	vqsub.u32	d3, d4, d12
    1804:	33225001 			; <UNDEFINED> instruction: 0x33225001
    1808:	09000024 	stmdbeq	r0, {r2, r5}
    180c:	00000558 	andeq	r0, r0, r8, asr r5
    1810:	20061f01 	andcs	r1, r6, r1, lsl #30
    1814:	2400008a 	strcs	r0, [r0], #-138	; 0xffffff76
    1818:	01000000 	mrseq	r0, (UNDEF: 0)
    181c:	0001c29c 	muleq	r1, ip, r2
    1820:	73750a00 	cmnvc	r5, #0, 20
    1824:	181f0100 	ldmdane	pc, {r8}	; <UNPREDICTABLE>
    1828:	0000002c 	andeq	r0, r0, ip, lsr #32
    182c:	00000acc 	andeq	r0, r0, ip, asr #21
    1830:	00000ac8 	andeq	r0, r0, r8, asr #21
    1834:	0062720d 	rsbeq	r7, r2, sp, lsl #4
    1838:	2c0e2001 	stccs	0, cr2, [lr], {1}
    183c:	ec000000 	stc	0, cr0, [r0], {-0}
    1840:	ea00000a 	b	1870 <__code_start__-0x6790>
    1844:	0e00000a 	cdpeq	0, 0, cr0, cr0, cr10, {0}
    1848:	00008a30 	andeq	r8, r0, r0, lsr sl
    184c:	00000014 	andeq	r0, r0, r4, lsl r0
    1850:	000001b8 			; <UNDEFINED> instruction: 0x000001b8
    1854:	0061720d 	rsbeq	r7, r1, sp, lsl #4
    1858:	2c122201 	lfmcs	f2, 4, [r2], {1}
    185c:	01000000 	mrseq	r0, (UNDEF: 0)
    1860:	ff00000b 			; <UNDEFINED> instruction: 0xff00000b
    1864:	0f00000a 	svceq	0x0000000a
    1868:	00008a34 	andeq	r8, r0, r4, lsr sl
    186c:	000001c2 	andeq	r0, r0, r2, asr #3
    1870:	8a2c0f00 	bhi	b05478 <__bss_end__+0xafc0c8>
    1874:	01c20000 	biceq	r0, r2, r0
    1878:	10000000 	andne	r0, r0, r0
    187c:	00000549 	andeq	r0, r0, r9, asr #10
    1880:	2c0a1601 	stccs	6, cr1, [sl], {1}
    1884:	04000000 	streq	r0, [r0], #-0
    1888:	1c00008a 	stcne	0, cr0, [r0], {138}	; 0x8a
    188c:	01000000 	mrseq	r0, (UNDEF: 0)
    1890:	00020a9c 	muleq	r2, ip, sl
    1894:	00750d00 	rsbseq	r0, r5, r0, lsl #26
    1898:	2c0e1a01 			; <UNDEFINED> instruction: 0x2c0e1a01
    189c:	18000000 	stmdane	r0, {}	; <UNPREDICTABLE>
    18a0:	1400000b 	strne	r0, [r0], #-11
    18a4:	0f00000b 	svceq	0x0000000b
    18a8:	00008a0c 	andeq	r8, r0, ip, lsl #20
    18ac:	00000263 	andeq	r0, r0, r3, ror #4
    18b0:	008a100f 	addeq	r1, sl, pc
    18b4:	00020a00 	andeq	r0, r2, r0, lsl #20
    18b8:	8a180f00 	bhi	6054c0 <__bss_end__+0x5fc110>
    18bc:	02630000 	rsbeq	r0, r3, #0, 0
    18c0:	10000000 	andne	r0, r0, r0
    18c4:	00000561 	andeq	r0, r0, r1, ror #10
    18c8:	2c0a1101 	stfcss	f1, [sl], {1}
    18cc:	f0000000 			; <UNDEFINED> instruction: 0xf0000000
    18d0:	14000089 	strne	r0, [r0], #-137	; 0xffffff77
    18d4:	01000000 	mrseq	r0, (UNDEF: 0)
    18d8:	0002389c 	muleq	r2, ip, r8
    18dc:	89fc0b00 	ldmibhi	ip!, {r8, r9, fp}^
    18e0:	026f0000 	rsbeq	r0, pc, #0, 0
    18e4:	010c0000 	mrseq	r0, (UNDEF: 12)
    18e8:	040c0550 	streq	r0, [ip], #-1360	; 0xfffffab0
    18ec:	00200030 	eoreq	r0, r0, r0, lsr r0
    18f0:	05200900 	streq	r0, [r0, #-2304]!	; 0xfffff700
    18f4:	05010000 	streq	r0, [r1, #-0]
    18f8:	0089d806 	addeq	sp, r9, r6, lsl #16
    18fc:	00001800 	andeq	r1, r0, r0, lsl #16
    1900:	639c0100 	orrsvs	r0, ip, #0
    1904:	11000002 	tstne	r0, r2
    1908:	00000539 	andeq	r0, r0, r9, lsr r5
    190c:	2c1c0501 	cfldr32cs	mvfx0, [ip], {1}
    1910:	3a000000 	bcc	1918 <__code_start__-0x66e8>
    1914:	3600000b 	strcc	r0, [r0], -fp
    1918:	0000000b 	andeq	r0, r0, fp
    191c:	00052d12 	andeq	r2, r5, r2, lsl sp
    1920:	00052d00 	andeq	r2, r5, r0, lsl #26
    1924:	06900200 	ldreq	r0, [r0], r0, lsl #4
    1928:	0001bc12 	andeq	fp, r1, r2, lsl ip
    192c:	0001bc00 	andeq	fp, r1, r0, lsl #24
    1930:	0aad0200 	beq	feb42138 <__bss_end__+0xfeb38d88>
    1934:	00056800 	andeq	r6, r5, r0, lsl #16
    1938:	ae000400 	cfcpysge	mvf0, mvf0
    193c:	0400000a 	streq	r0, [r0], #-10
    1940:	0000f801 	andeq	pc, r0, r1, lsl #16
    1944:	05c00c00 	strbeq	r0, [r0, #3072]	; 0xc00
    1948:	05d50000 	ldrbeq	r0, [r5]
    194c:	8a8c0000 	bhi	fe301954 <__bss_end__+0xfe2f85a4>
    1950:	01ac0000 			; <UNDEFINED> instruction: 0x01ac0000
    1954:	0e3a0000 	cdpeq	0, 3, cr0, cr10, cr0, {0}
    1958:	04020000 	streq	r0, [r2], #-0
    195c:	746e6905 	strbtvc	r6, [lr], #-2309	; 0xfffff6fb
    1960:	07040300 	streq	r0, [r4, -r0, lsl #6]
    1964:	000000c7 	andeq	r0, r0, r7, asr #1
    1968:	00002c04 	andeq	r2, r0, r4, lsl #24
    196c:	06010300 	streq	r0, [r1], -r0, lsl #6
    1970:	00000075 	andeq	r0, r0, r5, ror r0
    1974:	ee050203 	cdp	2, 0, cr0, cr5, cr3, {0}
    1978:	03000000 	movweq	r0, #0
    197c:	00d90504 	sbcseq	r0, r9, r4, lsl #10
    1980:	08030000 	stmdaeq	r3, {}	; <UNPREDICTABLE>
    1984:	0000d405 	andeq	sp, r0, r5, lsl #8
    1988:	08010300 	stmdaeq	r1, {r8, r9}
    198c:	00000073 	andeq	r0, r0, r3, ror r0
    1990:	9a070203 	bls	1c21a4 <__bss_end__+0x1b8df4>
    1994:	05000000 	streq	r0, [r0, #-0]
    1998:	00000242 	andeq	r0, r0, r2, asr #4
    199c:	6e193405 	cfmulsvs	mvf3, mvf9, mvf5
    19a0:	03000000 	movweq	r0, #0
    19a4:	00c20704 	sbceq	r0, r2, r4, lsl #14
    19a8:	08030000 	stmdaeq	r3, {}	; <UNPREDICTABLE>
    19ac:	0000bd07 	andeq	fp, r0, r7, lsl #26
    19b0:	00250600 	eoreq	r0, r5, r0, lsl #12
    19b4:	008b0000 	addeq	r0, fp, r0
    19b8:	25070000 	strcs	r0, [r7, #-0]
    19bc:	00000000 	andeq	r0, r0, r0
    19c0:	0000e208 	andeq	lr, r0, r8, lsl #4
    19c4:	0e1c0200 	cdpeq	2, 1, cr0, cr12, cr0, {0}
    19c8:	00000097 	muleq	r0, r7, r0
    19cc:	007c0409 	rsbseq	r0, ip, r9, lsl #8
    19d0:	25060000 	strcs	r0, [r6, #-0]
    19d4:	ac000000 	stcge	0, cr0, [r0], {-0}
    19d8:	07000000 	streq	r0, [r0, -r0]
    19dc:	000000ac 	andeq	r0, r0, ip, lsr #1
    19e0:	b9040900 	stmdblt	r4, {r8, fp}
    19e4:	03000000 	movweq	r0, #0
    19e8:	007c0801 	rsbseq	r0, ip, r1, lsl #16
    19ec:	b20a0000 	andlt	r0, sl, #0, 0
    19f0:	08000000 	stmdaeq	r0, {}	; <UNPREDICTABLE>
    19f4:	0000032b 	andeq	r0, r0, fp, lsr #6
    19f8:	ca0e2102 	bgt	389e08 <__bss_end__+0x380a58>
    19fc:	09000000 	stmdbeq	r0, {}	; <UNPREDICTABLE>
    1a00:	00009d04 	andeq	r9, r0, r4, lsl #26
    1a04:	01070b00 	tsteq	r7, r0, lsl #22
    1a08:	00000054 	andeq	r0, r0, r4, asr r0
    1a0c:	0f0e0c04 	svceq	0x000e0c04
    1a10:	0c000001 	stceq	0, cr0, [r0], {1}
    1a14:	000006c0 	andeq	r0, r0, r0, asr #13
    1a18:	05a30c00 	streq	r0, [r3, #3072]!	; 0xc00
    1a1c:	0c010000 	stceq	0, cr0, [r1], {-0}
    1a20:	00000609 	andeq	r0, r0, r9, lsl #12
    1a24:	06180c04 	ldreq	r0, [r8], -r4, lsl #24
    1a28:	0c050000 	stceq	0, cr0, [r5], {-0}
    1a2c:	00000627 	andeq	r0, r0, r7, lsr #12
    1a30:	06360c06 	ldrteq	r0, [r6], -r6, lsl #24
    1a34:	0c070000 	stceq	0, cr0, [r7], {-0}
    1a38:	0000069c 	muleq	r0, ip, r6
    1a3c:	06450c03 	strbeq	r0, [r5], -r3, lsl #24
    1a40:	00020000 	andeq	r0, r2, r0
    1a44:	0005b40d 	andeq	fp, r5, sp, lsl #8
    1a48:	06032c00 	streq	r2, [r3], -r0, lsl #24
    1a4c:	0001ab08 	andeq	sl, r1, r8, lsl #22
    1a50:	6f690e00 	svcvs	0x00690e00
    1a54:	09090300 	stmdbeq	r9, {r8, r9}
    1a58:	00000033 	andeq	r0, r0, r3, lsr r0
    1a5c:	65690e00 	strbvs	r0, [r9, #-3584]!	; 0xfffff200
    1a60:	0a030072 	beq	c1c30 <__bss_end__+0xb8880>
    1a64:	00003309 	andeq	r3, r0, r9, lsl #6
    1a68:	690e0400 	stmdbvs	lr, {sl}
    1a6c:	03007269 	movweq	r7, #617	; 0x269
    1a70:	00330911 	eorseq	r0, r3, r1, lsl r9
    1a74:	0e080000 	cdpeq	0, 0, cr0, cr8, cr0, {0}
    1a78:	0072636c 	rsbseq	r6, r2, ip, ror #6
    1a7c:	33091303 	movwcc	r1, #37635	; 0x9303
    1a80:	0c000000 	stceq	0, cr0, [r0], {-0}
    1a84:	72636d0e 	rsbvc	r6, r3, #896	; 0x380
    1a88:	09140300 	ldmdbeq	r4, {r8, r9}
    1a8c:	00000033 	andeq	r0, r0, r3, lsr r0
    1a90:	736c0e10 	cmnvc	ip, #16, 28	; 0x100
    1a94:	15030072 	strne	r0, [r3, #-114]	; 0xffffff8e
    1a98:	00003309 	andeq	r3, r0, r9, lsl #6
    1a9c:	6d0e1400 	cfstrsvs	mvf1, [lr, #-0]
    1aa0:	03007273 	movweq	r7, #627	; 0x273
    1aa4:	00330916 	eorseq	r0, r3, r6, lsl r9
    1aa8:	0f180000 	svceq	0x00180000
    1aac:	000006b3 			; <UNDEFINED> instruction: 0x000006b3
    1ab0:	33091703 	movwcc	r1, #38659	; 0x9703
    1ab4:	1c000000 	stcne	0, cr0, [r0], {-0}
    1ab8:	0006890f 	andeq	r8, r6, pc, lsl #18
    1abc:	091b0300 	ldmdbeq	fp, {r8, r9}
    1ac0:	00000033 	andeq	r0, r0, r3, lsr r0
    1ac4:	05900f20 	ldreq	r0, [r0, #3872]	; 0xf20
    1ac8:	1d030000 	stcne	0, cr0, [r3, #-0]
    1acc:	00003309 	andeq	r3, r0, r9, lsl #6
    1ad0:	540f2400 	strpl	r2, [pc], #-1024	; 1ad8 <__code_start__-0x6528>
    1ad4:	03000006 	movweq	r0, #6
    1ad8:	0033091e 	eorseq	r0, r3, lr, lsl r9
    1adc:	00280000 	eoreq	r0, r8, r0
    1ae0:	00065910 	andeq	r5, r6, r0, lsl r9
    1ae4:	09080100 	stmdbeq	r8, {r8}
    1ae8:	000001c1 	andeq	r0, r0, r1, asr #3
    1aec:	20215004 	eorcs	r5, r1, r4
    1af0:	00330409 	eorseq	r0, r3, r9, lsl #8
    1af4:	bb0a0000 	bllt	281afc <__bss_end__+0x27874c>
    1af8:	10000001 	andne	r0, r0, r1
    1afc:	000006bb 			; <UNDEFINED> instruction: 0x000006bb
    1b00:	dc232901 			; <UNDEFINED> instruction: 0xdc232901
    1b04:	40000001 	andmi	r0, r0, r1
    1b08:	09202150 	stmdbeq	r0!, {r4, r6, r8, sp}
    1b0c:	00010f04 	andeq	r0, r1, r4, lsl #30
    1b10:	01d60a00 	bicseq	r0, r6, r0, lsl #20
    1b14:	5d110000 	ldcpl	0, cr0, [r1, #-0]
    1b18:	01000004 	tsteq	r0, r4
    1b1c:	8c2406c2 	stchi	6, cr0, [r4], #-776	; 0xfffffcf8
    1b20:	00140000 	andseq	r0, r4, r0
    1b24:	9c010000 	stcls	0, cr0, [r1], {-0}
    1b28:	00000201 	andeq	r0, r0, r1, lsl #4
    1b2c:	008c2c12 	addeq	r2, ip, r2, lsl ip
    1b30:	00020100 	andeq	r0, r2, r0, lsl #2
    1b34:	6f130000 	svcvs	0x00130000
    1b38:	01000006 	tsteq	r0, r6
    1b3c:	002505ac 	eoreq	r0, r5, ip, lsr #11
    1b40:	8c040000 	stchi	0, cr0, [r4], {-0}
    1b44:	00200000 	eoreq	r0, r0, r0
    1b48:	9c010000 	stcls	0, cr0, [r1], {-0}
    1b4c:	00000238 	andeq	r0, r0, r8, lsr r2
    1b50:	008c0c12 	addeq	r0, ip, r2, lsl ip
    1b54:	00053b00 	andeq	r3, r5, r0, lsl #22
    1b58:	8c141400 	cfldrshi	mvf1, [r4], {-0}
    1b5c:	05470000 	strbeq	r0, [r7, #-0]
    1b60:	01150000 	tsteq	r5, r0
    1b64:	640c0550 	strvs	r0, [ip], #-1360	; 0xfffffab0
    1b68:	00202150 	eoreq	r2, r0, r0, asr r1
    1b6c:	068e1300 	streq	r1, [lr], r0, lsl #6
    1b70:	a9010000 	stmdbge	r1, {}	; <UNPREDICTABLE>
    1b74:	00002505 	andeq	r2, r0, r5, lsl #10
    1b78:	008bf400 	addeq	pc, fp, r0, lsl #8
    1b7c:	00001000 	andeq	r1, r0, r0
    1b80:	659c0100 	ldrvs	r0, [ip, #256]	; 0x100
    1b84:	12000002 	andne	r0, r0, #2, 0
    1b88:	00008bfc 	strdeq	r8, [r0], -ip
    1b8c:	0000053b 	andeq	r0, r0, fp, lsr r5
    1b90:	008c0012 	addeq	r0, ip, r2, lsl r0
    1b94:	00035600 	andeq	r5, r3, r0, lsl #12
    1b98:	86110000 	ldrhi	r0, [r1], -r0
    1b9c:	01000005 	tsteq	r0, r5
    1ba0:	8bc406a1 	blhi	ff10362c <__bss_end__+0xff0fa27c>
    1ba4:	00300000 	eorseq	r0, r0, r0
    1ba8:	9c010000 	stcls	0, cr0, [r1], {-0}
    1bac:	000002c9 	andeq	r0, r0, r9, asr #5
    1bb0:	01006316 	tsteq	r0, r6, lsl r3
    1bb4:	002c19a1 	eoreq	r1, ip, r1, lsr #19
    1bb8:	0b5c0000 	bleq	1701bc0 <__bss_end__+0x16f8810>
    1bbc:	0b580000 	bleq	1601bc4 <__bss_end__+0x15f8814>
    1bc0:	d0120000 	andsle	r0, r2, r0
    1bc4:	3b00008b 	blcc	1df8 <__code_start__-0x6208>
    1bc8:	12000005 	andne	r0, r0, #5, 0
    1bcc:	00008bd4 	ldrdeq	r8, [r0], -r4
    1bd0:	00000328 	andeq	r0, r0, r8, lsr #6
    1bd4:	008be817 	addeq	lr, fp, r7, lsl r8
    1bd8:	00055300 	andeq	r5, r5, r0, lsl #6
    1bdc:	0002bf00 	andeq	fp, r2, r0, lsl #30
    1be0:	50011500 	andpl	r1, r1, r0, lsl #10
    1be4:	50400c05 	subpl	r0, r0, r5, lsl #24
    1be8:	01152021 	tsteq	r5, r1, lsr #32
    1bec:	00740551 	rsbseq	r0, r4, r1, asr r5
    1bf0:	001aff08 	andseq	pc, sl, r8, lsl #30
    1bf4:	008bec12 	addeq	lr, fp, r2, lsl ip
    1bf8:	00053b00 	andeq	r3, r5, r0, lsl #22
    1bfc:	65130000 	ldrvs	r0, [r3, #-0]
    1c00:	01000006 	tsteq	r0, r6
    1c04:	00250599 	mlaeq	r5, r9, r5, r0
    1c08:	8b940000 	blhi	fe501c10 <__bss_end__+0xfe4f8860>
    1c0c:	00300000 	eorseq	r0, r0, r0
    1c10:	9c010000 	stcls	0, cr0, [r1], {-0}
    1c14:	00000328 	andeq	r0, r0, r8, lsr #6
    1c18:	01006318 	tsteq	r0, r8, lsl r3
    1c1c:	0025099d 	mlaeq	r5, sp, r9, r0
    1c20:	0b7c0000 	bleq	1f01c28 <__bss_end__+0x1ef8878>
    1c24:	0b7a0000 	bleq	1e81c2c <__bss_end__+0x1e7887c>
    1c28:	9c120000 	ldcls	0, cr0, [r2], {-0}
    1c2c:	3b00008b 	blcc	1e60 <__code_start__-0x61a0>
    1c30:	12000005 	andne	r0, r0, #5, 0
    1c34:	00008ba0 	andeq	r8, r0, r0, lsr #23
    1c38:	00000356 	andeq	r0, r0, r6, asr r3
    1c3c:	008bb017 	addeq	fp, fp, r7, lsl r0
    1c40:	00054700 	andeq	r4, r5, r0, lsl #14
    1c44:	00031e00 	andeq	r1, r3, r0, lsl #28
    1c48:	50011500 	andpl	r1, r1, r0, lsl #10
    1c4c:	50400c05 	subpl	r0, r0, r5, lsl #24
    1c50:	12002021 	andne	r2, r0, #33, 0	; 0x21
    1c54:	00008bb8 			; <UNDEFINED> instruction: 0x00008bb8
    1c58:	0000053b 	andeq	r0, r0, fp, lsr r5
    1c5c:	05c71300 	strbeq	r1, [r7, #768]	; 0x300
    1c60:	8a010000 	bhi	41c68 <__bss_end__+0x388b8>
    1c64:	00002505 	andeq	r2, r0, r5, lsl #10
    1c68:	008b7400 	addeq	r7, fp, r0, lsl #8
    1c6c:	00002000 	andeq	r2, r0, r0
    1c70:	569c0100 	ldrpl	r0, [ip], r0, lsl #2
    1c74:	14000003 	strne	r0, [r0], #-3
    1c78:	00008b80 	andeq	r8, r0, r0, lsl #23
    1c7c:	00000547 	andeq	r0, r0, r7, asr #10
    1c80:	05500115 	ldrbeq	r0, [r0, #-277]	; 0xfffffeeb
    1c84:	2150640c 	cmpcs	r0, ip, lsl #8
    1c88:	13000020 	movwne	r0, #32
    1c8c:	00000595 	muleq	r0, r5, r5
    1c90:	25058101 	strcs	r8, [r5, #-257]	; 0xfffffeff
    1c94:	5c000000 	stcpl	0, cr0, [r0], {-0}
    1c98:	1800008b 	stmdane	r0, {r0, r1, r3, r7}
    1c9c:	01000000 	mrseq	r0, (UNDEF: 0)
    1ca0:	0003849c 	muleq	r3, ip, r4
    1ca4:	8b681400 	blhi	1a06cac <__bss_end__+0x19fd8fc>
    1ca8:	05470000 	strbeq	r0, [r7, #-0]
    1cac:	01150000 	tsteq	r5, r0
    1cb0:	640c0550 	strvs	r0, [ip], #-1360	; 0xfffffab0
    1cb4:	00202150 	eoreq	r2, r0, r0, asr r1
    1cb8:	00691100 	rsbeq	r1, r9, r0, lsl #2
    1cbc:	3b010000 	blcc	41cc4 <__bss_end__+0x38914>
    1cc0:	008aac06 	addeq	sl, sl, r6, lsl #24
    1cc4:	0000b000 	andeq	fp, r0, r0
    1cc8:	d19c0100 	orrsle	r0, ip, r0, lsl #2
    1ccc:	19000004 	stmdbne	r0, {r2}
    1cd0:	00000680 	andeq	r0, r0, r0, lsl #13
    1cd4:	620e7401 	andvs	r7, lr, #16777216	; 0x1000000
    1cd8:	0e000000 	cdpeq	0, 0, cr0, cr0, cr0, {0}
    1cdc:	8abc1701 	bhi	fef078e8 <__bss_end__+0xfeefe538>
    1ce0:	055f0000 	ldrbeq	r0, [pc, #-0]	; 1ce8 <__code_start__-0x6318>
    1ce4:	03c00000 	biceq	r0, r0, #0, 0
    1ce8:	01150000 	tsteq	r5, r0
    1cec:	153e0150 	ldrne	r0, [lr, #-336]!	; 0xfffffeb0
    1cf0:	32015101 	andcc	r5, r1, #1073741824	; 0x40000000
    1cf4:	8ac81700 	bhi	ff2078fc <__bss_end__+0xff1fe54c>
    1cf8:	055f0000 	ldrbeq	r0, [pc, #-0]	; 1d00 <__code_start__-0x6300>
    1cfc:	03d80000 	bicseq	r0, r8, #0, 0
    1d00:	01150000 	tsteq	r5, r0
    1d04:	153f0150 	ldrne	r0, [pc, #-336]!	; 1bbc <__code_start__-0x6444>
    1d08:	32015101 	andcc	r5, r1, #1073741824	; 0x40000000
    1d0c:	8acc1200 	bhi	ff306514 <__bss_end__+0xff2fd164>
    1d10:	053b0000 	ldreq	r0, [fp, #-0]!
    1d14:	d8170000 	ldmdale	r7, {}	; <UNPREDICTABLE>
    1d18:	d100008a 	smlabble	r0, sl, r0, r0
    1d1c:	fd000004 	stc2	0, cr0, [r0, #-16]
    1d20:	15000003 	strne	r0, [r0, #-3]
    1d24:	0c055001 	stceq	0, cr5, [r5], {1}
    1d28:	20215004 	eorcs	r5, r1, r4
    1d2c:	01510115 	cmpeq	r1, r5, lsl r1
    1d30:	dc120031 	ldcle	0, cr0, [r2], {49}	; 0x31
    1d34:	3b00008a 	blcc	1f64 <__code_start__-0x609c>
    1d38:	17000005 	strne	r0, [r0, -r5]
    1d3c:	00008aec 	andeq	r8, r0, ip, ror #21
    1d40:	00000553 	andeq	r0, r0, r3, asr r5
    1d44:	0000041f 	andeq	r0, r0, pc, lsl r4
    1d48:	02500115 	subseq	r0, r0, #1073741829	; 0x40000005
    1d4c:	01150074 	tsteq	r5, r4, ror r0
    1d50:	00300151 	eorseq	r0, r0, r1, asr r1
    1d54:	008af817 	addeq	pc, sl, r7, lsl r8	; <UNPREDICTABLE>
    1d58:	00055300 	andeq	r5, r5, r0, lsl #6
    1d5c:	00043b00 	andeq	r3, r4, r0, lsl #22
    1d60:	50011500 	andpl	r1, r1, r0, lsl #10
    1d64:	50440c05 	subpl	r0, r4, r5, lsl #24
    1d68:	01152021 	tsteq	r5, r1, lsr #32
    1d6c:	00300151 	eorseq	r0, r0, r1, asr r1
    1d70:	008b0417 	addeq	r0, fp, r7, lsl r4
    1d74:	00055300 	andeq	r5, r5, r0, lsl #6
    1d78:	00045700 	andeq	r5, r4, r0, lsl #14
    1d7c:	50011500 	andpl	r1, r1, r0, lsl #10
    1d80:	504c0c05 	subpl	r0, ip, r5, lsl #24
    1d84:	01152021 	tsteq	r5, r1, lsr #32
    1d88:	00330151 	eorseq	r0, r3, r1, asr r1
    1d8c:	008b1017 	addeq	r1, fp, r7, lsl r0
    1d90:	00055300 	andeq	r5, r5, r0, lsl #6
    1d94:	00047300 	andeq	r7, r4, r0, lsl #6
    1d98:	50011500 	andpl	r1, r1, r0, lsl #10
    1d9c:	50500c05 	subspl	r0, r0, r5, lsl #24
    1da0:	01152021 	tsteq	r5, r1, lsr #32
    1da4:	00300151 	eorseq	r0, r0, r1, asr r1
    1da8:	008b1c17 	addeq	r1, fp, r7, lsl ip
    1dac:	00055300 	andeq	r5, r5, r0, lsl #6
    1db0:	00049000 	andeq	r9, r4, r0
    1db4:	50011500 	andpl	r1, r1, r0, lsl #10
    1db8:	50480c05 	subpl	r0, r8, r5, lsl #24
    1dbc:	01152021 	tsteq	r5, r1, lsr #32
    1dc0:	c7080251 	smlsdgt	r8, r1, r2, r0
    1dc4:	8b281700 	blhi	a079cc <__bss_end__+0x9fe61c>
    1dc8:	05530000 	ldrbeq	r0, [r3, #-0]
    1dcc:	04ae0000 	strteq	r0, [lr], #0
    1dd0:	01150000 	tsteq	r5, r0
    1dd4:	680c0550 	stmdavs	ip, {r4, r6, r8, sl}
    1dd8:	15202150 	strne	r2, [r0, #-336]!	; 0xfffffeb0
    1ddc:	0a035101 	beq	d61e8 <__bss_end__+0xcce38>
    1de0:	1700010e 	strne	r0, [r0, -lr, lsl #2]
    1de4:	00008b34 	andeq	r8, r0, r4, lsr fp
    1de8:	00000553 	andeq	r0, r0, r3, asr r5
    1dec:	000004c7 	andeq	r0, r0, r7, asr #9
    1df0:	02500115 	subseq	r0, r0, #1073741829	; 0x40000005
    1df4:	01150074 	tsteq	r5, r4, ror r0
    1df8:	00330151 	eorseq	r0, r3, r1, asr r1
    1dfc:	008b3812 	addeq	r3, fp, r2, lsl r8
    1e00:	00053b00 	andeq	r3, r5, r0, lsl #22
    1e04:	ab1a0000 	blge	681e0c <__bss_end__+0x678a5c>
    1e08:	01000006 	tsteq	r0, r6
    1e0c:	8a8c0d2e 	bhi	fe3052cc <__bss_end__+0xfe2fbf1c>
    1e10:	00200000 	eoreq	r0, r0, r0
    1e14:	9c010000 	stcls	0, cr0, [r1], {-0}
    1e18:	00000534 	andeq	r0, r0, r4, lsr r5
    1e1c:	0001f41b 	andeq	pc, r1, fp, lsl r4	; <UNPREDICTABLE>
    1e20:	242e0100 	strtcs	r0, [lr], #-256	; 0xffffff00
    1e24:	00000534 	andeq	r0, r0, r4, lsr r5
    1e28:	00000b93 	muleq	r0, r3, fp
    1e2c:	00000b8f 	andeq	r0, r0, pc, lsl #23
    1e30:	6c617616 	stclvs	6, cr7, [r1], #-88	; 0xffffffa8
    1e34:	332e0100 			; <UNDEFINED> instruction: 0x332e0100
    1e38:	0000002c 	andeq	r0, r0, ip, lsr #32
    1e3c:	00000bb5 			; <UNDEFINED> instruction: 0x00000bb5
    1e40:	00000bb1 			; <UNDEFINED> instruction: 0x00000bb1
    1e44:	008a9c17 	addeq	r9, sl, r7, lsl ip
    1e48:	00054700 	andeq	r4, r5, r0, lsl #14
    1e4c:	00052300 	andeq	r2, r5, r0, lsl #6
    1e50:	50011500 	andpl	r1, r1, r0, lsl #10
    1e54:	00007402 	andeq	r7, r0, r2, lsl #8
    1e58:	008aa814 	addeq	sl, sl, r4, lsl r8
    1e5c:	00055300 	andeq	r5, r5, r0, lsl #6
    1e60:	50011500 	andpl	r1, r1, r0, lsl #10
    1e64:	00007402 	andeq	r7, r0, r2, lsl #8
    1e68:	3a040900 	bcc	104270 <__bss_end__+0xfaec0>
    1e6c:	1c000005 	stcne	0, cr0, [r0], {5}
    1e70:	00052d1d 	andeq	r2, r5, sp, lsl sp
    1e74:	00052d00 	andeq	r2, r5, r0, lsl #26
    1e78:	06900200 	ldreq	r0, [r0], r0, lsl #4
    1e7c:	0001cd1d 	andeq	ip, r1, sp, lsl sp
    1e80:	0001cd00 	andeq	ip, r1, r0, lsl #26
    1e84:	0bae0200 	bleq	feb8268c <__bss_end__+0xfeb792dc>
    1e88:	0001d81d 	andeq	sp, r1, sp, lsl r8
    1e8c:	0001d800 	andeq	sp, r1, r0, lsl #16
    1e90:	06a20200 	strteq	r0, [r2], r0, lsl #4
    1e94:	0006d01d 	andeq	sp, r6, sp, lsl r0
    1e98:	0006d000 	andeq	sp, r6, r0
    1e9c:	06190400 	ldreq	r0, [r9], -r0, lsl #8
    1ea0:	0003bb00 	andeq	fp, r3, r0, lsl #22
    1ea4:	6b000400 	blvs	2eac <__code_start__-0x5154>
    1ea8:	0400000c 	streq	r0, [r0], #-12
    1eac:	0000f801 	andeq	pc, r0, r1, lsl #16
    1eb0:	075d0c00 	ldrbeq	r0, [sp, -r0, lsl #24]
    1eb4:	02f00000 	rscseq	r0, r0, #0, 0
    1eb8:	8c380000 	ldchi	0, cr0, [r8], #-0
    1ebc:	00e80000 	rsceq	r0, r8, r0
    1ec0:	0ff30000 	svceq	0x00f30000
    1ec4:	04020000 	streq	r0, [r2], #-0
    1ec8:	746e6905 	strbtvc	r6, [lr], #-2309	; 0xfffff6fb
    1ecc:	07040300 	streq	r0, [r4, -r0, lsl #6]
    1ed0:	000000c7 	andeq	r0, r0, r7, asr #1
    1ed4:	00002c04 	andeq	r2, r0, r4, lsl #24
    1ed8:	06010300 	streq	r0, [r1], -r0, lsl #6
    1edc:	00000075 	andeq	r0, r0, r5, ror r0
    1ee0:	ee050203 	cdp	2, 0, cr0, cr5, cr3, {0}
    1ee4:	03000000 	movweq	r0, #0
    1ee8:	00d90504 	sbcseq	r0, r9, r4, lsl #10
    1eec:	08030000 	stmdaeq	r3, {}	; <UNPREDICTABLE>
    1ef0:	0000d405 	andeq	sp, r0, r5, lsl #8
    1ef4:	08010300 	stmdaeq	r1, {r8, r9}
    1ef8:	00000073 	andeq	r0, r0, r3, ror r0
    1efc:	9a070203 	bls	1c2710 <__bss_end__+0x1b9360>
    1f00:	05000000 	streq	r0, [r0, #-0]
    1f04:	00000242 	andeq	r0, r0, r2, asr #4
    1f08:	6e193403 	cfmulsvs	mvf3, mvf9, mvf3
    1f0c:	03000000 	movweq	r0, #0
    1f10:	00c20704 	sbceq	r0, r2, r4, lsl #14
    1f14:	08030000 	stmdaeq	r3, {}	; <UNPREDICTABLE>
    1f18:	0000bd07 	andeq	fp, r0, r7, lsl #26
    1f1c:	00250600 	eoreq	r0, r5, r0, lsl #12
    1f20:	008b0000 	addeq	r0, fp, r0
    1f24:	25070000 	strcs	r0, [r7, #-0]
    1f28:	00000000 	andeq	r0, r0, r0
    1f2c:	0000e208 	andeq	lr, r0, r8, lsl #4
    1f30:	0e1c0200 	cdpeq	2, 1, cr0, cr12, cr0, {0}
    1f34:	00000097 	muleq	r0, r7, r0
    1f38:	007c0409 	rsbseq	r0, ip, r9, lsl #8
    1f3c:	25060000 	strcs	r0, [r6, #-0]
    1f40:	ac000000 	stcge	0, cr0, [r0], {-0}
    1f44:	07000000 	streq	r0, [r0, -r0]
    1f48:	000000ac 	andeq	r0, r0, ip, lsr #1
    1f4c:	b9040900 	stmdblt	r4, {r8, fp}
    1f50:	03000000 	movweq	r0, #0
    1f54:	007c0801 	rsbseq	r0, ip, r1, lsl #16
    1f58:	b2040000 	andlt	r0, r4, #0, 0
    1f5c:	08000000 	stmdaeq	r0, {}	; <UNPREDICTABLE>
    1f60:	0000032b 	andeq	r0, r0, fp, lsr #6
    1f64:	ca0e2102 	bgt	38a374 <__bss_end__+0x380fc4>
    1f68:	09000000 	stmdbeq	r0, {}	; <UNPREDICTABLE>
    1f6c:	00009d04 	andeq	r9, r0, r4, lsl #26
    1f70:	01070a00 	tsteq	r7, r0, lsl #20
    1f74:	00000054 	andeq	r0, r0, r4, asr r0
    1f78:	0f0e0c04 	svceq	0x000e0c04
    1f7c:	0b000001 	bleq	1f88 <__code_start__-0x6078>
    1f80:	000006c0 	andeq	r0, r0, r0, asr #13
    1f84:	05a30b00 	streq	r0, [r3, #2816]!	; 0xb00
    1f88:	0b010000 	bleq	41f90 <__bss_end__+0x38be0>
    1f8c:	00000609 	andeq	r0, r0, r9, lsl #12
    1f90:	06180b04 	ldreq	r0, [r8], -r4, lsl #22
    1f94:	0b050000 	bleq	141f9c <__bss_end__+0x138bec>
    1f98:	00000627 	andeq	r0, r0, r7, lsr #12
    1f9c:	06360b06 	ldrteq	r0, [r6], -r6, lsl #22
    1fa0:	0b070000 	bleq	1c1fa8 <__bss_end__+0x1b8bf8>
    1fa4:	0000069c 	muleq	r0, ip, r6
    1fa8:	06450b03 	strbeq	r0, [r5], -r3, lsl #22
    1fac:	00020000 	andeq	r0, r2, r0
    1fb0:	00073505 	andeq	r3, r7, r5, lsl #10
    1fb4:	03150400 	tsteq	r5, #0, 8
    1fb8:	000000d0 	ldrdeq	r0, [r0], -r0	; <UNPREDICTABLE>
    1fbc:	0007530c 	andeq	r5, r7, ip, lsl #6
    1fc0:	170e0100 	strne	r0, [lr, -r0, lsl #2]
    1fc4:	00000033 	andeq	r0, r0, r3, lsr r0
    1fc8:	20200000 	eorcs	r0, r0, r0
    1fcc:	0006f20c 	andeq	pc, r6, ip, lsl #4
    1fd0:	170f0100 	strne	r0, [pc, -r0, lsl #2]
    1fd4:	00000033 	andeq	r0, r0, r3, lsr r0
    1fd8:	2020001c 	eorcs	r0, r0, ip, lsl r0
    1fdc:	0006e20c 	andeq	lr, r6, ip, lsl #4
    1fe0:	17100100 	ldrne	r0, [r0, -r0, lsl #2]
    1fe4:	00000033 	andeq	r0, r0, r3, lsr r0
    1fe8:	20200028 	eorcs	r0, r0, r8, lsr #32
    1fec:	0007490c 	andeq	r4, r7, ip, lsl #18
    1ff0:	17110100 	ldrne	r0, [r1, -r0, lsl #2]
    1ff4:	00000033 	andeq	r0, r0, r3, lsr r0
    1ff8:	20200034 	eorcs	r0, r0, r4, lsr r0
    1ffc:	00070f0d 	andeq	r0, r7, sp, lsl #30
    2000:	05430100 	strbeq	r0, [r3, #-256]	; 0xffffff00
    2004:	00000025 	andeq	r0, r0, r5, lsr #32
    2008:	00008d00 	andeq	r8, r0, r0, lsl #26
    200c:	00000020 	andeq	r0, r0, r0, lsr #32
    2010:	019d9c01 	orrseq	r9, sp, r1, lsl #24
    2014:	700e0000 	andvc	r0, lr, r0
    2018:	01006e69 	tsteq	r0, r9, ror #28
    201c:	002c1843 	eoreq	r1, ip, r3, asr #16
    2020:	0bd70000 	bleq	ff5c2028 <__bss_end__+0xff5b8c78>
    2024:	0bd30000 	bleq	ff4c202c <__bss_end__+0xff4b8c7c>
    2028:	100f0000 	andne	r0, pc, r0
    202c:	a600008d 	strge	r0, [r0], -sp, lsl #1
    2030:	10000003 	andne	r0, r0, r3
    2034:	0c055001 	stceq	0, cr5, [r5], {1}
    2038:	20200034 	eorcs	r0, r0, r4, lsr r0
    203c:	19110000 	ldmdbne	r1, {}	; <UNPREDICTABLE>
    2040:	01000007 	tsteq	r0, r7
    2044:	8cf0063e 	ldclhi	6, cr0, [r0], #248	; 0xf8
    2048:	00100000 	andseq	r0, r0, r0
    204c:	9c010000 	stcls	0, cr0, [r1], {-0}
    2050:	000001de 	ldrdeq	r0, [r0], -lr
    2054:	6e69700e 	cdpvs	0, 6, cr7, cr9, cr14, {0}
    2058:	1e3e0100 	rsfnee	f0, f6, f0
    205c:	0000002c 	andeq	r0, r0, ip, lsr #32
    2060:	00000bf9 	strdeq	r0, [r0], -r9
    2064:	00000bf5 	strdeq	r0, [r0], -r5
    2068:	008cfc0f 	addeq	pc, ip, pc, lsl #24
    206c:	00030800 	andeq	r0, r3, r0, lsl #16
    2070:	50011000 	andpl	r1, r1, r0
    2074:	5001f303 	andpl	pc, r1, r3, lsl #6
    2078:	01510110 	cmpeq	r1, r0, lsl r1
    207c:	11000030 	tstne	r0, r0, lsr r0
    2080:	00000704 	andeq	r0, r0, r4, lsl #14
    2084:	d4063201 	strle	r3, [r6], #-513	; 0xfffffdff
    2088:	1c00008c 	stcne	0, cr0, [r0], {140}	; 0x8c
    208c:	01000000 	mrseq	r0, (UNDEF: 0)
    2090:	0002399c 	muleq	r2, ip, r9
    2094:	69700e00 	ldmdbvs	r0!, {r9, sl, fp}^
    2098:	3201006e 	andcc	r0, r1, #110, 0	; 0x6e
    209c:	00002c1a 	andeq	r2, r0, sl, lsl ip
    20a0:	000c2200 	andeq	r2, ip, r0, lsl #4
    20a4:	000c1a00 	andeq	r1, ip, r0, lsl #20
    20a8:	00760e00 	rsbseq	r0, r6, r0, lsl #28
    20ac:	2c283201 	sfmcs	f3, 4, [r8], #-4
    20b0:	64000000 	strvs	r0, [r0], #-0
    20b4:	5c00000c 	stcpl	0, cr0, [r0], {12}
    20b8:	1200000c 	andne	r0, r0, #12, 0
    20bc:	00008ce4 	andeq	r8, r0, r4, ror #25
    20c0:	00000280 	andeq	r0, r0, r0, lsl #5
    20c4:	0000022f 	andeq	r0, r0, pc, lsr #4
    20c8:	03500110 	cmpeq	r0, #4
    20cc:	005001f3 	ldrsheq	r0, [r0], #-19	; 0xffffffed
    20d0:	008cec13 	addeq	lr, ip, r3, lsl ip
    20d4:	00023900 	andeq	r3, r2, r0, lsl #18
    20d8:	28110000 	ldmdacs	r1, {}	; <UNPREDICTABLE>
    20dc:	01000007 	tsteq	r0, r7
    20e0:	8cb8062d 	ldchi	6, cr0, [r8], #180	; 0xb4
    20e4:	001c0000 	andseq	r0, ip, r0
    20e8:	9c010000 	stcls	0, cr0, [r1], {-0}
    20ec:	00000280 	andeq	r0, r0, r0, lsl #5
    20f0:	6e69700e 	cdpvs	0, 6, cr7, cr9, cr14, {0}
    20f4:	1c2d0100 	stfnes	f0, [sp], #-0
    20f8:	0000002c 	andeq	r0, r0, ip, lsr #32
    20fc:	00000ca2 	andeq	r0, r0, r2, lsr #25
    2100:	00000c9e 	muleq	r0, lr, ip
    2104:	008ccc0f 	addeq	ip, ip, pc, lsl #24
    2108:	0003b200 	andeq	fp, r3, r0, lsl #4
    210c:	50011000 	andpl	r1, r1, r0
    2110:	00280c05 	eoreq	r0, r8, r5, lsl #24
    2114:	01102020 	tsteq	r0, r0, lsr #32
    2118:	f3310551 	vqrshl.u64	q0, <illegal reg q0.5>, <illegal reg q0.5>
    211c:	00245001 	eoreq	r5, r4, r1
    2120:	07681100 	strbeq	r1, [r8, -r0, lsl #2]!
    2124:	28010000 	stmdacs	r1, {}	; <UNPREDICTABLE>
    2128:	008c9c06 	addeq	r9, ip, r6, lsl #24
    212c:	00001c00 	andeq	r1, r0, r0, lsl #24
    2130:	c79c0100 	ldrgt	r0, [ip, r0, lsl #2]
    2134:	0e000002 	cdpeq	0, 0, cr0, cr0, cr2, {0}
    2138:	006e6970 	rsbeq	r6, lr, r0, ror r9
    213c:	2c1b2801 	ldccs	8, cr2, [fp], {1}
    2140:	c7000000 	strgt	r0, [r0, -r0]
    2144:	c300000c 	movwgt	r0, #12
    2148:	0f00000c 	svceq	0x0000000c
    214c:	00008cb0 			; <UNDEFINED> instruction: 0x00008cb0
    2150:	000003b2 			; <UNDEFINED> instruction: 0x000003b2
    2154:	05500110 	ldrbeq	r0, [r0, #-272]	; 0xfffffef0
    2158:	20001c0c 	andcs	r1, r0, ip, lsl #24
    215c:	51011020 	tstpl	r1, r0, lsr #32
    2160:	01f33105 	mvnseq	r3, r5, lsl #2
    2164:	00002450 	andeq	r2, r0, r0, asr r4
    2168:	0000ad11 	andeq	sl, r0, r1, lsl sp
    216c:	06230100 	strteq	r0, [r3], -r0, lsl #2
    2170:	00008c8c 	andeq	r8, r0, ip, lsl #25
    2174:	00000010 	andeq	r0, r0, r0, lsl r0
    2178:	03089c01 	movweq	r9, #35841	; 0x8c01
    217c:	700e0000 	andvc	r0, lr, r0
    2180:	01006e69 	tsteq	r0, r9, ror #28
    2184:	002c1f23 	eoreq	r1, ip, r3, lsr #30
    2188:	0cec0000 	stcleq	0, cr0, [ip]
    218c:	0ce80000 	stcleq	0, cr0, [r8]
    2190:	980f0000 	stmdals	pc, {}	; <UNPREDICTABLE>
    2194:	0800008c 	stmdaeq	r0, {r2, r3, r7}
    2198:	10000003 	andne	r0, r0, r3
    219c:	f3035001 	vhadd.u8	d5, d3, d1
    21a0:	01105001 	tsteq	r0, r1
    21a4:	00310151 	eorseq	r0, r1, r1, asr r1
    21a8:	06d01100 	ldrbeq	r1, [r0], r0, lsl #2
    21ac:	14010000 	strne	r0, [r1], #-0
    21b0:	008c3806 	addeq	r3, ip, r6, lsl #16
    21b4:	00005400 	andeq	r5, r0, r0, lsl #8
    21b8:	a69c0100 	ldrge	r0, [ip], r0, lsl #2
    21bc:	0e000003 	cdpeq	0, 0, cr0, cr0, cr3, {0}
    21c0:	006e6970 	rsbeq	r6, lr, r0, ror r9
    21c4:	2c211401 	cfstrscs	mvf1, [r1], #-4
    21c8:	11000000 	mrsne	r0, (UNDEF: 0)
    21cc:	0d00000d 	stceq	0, cr0, [r0, #-52]	; 0xffffffcc
    21d0:	0e00000d 	cdpeq	0, 0, cr0, cr0, cr13, {0}
    21d4:	01007666 	tsteq	r0, r6, ror #12
    21d8:	010f3214 	tsteq	pc, r4, lsl r2	; <UNPREDICTABLE>
    21dc:	0d330000 	ldceq	0, cr0, [r3, #-0]
    21e0:	0d2f0000 	stceq	0, cr0, [pc, #-0]	; 21e8 <__code_start__-0x5e18>
    21e4:	41140000 	tstmi	r4, r0
    21e8:	01000007 	tsteq	r0, r7
    21ec:	00620e15 	rsbeq	r0, r2, r5, lsl lr
    21f0:	0d560000 	ldcleq	0, cr0, [r6, #-0]
    21f4:	0d540000 	ldcleq	0, cr0, [r4, #-0]
    21f8:	fc140000 	ldc2	0, cr0, [r4], {-0}
    21fc:	01000006 	tsteq	r0, r6
    2200:	00620e16 	rsbeq	r0, r2, r6, lsl lr
    2204:	0d6b0000 	stcleq	0, cr0, [fp, #-0]
    2208:	0d690000 	stcleq	0, cr0, [r9, #-0]
    220c:	ec140000 	ldc	0, cr0, [r4], {-0}
    2210:	01000006 	tsteq	r0, r6
    2214:	00620e17 	rsbeq	r0, r2, r7, lsl lr
    2218:	0d800000 	stceq	0, cr0, [r0]
    221c:	0d7e0000 	ldcleq	0, cr0, [lr, #-0]
    2220:	64120000 	ldrvs	r0, [r2], #-0
    2224:	a600008c 	strge	r0, [r0], -ip, lsl #1
    2228:	95000003 	strls	r0, [r0, #-3]
    222c:	10000003 	andne	r0, r0, r3
    2230:	77025001 	strvc	r5, [r2, -r1]
    2234:	840f0000 	strhi	r0, [pc], #-0	; 223c <__code_start__-0x5dc4>
    2238:	b200008c 	andlt	r0, r0, #140, 0	; 0x8c
    223c:	10000003 	andne	r0, r0, r3
    2240:	77025001 	strvc	r5, [r2, -r1]
    2244:	15000000 	strne	r0, [r0, #-0]
    2248:	000001bc 			; <UNDEFINED> instruction: 0x000001bc
    224c:	000001bc 			; <UNDEFINED> instruction: 0x000001bc
    2250:	150aad02 	strne	sl, [sl, #-3330]	; 0xfffff2fe
    2254:	00000216 	andeq	r0, r0, r6, lsl r2
    2258:	00000216 	andeq	r0, r0, r6, lsl r2
    225c:	0006a102 	andeq	sl, r6, r2, lsl #2
    2260:	00000149 	andeq	r0, r0, r9, asr #2
    2264:	0daa0004 	stceq	0, cr0, [sl, #16]!
    2268:	01040000 	mrseq	r0, (UNDEF: 4)
    226c:	000000f8 	strdeq	r0, [r0], -r8
    2270:	0007920c 	andeq	r9, r7, ip, lsl #4
    2274:	0002f000 	andeq	pc, r2, r0
    2278:	008d2000 	addeq	r2, sp, r0
    227c:	00003c00 	andeq	r3, r0, r0, lsl #24
    2280:	00118000 	andseq	r8, r1, r0
    2284:	05040200 	streq	r0, [r4, #-512]	; 0xfffffe00
    2288:	00746e69 	rsbseq	r6, r4, r9, ror #28
    228c:	c7070403 	strgt	r0, [r7, -r3, lsl #8]
    2290:	03000000 	movweq	r0, #0
    2294:	00750601 	rsbseq	r0, r5, r1, lsl #12
    2298:	02030000 	andeq	r0, r3, #0, 0
    229c:	0000ee05 	andeq	lr, r0, r5, lsl #28
    22a0:	05040300 	streq	r0, [r4, #-768]	; 0xfffffd00
    22a4:	000000d9 	ldrdeq	r0, [r0], -r9
    22a8:	d4050803 	strle	r0, [r5], #-2051	; 0xfffff7fd
    22ac:	03000000 	movweq	r0, #0
    22b0:	00730801 	rsbseq	r0, r3, r1, lsl #16
    22b4:	02030000 	andeq	r0, r3, #0, 0
    22b8:	00009a07 	andeq	r9, r0, r7, lsl #20
    22bc:	07040300 	streq	r0, [r4, -r0, lsl #6]
    22c0:	000000c2 	andeq	r0, r0, r2, asr #1
    22c4:	bd070803 	stclt	8, cr0, [r7, #-12]
    22c8:	04000000 	streq	r0, [r0], #-0
    22cc:	00000025 	andeq	r0, r0, r5, lsr #32
    22d0:	0000007a 	andeq	r0, r0, sl, ror r0
    22d4:	00002505 	andeq	r2, r0, r5, lsl #10
    22d8:	e2060000 	and	r0, r6, #0, 0
    22dc:	02000000 	andeq	r0, r0, #0, 0
    22e0:	00860e1c 	addeq	r0, r6, ip, lsl lr
    22e4:	04070000 	streq	r0, [r7], #-0
    22e8:	0000006b 	andeq	r0, r0, fp, rrx
    22ec:	00002504 	andeq	r2, r0, r4, lsl #10
    22f0:	00009b00 	andeq	r9, r0, r0, lsl #22
    22f4:	009b0500 	addseq	r0, fp, r0, lsl #10
    22f8:	07000000 	streq	r0, [r0, -r0]
    22fc:	0000a804 	andeq	sl, r0, r4, lsl #16
    2300:	08010300 	stmdaeq	r1, {r8, r9}
    2304:	0000007c 	andeq	r0, r0, ip, ror r0
    2308:	0000a108 	andeq	sl, r0, r8, lsl #2
    230c:	032b0600 			; <UNDEFINED> instruction: 0x032b0600
    2310:	21020000 	mrscs	r0, (UNDEF: 2)
    2314:	0000b90e 	andeq	fp, r0, lr, lsl #18
    2318:	8c040700 	stchi	7, cr0, [r4], {-0}
    231c:	09000000 	stmdbeq	r0, {}	; <UNPREDICTABLE>
    2320:	0000007a 	andeq	r0, r0, sl, ror r0
    2324:	05070601 	streq	r0, [r7, #-1537]	; 0xfffff9ff
    2328:	008fa003 	addeq	sl, pc, r3
    232c:	07850a00 	streq	r0, [r5, r0, lsl #20]
    2330:	0b010000 	bleq	42338 <__bss_end__+0x38f88>
    2334:	008d4c06 	addeq	r4, sp, r6, lsl #24
    2338:	00001000 	andeq	r1, r0, r0
    233c:	f19c0100 			; <UNDEFINED> instruction: 0xf19c0100
    2340:	0b000000 	bleq	2348 <__code_start__-0x5cb8>
    2344:	01007066 	tsteq	r0, r6, rrx
    2348:	0086190b 	addeq	r1, r6, fp, lsl #18
    234c:	50010000 	andpl	r0, r1, r0
    2350:	07a10c00 	streq	r0, [r1, r0, lsl #24]!
    2354:	08010000 	stmdaeq	r1, {}	; <UNPREDICTABLE>
    2358:	008d3406 	addeq	r3, sp, r6, lsl #8
    235c:	00001800 	andeq	r1, r0, r0, lsl #16
    2360:	0d9c0100 	ldfeqs	f0, [ip]
    2364:	00000774 	andeq	r0, r0, r4, ror r7
    2368:	250c0301 	strcs	r0, [ip, #-769]	; 0xfffffcff
    236c:	20000000 	andcs	r0, r0, r0
    2370:	1400008d 	strne	r0, [r0], #-141	; 0xffffff73
    2374:	01000000 	mrseq	r0, (UNDEF: 0)
    2378:	0001409c 	muleq	r1, ip, r0
    237c:	00630e00 	rsbeq	r0, r3, r0, lsl #28
    2380:	25210301 	strcs	r0, [r1, #-769]!	; 0xfffffcff
    2384:	97000000 	strls	r0, [r0, -r0]
    2388:	9300000d 	movwls	r0, #13
    238c:	0f00000d 	svceq	0x0000000d
    2390:	00008d2c 	andeq	r8, r0, ip, lsr #26
    2394:	00000140 	andeq	r0, r0, r0, asr #2
    2398:	02500110 	subseq	r0, r0, #4
    239c:	00000074 	andeq	r0, r0, r4, ror r0
    23a0:	00058611 	andeq	r8, r5, r1, lsl r6
    23a4:	00058600 	andeq	r8, r5, r0, lsl #12
    23a8:	063b0200 	ldrteq	r0, [fp], -r0, lsl #4
    23ac:	00013700 	andeq	r3, r1, r0, lsl #14
    23b0:	b9000400 	stmdblt	r0, {sl}
    23b4:	0400000e 	streq	r0, [r0], #-14
    23b8:	0000f801 	andeq	pc, r0, r1, lsl #16
    23bc:	07b00c00 	ldreq	r0, [r0, r0, lsl #24]!
    23c0:	02f00000 	rscseq	r0, r0, #0, 0
    23c4:	8d5c0000 	ldclhi	0, cr0, [ip, #-0]
    23c8:	00340000 	eorseq	r0, r4, r0
    23cc:	122a0000 	eorne	r0, sl, #0, 0
    23d0:	04020000 	streq	r0, [r2], #-0
    23d4:	746e6905 	strbtvc	r6, [lr], #-2309	; 0xfffff6fb
    23d8:	07040300 	streq	r0, [r4, -r0, lsl #6]
    23dc:	000000c7 	andeq	r0, r0, r7, asr #1
    23e0:	75060103 	strvc	r0, [r6, #-259]	; 0xfffffefd
    23e4:	03000000 	movweq	r0, #0
    23e8:	00ee0502 	rsceq	r0, lr, r2, lsl #10
    23ec:	04030000 	streq	r0, [r3], #-0
    23f0:	0000d905 	andeq	sp, r0, r5, lsl #18
    23f4:	05080300 	streq	r0, [r8, #-768]	; 0xfffffd00
    23f8:	000000d4 	ldrdeq	r0, [r0], -r4
    23fc:	73080103 	movwvc	r0, #33027	; 0x8103
    2400:	03000000 	movweq	r0, #0
    2404:	009a0702 	addseq	r0, sl, r2, lsl #14
    2408:	04030000 	streq	r0, [r3], #-0
    240c:	0000c207 	andeq	ip, r0, r7, lsl #4
    2410:	07080300 	streq	r0, [r8, -r0, lsl #6]
    2414:	000000bd 	strheq	r0, [r0], -sp
    2418:	00002504 	andeq	r2, r0, r4, lsl #10
    241c:	00007a00 	andeq	r7, r0, r0, lsl #20
    2420:	00250500 	eoreq	r0, r5, r0, lsl #10
    2424:	06000000 	streq	r0, [r0], -r0
    2428:	000000e2 	andeq	r0, r0, r2, ror #1
    242c:	860e1c02 	strhi	r1, [lr], -r2, lsl #24
    2430:	07000000 	streq	r0, [r0, -r0]
    2434:	00006b04 	andeq	r6, r0, r4, lsl #22
    2438:	00250400 	eoreq	r0, r5, r0, lsl #8
    243c:	009b0000 	addseq	r0, fp, r0
    2440:	9b050000 	blls	142448 <__bss_end__+0x139098>
    2444:	00000000 	andeq	r0, r0, r0
    2448:	00a80407 	adceq	r0, r8, r7, lsl #8
    244c:	01030000 	mrseq	r0, (UNDEF: 3)
    2450:	00007c08 	andeq	r7, r0, r8, lsl #24
    2454:	00a10800 	adceq	r0, r1, r0, lsl #16
    2458:	2b060000 	blcs	182460 <__bss_end__+0x1790b0>
    245c:	02000003 	andeq	r0, r0, #3, 0
    2460:	00b90e21 	adcseq	r0, r9, r1, lsr #28
    2464:	04070000 	streq	r0, [r7], #-0
    2468:	0000008c 	andeq	r0, r0, ip, lsl #1
    246c:	0003ca09 	andeq	ip, r3, r9, lsl #20
    2470:	07040100 	streq	r0, [r4, -r0, lsl #2]
    2474:	00000134 	andeq	r0, r0, r4, lsr r1
    2478:	00008d5c 	andeq	r8, r0, ip, asr sp
    247c:	00000034 	andeq	r0, r0, r4, lsr r0
    2480:	01349c01 	teqeq	r4, r1, lsl #24
    2484:	be0a0000 	cdplt	0, 0, cr0, cr10, cr0, {0}
    2488:	01000007 	tsteq	r0, r7
    248c:	01341504 	teqeq	r4, r4, lsl #10
    2490:	50010000 	andpl	r0, r1, r0
    2494:	6372730b 	cmnvs	r2, #738197504	; 0x2c000000
    2498:	27040100 	strcs	r0, [r4, -r0, lsl #2]
    249c:	0000009b 	muleq	r0, fp, r0
    24a0:	00000db9 			; <UNDEFINED> instruction: 0x00000db9
    24a4:	00000db5 			; <UNDEFINED> instruction: 0x00000db5
    24a8:	0031730c 	eorseq	r7, r1, ip, lsl #6
    24ac:	340b0501 	strcc	r0, [fp], #-1281	; 0xfffffaff
    24b0:	e4000001 	str	r0, [r0], #-1
    24b4:	da00000d 	ble	24f0 <__code_start__-0x5b10>
    24b8:	0c00000d 	stceq	0, cr0, [r0], {13}
    24bc:	01003273 	tsteq	r0, r3, ror r2
    24c0:	009b1106 	addseq	r1, fp, r6, lsl #2
    24c4:	0e290000 	cdpeq	0, 2, cr0, cr9, cr0, {0}
    24c8:	0e250000 	cdpeq	0, 2, cr0, cr5, cr0, {0}
    24cc:	630c0000 	movwvs	r0, #49152	; 0xc000
    24d0:	0a070100 	beq	1c28d8 <__bss_end__+0x1b9528>
    24d4:	000000a1 	andeq	r0, r0, r1, lsr #1
    24d8:	00000e4d 	andeq	r0, r0, sp, asr #28
    24dc:	00000e49 	andeq	r0, r0, r9, asr #28
    24e0:	a1040700 	tstge	r4, r0, lsl #14
    24e4:	00000000 	andeq	r0, r0, r0
    24e8:	0000014e 	andeq	r0, r0, lr, asr #2
    24ec:	0f6f0004 	svceq	0x006f0004
    24f0:	01040000 	mrseq	r0, (UNDEF: 4)
    24f4:	000000f8 	strdeq	r0, [r0], -r8
    24f8:	0007ca0c 	andeq	ip, r7, ip, lsl #20
    24fc:	0002f000 	andeq	pc, r2, r0
    2500:	00002800 	andeq	r2, r0, r0, lsl #16
    2504:	00000000 	andeq	r0, r0, r0
    2508:	00132000 	andseq	r2, r3, r0
    250c:	05040200 	streq	r0, [r4, #-512]	; 0xfffffe00
    2510:	00746e69 	rsbseq	r6, r4, r9, ror #28
    2514:	0007c303 	andeq	ip, r7, r3, lsl #6
    2518:	17d10300 	ldrbne	r0, [r1, r0, lsl #6]
    251c:	00000038 	andeq	r0, r0, r8, lsr r0
    2520:	c7070404 	strgt	r0, [r7, -r4, lsl #8]
    2524:	04000000 	streq	r0, [r0], #-0
    2528:	00750601 	rsbseq	r0, r5, r1, lsl #12
    252c:	02040000 	andeq	r0, r4, #0, 0
    2530:	0000ee05 	andeq	lr, r0, r5, lsl #28
    2534:	05040400 	streq	r0, [r4, #-1024]	; 0xfffffc00
    2538:	000000d9 	ldrdeq	r0, [r0], -r9
    253c:	d4050804 	strle	r0, [r5], #-2052	; 0xfffff7fc
    2540:	04000000 	streq	r0, [r0], #-0
    2544:	00730801 	rsbseq	r0, r3, r1, lsl #16
    2548:	5b050000 	blpl	142550 <__bss_end__+0x1391a0>
    254c:	04000000 	streq	r0, [r0], #-0
    2550:	009a0702 	addseq	r0, sl, r2, lsl #14
    2554:	04040000 	streq	r0, [r4], #-0
    2558:	0000c207 	andeq	ip, r0, r7, lsl #4
    255c:	07080400 	streq	r0, [r8, -r0, lsl #8]
    2560:	000000bd 	strheq	r0, [r0], -sp
    2564:	00002506 	andeq	r2, r0, r6, lsl #10
    2568:	00008b00 	andeq	r8, r0, r0, lsl #22
    256c:	00250700 	eoreq	r0, r5, r0, lsl #14
    2570:	08000000 	stmdaeq	r0, {}	; <UNPREDICTABLE>
    2574:	000000e2 	andeq	r0, r0, r2, ror #1
    2578:	970e1c02 	strls	r1, [lr, -r2, lsl #24]
    257c:	09000000 	stmdbeq	r0, {}	; <UNPREDICTABLE>
    2580:	00007c04 	andeq	r7, r0, r4, lsl #24
    2584:	00250600 	eoreq	r0, r5, r0, lsl #12
    2588:	00ac0000 	adceq	r0, ip, r0
    258c:	ac070000 	stcge	0, cr0, [r7], {-0}
    2590:	00000000 	andeq	r0, r0, r0
    2594:	00b90409 	adcseq	r0, r9, r9, lsl #8
    2598:	01040000 	mrseq	r0, (UNDEF: 4)
    259c:	00007c08 	andeq	r7, r0, r8, lsl #24
    25a0:	00b20500 	adcseq	r0, r2, r0, lsl #10
    25a4:	2b080000 	blcs	2025ac <__bss_end__+0x1f91fc>
    25a8:	02000003 	andeq	r0, r0, #3, 0
    25ac:	00ca0e21 	sbceq	r0, sl, r1, lsr #28
    25b0:	04090000 	streq	r0, [r9], #-0
    25b4:	0000009d 	muleq	r0, sp, r0
    25b8:	00041a0a 	andeq	r1, r4, sl, lsl #20
    25bc:	05040100 	streq	r0, [r4, #-256]	; 0xffffff00
    25c0:	00000025 	andeq	r0, r0, r5, lsr #32
    25c4:	00008d90 	muleq	r0, r0, sp
    25c8:	0000002c 	andeq	r0, r0, ip, lsr #32
    25cc:	014b9c01 	cmpeq	fp, r1, lsl #24
    25d0:	5f0b0000 	svcpl	0x000b0000
    25d4:	01003173 	tsteq	r0, r3, ror r1
    25d8:	00ac1904 	adceq	r1, ip, r4, lsl #18
    25dc:	0e6f0000 	cdpeq	0, 6, cr0, cr15, cr0, {0}
    25e0:	0e6b0000 	cdpeq	0, 6, cr0, cr11, cr0, {0}
    25e4:	5f0b0000 	svcpl	0x000b0000
    25e8:	01003273 	tsteq	r0, r3, ror r2
    25ec:	00ac2a04 	adceq	r2, ip, r4, lsl #20
    25f0:	0e940000 	cdpeq	0, 9, cr0, cr4, cr0, {0}
    25f4:	0e900000 	cdpeq	0, 9, cr0, cr0, cr0, {0}
    25f8:	6e0b0000 	cdpvs	0, 0, cr0, cr11, cr0, {0}
    25fc:	36040100 	strcc	r0, [r4], -r0, lsl #2
    2600:	0000002c 	andeq	r0, r0, ip, lsr #32
    2604:	00000ebb 			; <UNDEFINED> instruction: 0x00000ebb
    2608:	00000eb5 			; <UNDEFINED> instruction: 0x00000eb5
    260c:	0031730c 	eorseq	r7, r1, ip, lsl #6
    2610:	4b1a0501 	blmi	683a1c <__bss_end__+0x67a66c>
    2614:	ee000001 	cdp	0, 0, cr0, cr0, cr1, {0}
    2618:	e600000e 	str	r0, [r0], -lr
    261c:	0c00000e 	stceq	0, cr0, [r0], {14}
    2620:	01003273 	tsteq	r0, r3, ror r2
    2624:	014b2c05 	cmpeq	fp, r5, lsl #24
    2628:	0f2a0000 	svceq	0x002a0000
    262c:	0f240000 	svceq	0x00240000
    2630:	09000000 	stmdbeq	r0, {}	; <UNPREDICTABLE>
    2634:	00006204 	andeq	r6, r0, r4, lsl #4
	...

Disassembly of section .debug_abbrev:

00000000 <.debug_abbrev>:
       0:	25011101 	strcs	r1, [r1, #-257]	; 0xfffffeff
       4:	030b130e 	movweq	r1, #45838	; 0xb30e
       8:	110e1b0e 	tstne	lr, lr, lsl #22
       c:	10061201 	andne	r1, r6, r1, lsl #4
      10:	02000017 	andeq	r0, r0, #23, 0
      14:	0b0b0024 	bleq	2c00ac <__bss_end__+0x2b6cfc>
      18:	08030b3e 	stmdaeq	r3, {r1, r2, r3, r4, r5, r8, r9, fp}
      1c:	24030000 	strcs	r0, [r3], #-0
      20:	3e0b0b00 	vmlacc.f64	d0, d11, d0
      24:	000e030b 	andeq	r0, lr, fp, lsl #6
      28:	01150400 	tsteq	r5, r0, lsl #8
      2c:	13491927 	movtne	r1, #39207	; 0x9927
      30:	00001301 	andeq	r1, r0, r1, lsl #6
      34:	49000505 	stmdbmi	r0, {r0, r2, r8, sl}
      38:	06000013 			; <UNDEFINED> instruction: 0x06000013
      3c:	0e030034 	mcreq	0, 0, r0, cr3, cr4, {1}
      40:	0b3b0b3a 	bleq	ec2d30 <__bss_end__+0xeb9980>
      44:	13490b39 	movtne	r0, #39737	; 0x9b39
      48:	193c193f 	ldmdbne	ip!, {r0, r1, r2, r3, r4, r5, r8, fp, ip}
      4c:	0f070000 	svceq	0x00070000
      50:	490b0b00 	stmdbmi	fp, {r8, r9, fp}
      54:	08000013 	stmdaeq	r0, {r0, r1, r4}
      58:	13490026 	movtne	r0, #36902	; 0x9026
      5c:	2e090000 	cdpcs	0, 0, cr0, cr9, cr0, {0}
      60:	03193f01 	tsteq	r9, #1, 30
      64:	3b0b3a0e 	blcc	2ce8a4 <__bss_end__+0x2c54f4>
      68:	270b390b 	strcs	r3, [fp, -fp, lsl #18]
      6c:	12011119 	andne	r1, r1, #1073741830	; 0x40000006
      70:	97184006 	ldrls	r4, [r8, -r6]
      74:	13011942 	movwne	r1, #6466	; 0x1942
      78:	0b0a0000 	bleq	280080 <__bss_end__+0x276cd0>
      7c:	12011101 	andne	r1, r1, #1073741824	; 0x40000000
      80:	00130106 	andseq	r0, r3, r6, lsl #2
      84:	00340b00 	eorseq	r0, r4, r0, lsl #22
      88:	0b3a0803 	bleq	e8209c <__bss_end__+0xe78cec>
      8c:	0b390b3b 	bleq	e42d80 <__bss_end__+0xe399d0>
      90:	17021349 	strne	r1, [r2, -r9, asr #6]
      94:	001742b7 			; <UNDEFINED> instruction: 0x001742b7
      98:	82890c00 	addhi	r0, r9, #0, 24
      9c:	01110101 	tsteq	r1, r1, lsl #2
      a0:	13011331 	movwne	r1, #4913	; 0x1331
      a4:	8a0d0000 	bhi	3400ac <__bss_end__+0x336cfc>
      a8:	02000182 	andeq	r0, r0, #-2147483616	; 0x80000020
      ac:	18429118 	stmdane	r2, {r3, r4, r8, ip, pc}^
      b0:	890e0000 	stmdbhi	lr, {}	; <UNPREDICTABLE>
      b4:	11000182 	smlabbne	r0, r2, r1, r0
      b8:	00133101 	andseq	r3, r3, r1, lsl #2
      bc:	82890f00 	addhi	r0, r9, #0, 30
      c0:	01110101 	tsteq	r1, r1, lsl #2
      c4:	00001331 	andeq	r1, r0, r1, lsr r3
      c8:	3f002e10 	svccc	0x00002e10
      cc:	6e193c19 	mrcvs	12, 0, r3, cr9, cr9, {0}
      d0:	3a0e030e 	bcc	380d10 <__bss_end__+0x377960>
      d4:	390b3b0b 	stmdbcc	fp, {r0, r1, r3, r8, r9, fp, ip, sp}
      d8:	0000000b 	andeq	r0, r0, fp
      dc:	25011101 	strcs	r1, [r1, #-257]	; 0xfffffeff
      e0:	030b130e 	movweq	r1, #45838	; 0xb30e
      e4:	110e1b0e 	tstne	lr, lr, lsl #22
      e8:	10061201 	andne	r1, r6, r1, lsl #4
      ec:	02000017 	andeq	r0, r0, #23, 0
      f0:	0b0b0024 	bleq	2c0188 <__bss_end__+0x2b6dd8>
      f4:	08030b3e 	stmdaeq	r3, {r1, r2, r3, r4, r5, r8, r9, fp}
      f8:	24030000 	strcs	r0, [r3], #-0
      fc:	3e0b0b00 	vmlacc.f64	d0, d11, d0
     100:	000e030b 	andeq	r0, lr, fp, lsl #6
     104:	00160400 	andseq	r0, r6, r0, lsl #8
     108:	0b3a0e03 	bleq	e8391c <__bss_end__+0xe7a56c>
     10c:	0b390b3b 	bleq	e42e00 <__bss_end__+0xe39a50>
     110:	00001349 	andeq	r1, r0, r9, asr #6
     114:	27011505 	strcs	r1, [r1, -r5, lsl #10]
     118:	01134919 	tsteq	r3, r9, lsl r9
     11c:	06000013 			; <UNDEFINED> instruction: 0x06000013
     120:	13490005 	movtne	r0, #36869	; 0x9005
     124:	34070000 	strcc	r0, [r7], #-0
     128:	3a0e0300 	bcc	380d30 <__bss_end__+0x377980>
     12c:	390b3b0b 	stmdbcc	fp, {r0, r1, r3, r8, r9, fp, ip, sp}
     130:	3f13490b 	svccc	0x0013490b
     134:	00193c19 	andseq	r3, r9, r9, lsl ip
     138:	000f0800 	andeq	r0, pc, r0, lsl #16
     13c:	13490b0b 	movtne	r0, #39691	; 0x9b0b
     140:	26090000 	strcs	r0, [r9], -r0
     144:	00134900 	andseq	r4, r3, r0, lsl #18
     148:	00340a00 	eorseq	r0, r4, r0, lsl #20
     14c:	0b3a0e03 	bleq	e83960 <__bss_end__+0xe7a5b0>
     150:	0b390b3b 	bleq	e42e44 <__bss_end__+0xe39a94>
     154:	193f1349 	ldmdbne	pc!, {r0, r3, r6, r8, r9, ip}	; <UNPREDICTABLE>
     158:	00001802 	andeq	r1, r0, r2, lsl #16
     15c:	3e01040b 	cdpcc	4, 0, cr0, cr1, cr11, {0}
     160:	490b0b0b 	stmdbmi	fp, {r0, r1, r3, r8, r9, fp}
     164:	3b0b3a13 	blcc	2ce9b8 <__bss_end__+0x2c5608>
     168:	010b390b 	tsteq	fp, fp, lsl #18
     16c:	0c000013 	stceq	0, cr0, [r0], {19}
     170:	0e030028 	cdpeq	0, 0, cr0, cr3, cr8, {1}
     174:	00000b1c 	andeq	r0, r0, ip, lsl fp
     178:	0300340d 	movweq	r3, #1037	; 0x40d
     17c:	3b0b3a0e 	blcc	2ce9bc <__bss_end__+0x2c560c>
     180:	490b390b 	stmdbmi	fp, {r0, r1, r3, r8, fp, ip, sp}
     184:	00180213 	andseq	r0, r8, r3, lsl r2
     188:	012e0e00 			; <UNDEFINED> instruction: 0x012e0e00
     18c:	0e03193f 			; <UNDEFINED> instruction: 0x0e03193f
     190:	0b3b0b3a 	bleq	ec2e80 <__bss_end__+0xeb9ad0>
     194:	19270b39 	stmdbne	r7!, {r0, r3, r4, r5, r8, r9, fp}
     198:	01111349 	tsteq	r1, r9, asr #6
     19c:	18400612 	stmdane	r0, {r1, r4, r9, sl}^
     1a0:	01194297 			; <UNDEFINED> instruction: 0x01194297
     1a4:	0f000013 	svceq	0x00000013
     1a8:	0e030005 	cdpeq	0, 0, cr0, cr3, cr5, {0}
     1ac:	0b3b0b3a 	bleq	ec2e9c <__bss_end__+0xeb9aec>
     1b0:	13490b39 	movtne	r0, #39737	; 0x9b39
     1b4:	42b71702 	adcsmi	r1, r7, #524288	; 0x80000
     1b8:	10000017 	andne	r0, r0, r7, lsl r0
     1bc:	08030034 	stmdaeq	r3, {r2, r4, r5}
     1c0:	0b3b0b3a 	bleq	ec2eb0 <__bss_end__+0xeb9b00>
     1c4:	13490b39 	movtne	r0, #39737	; 0x9b39
     1c8:	42b71702 	adcsmi	r1, r7, #524288	; 0x80000
     1cc:	11000017 	tstne	r0, r7, lsl r0
     1d0:	01018289 	smlabbeq	r1, r9, r2, r8
     1d4:	13310111 	teqne	r1, #1073741828	; 0x40000004
     1d8:	00001301 	andeq	r1, r0, r1, lsl #6
     1dc:	01828a12 	orreq	r8, r2, r2, lsl sl
     1e0:	91180200 	tstls	r8, r0, lsl #4
     1e4:	00001842 	andeq	r1, r0, r2, asr #16
     1e8:	01828913 	orreq	r8, r2, r3, lsl r9
     1ec:	31011101 	tstcc	r1, r1, lsl #2
     1f0:	14000013 	strne	r0, [r0], #-19	; 0xffffffed
     1f4:	193f012e 	ldmdbne	pc!, {r1, r2, r3, r5, r8}	; <UNPREDICTABLE>
     1f8:	0b3a0e03 	bleq	e83a0c <__bss_end__+0xe7a65c>
     1fc:	0b390b3b 	bleq	e42ef0 <__bss_end__+0xe39b40>
     200:	01111927 	tsteq	r1, r7, lsr #18
     204:	18400612 	stmdane	r0, {r1, r4, r9, sl}^
     208:	01194297 			; <UNDEFINED> instruction: 0x01194297
     20c:	15000013 	strne	r0, [r0, #-19]	; 0xffffffed
     210:	08030005 	stmdaeq	r3, {r0, r2}
     214:	0b3b0b3a 	bleq	ec2f04 <__bss_end__+0xeb9b54>
     218:	13490b39 	movtne	r0, #39737	; 0x9b39
     21c:	42b71702 	adcsmi	r1, r7, #524288	; 0x80000
     220:	16000017 			; <UNDEFINED> instruction: 0x16000017
     224:	00018289 	andeq	r8, r1, r9, lsl #5
     228:	13310111 	teqne	r1, #1073741828	; 0x40000004
     22c:	2e170000 	cdpcs	0, 1, cr0, cr7, cr0, {0}
     230:	3a0e0301 	bcc	380e3c <__bss_end__+0x377a8c>
     234:	390b3b0b 	stmdbcc	fp, {r0, r1, r3, r8, r9, fp, ip, sp}
     238:	1119270b 	tstne	r9, fp, lsl #14
     23c:	40061201 	andmi	r1, r6, r1, lsl #4
     240:	19429718 	stmdbne	r2, {r3, r4, r8, r9, sl, ip, pc}^
     244:	00001301 	andeq	r1, r0, r1, lsl #6
     248:	03003418 	movweq	r3, #1048	; 0x418
     24c:	3413490e 	ldrcc	r4, [r3], #-2318	; 0xfffff6f2
     250:	00180219 	andseq	r0, r8, r9, lsl r2
     254:	01011900 	tsteq	r1, r0, lsl #18
     258:	13011349 	movwne	r1, #4937	; 0x1349
     25c:	211a0000 	tstcs	sl, r0
     260:	2f134900 	svccs	0x00134900
     264:	1b00000b 	blne	298 <__code_start__-0x7d68>
     268:	193f002e 	ldmdbne	pc!, {r1, r2, r3, r5}	; <UNPREDICTABLE>
     26c:	0e6e193c 			; <UNDEFINED> instruction: 0x0e6e193c
     270:	0b3a0e03 	bleq	e83a84 <__bss_end__+0xe7a6d4>
     274:	0b390b3b 	bleq	e42f68 <__bss_end__+0xe39bb8>
     278:	01000000 	mrseq	r0, (UNDEF: 0)
     27c:	0e250111 	mcreq	1, 1, r0, cr5, cr1, {0}
     280:	0e030b13 	vmoveq.32	d3[0], r0
     284:	01110e1b 	tsteq	r1, fp, lsl lr
     288:	17100612 			; <UNDEFINED> instruction: 0x17100612
     28c:	16020000 	strne	r0, [r2], -r0
     290:	3a0e0300 	bcc	380e98 <__bss_end__+0x377ae8>
     294:	390b3b0b 	stmdbcc	fp, {r0, r1, r3, r8, r9, fp, ip, sp}
     298:	0013490b 	andseq	r4, r3, fp, lsl #18
     29c:	01130300 	tsteq	r3, r0, lsl #6
     2a0:	0b0b0e03 	bleq	2c3ab4 <__bss_end__+0x2ba704>
     2a4:	0b3b0b3a 	bleq	ec2f94 <__bss_end__+0xeb9be4>
     2a8:	00001301 	andeq	r1, r0, r1, lsl #6
     2ac:	03000d04 	movweq	r0, #3332	; 0xd04
     2b0:	3813490e 	ldmdacc	r3, {r1, r2, r3, r8, fp, lr}
     2b4:	0019340b 	andseq	r3, r9, fp, lsl #8
     2b8:	000f0500 	andeq	r0, pc, r0, lsl #10
     2bc:	00000b0b 	andeq	r0, r0, fp, lsl #22
     2c0:	0b002406 	bleq	92e0 <buf.3918+0x338>
     2c4:	030b3e0b 	movweq	r3, #48651	; 0xbe0b
     2c8:	07000008 	streq	r0, [r0, -r8]
     2cc:	0b0b0024 	bleq	2c0364 <__bss_end__+0x2b6fb4>
     2d0:	0e030b3e 	vmoveq.16	d3[0], r0
     2d4:	15080000 	strne	r0, [r8, #-0]
     2d8:	49192701 	ldmdbmi	r9, {r0, r8, r9, sl, sp}
     2dc:	00130113 	andseq	r0, r3, r3, lsl r1
     2e0:	00050900 	andeq	r0, r5, r0, lsl #18
     2e4:	00001349 	andeq	r1, r0, r9, asr #6
     2e8:	0300340a 	movweq	r3, #1034	; 0x40a
     2ec:	3b0b3a0e 	blcc	2ceb2c <__bss_end__+0x2c577c>
     2f0:	490b390b 	stmdbmi	fp, {r0, r1, r3, r8, fp, ip, sp}
     2f4:	3c193f13 	ldccc	15, cr3, [r9], {19}
     2f8:	0b000019 	bleq	364 <__code_start__-0x7c9c>
     2fc:	0b0b000f 	bleq	2c0340 <__bss_end__+0x2b6f90>
     300:	00001349 	andeq	r1, r0, r9, asr #6
     304:	4900260c 	stmdbmi	r0, {r2, r3, r9, sl, sp}
     308:	0d000013 	stceq	0, cr0, [r0, #-76]	; 0xffffffb4
     30c:	193f012e 	ldmdbne	pc!, {r1, r2, r3, r5, r8}	; <UNPREDICTABLE>
     310:	0b3a0e03 	bleq	e83b24 <__bss_end__+0xe7a774>
     314:	0b390b3b 	bleq	e43008 <__bss_end__+0xe39c58>
     318:	13491927 	movtne	r1, #39207	; 0x9927
     31c:	06120111 			; <UNDEFINED> instruction: 0x06120111
     320:	42971840 	addsmi	r1, r7, #64, 16	; 0x400000
     324:	00130119 	andseq	r0, r3, r9, lsl r1
     328:	00050e00 	andeq	r0, r5, r0, lsl #28
     32c:	0b3a0803 	bleq	e82340 <__bss_end__+0xe78f90>
     330:	0b390b3b 	bleq	e43024 <__bss_end__+0xe39c74>
     334:	18021349 	stmdane	r2, {r0, r3, r6, r8, r9, ip}
     338:	180f0000 	stmdane	pc, {}	; <UNPREDICTABLE>
     33c:	10000000 	andne	r0, r0, r0
     340:	08030034 	stmdaeq	r3, {r2, r4, r5}
     344:	0b3b0b3a 	bleq	ec3034 <__bss_end__+0xeb9c84>
     348:	13490b39 	movtne	r0, #39737	; 0x9b39
     34c:	00001802 	andeq	r1, r0, r2, lsl #16
     350:	03003411 	movweq	r3, #1041	; 0x411
     354:	3b0b3a0e 	blcc	2ceb94 <__bss_end__+0x2c57e4>
     358:	490b390b 	stmdbmi	fp, {r0, r1, r3, r8, fp, ip, sp}
     35c:	00180213 	andseq	r0, r8, r3, lsl r2
     360:	00341200 	eorseq	r1, r4, r0, lsl #4
     364:	0b3a0803 	bleq	e82378 <__bss_end__+0xe78fc8>
     368:	0b390b3b 	bleq	e4305c <__bss_end__+0xe39cac>
     36c:	17021349 	strne	r1, [r2, -r9, asr #6]
     370:	001742b7 			; <UNDEFINED> instruction: 0x001742b7
     374:	82891300 	addhi	r1, r9, #0, 6
     378:	01110101 	tsteq	r1, r1, lsl #2
     37c:	13011331 	movwne	r1, #4913	; 0x1331
     380:	8a140000 	bhi	500388 <__bss_end__+0x4f6fd8>
     384:	02000182 	andeq	r0, r0, #-2147483616	; 0x80000020
     388:	18429118 	stmdane	r2, {r3, r4, r8, ip, pc}^
     38c:	89150000 	ldmdbhi	r5, {}	; <UNPREDICTABLE>
     390:	11010182 	smlabbne	r1, r2, r1, r0
     394:	16000001 	strne	r0, [r0], -r1
     398:	13490101 	movtne	r0, #37121	; 0x9101
     39c:	00001301 	andeq	r1, r0, r1, lsl #6
     3a0:	49002117 	stmdbmi	r0, {r0, r1, r2, r4, r8, sp}
     3a4:	00052f13 	andeq	r2, r5, r3, lsl pc
     3a8:	002e1800 	eoreq	r1, lr, r0, lsl #16
     3ac:	193c193f 	ldmdbne	ip!, {r0, r1, r2, r3, r4, r5, r8, fp, ip}
     3b0:	0e030e6e 	cdpeq	14, 0, cr0, cr3, cr14, {3}
     3b4:	0b3b0b3a 	bleq	ec30a4 <__bss_end__+0xeb9cf4>
     3b8:	00000b39 	andeq	r0, r0, r9, lsr fp
     3bc:	01110100 	tsteq	r1, r0, lsl #2
     3c0:	0b130e25 	bleq	4c3c5c <__bss_end__+0x4ba8ac>
     3c4:	0e1b0e03 	cdpeq	14, 1, cr0, cr11, cr3, {0}
     3c8:	06120111 			; <UNDEFINED> instruction: 0x06120111
     3cc:	00001710 	andeq	r1, r0, r0, lsl r7
     3d0:	0b002402 	bleq	93e0 <__bss_end__+0x30>
     3d4:	030b3e0b 	movweq	r3, #48651	; 0xbe0b
     3d8:	03000008 	movweq	r0, #8
     3dc:	0b0b0024 	bleq	2c0474 <__bss_end__+0x2b70c4>
     3e0:	0e030b3e 	vmoveq.16	d3[0], r0
     3e4:	15040000 	strne	r0, [r4, #-0]
     3e8:	49192701 	ldmdbmi	r9, {r0, r8, r9, sl, sp}
     3ec:	00130113 	andseq	r0, r3, r3, lsl r1
     3f0:	00050500 	andeq	r0, r5, r0, lsl #10
     3f4:	00001349 	andeq	r1, r0, r9, asr #6
     3f8:	03003406 	movweq	r3, #1030	; 0x406
     3fc:	3b0b3a0e 	blcc	2cec3c <__bss_end__+0x2c588c>
     400:	490b390b 	stmdbmi	fp, {r0, r1, r3, r8, fp, ip, sp}
     404:	3c193f13 	ldccc	15, cr3, [r9], {19}
     408:	07000019 	smladeq	r0, r9, r0, r0
     40c:	0b0b000f 	bleq	2c0450 <__bss_end__+0x2b70a0>
     410:	00001349 	andeq	r1, r0, r9, asr #6
     414:	49002608 	stmdbmi	r0, {r3, r9, sl, sp}
     418:	09000013 	stmdbeq	r0, {r0, r1, r4}
     41c:	13470034 	movtne	r0, #28724	; 0x7034
     420:	0b3b0b3a 	bleq	ec3110 <__bss_end__+0xeb9d60>
     424:	18020b39 	stmdane	r2, {r0, r3, r4, r5, r8, r9, fp}
     428:	2e0a0000 	cdpcs	0, 0, cr0, cr10, cr0, {0}
     42c:	03193f01 	tsteq	r9, #1, 30
     430:	3b0b3a0e 	blcc	2cec70 <__bss_end__+0x2c58c0>
     434:	270b390b 	strcs	r3, [fp, -fp, lsl #18]
     438:	11134919 	tstne	r3, r9, lsl r9
     43c:	40061201 	andmi	r1, r6, r1, lsl #4
     440:	19429618 	stmdbne	r2, {r3, r4, r9, sl, ip, pc}^
     444:	050b0000 	streq	r0, [fp, #-0]
     448:	3a080300 	bcc	201050 <__bss_end__+0x1f7ca0>
     44c:	390b3b0b 	stmdbcc	fp, {r0, r1, r3, r8, r9, fp, ip, sp}
     450:	0213490b 	andseq	r4, r3, #180224	; 0x2c000
     454:	1742b717 	smlaldne	fp, r2, r7, r7
     458:	01000000 	mrseq	r0, (UNDEF: 0)
     45c:	0e250111 	mcreq	1, 1, r0, cr5, cr1, {0}
     460:	0e030b13 	vmoveq.32	d3[0], r0
     464:	01110e1b 	tsteq	r1, fp, lsl lr
     468:	17100612 			; <UNDEFINED> instruction: 0x17100612
     46c:	24020000 	strcs	r0, [r2], #-0
     470:	3e0b0b00 	vmlacc.f64	d0, d11, d0
     474:	0008030b 	andeq	r0, r8, fp, lsl #6
     478:	00240300 	eoreq	r0, r4, r0, lsl #6
     47c:	0b3e0b0b 	bleq	f830b0 <__bss_end__+0xf79d00>
     480:	00000e03 	andeq	r0, r0, r3, lsl #28
     484:	03001604 	movweq	r1, #1540	; 0x604
     488:	3b0b3a0e 	blcc	2cecc8 <__bss_end__+0x2c5918>
     48c:	490b390b 	stmdbmi	fp, {r0, r1, r3, r8, fp, ip, sp}
     490:	05000013 	streq	r0, [r0, #-19]	; 0xffffffed
     494:	19270115 	stmdbne	r7!, {r0, r2, r4, r8}
     498:	13011349 	movwne	r1, #4937	; 0x1349
     49c:	05060000 	streq	r0, [r6, #-0]
     4a0:	00134900 	andseq	r4, r3, r0, lsl #18
     4a4:	00340700 	eorseq	r0, r4, r0, lsl #14
     4a8:	0b3a0e03 	bleq	e83cbc <__bss_end__+0xe7a90c>
     4ac:	0b390b3b 	bleq	e431a0 <__bss_end__+0xe39df0>
     4b0:	193f1349 	ldmdbne	pc!, {r0, r3, r6, r8, r9, ip}	; <UNPREDICTABLE>
     4b4:	0000193c 	andeq	r1, r0, ip, lsr r9
     4b8:	0b000f08 	bleq	40e0 <__code_start__-0x3f20>
     4bc:	0013490b 	andseq	r4, r3, fp, lsl #18
     4c0:	00260900 	eoreq	r0, r6, r0, lsl #18
     4c4:	00001349 	andeq	r1, r0, r9, asr #6
     4c8:	0301130a 	movweq	r1, #4874	; 0x130a
     4cc:	3a0b0b0e 	bcc	2c310c <__bss_end__+0x2b9d5c>
     4d0:	010b3b0b 	tsteq	fp, fp, lsl #22
     4d4:	0b000013 	bleq	528 <__code_start__-0x7ad8>
     4d8:	0e03000d 	cdpeq	0, 0, cr0, cr3, cr13, {0}
     4dc:	0b381349 	bleq	e05208 <__bss_end__+0xdfbe58>
     4e0:	00001934 	andeq	r1, r0, r4, lsr r9
     4e4:	0b000f0c 	bleq	411c <__code_start__-0x3ee4>
     4e8:	0d00000b 	stceq	0, cr0, [r0, #-44]	; 0xffffffd4
     4ec:	193f012e 	ldmdbne	pc!, {r1, r2, r3, r5, r8}	; <UNPREDICTABLE>
     4f0:	0b3a0e03 	bleq	e83d04 <__bss_end__+0xe7a954>
     4f4:	0b390b3b 	bleq	e431e8 <__bss_end__+0xe39e38>
     4f8:	13491927 	movtne	r1, #39207	; 0x9927
     4fc:	06120111 			; <UNDEFINED> instruction: 0x06120111
     500:	42971840 	addsmi	r1, r7, #64, 16	; 0x400000
     504:	00130119 	andseq	r0, r3, r9, lsl r1
     508:	00050e00 	andeq	r0, r5, r0, lsl #28
     50c:	0b3a0803 	bleq	e82520 <__bss_end__+0xe79170>
     510:	0b390b3b 	bleq	e43204 <__bss_end__+0xe39e54>
     514:	17021349 	strne	r1, [r2, -r9, asr #6]
     518:	001742b7 			; <UNDEFINED> instruction: 0x001742b7
     51c:	00050f00 	andeq	r0, r5, r0, lsl #30
     520:	0b3a0e03 	bleq	e83d34 <__bss_end__+0xe7a984>
     524:	0b390b3b 	bleq	e43218 <__bss_end__+0xe39e68>
     528:	18021349 	stmdane	r2, {r0, r3, r6, r8, r9, ip}
     52c:	34100000 	ldrcc	r0, [r0], #-0
     530:	3a080300 	bcc	201138 <__bss_end__+0x1f7d88>
     534:	390b3b0b 	stmdbcc	fp, {r0, r1, r3, r8, r9, fp, ip, sp}
     538:	0213490b 	andseq	r4, r3, #180224	; 0x2c000
     53c:	1742b717 	smlaldne	fp, r2, r7, r7
     540:	34110000 	ldrcc	r0, [r1], #-0
     544:	3a080300 	bcc	20114c <__bss_end__+0x1f7d9c>
     548:	390b3b0b 	stmdbcc	fp, {r0, r1, r3, r8, r9, fp, ip, sp}
     54c:	0013490b 	andseq	r4, r3, fp, lsl #18
     550:	00341200 	eorseq	r1, r4, r0, lsl #4
     554:	0b3a0e03 	bleq	e83d68 <__bss_end__+0xe7a9b8>
     558:	0b390b3b 	bleq	e4324c <__bss_end__+0xe39e9c>
     55c:	17021349 	strne	r1, [r2, -r9, asr #6]
     560:	001742b7 			; <UNDEFINED> instruction: 0x001742b7
     564:	00341300 	eorseq	r1, r4, r0, lsl #6
     568:	13490e03 	movtne	r0, #40451	; 0x9e03
     56c:	18021934 	stmdane	r2, {r2, r4, r5, r8, fp, ip}
     570:	0b140000 	bleq	500578 <__bss_end__+0x4f71c8>
     574:	12011101 	andne	r1, r1, #1073741824	; 0x40000000
     578:	15000006 	strne	r0, [r0, #-6]
     57c:	08030034 	stmdaeq	r3, {r2, r4, r5}
     580:	0b3b0b3a 	bleq	ec3270 <__bss_end__+0xeb9ec0>
     584:	13490b39 	movtne	r0, #39737	; 0x9b39
     588:	00001802 	andeq	r1, r0, r2, lsl #16
     58c:	03003416 	movweq	r3, #1046	; 0x416
     590:	3b0b3a0e 	blcc	2cedd0 <__bss_end__+0x2c5a20>
     594:	490b390b 	stmdbmi	fp, {r0, r1, r3, r8, fp, ip, sp}
     598:	00180213 	andseq	r0, r8, r3, lsl r2
     59c:	010b1700 	tsteq	fp, r0, lsl #14
     5a0:	13011755 	movwne	r1, #5973	; 0x1755
     5a4:	89180000 	ldmdbhi	r8, {}	; <UNPREDICTABLE>
     5a8:	11010182 	smlabbne	r1, r2, r1, r0
     5ac:	01133101 	tsteq	r3, r1, lsl #2
     5b0:	19000013 	stmdbne	r0, {r0, r1, r4}
     5b4:	0001828a 	andeq	r8, r1, sl, lsl #5
     5b8:	42911802 	addsmi	r1, r1, #131072	; 0x20000
     5bc:	1a000018 	bne	624 <__code_start__-0x79dc>
     5c0:	00018289 	andeq	r8, r1, r9, lsl #5
     5c4:	13310111 	teqne	r1, #1073741828	; 0x40000004
     5c8:	891b0000 	ldmdbhi	fp, {}	; <UNPREDICTABLE>
     5cc:	11010182 	smlabbne	r1, r2, r1, r0
     5d0:	00130101 	andseq	r0, r3, r1, lsl #2
     5d4:	01011c00 	tsteq	r1, r0, lsl #24
     5d8:	13011349 	movwne	r1, #4937	; 0x1349
     5dc:	211d0000 	tstcs	sp, r0
     5e0:	2f134900 	svccs	0x00134900
     5e4:	1e00000b 	cdpne	0, 0, cr0, cr0, cr11, {0}
     5e8:	0e03012e 	adfeqsp	f0, f3, #0.5
     5ec:	0b3b0b3a 	bleq	ec32dc <__bss_end__+0xeb9f2c>
     5f0:	19270b39 	stmdbne	r7!, {r0, r3, r4, r5, r8, r9, fp}
     5f4:	01111349 	tsteq	r1, r9, asr #6
     5f8:	18400612 	stmdane	r0, {r1, r4, r9, sl}^
     5fc:	01194297 			; <UNDEFINED> instruction: 0x01194297
     600:	1f000013 	svcne	0x00000013
     604:	0e030005 	cdpeq	0, 0, cr0, cr3, cr5, {0}
     608:	0b3b0b3a 	bleq	ec32f8 <__bss_end__+0xeb9f48>
     60c:	13490b39 	movtne	r0, #39737	; 0x9b39
     610:	42b71702 	adcsmi	r1, r7, #524288	; 0x80000
     614:	20000017 	andcs	r0, r0, r7, lsl r0
     618:	0111010b 	tsteq	r1, fp, lsl #2
     61c:	13010612 	movwne	r0, #5650	; 0x1612
     620:	2e210000 	cdpcs	0, 2, cr0, cr1, cr0, {0}
     624:	3a080301 	bcc	201230 <__bss_end__+0x1f7e80>
     628:	390b3b0b 	stmdbcc	fp, {r0, r1, r3, r8, r9, fp, ip, sp}
     62c:	4919270b 	ldmdbmi	r9, {r0, r1, r3, r8, r9, sl, sp}
     630:	12011113 	andne	r1, r1, #-1073741820	; 0xc0000004
     634:	97184006 	ldrls	r4, [r8, -r6]
     638:	13011942 	movwne	r1, #6466	; 0x1942
     63c:	2e220000 	cdpcs	0, 2, cr0, cr2, cr0, {0}
     640:	03193f01 	tsteq	r9, #1, 30
     644:	3b0b3a0e 	blcc	2cee84 <__bss_end__+0x2c5ad4>
     648:	270b390b 	strcs	r3, [fp, -fp, lsl #18]
     64c:	12011119 	andne	r1, r1, #1073741830	; 0x40000006
     650:	97184006 	ldrls	r4, [r8, -r6]
     654:	13011942 	movwne	r1, #6466	; 0x1942
     658:	2e230000 	cdpcs	0, 2, cr0, cr3, cr0, {0}
     65c:	3c193f00 	ldccc	15, cr3, [r9], {-0}
     660:	030e6e19 	movweq	r6, #60953	; 0xee19
     664:	3b0b3a0e 	blcc	2ceea4 <__bss_end__+0x2c5af4>
     668:	000b390b 	andeq	r3, fp, fp, lsl #18
     66c:	11010000 	mrsne	r0, (UNDEF: 1)
     670:	130e2501 	movwne	r2, #58625	; 0xe501
     674:	1b0e030b 	blne	3812a8 <__bss_end__+0x377ef8>
     678:	1201110e 	andne	r1, r1, #-2147483645	; 0x80000003
     67c:	00171006 	andseq	r1, r7, r6
     680:	00240200 	eoreq	r0, r4, r0, lsl #4
     684:	0b3e0b0b 	bleq	f832b8 <__bss_end__+0xf79f08>
     688:	00000803 	andeq	r0, r0, r3, lsl #16
     68c:	0b002403 	bleq	96a0 <__bss_end__+0x2f0>
     690:	030b3e0b 	movweq	r3, #48651	; 0xbe0b
     694:	0400000e 	streq	r0, [r0], #-14
     698:	19270115 	stmdbne	r7!, {r0, r2, r4, r8}
     69c:	13011349 	movwne	r1, #4937	; 0x1349
     6a0:	05050000 	streq	r0, [r5, #-0]
     6a4:	00134900 	andseq	r4, r3, r0, lsl #18
     6a8:	00340600 	eorseq	r0, r4, r0, lsl #12
     6ac:	0b3a0e03 	bleq	e83ec0 <__bss_end__+0xe7ab10>
     6b0:	0b390b3b 	bleq	e433a4 <__bss_end__+0xe39ff4>
     6b4:	193f1349 	ldmdbne	pc!, {r0, r3, r6, r8, r9, ip}	; <UNPREDICTABLE>
     6b8:	0000193c 	andeq	r1, r0, ip, lsr r9
     6bc:	0b000f07 	bleq	42e0 <__code_start__-0x3d20>
     6c0:	0013490b 	andseq	r4, r3, fp, lsl #18
     6c4:	00260800 	eoreq	r0, r6, r0, lsl #16
     6c8:	00001349 	andeq	r1, r0, r9, asr #6
     6cc:	3f012e09 	svccc	0x00012e09
     6d0:	3a0e0319 	bcc	38133c <__bss_end__+0x377f8c>
     6d4:	390b3b0b 	stmdbcc	fp, {r0, r1, r3, r8, r9, fp, ip, sp}
     6d8:	8719270b 	ldrhi	r2, [r9, -fp, lsl #14]
     6dc:	01111901 	tsteq	r1, r1, lsl #18
     6e0:	18400612 	stmdane	r0, {r1, r4, r9, sl}^
     6e4:	01194297 			; <UNDEFINED> instruction: 0x01194297
     6e8:	0a000013 	beq	73c <__code_start__-0x78c4>
     6ec:	01018289 	smlabbeq	r1, r9, r2, r8
     6f0:	13010111 	movwne	r0, #4369	; 0x1111
     6f4:	8a0b0000 	bhi	2c06fc <__bss_end__+0x2b734c>
     6f8:	02000182 	andeq	r0, r0, #-2147483616	; 0x80000020
     6fc:	18429118 	stmdane	r2, {r3, r4, r8, ip, pc}^
     700:	890c0000 	stmdbhi	ip, {}	; <UNPREDICTABLE>
     704:	11000182 	smlabbne	r0, r2, r1, r0
     708:	00133101 	andseq	r3, r3, r1, lsl #2
     70c:	82890d00 	addhi	r0, r9, #0, 26
     710:	01110101 	tsteq	r1, r1, lsl #2
     714:	13011331 	movwne	r1, #4913	; 0x1331
     718:	2e0e0000 	cdpcs	0, 0, cr0, cr14, cr0, {0}
     71c:	3c193f00 	ldccc	15, cr3, [r9], {-0}
     720:	030e6e19 	movweq	r6, #60953	; 0xee19
     724:	3b0b3a0e 	blcc	2cef64 <__bss_end__+0x2c5bb4>
     728:	000b390b 	andeq	r3, fp, fp, lsl #18
     72c:	11010000 	mrsne	r0, (UNDEF: 1)
     730:	130e2501 	movwne	r2, #58625	; 0xe501
     734:	1b0e030b 	blne	381368 <__bss_end__+0x377fb8>
     738:	1201110e 	andne	r1, r1, #-2147483645	; 0x80000003
     73c:	00171006 	andseq	r1, r7, r6
     740:	00240200 	eoreq	r0, r4, r0, lsl #4
     744:	0b3e0b0b 	bleq	f83378 <__bss_end__+0xf79fc8>
     748:	00000803 	andeq	r0, r0, r3, lsl #16
     74c:	0b002403 	bleq	9760 <__bss_end__+0x3b0>
     750:	030b3e0b 	movweq	r3, #48651	; 0xbe0b
     754:	0400000e 	streq	r0, [r0], #-14
     758:	19270115 	stmdbne	r7!, {r0, r2, r4, r8}
     75c:	13011349 	movwne	r1, #4937	; 0x1349
     760:	05050000 	streq	r0, [r5, #-0]
     764:	00134900 	andseq	r4, r3, r0, lsl #18
     768:	00340600 	eorseq	r0, r4, r0, lsl #12
     76c:	0b3a0e03 	bleq	e83f80 <__bss_end__+0xe7abd0>
     770:	0b390b3b 	bleq	e43464 <__bss_end__+0xe3a0b4>
     774:	193f1349 	ldmdbne	pc!, {r0, r3, r6, r8, r9, ip}	; <UNPREDICTABLE>
     778:	0000193c 	andeq	r1, r0, ip, lsr r9
     77c:	0b000f07 	bleq	43a0 <__code_start__-0x3c60>
     780:	0013490b 	andseq	r4, r3, fp, lsl #18
     784:	00260800 	eoreq	r0, r6, r0, lsl #16
     788:	00001349 	andeq	r1, r0, r9, asr #6
     78c:	3f012e09 	svccc	0x00012e09
     790:	3a0e0319 	bcc	3813fc <__bss_end__+0x37804c>
     794:	390b3b0b 	stmdbcc	fp, {r0, r1, r3, r8, r9, fp, ip, sp}
     798:	1201110b 	andne	r1, r1, #-1073741822	; 0xc0000002
     79c:	97184006 	ldrls	r4, [r8, -r6]
     7a0:	13011942 	movwne	r1, #6466	; 0x1942
     7a4:	2e0a0000 	cdpcs	0, 0, cr0, cr10, cr0, {0}
     7a8:	03193f00 	tsteq	r9, #0, 30
     7ac:	3b0b3a0e 	blcc	2cefec <__bss_end__+0x2c5c3c>
     7b0:	270b390b 	strcs	r3, [fp, -fp, lsl #18]
     7b4:	00193c19 	andseq	r3, r9, r9, lsl ip
     7b8:	00340b00 	eorseq	r0, r4, r0, lsl #22
     7bc:	0b3a0803 	bleq	e827d0 <__bss_end__+0xe79420>
     7c0:	0b390b3b 	bleq	e434b4 <__bss_end__+0xe3a104>
     7c4:	17021349 	strne	r1, [r2, -r9, asr #6]
     7c8:	001742b7 			; <UNDEFINED> instruction: 0x001742b7
     7cc:	00340c00 	eorseq	r0, r4, r0, lsl #24
     7d0:	0b3a0e03 	bleq	e83fe4 <__bss_end__+0xe7ac34>
     7d4:	0b390b3b 	bleq	e434c8 <__bss_end__+0xe3a118>
     7d8:	00001349 	andeq	r1, r0, r9, asr #6
     7dc:	0182890d 	orreq	r8, r2, sp, lsl #18
     7e0:	31011100 	mrscc	r1, (UNDEF: 17)
     7e4:	0e000013 	mcreq	0, 0, r0, cr0, cr3, {0}
     7e8:	193f002e 	ldmdbne	pc!, {r1, r2, r3, r5}	; <UNPREDICTABLE>
     7ec:	0e6e193c 			; <UNDEFINED> instruction: 0x0e6e193c
     7f0:	0b3a0e03 	bleq	e84004 <__bss_end__+0xe7ac54>
     7f4:	0b39053b 	bleq	e41ce8 <__bss_end__+0xe38938>
     7f8:	2e0f0000 	cdpcs	0, 0, cr0, cr15, cr0, {0}
     7fc:	3c193f00 	ldccc	15, cr3, [r9], {-0}
     800:	030e6e19 	movweq	r6, #60953	; 0xee19
     804:	3b0b3a0e 	blcc	2cf044 <__bss_end__+0x2c5c94>
     808:	000b390b 	andeq	r3, fp, fp, lsl #18
     80c:	11010000 	mrsne	r0, (UNDEF: 1)
     810:	130e2501 	movwne	r2, #58625	; 0xe501
     814:	1b0e030b 	blne	381448 <__bss_end__+0x378098>
     818:	1201110e 	andne	r1, r1, #-2147483645	; 0x80000003
     81c:	00171006 	andseq	r1, r7, r6
     820:	00240200 	eoreq	r0, r4, r0, lsl #4
     824:	0b3e0b0b 	bleq	f83458 <__bss_end__+0xf7a0a8>
     828:	00000803 	andeq	r0, r0, r3, lsl #16
     82c:	0b002403 	bleq	9840 <__bss_end__+0x490>
     830:	030b3e0b 	movweq	r3, #48651	; 0xbe0b
     834:	0400000e 	streq	r0, [r0], #-14
     838:	19270115 	stmdbne	r7!, {r0, r2, r4, r8}
     83c:	13011349 	movwne	r1, #4937	; 0x1349
     840:	05050000 	streq	r0, [r5, #-0]
     844:	00134900 	andseq	r4, r3, r0, lsl #18
     848:	00340600 	eorseq	r0, r4, r0, lsl #12
     84c:	0b3a0e03 	bleq	e84060 <__bss_end__+0xe7acb0>
     850:	0b390b3b 	bleq	e43544 <__bss_end__+0xe3a194>
     854:	193f1349 	ldmdbne	pc!, {r0, r3, r6, r8, r9, ip}	; <UNPREDICTABLE>
     858:	0000193c 	andeq	r1, r0, ip, lsr r9
     85c:	0b000f07 	bleq	4480 <__code_start__-0x3b80>
     860:	0013490b 	andseq	r4, r3, fp, lsl #18
     864:	00260800 	eoreq	r0, r6, r0, lsl #16
     868:	00001349 	andeq	r1, r0, r9, asr #6
     86c:	3f002e09 	svccc	0x00002e09
     870:	3a0e0319 	bcc	3814dc <__bss_end__+0x37812c>
     874:	390b3b0b 	stmdbcc	fp, {r0, r1, r3, r8, r9, fp, ip, sp}
     878:	1119270b 	tstne	r9, fp, lsl #14
     87c:	40061201 	andmi	r1, r6, r1, lsl #4
     880:	19429718 	stmdbne	r2, {r3, r4, r8, r9, sl, ip, pc}^
     884:	01000000 	mrseq	r0, (UNDEF: 0)
     888:	0e250111 	mcreq	1, 1, r0, cr5, cr1, {0}
     88c:	0e030b13 	vmoveq.32	d3[0], r0
     890:	17550e1b 	smmlane	r5, fp, lr, r0
     894:	17100111 			; <UNDEFINED> instruction: 0x17100111
     898:	24020000 	strcs	r0, [r2], #-0
     89c:	3e0b0b00 	vmlacc.f64	d0, d11, d0
     8a0:	0008030b 	andeq	r0, r8, fp, lsl #6
     8a4:	00260300 	eoreq	r0, r6, r0, lsl #6
     8a8:	00001349 	andeq	r1, r0, r9, asr #6
     8ac:	0b002404 	bleq	98c4 <__bss_end__+0x514>
     8b0:	030b3e0b 	movweq	r3, #48651	; 0xbe0b
     8b4:	0500000e 	streq	r0, [r0, #-14]
     8b8:	19270115 	stmdbne	r7!, {r0, r2, r4, r8}
     8bc:	13011349 	movwne	r1, #4937	; 0x1349
     8c0:	05060000 	streq	r0, [r6, #-0]
     8c4:	00134900 	andseq	r4, r3, r0, lsl #18
     8c8:	00340700 	eorseq	r0, r4, r0, lsl #14
     8cc:	0b3a0e03 	bleq	e840e0 <__bss_end__+0xe7ad30>
     8d0:	0b390b3b 	bleq	e435c4 <__bss_end__+0xe3a214>
     8d4:	193f1349 	ldmdbne	pc!, {r0, r3, r6, r8, r9, ip}	; <UNPREDICTABLE>
     8d8:	0000193c 	andeq	r1, r0, ip, lsr r9
     8dc:	0b000f08 	bleq	4504 <__code_start__-0x3afc>
     8e0:	0013490b 	andseq	r4, r3, fp, lsl #18
     8e4:	00340900 	eorseq	r0, r4, r0, lsl #18
     8e8:	0b3a0e03 	bleq	e840fc <__bss_end__+0xe7ad4c>
     8ec:	0b390b3b 	bleq	e435e0 <__bss_end__+0xe3a230>
     8f0:	00001349 	andeq	r1, r0, r9, asr #6
     8f4:	3f012e0a 	svccc	0x00012e0a
     8f8:	3a0e0319 	bcc	381564 <__bss_end__+0x3781b4>
     8fc:	390b3b0b 	stmdbcc	fp, {r0, r1, r3, r8, r9, fp, ip, sp}
     900:	8719270b 	ldrhi	r2, [r9, -fp, lsl #14]
     904:	01111901 	tsteq	r1, r1, lsl #18
     908:	18400612 	stmdane	r0, {r1, r4, r9, sl}^
     90c:	01194297 			; <UNDEFINED> instruction: 0x01194297
     910:	0b000013 	bleq	964 <__code_start__-0x769c>
     914:	0e030034 	mcreq	0, 0, r0, cr3, cr4, {1}
     918:	0b3b0b3a 	bleq	ec3608 <__bss_end__+0xeba258>
     91c:	13490b39 	movtne	r0, #39737	; 0x9b39
     920:	42b71702 	adcsmi	r1, r7, #524288	; 0x80000
     924:	0c000017 	stceq	0, cr0, [r0], {23}
     928:	00018289 	andeq	r8, r1, r9, lsl #5
     92c:	13310111 	teqne	r1, #1073741828	; 0x40000004
     930:	890d0000 	stmdbhi	sp, {}	; <UNPREDICTABLE>
     934:	11010182 	smlabbne	r1, r2, r1, r0
     938:	01133101 	tsteq	r3, r1, lsl #2
     93c:	0e000013 	mcreq	0, 0, r0, cr0, cr3, {0}
     940:	0001828a 	andeq	r8, r1, sl, lsl #5
     944:	42911802 	addsmi	r1, r1, #131072	; 0x20000
     948:	0f000018 	svceq	0x00000018
     94c:	193f012e 	ldmdbne	pc!, {r1, r2, r3, r5, r8}	; <UNPREDICTABLE>
     950:	0b3a0e03 	bleq	e84164 <__bss_end__+0xe7adb4>
     954:	0b390b3b 	bleq	e43648 <__bss_end__+0xe3a298>
     958:	01111927 	tsteq	r1, r7, lsr #18
     95c:	18400612 	stmdane	r0, {r1, r4, r9, sl}^
     960:	01194297 			; <UNDEFINED> instruction: 0x01194297
     964:	10000013 	andne	r0, r0, r3, lsl r0
     968:	193f012e 	ldmdbne	pc!, {r1, r2, r3, r5, r8}	; <UNPREDICTABLE>
     96c:	0b3a0e03 	bleq	e84180 <__bss_end__+0xe7add0>
     970:	0b390b3b 	bleq	e43664 <__bss_end__+0xe3a2b4>
     974:	13491927 	movtne	r1, #39207	; 0x9927
     978:	06120111 			; <UNDEFINED> instruction: 0x06120111
     97c:	42971840 	addsmi	r1, r7, #64, 16	; 0x400000
     980:	00130119 	andseq	r0, r3, r9, lsl r1
     984:	002e1100 	eoreq	r1, lr, r0, lsl #2
     988:	193c193f 	ldmdbne	ip!, {r0, r1, r2, r3, r4, r5, r8, fp, ip}
     98c:	0e030e6e 	cdpeq	14, 0, cr0, cr3, cr14, {3}
     990:	0b3b0b3a 	bleq	ec3680 <__bss_end__+0xeba2d0>
     994:	00000b39 	andeq	r0, r0, r9, lsr fp
     998:	01110100 	tsteq	r1, r0, lsl #2
     99c:	0b130e25 	bleq	4c4238 <__bss_end__+0x4bae88>
     9a0:	0e1b0e03 	cdpeq	14, 1, cr0, cr11, cr3, {0}
     9a4:	06120111 			; <UNDEFINED> instruction: 0x06120111
     9a8:	00001710 	andeq	r1, r0, r0, lsl r7
     9ac:	0b002402 	bleq	99bc <__bss_end__+0x60c>
     9b0:	030b3e0b 	movweq	r3, #48651	; 0xbe0b
     9b4:	03000008 	movweq	r0, #8
     9b8:	0b0b0024 	bleq	2c0a50 <__bss_end__+0x2b76a0>
     9bc:	0e030b3e 	vmoveq.16	d3[0], r0
     9c0:	15040000 	strne	r0, [r4, #-0]
     9c4:	49192701 	ldmdbmi	r9, {r0, r8, r9, sl, sp}
     9c8:	00130113 	andseq	r0, r3, r3, lsl r1
     9cc:	00050500 	andeq	r0, r5, r0, lsl #10
     9d0:	00001349 	andeq	r1, r0, r9, asr #6
     9d4:	03003406 	movweq	r3, #1030	; 0x406
     9d8:	3b0b3a0e 	blcc	2cf218 <__bss_end__+0x2c5e68>
     9dc:	490b390b 	stmdbmi	fp, {r0, r1, r3, r8, fp, ip, sp}
     9e0:	3c193f13 	ldccc	15, cr3, [r9], {19}
     9e4:	07000019 	smladeq	r0, r9, r0, r0
     9e8:	0b0b000f 	bleq	2c0a2c <__bss_end__+0x2b767c>
     9ec:	00001349 	andeq	r1, r0, r9, asr #6
     9f0:	49002608 	stmdbmi	r0, {r3, r9, sl, sp}
     9f4:	09000013 	stmdbeq	r0, {r0, r1, r4}
     9f8:	193f012e 	ldmdbne	pc!, {r1, r2, r3, r5, r8}	; <UNPREDICTABLE>
     9fc:	0b3a0e03 	bleq	e84210 <__bss_end__+0xe7ae60>
     a00:	0b390b3b 	bleq	e436f4 <__bss_end__+0xe3a344>
     a04:	01111927 	tsteq	r1, r7, lsr #18
     a08:	18400612 	stmdane	r0, {r1, r4, r9, sl}^
     a0c:	01194297 			; <UNDEFINED> instruction: 0x01194297
     a10:	0a000013 	beq	a64 <__code_start__-0x759c>
     a14:	08030005 	stmdaeq	r3, {r0, r2}
     a18:	0b3b0b3a 	bleq	ec3708 <__bss_end__+0xeba358>
     a1c:	13490b39 	movtne	r0, #39737	; 0x9b39
     a20:	42b71702 	adcsmi	r1, r7, #524288	; 0x80000
     a24:	0b000017 	bleq	a88 <__code_start__-0x7578>
     a28:	01018289 	smlabbeq	r1, r9, r2, r8
     a2c:	13310111 	teqne	r1, #1073741828	; 0x40000004
     a30:	8a0c0000 	bhi	300a38 <__bss_end__+0x2f7688>
     a34:	02000182 	andeq	r0, r0, #-2147483616	; 0x80000020
     a38:	18429118 	stmdane	r2, {r3, r4, r8, ip, pc}^
     a3c:	340d0000 	strcc	r0, [sp], #-0
     a40:	3a080300 	bcc	201648 <__bss_end__+0x1f8298>
     a44:	390b3b0b 	stmdbcc	fp, {r0, r1, r3, r8, r9, fp, ip, sp}
     a48:	0213490b 	andseq	r4, r3, #180224	; 0x2c000
     a4c:	1742b717 	smlaldne	fp, r2, r7, r7
     a50:	0b0e0000 	bleq	380a58 <__bss_end__+0x3776a8>
     a54:	12011101 	andne	r1, r1, #1073741824	; 0x40000000
     a58:	00130106 	andseq	r0, r3, r6, lsl #2
     a5c:	82890f00 	addhi	r0, r9, #0, 30
     a60:	01110001 	tsteq	r1, r1
     a64:	00001331 	andeq	r1, r0, r1, lsr r3
     a68:	3f012e10 	svccc	0x00012e10
     a6c:	3a0e0319 	bcc	3816d8 <__bss_end__+0x378328>
     a70:	390b3b0b 	stmdbcc	fp, {r0, r1, r3, r8, r9, fp, ip, sp}
     a74:	4919270b 	ldmdbmi	r9, {r0, r1, r3, r8, r9, sl, sp}
     a78:	12011113 	andne	r1, r1, #-1073741820	; 0xc0000004
     a7c:	97184006 	ldrls	r4, [r8, -r6]
     a80:	13011942 	movwne	r1, #6466	; 0x1942
     a84:	05110000 	ldreq	r0, [r1, #-0]
     a88:	3a0e0300 	bcc	381690 <__bss_end__+0x3782e0>
     a8c:	390b3b0b 	stmdbcc	fp, {r0, r1, r3, r8, r9, fp, ip, sp}
     a90:	0213490b 	andseq	r4, r3, #180224	; 0x2c000
     a94:	1742b717 	smlaldne	fp, r2, r7, r7
     a98:	2e120000 	cdpcs	0, 1, cr0, cr2, cr0, {0}
     a9c:	3c193f00 	ldccc	15, cr3, [r9], {-0}
     aa0:	030e6e19 	movweq	r6, #60953	; 0xee19
     aa4:	3b0b3a0e 	blcc	2cf2e4 <__bss_end__+0x2c5f34>
     aa8:	000b390b 	andeq	r3, fp, fp, lsl #18
     aac:	11010000 	mrsne	r0, (UNDEF: 1)
     ab0:	130e2501 	movwne	r2, #58625	; 0xe501
     ab4:	1b0e030b 	blne	3816e8 <__bss_end__+0x378338>
     ab8:	1201110e 	andne	r1, r1, #-2147483645	; 0x80000003
     abc:	00171006 	andseq	r1, r7, r6
     ac0:	00240200 	eoreq	r0, r4, r0, lsl #4
     ac4:	0b3e0b0b 	bleq	f836f8 <__bss_end__+0xf7a348>
     ac8:	00000803 	andeq	r0, r0, r3, lsl #16
     acc:	0b002403 	bleq	9ae0 <__bss_end__+0x730>
     ad0:	030b3e0b 	movweq	r3, #48651	; 0xbe0b
     ad4:	0400000e 	streq	r0, [r0], #-14
     ad8:	13490035 	movtne	r0, #36917	; 0x9035
     adc:	16050000 	strne	r0, [r5], -r0
     ae0:	3a0e0300 	bcc	3816e8 <__bss_end__+0x378338>
     ae4:	390b3b0b 	stmdbcc	fp, {r0, r1, r3, r8, r9, fp, ip, sp}
     ae8:	0013490b 	andseq	r4, r3, fp, lsl #18
     aec:	01150600 	tsteq	r5, r0, lsl #12
     af0:	13491927 	movtne	r1, #39207	; 0x9927
     af4:	00001301 	andeq	r1, r0, r1, lsl #6
     af8:	49000507 	stmdbmi	r0, {r0, r1, r2, r8, sl}
     afc:	08000013 	stmdaeq	r0, {r0, r1, r4}
     b00:	0e030034 	mcreq	0, 0, r0, cr3, cr4, {1}
     b04:	0b3b0b3a 	bleq	ec37f4 <__bss_end__+0xeba444>
     b08:	13490b39 	movtne	r0, #39737	; 0x9b39
     b0c:	193c193f 	ldmdbne	ip!, {r0, r1, r2, r3, r4, r5, r8, fp, ip}
     b10:	0f090000 	svceq	0x00090000
     b14:	490b0b00 	stmdbmi	fp, {r8, r9, fp}
     b18:	0a000013 	beq	b6c <__code_start__-0x7494>
     b1c:	13490026 	movtne	r0, #36902	; 0x9026
     b20:	040b0000 	streq	r0, [fp], #-0
     b24:	0b0b3e01 	bleq	2d0330 <__bss_end__+0x2c6f80>
     b28:	3a13490b 	bcc	4d2f5c <__bss_end__+0x4c9bac>
     b2c:	390b3b0b 	stmdbcc	fp, {r0, r1, r3, r8, r9, fp, ip, sp}
     b30:	0013010b 	andseq	r0, r3, fp, lsl #2
     b34:	00280c00 	eoreq	r0, r8, r0, lsl #24
     b38:	0b1c0e03 	bleq	70434c <__bss_end__+0x6faf9c>
     b3c:	130d0000 	movwne	r0, #53248	; 0xd000
     b40:	0b0e0301 	bleq	38174c <__bss_end__+0x37839c>
     b44:	3b0b3a0b 	blcc	2cf378 <__bss_end__+0x2c5fc8>
     b48:	010b390b 	tsteq	fp, fp, lsl #18
     b4c:	0e000013 	mcreq	0, 0, r0, cr0, cr3, {0}
     b50:	0803000d 	stmdaeq	r3, {r0, r2, r3}
     b54:	0b3b0b3a 	bleq	ec3844 <__bss_end__+0xeba494>
     b58:	13490b39 	movtne	r0, #39737	; 0x9b39
     b5c:	00000b38 	andeq	r0, r0, r8, lsr fp
     b60:	03000d0f 	movweq	r0, #3343	; 0xd0f
     b64:	3b0b3a0e 	blcc	2cf3a4 <__bss_end__+0x2c5ff4>
     b68:	490b390b 	stmdbmi	fp, {r0, r1, r3, r8, fp, ip, sp}
     b6c:	000b3813 	andeq	r3, fp, r3, lsl r8
     b70:	00341000 	eorseq	r1, r4, r0
     b74:	0b3a0e03 	bleq	e84388 <__bss_end__+0xe7afd8>
     b78:	0b390b3b 	bleq	e4386c <__bss_end__+0xe3a4bc>
     b7c:	061c1349 	ldreq	r1, [ip], -r9, asr #6
     b80:	2e110000 	cdpcs	0, 1, cr0, cr1, cr0, {0}
     b84:	03193f01 	tsteq	r9, #1, 30
     b88:	3b0b3a0e 	blcc	2cf3c8 <__bss_end__+0x2c6018>
     b8c:	270b390b 	strcs	r3, [fp, -fp, lsl #18]
     b90:	12011119 	andne	r1, r1, #1073741830	; 0x40000006
     b94:	97184006 	ldrls	r4, [r8, -r6]
     b98:	13011942 	movwne	r1, #6466	; 0x1942
     b9c:	89120000 	ldmdbhi	r2, {}	; <UNPREDICTABLE>
     ba0:	11000182 	smlabbne	r0, r2, r1, r0
     ba4:	00133101 	andseq	r3, r3, r1, lsl #2
     ba8:	012e1300 			; <UNDEFINED> instruction: 0x012e1300
     bac:	0e03193f 			; <UNDEFINED> instruction: 0x0e03193f
     bb0:	0b3b0b3a 	bleq	ec38a0 <__bss_end__+0xeba4f0>
     bb4:	19270b39 	stmdbne	r7!, {r0, r3, r4, r5, r8, r9, fp}
     bb8:	01111349 	tsteq	r1, r9, asr #6
     bbc:	18400612 	stmdane	r0, {r1, r4, r9, sl}^
     bc0:	01194297 			; <UNDEFINED> instruction: 0x01194297
     bc4:	14000013 	strne	r0, [r0], #-19	; 0xffffffed
     bc8:	01018289 	smlabbeq	r1, r9, r2, r8
     bcc:	13310111 	teqne	r1, #1073741828	; 0x40000004
     bd0:	8a150000 	bhi	540bd8 <__bss_end__+0x537828>
     bd4:	02000182 	andeq	r0, r0, #-2147483616	; 0x80000020
     bd8:	18429118 	stmdane	r2, {r3, r4, r8, ip, pc}^
     bdc:	05160000 	ldreq	r0, [r6, #-0]
     be0:	3a080300 	bcc	2017e8 <__bss_end__+0x1f8438>
     be4:	390b3b0b 	stmdbcc	fp, {r0, r1, r3, r8, r9, fp, ip, sp}
     be8:	0213490b 	andseq	r4, r3, #180224	; 0x2c000
     bec:	1742b717 	smlaldne	fp, r2, r7, r7
     bf0:	89170000 	ldmdbhi	r7, {}	; <UNPREDICTABLE>
     bf4:	11010182 	smlabbne	r1, r2, r1, r0
     bf8:	01133101 	tsteq	r3, r1, lsl #2
     bfc:	18000013 	stmdane	r0, {r0, r1, r4}
     c00:	08030034 	stmdaeq	r3, {r2, r4, r5}
     c04:	0b3b0b3a 	bleq	ec38f4 <__bss_end__+0xeba544>
     c08:	13490b39 	movtne	r0, #39737	; 0x9b39
     c0c:	42b71702 	adcsmi	r1, r7, #524288	; 0x80000
     c10:	19000017 	stmdbne	r0, {r0, r1, r2, r4}
     c14:	0e030034 	mcreq	0, 0, r0, cr3, cr4, {1}
     c18:	0b3b0b3a 	bleq	ec3908 <__bss_end__+0xeba558>
     c1c:	13490b39 	movtne	r0, #39737	; 0x9b39
     c20:	0000051c 	andeq	r0, r0, ip, lsl r5
     c24:	03012e1a 	movweq	r2, #7706	; 0x1e1a
     c28:	3b0b3a0e 	blcc	2cf468 <__bss_end__+0x2c60b8>
     c2c:	270b390b 	strcs	r3, [fp, -fp, lsl #18]
     c30:	12011119 	andne	r1, r1, #1073741830	; 0x40000006
     c34:	97184006 	ldrls	r4, [r8, -r6]
     c38:	13011942 	movwne	r1, #6466	; 0x1942
     c3c:	051b0000 	ldreq	r0, [fp, #-0]
     c40:	3a0e0300 	bcc	381848 <__bss_end__+0x378498>
     c44:	390b3b0b 	stmdbcc	fp, {r0, r1, r3, r8, r9, fp, ip, sp}
     c48:	0213490b 	andseq	r4, r3, #180224	; 0x2c000
     c4c:	1742b717 	smlaldne	fp, r2, r7, r7
     c50:	351c0000 	ldrcc	r0, [ip, #-0]
     c54:	1d000000 	stcne	0, cr0, [r0, #-0]
     c58:	193f002e 	ldmdbne	pc!, {r1, r2, r3, r5}	; <UNPREDICTABLE>
     c5c:	0e6e193c 			; <UNDEFINED> instruction: 0x0e6e193c
     c60:	0b3a0e03 	bleq	e84474 <__bss_end__+0xe7b0c4>
     c64:	0b390b3b 	bleq	e43958 <__bss_end__+0xe3a5a8>
     c68:	01000000 	mrseq	r0, (UNDEF: 0)
     c6c:	0e250111 	mcreq	1, 1, r0, cr5, cr1, {0}
     c70:	0e030b13 	vmoveq.32	d3[0], r0
     c74:	01110e1b 	tsteq	r1, fp, lsl lr
     c78:	17100612 			; <UNDEFINED> instruction: 0x17100612
     c7c:	24020000 	strcs	r0, [r2], #-0
     c80:	3e0b0b00 	vmlacc.f64	d0, d11, d0
     c84:	0008030b 	andeq	r0, r8, fp, lsl #6
     c88:	00240300 	eoreq	r0, r4, r0, lsl #6
     c8c:	0b3e0b0b 	bleq	f838c0 <__bss_end__+0xf7a510>
     c90:	00000e03 	andeq	r0, r0, r3, lsl #28
     c94:	49002604 	stmdbmi	r0, {r2, r9, sl, sp}
     c98:	05000013 	streq	r0, [r0, #-19]	; 0xffffffed
     c9c:	0e030016 	mcreq	0, 0, r0, cr3, cr6, {0}
     ca0:	0b3b0b3a 	bleq	ec3990 <__bss_end__+0xeba5e0>
     ca4:	13490b39 	movtne	r0, #39737	; 0x9b39
     ca8:	15060000 	strne	r0, [r6, #-0]
     cac:	49192701 	ldmdbmi	r9, {r0, r8, r9, sl, sp}
     cb0:	00130113 	andseq	r0, r3, r3, lsl r1
     cb4:	00050700 	andeq	r0, r5, r0, lsl #14
     cb8:	00001349 	andeq	r1, r0, r9, asr #6
     cbc:	03003408 	movweq	r3, #1032	; 0x408
     cc0:	3b0b3a0e 	blcc	2cf500 <__bss_end__+0x2c6150>
     cc4:	490b390b 	stmdbmi	fp, {r0, r1, r3, r8, fp, ip, sp}
     cc8:	3c193f13 	ldccc	15, cr3, [r9], {19}
     ccc:	09000019 	stmdbeq	r0, {r0, r3, r4}
     cd0:	0b0b000f 	bleq	2c0d14 <__bss_end__+0x2b7964>
     cd4:	00001349 	andeq	r1, r0, r9, asr #6
     cd8:	3e01040a 	cdpcc	4, 0, cr0, cr1, cr10, {0}
     cdc:	490b0b0b 	stmdbmi	fp, {r0, r1, r3, r8, r9, fp}
     ce0:	3b0b3a13 	blcc	2cf534 <__bss_end__+0x2c6184>
     ce4:	010b390b 	tsteq	fp, fp, lsl #18
     ce8:	0b000013 	bleq	d3c <__code_start__-0x72c4>
     cec:	0e030028 	cdpeq	0, 0, cr0, cr3, cr8, {1}
     cf0:	00000b1c 	andeq	r0, r0, ip, lsl fp
     cf4:	0300340c 	movweq	r3, #1036	; 0x40c
     cf8:	3b0b3a0e 	blcc	2cf538 <__bss_end__+0x2c6188>
     cfc:	490b390b 	stmdbmi	fp, {r0, r1, r3, r8, fp, ip, sp}
     d00:	00061c13 	andeq	r1, r6, r3, lsl ip
     d04:	012e0d00 			; <UNDEFINED> instruction: 0x012e0d00
     d08:	0e03193f 			; <UNDEFINED> instruction: 0x0e03193f
     d0c:	0b3b0b3a 	bleq	ec39fc <__bss_end__+0xeba64c>
     d10:	19270b39 	stmdbne	r7!, {r0, r3, r4, r5, r8, r9, fp}
     d14:	01111349 	tsteq	r1, r9, asr #6
     d18:	18400612 	stmdane	r0, {r1, r4, r9, sl}^
     d1c:	01194297 			; <UNDEFINED> instruction: 0x01194297
     d20:	0e000013 	mcreq	0, 0, r0, cr0, cr3, {0}
     d24:	08030005 	stmdaeq	r3, {r0, r2}
     d28:	0b3b0b3a 	bleq	ec3a18 <__bss_end__+0xeba668>
     d2c:	13490b39 	movtne	r0, #39737	; 0x9b39
     d30:	42b71702 	adcsmi	r1, r7, #524288	; 0x80000
     d34:	0f000017 	svceq	0x00000017
     d38:	01018289 	smlabbeq	r1, r9, r2, r8
     d3c:	13310111 	teqne	r1, #1073741828	; 0x40000004
     d40:	8a100000 	bhi	400d48 <__bss_end__+0x3f7998>
     d44:	02000182 	andeq	r0, r0, #-2147483616	; 0x80000020
     d48:	18429118 	stmdane	r2, {r3, r4, r8, ip, pc}^
     d4c:	2e110000 	cdpcs	0, 1, cr0, cr1, cr0, {0}
     d50:	03193f01 	tsteq	r9, #1, 30
     d54:	3b0b3a0e 	blcc	2cf594 <__bss_end__+0x2c61e4>
     d58:	270b390b 	strcs	r3, [fp, -fp, lsl #18]
     d5c:	12011119 	andne	r1, r1, #1073741830	; 0x40000006
     d60:	97184006 	ldrls	r4, [r8, -r6]
     d64:	13011942 	movwne	r1, #6466	; 0x1942
     d68:	89120000 	ldmdbhi	r2, {}	; <UNPREDICTABLE>
     d6c:	11010182 	smlabbne	r1, r2, r1, r0
     d70:	01133101 	tsteq	r3, r1, lsl #2
     d74:	13000013 	movwne	r0, #19
     d78:	00018289 	andeq	r8, r1, r9, lsl #5
     d7c:	13310111 	teqne	r1, #1073741828	; 0x40000004
     d80:	34140000 	ldrcc	r0, [r4], #-0
     d84:	3a0e0300 	bcc	38198c <__bss_end__+0x3785dc>
     d88:	390b3b0b 	stmdbcc	fp, {r0, r1, r3, r8, r9, fp, ip, sp}
     d8c:	0213490b 	andseq	r4, r3, #180224	; 0x2c000
     d90:	1742b717 	smlaldne	fp, r2, r7, r7
     d94:	2e150000 	cdpcs	0, 1, cr0, cr5, cr0, {0}
     d98:	3c193f00 	ldccc	15, cr3, [r9], {-0}
     d9c:	030e6e19 	movweq	r6, #60953	; 0xee19
     da0:	3b0b3a0e 	blcc	2cf5e0 <__bss_end__+0x2c6230>
     da4:	000b390b 	andeq	r3, fp, fp, lsl #18
     da8:	11010000 	mrsne	r0, (UNDEF: 1)
     dac:	130e2501 	movwne	r2, #58625	; 0xe501
     db0:	1b0e030b 	blne	3819e4 <__bss_end__+0x378634>
     db4:	1201110e 	andne	r1, r1, #-2147483645	; 0x80000003
     db8:	00171006 	andseq	r1, r7, r6
     dbc:	00240200 	eoreq	r0, r4, r0, lsl #4
     dc0:	0b3e0b0b 	bleq	f839f4 <__bss_end__+0xf7a644>
     dc4:	00000803 	andeq	r0, r0, r3, lsl #16
     dc8:	0b002403 	bleq	9ddc <__bss_end__+0xa2c>
     dcc:	030b3e0b 	movweq	r3, #48651	; 0xbe0b
     dd0:	0400000e 	streq	r0, [r0], #-14
     dd4:	19270115 	stmdbne	r7!, {r0, r2, r4, r8}
     dd8:	13011349 	movwne	r1, #4937	; 0x1349
     ddc:	05050000 	streq	r0, [r5, #-0]
     de0:	00134900 	andseq	r4, r3, r0, lsl #18
     de4:	00340600 	eorseq	r0, r4, r0, lsl #12
     de8:	0b3a0e03 	bleq	e845fc <__bss_end__+0xe7b24c>
     dec:	0b390b3b 	bleq	e43ae0 <__bss_end__+0xe3a730>
     df0:	193f1349 	ldmdbne	pc!, {r0, r3, r6, r8, r9, ip}	; <UNPREDICTABLE>
     df4:	0000193c 	andeq	r1, r0, ip, lsr r9
     df8:	0b000f07 	bleq	4a1c <__code_start__-0x35e4>
     dfc:	0013490b 	andseq	r4, r3, fp, lsl #18
     e00:	00260800 	eoreq	r0, r6, r0, lsl #16
     e04:	00001349 	andeq	r1, r0, r9, asr #6
     e08:	47003409 	strmi	r3, [r0, -r9, lsl #8]
     e0c:	3b0b3a13 	blcc	2cf660 <__bss_end__+0x2c62b0>
     e10:	020b390b 	andeq	r3, fp, #180224	; 0x2c000
     e14:	0a000018 	beq	e7c <__code_start__-0x7184>
     e18:	193f012e 	ldmdbne	pc!, {r1, r2, r3, r5, r8}	; <UNPREDICTABLE>
     e1c:	0b3a0e03 	bleq	e84630 <__bss_end__+0xe7b280>
     e20:	0b390b3b 	bleq	e43b14 <__bss_end__+0xe3a764>
     e24:	01111927 	tsteq	r1, r7, lsr #18
     e28:	18400612 	stmdane	r0, {r1, r4, r9, sl}^
     e2c:	01194297 			; <UNDEFINED> instruction: 0x01194297
     e30:	0b000013 	bleq	e84 <__code_start__-0x717c>
     e34:	08030005 	stmdaeq	r3, {r0, r2}
     e38:	0b3b0b3a 	bleq	ec3b28 <__bss_end__+0xeba778>
     e3c:	13490b39 	movtne	r0, #39737	; 0x9b39
     e40:	00001802 	andeq	r1, r0, r2, lsl #16
     e44:	3f002e0c 	svccc	0x00002e0c
     e48:	3a0e0319 	bcc	381ab4 <__bss_end__+0x378704>
     e4c:	390b3b0b 	stmdbcc	fp, {r0, r1, r3, r8, r9, fp, ip, sp}
     e50:	1119270b 	tstne	r9, fp, lsl #14
     e54:	40061201 	andmi	r1, r6, r1, lsl #4
     e58:	19429718 	stmdbne	r2, {r3, r4, r8, r9, sl, ip, pc}^
     e5c:	2e0d0000 	cdpcs	0, 0, cr0, cr13, cr0, {0}
     e60:	3a0e0301 	bcc	381a6c <__bss_end__+0x3786bc>
     e64:	390b3b0b 	stmdbcc	fp, {r0, r1, r3, r8, r9, fp, ip, sp}
     e68:	4919270b 	ldmdbmi	r9, {r0, r1, r3, r8, r9, sl, sp}
     e6c:	12011113 	andne	r1, r1, #-1073741820	; 0xc0000004
     e70:	97184006 	ldrls	r4, [r8, -r6]
     e74:	13011942 	movwne	r1, #6466	; 0x1942
     e78:	050e0000 	streq	r0, [lr, #-0]
     e7c:	3a080300 	bcc	201a84 <__bss_end__+0x1f86d4>
     e80:	390b3b0b 	stmdbcc	fp, {r0, r1, r3, r8, r9, fp, ip, sp}
     e84:	0213490b 	andseq	r4, r3, #180224	; 0x2c000
     e88:	1742b717 	smlaldne	fp, r2, r7, r7
     e8c:	890f0000 	stmdbhi	pc, {}	; <UNPREDICTABLE>
     e90:	11010182 	smlabbne	r1, r2, r1, r0
     e94:	00133101 	andseq	r3, r3, r1, lsl #2
     e98:	828a1000 	addhi	r1, sl, #0, 0
     e9c:	18020001 	stmdane	r2, {r0}
     ea0:	00184291 	mulseq	r8, r1, r2
     ea4:	002e1100 	eoreq	r1, lr, r0, lsl #2
     ea8:	193c193f 	ldmdbne	ip!, {r0, r1, r2, r3, r4, r5, r8, fp, ip}
     eac:	0e030e6e 	cdpeq	14, 0, cr0, cr3, cr14, {3}
     eb0:	0b3b0b3a 	bleq	ec3ba0 <__bss_end__+0xeba7f0>
     eb4:	00000b39 	andeq	r0, r0, r9, lsr fp
     eb8:	01110100 	tsteq	r1, r0, lsl #2
     ebc:	0b130e25 	bleq	4c4758 <__bss_end__+0x4bb3a8>
     ec0:	0e1b0e03 	cdpeq	14, 1, cr0, cr11, cr3, {0}
     ec4:	06120111 			; <UNDEFINED> instruction: 0x06120111
     ec8:	00001710 	andeq	r1, r0, r0, lsl r7
     ecc:	0b002402 	bleq	9edc <__bss_end__+0xb2c>
     ed0:	030b3e0b 	movweq	r3, #48651	; 0xbe0b
     ed4:	03000008 	movweq	r0, #8
     ed8:	0b0b0024 	bleq	2c0f70 <__bss_end__+0x2b7bc0>
     edc:	0e030b3e 	vmoveq.16	d3[0], r0
     ee0:	15040000 	strne	r0, [r4, #-0]
     ee4:	49192701 	ldmdbmi	r9, {r0, r8, r9, sl, sp}
     ee8:	00130113 	andseq	r0, r3, r3, lsl r1
     eec:	00050500 	andeq	r0, r5, r0, lsl #10
     ef0:	00001349 	andeq	r1, r0, r9, asr #6
     ef4:	03003406 	movweq	r3, #1030	; 0x406
     ef8:	3b0b3a0e 	blcc	2cf738 <__bss_end__+0x2c6388>
     efc:	490b390b 	stmdbmi	fp, {r0, r1, r3, r8, fp, ip, sp}
     f00:	3c193f13 	ldccc	15, cr3, [r9], {19}
     f04:	07000019 	smladeq	r0, r9, r0, r0
     f08:	0b0b000f 	bleq	2c0f4c <__bss_end__+0x2b7b9c>
     f0c:	00001349 	andeq	r1, r0, r9, asr #6
     f10:	49002608 	stmdbmi	r0, {r3, r9, sl, sp}
     f14:	09000013 	stmdbeq	r0, {r0, r1, r4}
     f18:	193f012e 	ldmdbne	pc!, {r1, r2, r3, r5, r8}	; <UNPREDICTABLE>
     f1c:	0b3a0e03 	bleq	e84730 <__bss_end__+0xe7b380>
     f20:	0b390b3b 	bleq	e43c14 <__bss_end__+0xe3a864>
     f24:	13491927 	movtne	r1, #39207	; 0x9927
     f28:	06120111 			; <UNDEFINED> instruction: 0x06120111
     f2c:	42971840 	addsmi	r1, r7, #64, 16	; 0x400000
     f30:	00130119 	andseq	r0, r3, r9, lsl r1
     f34:	00050a00 	andeq	r0, r5, r0, lsl #20
     f38:	0b3a0e03 	bleq	e8474c <__bss_end__+0xe7b39c>
     f3c:	0b390b3b 	bleq	e43c30 <__bss_end__+0xe3a880>
     f40:	18021349 	stmdane	r2, {r0, r3, r6, r8, r9, ip}
     f44:	050b0000 	streq	r0, [fp, #-0]
     f48:	3a080300 	bcc	201b50 <__bss_end__+0x1f87a0>
     f4c:	390b3b0b 	stmdbcc	fp, {r0, r1, r3, r8, r9, fp, ip, sp}
     f50:	0213490b 	andseq	r4, r3, #180224	; 0x2c000
     f54:	1742b717 	smlaldne	fp, r2, r7, r7
     f58:	340c0000 	strcc	r0, [ip], #-0
     f5c:	3a080300 	bcc	201b64 <__bss_end__+0x1f87b4>
     f60:	390b3b0b 	stmdbcc	fp, {r0, r1, r3, r8, r9, fp, ip, sp}
     f64:	0213490b 	andseq	r4, r3, #180224	; 0x2c000
     f68:	1742b717 	smlaldne	fp, r2, r7, r7
     f6c:	01000000 	mrseq	r0, (UNDEF: 0)
     f70:	0e250111 	mcreq	1, 1, r0, cr5, cr1, {0}
     f74:	0e030b13 	vmoveq.32	d3[0], r0
     f78:	17550e1b 	smmlane	r5, fp, lr, r0
     f7c:	17100111 			; <UNDEFINED> instruction: 0x17100111
     f80:	24020000 	strcs	r0, [r2], #-0
     f84:	3e0b0b00 	vmlacc.f64	d0, d11, d0
     f88:	0008030b 	andeq	r0, r8, fp, lsl #6
     f8c:	00160300 	andseq	r0, r6, r0, lsl #6
     f90:	0b3a0e03 	bleq	e847a4 <__bss_end__+0xe7b3f4>
     f94:	0b390b3b 	bleq	e43c88 <__bss_end__+0xe3a8d8>
     f98:	00001349 	andeq	r1, r0, r9, asr #6
     f9c:	0b002404 	bleq	9fb4 <__bss_end__+0xc04>
     fa0:	030b3e0b 	movweq	r3, #48651	; 0xbe0b
     fa4:	0500000e 	streq	r0, [r0, #-14]
     fa8:	13490026 	movtne	r0, #36902	; 0x9026
     fac:	15060000 	strne	r0, [r6, #-0]
     fb0:	49192701 	ldmdbmi	r9, {r0, r8, r9, sl, sp}
     fb4:	00130113 	andseq	r0, r3, r3, lsl r1
     fb8:	00050700 	andeq	r0, r5, r0, lsl #14
     fbc:	00001349 	andeq	r1, r0, r9, asr #6
     fc0:	03003408 	movweq	r3, #1032	; 0x408
     fc4:	3b0b3a0e 	blcc	2cf804 <__bss_end__+0x2c6454>
     fc8:	490b390b 	stmdbmi	fp, {r0, r1, r3, r8, fp, ip, sp}
     fcc:	3c193f13 	ldccc	15, cr3, [r9], {19}
     fd0:	09000019 	stmdbeq	r0, {r0, r3, r4}
     fd4:	0b0b000f 	bleq	2c1018 <__bss_end__+0x2b7c68>
     fd8:	00001349 	andeq	r1, r0, r9, asr #6
     fdc:	3f012e0a 	svccc	0x00012e0a
     fe0:	3a0e0319 	bcc	381c4c <__bss_end__+0x37889c>
     fe4:	390b3b0b 	stmdbcc	fp, {r0, r1, r3, r8, r9, fp, ip, sp}
     fe8:	4919270b 	ldmdbmi	r9, {r0, r1, r3, r8, r9, sl, sp}
     fec:	12011113 	andne	r1, r1, #-1073741820	; 0xc0000004
     ff0:	97184006 	ldrls	r4, [r8, -r6]
     ff4:	13011942 	movwne	r1, #6466	; 0x1942
     ff8:	050b0000 	streq	r0, [fp, #-0]
     ffc:	3a080300 	bcc	201c04 <__bss_end__+0x1f8854>
    1000:	390b3b0b 	stmdbcc	fp, {r0, r1, r3, r8, r9, fp, ip, sp}
    1004:	0213490b 	andseq	r4, r3, #180224	; 0x2c000
    1008:	1742b717 	smlaldne	fp, r2, r7, r7
    100c:	340c0000 	strcc	r0, [ip], #-0
    1010:	3a080300 	bcc	201c18 <__bss_end__+0x1f8868>
    1014:	390b3b0b 	stmdbcc	fp, {r0, r1, r3, r8, r9, fp, ip, sp}
    1018:	0213490b 	andseq	r4, r3, #180224	; 0x2c000
    101c:	1742b717 	smlaldne	fp, r2, r7, r7
    1020:	Address 0x0000000000001020 is out of bounds.


Disassembly of section .debug_loc:

00000000 <.debug_loc>:
   0:	00000002 	andeq	r0, r0, r2
   4:	00000008 	andeq	r0, r0, r8
   8:	00000010 	andeq	r0, r0, r0, lsl r0
   c:	9f440002 	svcls	0x00440002
  10:	00000010 	andeq	r0, r0, r0, lsl r0
  14:	0000005c 	andeq	r0, r0, ip, asr r0
  18:	00540001 	subseq	r0, r4, r1
	...
  24:	50000000 	andpl	r0, r0, r0
  28:	5b000001 	blpl	34 <__code_start__-0x7fcc>
  2c:	01000001 	tsteq	r0, r1
  30:	015b5000 	cmpeq	fp, r0
  34:	01b40000 			; <UNDEFINED> instruction: 0x01b40000
  38:	00010000 	andeq	r0, r1, r0
  3c:	00000055 	andeq	r0, r0, r5, asr r0
	...
  4c:	00016000 	andeq	r6, r1, r0
  50:	00017000 	andeq	r7, r1, r0
  54:	50000100 	andpl	r0, r0, r0, lsl #2
  58:	00000170 	andeq	r0, r0, r0, ror r1
  5c:	00000178 	andeq	r0, r0, r8, ror r1
  60:	78540001 	ldmdavc	r4, {r0}^
  64:	9c000001 	stcls	0, cr0, [r0], {1}
  68:	01000001 	tsteq	r0, r1
  6c:	019c5000 	orrseq	r5, ip, r0
  70:	01b40000 			; <UNDEFINED> instruction: 0x01b40000
  74:	00010000 	andeq	r0, r1, r0
  78:	00000054 	andeq	r0, r0, r4, asr r0
	...
  88:	0000f000 	andeq	pc, r0, r0
  8c:	00010c00 	andeq	r0, r1, r0, lsl #24
  90:	50000100 	andpl	r0, r0, r0, lsl #2
  94:	0000010c 	andeq	r0, r0, ip, lsl #2
  98:	0000011c 	andeq	r0, r0, ip, lsl r1
  9c:	1c540001 	mrrcne	0, 0, r0, r4, cr1
  a0:	3b000001 	blcc	ac <__code_start__-0x7f54>
  a4:	01000001 	tsteq	r0, r1
  a8:	013b5000 	teqeq	fp, r0
  ac:	01500000 	cmpeq	r0, r0
  b0:	00010000 	andeq	r0, r1, r0
  b4:	00000054 	andeq	r0, r0, r4, asr r0
	...
  c4:	0000f000 	andeq	pc, r0, r0
  c8:	00010c00 	andeq	r0, r1, r0, lsl #24
  cc:	51000100 	mrspl	r0, (UNDEF: 16)
  d0:	0000010c 	andeq	r0, r0, ip, lsl #2
  d4:	0000011c 	andeq	r0, r0, ip, lsl r1
  d8:	1c550001 	mrrcne	0, 0, r0, r5, cr1
  dc:	3b000001 	blcc	e8 <__code_start__-0x7f18>
  e0:	01000001 	tsteq	r0, r1
  e4:	013b5100 	teqeq	fp, r0, lsl #2
  e8:	01500000 	cmpeq	r0, r0
  ec:	00010000 	andeq	r0, r1, r0
  f0:	00000055 	andeq	r0, r0, r5, asr r0
	...
  fc:	1c000000 	stcne	0, cr0, [r0], {-0}
 100:	2c000000 	stccs	0, cr0, [r0], {-0}
 104:	01000000 	mrseq	r0, (UNDEF: 0)
 108:	002c5000 	eoreq	r5, ip, r0
 10c:	002f0000 	eoreq	r0, pc, r0
 110:	00010000 	andeq	r0, r1, r0
 114:	00002f51 	andeq	r2, r0, r1, asr pc
 118:	00003800 	andeq	r3, r0, r0, lsl #16
 11c:	f3000400 	vshl.u8	d0, d0, d0
 120:	009f5001 	addseq	r5, pc, r1
	...
 130:	00001c00 	andeq	r1, r0, r0, lsl #24
 134:	00002800 	andeq	r2, r0, r0, lsl #16
 138:	51000100 	mrspl	r0, (UNDEF: 16)
 13c:	00000028 	andeq	r0, r0, r8, lsr #32
 140:	0000002f 	andeq	r0, r0, pc, lsr #32
 144:	2f520001 	svccs	0x00520001
 148:	38000000 	stmdacc	r0, {}	; <UNPREDICTABLE>
 14c:	04000000 	streq	r0, [r0], #-0
 150:	5101f300 	mrspl	pc, SP_irq	; <UNPREDICTABLE>
 154:	0000009f 	muleq	r0, pc, r0	; <UNPREDICTABLE>
	...
 164:	10000000 	andne	r0, r0, r0
 168:	01000000 	mrseq	r0, (UNDEF: 0)
 16c:	00105000 	andseq	r5, r0, r0
 170:	00130000 	andseq	r0, r3, r0
 174:	00010000 	andeq	r0, r1, r0
 178:	00001351 	andeq	r1, r0, r1, asr r3
 17c:	00001c00 	andeq	r1, r0, r0, lsl #24
 180:	f3000400 	vshl.u8	d0, d0, d0
 184:	009f5001 	addseq	r5, pc, r1
	...
 198:	00000c00 	andeq	r0, r0, r0, lsl #24
 19c:	51000100 	mrspl	r0, (UNDEF: 16)
 1a0:	0000000c 	andeq	r0, r0, ip
 1a4:	00000013 	andeq	r0, r0, r3, lsl r0
 1a8:	13520001 	cmpne	r2, #1, 0
 1ac:	1c000000 	stcne	0, cr0, [r0], {-0}
 1b0:	04000000 	streq	r0, [r0], #-0
 1b4:	5101f300 	mrspl	pc, SP_irq	; <UNPREDICTABLE>
 1b8:	0000009f 	muleq	r0, pc, r0	; <UNPREDICTABLE>
	...
 1c4:	00003800 	andeq	r3, r0, r0, lsl #16
 1c8:	00007800 	andeq	r7, r0, r0, lsl #16
 1cc:	50000100 	andpl	r0, r0, r0, lsl #2
 1d0:	00000078 	andeq	r0, r0, r8, ror r0
 1d4:	00000094 	muleq	r0, r4, r0
 1d8:	01f30004 	mvnseq	r0, r4
 1dc:	00009f50 	andeq	r9, r0, r0, asr pc
	...
 1ec:	0000002c 	andeq	r0, r0, ip, lsr #32
 1f0:	00000038 	andeq	r0, r0, r8, lsr r0
 1f4:	38500001 	ldmdacc	r0, {r0}^
 1f8:	48000000 	stmdami	r0, {}	; <UNPREDICTABLE>
 1fc:	01000000 	mrseq	r0, (UNDEF: 0)
 200:	00485400 	subeq	r5, r8, r0, lsl #8
 204:	00580000 	subseq	r0, r8, r0
 208:	00010000 	andeq	r0, r1, r0
 20c:	00000050 	andeq	r0, r0, r0, asr r0
 210:	00000000 	andeq	r0, r0, r0
 214:	01010000 	mrseq	r0, (UNDEF: 1)
 218:	00000000 	andeq	r0, r0, r0
 21c:	00000800 	andeq	r0, r0, r0, lsl #16
 220:	50000100 	andpl	r0, r0, r0, lsl #2
 224:	00000008 	andeq	r0, r0, r8
 228:	00000034 	andeq	r0, r0, r4, lsr r0
 22c:	00540001 	subseq	r0, r4, r1
	...
 23c:	00028800 	andeq	r8, r2, r0, lsl #16
 240:	0002b800 	andeq	fp, r2, r0, lsl #16
 244:	50000100 	andpl	r0, r0, r0, lsl #2
 248:	000002b8 			; <UNDEFINED> instruction: 0x000002b8
 24c:	00000604 	andeq	r0, r0, r4, lsl #12
 250:	04590001 	ldrbeq	r0, [r9], #-1
 254:	2c000006 	stccs	0, cr0, [r0], {6}
 258:	04000006 	streq	r0, [r0], #-6
 25c:	5001f300 	andpl	pc, r1, r0, lsl #6
 260:	0000009f 	muleq	r0, pc, r0	; <UNPREDICTABLE>
	...
 26c:	88000000 	stmdahi	r0, {}	; <UNPREDICTABLE>
 270:	a0000002 	andge	r0, r0, r2
 274:	01000002 	tsteq	r0, r2
 278:	02a05100 	adceq	r5, r0, #0
 27c:	02b80000 	adcseq	r0, r8, #0, 0
 280:	00030000 	andeq	r0, r3, r0
 284:	b89f0171 	ldmlt	pc, {r0, r4, r5, r6, r8}	; <UNPREDICTABLE>
 288:	2c000002 	stccs	0, cr0, [r0], {2}
 28c:	04000006 	streq	r0, [r0], #-6
 290:	5101f300 	mrspl	pc, SP_irq	; <UNPREDICTABLE>
 294:	0000009f 	muleq	r0, pc, r0	; <UNPREDICTABLE>
	...
 2a0:	00028800 	andeq	r8, r2, r0, lsl #16
 2a4:	0002b800 	andeq	fp, r2, r0, lsl #16
 2a8:	52000100 	andpl	r0, r0, #0
 2ac:	000002b8 			; <UNDEFINED> instruction: 0x000002b8
 2b0:	00000604 	andeq	r0, r0, r4, lsl #12
 2b4:	00560001 	subseq	r0, r6, r1
 2b8:	00000000 	andeq	r0, r0, r0
 2bc:	01000000 	mrseq	r0, (UNDEF: 0)
 2c0:	00000000 	andeq	r0, r0, r0
 2c4:	01010000 	mrseq	r0, (UNDEF: 1)
 2c8:	00000000 	andeq	r0, r0, r0
 2cc:	02020000 	andeq	r0, r2, #0, 0
 2d0:	9c000000 	stcls	0, cr0, [r0], {-0}
 2d4:	b8000002 	stmdalt	r0, {r1}
 2d8:	01000002 	tsteq	r0, r2
 2dc:	02b85000 	adcseq	r5, r8, #0, 0
 2e0:	02bc0000 	adcseq	r0, ip, #0, 0
 2e4:	00010000 	andeq	r0, r1, r0
 2e8:	0002bc54 	andeq	fp, r2, r4, asr ip
 2ec:	0002c000 	andeq	ip, r2, r0
 2f0:	74000300 	strvc	r0, [r0], #-768	; 0xfffffd00
 2f4:	02c09f01 	sbceq	r9, r0, #1, 30
 2f8:	02e40000 	rsceq	r0, r4, #0, 0
 2fc:	00010000 	andeq	r0, r1, r0
 300:	0002e454 	andeq	lr, r2, r4, asr r4
 304:	0002e800 	andeq	lr, r2, r0, lsl #16
 308:	74000300 	strvc	r0, [r0], #-768	; 0xfffffd00
 30c:	02e89f01 	rsceq	r9, r8, #1, 30
 310:	05d40000 	ldrbeq	r0, [r4]
 314:	00010000 	andeq	r0, r1, r0
 318:	0005d454 	andeq	sp, r5, r4, asr r4
 31c:	0005d800 	andeq	sp, r5, r0, lsl #16
 320:	74000300 	strvc	r0, [r0], #-768	; 0xfffffd00
 324:	05d89f01 	ldrbeq	r9, [r8, #3841]	; 0xf01
 328:	05f00000 	ldrbeq	r0, [r0, #0]!
 32c:	00010000 	andeq	r0, r1, r0
 330:	0005f054 	andeq	pc, r5, r4, asr r0	; <UNPREDICTABLE>
 334:	0005f800 	andeq	pc, r5, r0, lsl #16
 338:	74000300 	strvc	r0, [r0], #-768	; 0xfffffd00
 33c:	05f89f01 	ldrbeq	r9, [r8, #3841]!	; 0xf01
 340:	06040000 	streq	r0, [r4], -r0
 344:	00010000 	andeq	r0, r1, r0
 348:	00000054 	andeq	r0, r0, r4, asr r0
	...
 354:	0002a400 	andeq	sl, r2, r0, lsl #8
 358:	00060400 	andeq	r0, r6, r0, lsl #8
 35c:	58000100 	stmdapl	r0, {r8}
 360:	00000604 	andeq	r0, r0, r4, lsl #12
 364:	0000062c 	andeq	r0, r0, ip, lsr #12
 368:	01f3000a 	mvnseq	r0, sl
 36c:	5001f351 	andpl	pc, r1, r1, asr r3	; <UNPREDICTABLE>
 370:	9f1c3122 	svcls	0x001c3122
	...
 37c:	03f00001 	mvnseq	r0, #1, 0
 380:	040b0000 	streq	r0, [fp], #-0
 384:	00010000 	andeq	r0, r1, r0
 388:	00000053 	andeq	r0, r0, r3, asr r0
 38c:	00000000 	andeq	r0, r0, r0
 390:	00000100 	andeq	r0, r0, r0, lsl #2
 394:	0002ac00 	andeq	sl, r2, r0, lsl #24
 398:	0002b800 	andeq	fp, r2, r0, lsl #16
 39c:	52000100 	andpl	r0, r0, #0
 3a0:	000002b8 			; <UNDEFINED> instruction: 0x000002b8
 3a4:	0000062c 	andeq	r0, r0, ip, lsr #12
 3a8:	c8910003 	ldmgt	r1, {r0, r1}
 3ac:	0000007d 	andeq	r0, r0, sp, ror r0
	...
 3b8:	01010000 	mrseq	r0, (UNDEF: 1)
	...
 3c4:	10000000 	andne	r0, r0, r0
 3c8:	28000004 	stmdacs	r0, {r2}
 3cc:	01000004 	tsteq	r0, r4
 3d0:	04285000 	strteq	r5, [r8], #-0
 3d4:	043c0000 	ldrteq	r0, [ip], #-0
 3d8:	00010000 	andeq	r0, r1, r0
 3dc:	0004a457 	andeq	sl, r4, r7, asr r4
 3e0:	0004a400 	andeq	sl, r4, r0, lsl #8
 3e4:	50000100 	andpl	r0, r0, r0, lsl #2
 3e8:	000004a4 	andeq	r0, r0, r4, lsr #9
 3ec:	000004ac 	andeq	r0, r0, ip, lsr #9
 3f0:	dc570001 	mrrcle	0, 0, r0, r7, cr1
 3f4:	e0000004 	and	r0, r0, r4
 3f8:	01000004 	tsteq	r0, r4
 3fc:	05105000 	ldreq	r5, [r0, #-0]
 400:	05140000 	ldreq	r0, [r4, #-0]
 404:	00010000 	andeq	r0, r1, r0
 408:	00054450 	andeq	r4, r5, r0, asr r4
 40c:	00054800 	andeq	r4, r5, r0, lsl #16
 410:	50000100 	andpl	r0, r0, r0, lsl #2
 414:	0000058c 	andeq	r0, r0, ip, lsl #11
 418:	00000590 	muleq	r0, r0, r5
 41c:	d0500001 	subsle	r0, r0, r1
 420:	f0000005 			; <UNDEFINED> instruction: 0xf0000005
 424:	01000005 	tsteq	r0, r5
 428:	00005700 	andeq	r5, r0, r0, lsl #14
 42c:	00000000 	andeq	r0, r0, r0
 430:	00020000 	andeq	r0, r2, r0
 434:	00000000 	andeq	r0, r0, r0
 438:	000002f4 	strdeq	r0, [r0], -r4
 43c:	000002f8 	strdeq	r0, [r0], -r8
 440:	9f300002 	svcls	0x00300002
 444:	000002f8 	strdeq	r0, [r0], -r8
 448:	00000314 	andeq	r0, r0, r4, lsl r3
 44c:	1c550001 	mrrcne	0, 0, r0, r5, cr1
 450:	f0000003 			; <UNDEFINED> instruction: 0xf0000003
 454:	01000005 	tsteq	r0, r5
 458:	00005500 	andeq	r5, r0, r0, lsl #10
	...
 468:	00000070 	andeq	r0, r0, r0, ror r0
 46c:	00000094 	muleq	r0, r4, r0
 470:	94500001 	ldrbls	r0, [r0], #-1
 474:	fc000000 	stc2	0, cr0, [r0], {-0}
 478:	03000000 	movweq	r0, #0
 47c:	9f027000 	svcls	0x00027000
 480:	000000fc 	strdeq	r0, [r0], -ip
 484:	00000224 	andeq	r0, r0, r4, lsr #4
 488:	01f30004 	mvnseq	r0, r4
 48c:	00009f50 	andeq	r9, r0, r0, asr pc
	...
 4a4:	00700000 	rsbseq	r0, r0, r0
 4a8:	00e00000 	rsceq	r0, r0, r0
 4ac:	00010000 	andeq	r0, r1, r0
 4b0:	0000e051 	andeq	lr, r0, r1, asr r0
 4b4:	00015400 	andeq	r5, r1, r0, lsl #8
 4b8:	55000100 	strpl	r0, [r0, #-256]	; 0xffffff00
 4bc:	00000154 	andeq	r0, r0, r4, asr r1
 4c0:	00000158 	andeq	r0, r0, r8, asr r1
 4c4:	58510001 	ldmdapl	r1, {r0}^
 4c8:	b0000001 	andlt	r0, r0, r1
 4cc:	01000001 	tsteq	r0, r1
 4d0:	01b05500 	lslseq	r5, r0, #10
 4d4:	01c00000 	biceq	r0, r0, r0
 4d8:	00010000 	andeq	r0, r1, r0
 4dc:	0001c051 	andeq	ip, r1, r1, asr r0
 4e0:	0001e400 	andeq	lr, r1, r0, lsl #8
 4e4:	55000100 	strpl	r0, [r0, #-256]	; 0xffffff00
 4e8:	000001e4 	andeq	r0, r0, r4, ror #3
 4ec:	000001f8 	strdeq	r0, [r0], -r8
 4f0:	f8510001 			; <UNDEFINED> instruction: 0xf8510001
 4f4:	24000001 	strcs	r0, [r0], #-1
 4f8:	01000002 	tsteq	r0, r2
 4fc:	00005500 	andeq	r5, r0, r0, lsl #10
	...
 508:	00700000 	rsbseq	r0, r0, r0
 50c:	00840000 	addeq	r0, r4, r0
 510:	00010000 	andeq	r0, r1, r0
 514:	00008452 	andeq	r8, r0, r2, asr r4
 518:	00022400 	andeq	r2, r2, r0, lsl #8
 51c:	54000100 	strpl	r0, [r0], #-256	; 0xffffff00
	...
 52c:	00000100 	andeq	r0, r0, r0, lsl #2
 530:	00000000 	andeq	r0, r0, r0
 534:	00000070 	andeq	r0, r0, r0, ror r0
 538:	000000f4 	strdeq	r0, [r0], -r4
 53c:	4c530001 	mrrcmi	0, 0, r0, r3, cr1
 540:	80000001 	andhi	r0, r0, r1
 544:	01000001 	tsteq	r0, r1
 548:	01805300 	orreq	r5, r0, r0, lsl #6
 54c:	018c0000 	orreq	r0, ip, r0
 550:	00040000 	andeq	r0, r4, r0
 554:	9f5301f3 	svcls	0x005301f3
 558:	000001b0 			; <UNDEFINED> instruction: 0x000001b0
 55c:	000001e8 	andeq	r0, r0, r8, ror #3
 560:	e8530001 	ldmda	r3, {r0}^
 564:	ff000001 			; <UNDEFINED> instruction: 0xff000001
 568:	01000001 	tsteq	r0, r1
 56c:	01ff5c00 	mvnseq	r5, r0, lsl #24
 570:	02240000 	eoreq	r0, r4, #0, 0
 574:	00040000 	andeq	r0, r4, r0
 578:	9f5301f3 	svcls	0x005301f3
	...
 588:	00700000 	rsbseq	r0, r0, r0
 58c:	008c0000 	addeq	r0, ip, r0
 590:	00020000 	andeq	r0, r2, r0
 594:	008c0091 	umulleq	r0, ip, r1, r0
 598:	01930000 	orrseq	r0, r3, r0
 59c:	00010000 	andeq	r0, r1, r0
 5a0:	0001b052 	andeq	fp, r1, r2, asr r0
 5a4:	0001f400 	andeq	pc, r1, r0, lsl #8
 5a8:	52000100 	andpl	r0, r0, #0
	...
 5b4:	01000001 	tsteq	r0, r1
 5b8:	00000001 	andeq	r0, r0, r1
 5bc:	00000000 	andeq	r0, r0, r0
 5c0:	01010100 	mrseq	r0, (UNDEF: 17)
 5c4:	01000001 	tsteq	r0, r1
 5c8:	00000001 	andeq	r0, r0, r1
	...
 5d4:	0000008c 	andeq	r0, r0, ip, lsl #1
 5d8:	000000fc 	strdeq	r0, [r0], -ip
 5dc:	a0910004 	addsge	r0, r1, r4
 5e0:	00fc9f7f 	rscseq	r9, ip, pc, ror pc
 5e4:	013c0000 	teqeq	ip, r0
 5e8:	00010000 	andeq	r0, r1, r0
 5ec:	00013c50 	andeq	r3, r1, r0, asr ip
 5f0:	00014800 	andeq	r4, r1, r0, lsl #16
 5f4:	71000300 	mrsvc	r0, LR_irq
 5f8:	01489f02 	cmpeq	r8, r2, lsl #30
 5fc:	014c0000 	mrseq	r0, (UNDEF: 76)
 600:	00010000 	andeq	r0, r1, r0
 604:	00014c50 	andeq	r4, r1, r0, asr ip
 608:	00015800 	andeq	r5, r1, r0, lsl #16
 60c:	91000400 	tstls	r0, r0, lsl #8
 610:	589f7fa0 	ldmpl	pc, {r5, r7, r8, r9, sl, fp, ip, sp, lr}	; <UNPREDICTABLE>
 614:	6c000001 	stcvs	0, cr0, [r0], {1}
 618:	01000001 	tsteq	r0, r1
 61c:	016c5100 	cmneq	ip, r0, lsl #2
 620:	01780000 	cmneq	r8, r0
 624:	00030000 	andeq	r0, r3, r0
 628:	789f7f71 	ldmvc	pc, {r0, r4, r5, r6, r8, r9, sl, fp, ip, sp, lr}	; <UNPREDICTABLE>
 62c:	84000001 	strhi	r0, [r0], #-1
 630:	03000001 	movweq	r0, #1
 634:	9f017100 	svcls	0x00017100
 638:	00000184 	andeq	r0, r0, r4, lsl #3
 63c:	00000193 	muleq	r0, r3, r1
 640:	b0500001 	subslt	r0, r0, r1
 644:	b0000001 	andlt	r0, r0, r1
 648:	04000001 	streq	r0, [r0], #-1
 64c:	7fa09100 	svcvc	0x00a09100
 650:	0001b09f 	muleq	r1, pc, r0	; <UNPREDICTABLE>
 654:	0001b800 	andeq	fp, r1, r0, lsl #16
 658:	91000400 	tstls	r0, r0, lsl #8
 65c:	b89f7fa1 	ldmlt	pc, {r0, r5, r7, r8, r9, sl, fp, ip, sp, lr}	; <UNPREDICTABLE>
 660:	bc000001 	stclt	0, cr0, [r0], {1}
 664:	01000001 	tsteq	r0, r1
 668:	01bc5000 			; <UNDEFINED> instruction: 0x01bc5000
 66c:	01c00000 	biceq	r0, r0, r0
 670:	00040000 	andeq	r0, r4, r0
 674:	9f7fa091 	svcls	0x007fa091
 678:	000001c0 	andeq	r0, r0, r0, asr #3
 67c:	000001d4 	ldrdeq	r0, [r0], -r4
 680:	d4500001 	ldrble	r0, [r0], #-1
 684:	e4000001 	str	r0, [r0], #-1
 688:	03000001 	movweq	r0, #1
 68c:	9f7f7000 	svcls	0x007f7000
 690:	000001e4 	andeq	r0, r0, r4, ror #3
 694:	00000224 	andeq	r0, r0, r4, lsr #4
 698:	a0910004 	addsge	r0, r1, r4
 69c:	00009f7f 	andeq	r9, r0, pc, ror pc
	...
 6a8:	00010100 	andeq	r0, r1, r0, lsl #2
	...
 6b8:	00900000 	addseq	r0, r0, r0
 6bc:	00dc0000 	sbcseq	r0, ip, r0
 6c0:	00010000 	andeq	r0, r1, r0
 6c4:	0000dc5c 	andeq	sp, r0, ip, asr ip
 6c8:	0000f400 	andeq	pc, r0, r0, lsl #8
 6cc:	53000100 	movwpl	r0, #256	; 0x100
 6d0:	000000f4 	strdeq	r0, [r0], -r4
 6d4:	0000014c 	andeq	r0, r0, ip, asr #2
 6d8:	4c5c0001 	mrrcmi	0, 0, r0, ip, cr1
 6dc:	58000001 	stmdapl	r0, {r0}
 6e0:	01000001 	tsteq	r0, r1
 6e4:	01585300 	cmpeq	r8, r0, lsl #6
 6e8:	01740000 	cmneq	r4, r0
 6ec:	00010000 	andeq	r0, r1, r0
 6f0:	0001b05c 	andeq	fp, r1, ip, asr r0
 6f4:	0001c000 	andeq	ip, r1, r0
 6f8:	53000100 	movwpl	r0, #256	; 0x100
 6fc:	000001c0 	andeq	r0, r0, r0, asr #3
 700:	000001dc 	ldrdeq	r0, [r0], -ip
 704:	e45c0001 	ldrb	r0, [ip], #-1
 708:	e8000001 	stmda	r0, {r0}
 70c:	01000001 	tsteq	r0, r1
 710:	01e85300 	mvneq	r5, r0, lsl #6
 714:	01ff0000 	mvnseq	r0, r0
 718:	00010000 	andeq	r0, r1, r0
 71c:	0001ff5c 	andeq	pc, r1, ip, asr pc	; <UNPREDICTABLE>
 720:	00022400 	andeq	r2, r2, r0, lsl #8
 724:	f3000400 	vshl.u8	d0, d0, d0
 728:	009f5301 	addseq	r5, pc, r1, lsl #6
 72c:	00000000 	andeq	r0, r0, r0
 730:	01000000 	mrseq	r0, (UNDEF: 0)
 734:	00000101 	andeq	r0, r0, r1, lsl #2
 738:	dc000000 	stcle	0, cr0, [r0], {-0}
 73c:	f0000000 			; <UNDEFINED> instruction: 0xf0000000
 740:	02000000 	andeq	r0, r0, #0, 0
 744:	f09f3000 			; <UNDEFINED> instruction: 0xf09f3000
 748:	f8000000 			; <UNDEFINED> instruction: 0xf8000000
 74c:	02000000 	andeq	r0, r0, #0, 0
 750:	fc9f3100 	ldc2	1, cr3, [pc], {0}
 754:	4c000000 	stcmi	0, cr0, [r0], {-0}
 758:	01000001 	tsteq	r0, r1
 75c:	014c5600 	cmpeq	ip, r0, lsl #12
 760:	01540000 	cmpeq	r4, r0
 764:	00020000 	andeq	r0, r2, r0
 768:	00009f30 	andeq	r9, r0, r0, lsr pc
	...
 774:	00010100 	andeq	r0, r1, r0, lsl #2
 778:	00010100 	andeq	r0, r1, r0, lsl #2
 77c:	00000038 	andeq	r0, r0, r8, lsr r0
 780:	00000054 	andeq	r0, r0, r4, asr r0
 784:	54500001 	ldrbpl	r0, [r0], #-1
 788:	58000000 	stmdapl	r0, {}	; <UNPREDICTABLE>
 78c:	01000000 	mrseq	r0, (UNDEF: 0)
 790:	00585200 	subseq	r5, r8, r0, lsl #4
 794:	00600000 	rsbeq	r0, r0, r0
 798:	00030000 	andeq	r0, r3, r0
 79c:	609f0172 	addsvs	r0, pc, r2, ror r1	; <UNPREDICTABLE>
 7a0:	64000000 	strvs	r0, [r0], #-0
 7a4:	01000000 	mrseq	r0, (UNDEF: 0)
 7a8:	00645200 	rsbeq	r5, r4, r0, lsl #4
 7ac:	00700000 	rsbseq	r0, r0, r0
 7b0:	00030000 	andeq	r0, r3, r0
 7b4:	009f0172 	addseq	r0, pc, r2, ror r1	; <UNPREDICTABLE>
	...
 7c0:	38000000 	stmdacc	r0, {}	; <UNPREDICTABLE>
 7c4:	50000000 	andpl	r0, r0, r0
 7c8:	01000000 	mrseq	r0, (UNDEF: 0)
 7cc:	00505100 	subseq	r5, r0, r0, lsl #2
 7d0:	00700000 	rsbseq	r0, r0, r0
 7d4:	00040000 	andeq	r0, r4, r0
 7d8:	9f5101f3 	svcls	0x005101f3
	...
 7e8:	00010100 	andeq	r0, r1, r0, lsl #2
 7ec:	00000038 	andeq	r0, r0, r8, lsr r0
 7f0:	00000050 	andeq	r0, r0, r0, asr r0
 7f4:	50520001 	subspl	r0, r2, r1
 7f8:	5c000000 	stcpl	0, cr0, [r0], {-0}
 7fc:	01000000 	mrseq	r0, (UNDEF: 0)
 800:	005c5100 	subseq	r5, ip, r0, lsl #2
 804:	00600000 	rsbeq	r0, r0, r0
 808:	00030000 	andeq	r0, r3, r0
 80c:	609f0171 	addsvs	r0, pc, r1, ror r1	; <UNPREDICTABLE>
 810:	70000000 	andvc	r0, r0, r0
 814:	01000000 	mrseq	r0, (UNDEF: 0)
 818:	00005100 	andeq	r5, r0, r0, lsl #2
	...
 824:	00380000 	eorseq	r0, r8, r0
 828:	004c0000 	subeq	r0, ip, r0
 82c:	00010000 	andeq	r0, r1, r0
 830:	00004c53 	andeq	r4, r0, r3, asr ip
 834:	00006800 	andeq	r6, r0, r0, lsl #16
 838:	53000100 	movwpl	r0, #256	; 0x100
	...
 84c:	00000040 	andeq	r0, r0, r0, asr #32
 850:	00000048 	andeq	r0, r0, r8, asr #32
 854:	485c0001 	ldmdami	ip, {r0}^
 858:	4c000000 	stcmi	0, cr0, [r0], {-0}
 85c:	08000000 	stmdaeq	r0, {}	; <UNPREDICTABLE>
 860:	73007200 	movwvc	r7, #512	; 0x200
 864:	01231c00 			; <UNDEFINED> instruction: 0x01231c00
 868:	00004c9f 	muleq	r0, pc, ip	; <UNPREDICTABLE>
 86c:	00005400 	andeq	r5, r0, r0, lsl #8
 870:	72000900 	andvc	r0, r0, #0, 18
 874:	5301f300 	movwpl	pc, #4864	; 0x1300	; <UNPREDICTABLE>
 878:	9f01231c 	svcls	0x0001231c
 87c:	00000054 	andeq	r0, r0, r4, asr r0
 880:	00000070 	andeq	r0, r0, r0, ror r0
 884:	01f3000a 	mvnseq	r0, sl
 888:	5301f352 	movwpl	pc, #4946	; 0x1352	; <UNPREDICTABLE>
 88c:	9f01231c 	svcls	0x0001231c
	...
 898:	004c0001 	subeq	r0, ip, r1
 89c:	00700000 	rsbseq	r0, r0, r0
 8a0:	00010000 	andeq	r0, r1, r0
 8a4:	00000050 	andeq	r0, r0, r0, asr r0
 8a8:	00000000 	andeq	r0, r0, r0
 8ac:	01010000 	mrseq	r0, (UNDEF: 1)
 8b0:	14000000 	strne	r0, [r0], #-0
 8b4:	1c000000 	stcne	0, cr0, [r0], {-0}
 8b8:	01000000 	mrseq	r0, (UNDEF: 0)
 8bc:	001c5000 	andseq	r5, ip, r0
 8c0:	00240000 	eoreq	r0, r4, r0
 8c4:	00030000 	andeq	r0, r3, r0
 8c8:	249f0170 	ldrcs	r0, [pc], #368	; 8d0 <__code_start__-0x7730>
 8cc:	38000000 	stmdacc	r0, {}	; <UNPREDICTABLE>
 8d0:	01000000 	mrseq	r0, (UNDEF: 0)
 8d4:	00005000 	andeq	r5, r0, r0
	...
 8e0:	00140000 	andseq	r0, r4, r0
 8e4:	00180000 	andseq	r0, r8, r0
 8e8:	00010000 	andeq	r0, r1, r0
 8ec:	00001851 	andeq	r1, r0, r1, asr r8
 8f0:	00003800 	andeq	r3, r0, r0, lsl #16
 8f4:	f3000400 	vshl.u8	d0, d0, d0
 8f8:	009f5101 	addseq	r5, pc, r1, lsl #2
	...
 904:	00001800 	andeq	r1, r0, r0, lsl #16
 908:	00003800 	andeq	r3, r0, r0, lsl #16
 90c:	51000100 	mrspl	r0, (UNDEF: 16)
	...
 920:	00040000 	andeq	r0, r4, r0
 924:	00010000 	andeq	r0, r1, r0
 928:	00000450 	andeq	r0, r0, r0, asr r4
 92c:	00000c00 	andeq	r0, r0, r0, lsl #24
 930:	70000300 	andvc	r0, r0, r0, lsl #6
 934:	000c9f30 	andeq	r9, ip, r0, lsr pc
 938:	00140000 	andseq	r0, r4, r0
 93c:	00040000 	andeq	r0, r4, r0
 940:	9f5001f3 	svcls	0x005001f3
	...
 950:	00000224 	andeq	r0, r0, r4, lsr #4
 954:	00000268 	andeq	r0, r0, r8, ror #4
 958:	68500001 	ldmdavs	r0, {r0}^
 95c:	88000002 	stmdahi	r0, {r1}
 960:	04000002 	streq	r0, [r0], #-2
 964:	5001f300 	andpl	pc, r1, r0, lsl #6
 968:	0000009f 	muleq	r0, pc, r0	; <UNPREDICTABLE>
	...
 974:	00022400 	andeq	r2, r2, r0, lsl #8
 978:	00026400 	andeq	r6, r2, r0, lsl #8
 97c:	51000100 	mrspl	r0, (UNDEF: 16)
 980:	00000264 	andeq	r0, r0, r4, ror #4
 984:	00000288 	andeq	r0, r0, r8, lsl #5
 988:	01f30004 	mvnseq	r0, r4
 98c:	00009f51 	andeq	r9, r0, r1, asr pc
 990:	00000000 	andeq	r0, r0, r0
 994:	01000000 	mrseq	r0, (UNDEF: 0)
 998:	00000001 	andeq	r0, r0, r1
 99c:	0000000c 	andeq	r0, r0, ip
 9a0:	00000014 	andeq	r0, r0, r4, lsl r0
 9a4:	14530001 	ldrbne	r0, [r3], #-1
 9a8:	1c000000 	stcne	0, cr0, [r0], {-0}
 9ac:	03000000 	movweq	r0, #0
 9b0:	9f047300 	svcls	0x00047300
 9b4:	0000001c 	andeq	r0, r0, ip, lsl r0
 9b8:	00000023 	andeq	r0, r0, r3, lsr #32
 9bc:	00530001 	subseq	r0, r3, r1
 9c0:	00000000 	andeq	r0, r0, r0
 9c4:	01000000 	mrseq	r0, (UNDEF: 0)
 9c8:	0089a400 	addeq	sl, r9, r0, lsl #8
 9cc:	0089c000 	addeq	ip, r9, r0
 9d0:	0c000600 	stceq	6, cr0, [r0], {-0}
 9d4:	2010001c 	andscs	r0, r0, ip, lsl r0
 9d8:	0000009f 	muleq	r0, pc, r0	; <UNPREDICTABLE>
 9dc:	00000000 	andeq	r0, r0, r0
 9e0:	a4000200 	strge	r0, [r0], #-512	; 0xfffffe00
 9e4:	c0000089 	andgt	r0, r0, r9, lsl #1
 9e8:	06000089 	streq	r0, [r0], -r9, lsl #1
 9ec:	00240c00 	eoreq	r0, r4, r0, lsl #24
 9f0:	009f2010 	addseq	r2, pc, r0, lsl r0	; <UNPREDICTABLE>
 9f4:	00000000 	andeq	r0, r0, r0
 9f8:	03000000 	movweq	r0, #0
 9fc:	0089a400 	addeq	sl, r9, r0, lsl #8
 a00:	0089c000 	addeq	ip, r9, r0
 a04:	08000500 	stmdaeq	r0, {r8, sl}
 a08:	9f2447b4 	svcls	0x002447b4
	...
 a14:	89a40004 	stmibhi	r4!, {r2}
 a18:	89c00000 	stmibhi	r0, {}^	; <UNPREDICTABLE>
 a1c:	00030000 	andeq	r0, r3, r0
 a20:	009f2008 	addseq	r2, pc, r8
 a24:	00000000 	andeq	r0, r0, r0
 a28:	02000000 	andeq	r0, r0, #0, 0
 a2c:	00000000 	andeq	r0, r0, r0
 a30:	00897400 	addeq	r7, r9, r0, lsl #8
 a34:	00897800 	addeq	r7, r9, r0, lsl #16
 a38:	30000200 	andcc	r0, r0, r0, lsl #4
 a3c:	0089789f 	umulleq	r7, r9, pc, r8	; <UNPREDICTABLE>
 a40:	00897c00 	addeq	r7, r9, r0, lsl #24
 a44:	53000100 	movwpl	r0, #256	; 0x100
 a48:	00008980 	andeq	r8, r0, r0, lsl #19
 a4c:	00008988 	andeq	r8, r0, r8, lsl #19
 a50:	00530001 	subseq	r0, r3, r1
 a54:	00000000 	andeq	r0, r0, r0
 a58:	02000000 	andeq	r0, r0, #0, 0
 a5c:	5c000000 	stcpl	0, cr0, [r0], {-0}
 a60:	60000089 	andvs	r0, r0, r9, lsl #1
 a64:	02000089 	andeq	r0, r0, #137, 0	; 0x89
 a68:	609f3000 	addsvs	r3, pc, r0
 a6c:	64000089 	strvs	r0, [r0], #-137	; 0xffffff77
 a70:	01000089 	smlabbeq	r0, r9, r0, r0
 a74:	00005000 	andeq	r5, r0, r0
	...
 a80:	00840000 	addeq	r0, r4, r0
 a84:	00900000 	addseq	r0, r0, r0
 a88:	00010000 	andeq	r0, r1, r0
 a8c:	00009050 	andeq	r9, r0, r0, asr r0
 a90:	00009c00 	andeq	r9, r0, r0, lsl #24
 a94:	f3000400 	vshl.u8	d0, d0, d0
 a98:	009f5001 	addseq	r5, pc, r1
	...
 aa4:	6c000000 	stcvs	0, cr0, [r0], {-0}
 aa8:	78000000 	stmdavc	r0, {}	; <UNPREDICTABLE>
 aac:	01000000 	mrseq	r0, (UNDEF: 0)
 ab0:	00785000 	rsbseq	r5, r8, r0
 ab4:	00840000 	addeq	r0, r4, r0
 ab8:	00040000 	andeq	r0, r4, r0
 abc:	9f5001f3 	svcls	0x005001f3
	...
 acc:	00000048 	andeq	r0, r0, r8, asr #32
 ad0:	00000053 	andeq	r0, r0, r3, asr r0
 ad4:	53500001 	cmppl	r0, #1, 0
 ad8:	6c000000 	stcvs	0, cr0, [r0], {-0}
 adc:	01000000 	mrseq	r0, (UNDEF: 0)
 ae0:	00005500 	andeq	r5, r0, r0, lsl #10
	...
 aec:	00000058 	andeq	r0, r0, r8, asr r0
 af0:	0000006c 	andeq	r0, r0, ip, rrx
 af4:	00540001 	subseq	r0, r4, r1
	...
 b00:	00005c00 	andeq	r5, r0, r0, lsl #24
 b04:	00006000 	andeq	r6, r0, r0
 b08:	50000100 	andpl	r0, r0, r0, lsl #2
	...
 b18:	0000003c 	andeq	r0, r0, ip, lsr r0
 b1c:	0000003f 	andeq	r0, r0, pc, lsr r0
 b20:	3f500001 	svccc	0x00500001
 b24:	48000000 	stmdami	r0, {}	; <UNPREDICTABLE>
 b28:	01000000 	mrseq	r0, (UNDEF: 0)
 b2c:	00005400 	andeq	r5, r0, r0, lsl #8
	...
 b3c:	00040000 	andeq	r0, r4, r0
 b40:	00010000 	andeq	r0, r1, r0
 b44:	00000450 	andeq	r0, r0, r0, asr r4
 b48:	00001800 	andeq	r1, r0, r0, lsl #16
 b4c:	53000100 	movwpl	r0, #256	; 0x100
	...
 b5c:	00000138 	andeq	r0, r0, r8, lsr r1
 b60:	00000143 	andeq	r0, r0, r3, asr #2
 b64:	43500001 	cmpmi	r0, #1, 0
 b68:	68000001 	stmdavs	r0, {r0}
 b6c:	01000001 	tsteq	r0, r1
 b70:	00005400 	andeq	r5, r0, r0, lsl #8
	...
 b7c:	00000128 	andeq	r0, r0, r8, lsr #2
 b80:	00000138 	andeq	r0, r0, r8, lsr r1
 b84:	00540001 	subseq	r0, r4, r1
	...
 b94:	0f000000 	svceq	0x00000000
 b98:	01000000 	mrseq	r0, (UNDEF: 0)
 b9c:	000f5000 	andeq	r5, pc, r0
 ba0:	00200000 	eoreq	r0, r0, r0
 ba4:	00010000 	andeq	r0, r1, r0
 ba8:	00000054 	andeq	r0, r0, r4, asr r0
	...
 bb8:	00000f00 	andeq	r0, r0, r0, lsl #30
 bbc:	51000100 	mrspl	r0, (UNDEF: 16)
 bc0:	0000000f 	andeq	r0, r0, pc
 bc4:	00000020 	andeq	r0, r0, r0, lsr #32
 bc8:	00550001 	subseq	r0, r5, r1
	...
 bd4:	c8000000 	stmdagt	r0, {}	; <UNPREDICTABLE>
 bd8:	d4000000 	strle	r0, [r0], #-0
 bdc:	01000000 	mrseq	r0, (UNDEF: 0)
 be0:	00d45000 	sbcseq	r5, r4, r0
 be4:	00e80000 	rsceq	r0, r8, r0
 be8:	00010000 	andeq	r0, r1, r0
 bec:	00000054 	andeq	r0, r0, r4, asr r0
	...
 bf8:	0000b800 	andeq	fp, r0, r0, lsl #16
 bfc:	0000c300 	andeq	ip, r0, r0, lsl #6
 c00:	50000100 	andpl	r0, r0, r0, lsl #2
 c04:	000000c3 	andeq	r0, r0, r3, asr #1
 c08:	000000c8 	andeq	r0, r0, r8, asr #1
 c0c:	01f30004 	mvnseq	r0, r4
 c10:	00009f50 	andeq	r9, r0, r0, asr pc
	...
 c20:	009c0000 	addseq	r0, ip, r0
 c24:	00ab0000 	adceq	r0, fp, r0
 c28:	00010000 	andeq	r0, r1, r0
 c2c:	0000ab50 	andeq	sl, r0, r0, asr fp
 c30:	0000b000 	andeq	fp, r0, r0
 c34:	f3000400 	vshl.u8	d0, d0, d0
 c38:	b09f5001 	addslt	r5, pc, r1
 c3c:	b3000000 	movwlt	r0, #0
 c40:	01000000 	mrseq	r0, (UNDEF: 0)
 c44:	00b35000 	adcseq	r5, r3, r0
 c48:	00b80000 	adcseq	r0, r8, r0
 c4c:	00040000 	andeq	r0, r4, r0
 c50:	9f5001f3 	svcls	0x005001f3
	...
 c64:	0000009c 	muleq	r0, ip, r0
 c68:	000000ab 	andeq	r0, r0, fp, lsr #1
 c6c:	ab510001 	blge	1440c78 <__bss_end__+0x14378c8>
 c70:	b0000000 	andlt	r0, r0, r0
 c74:	04000000 	streq	r0, [r0], #-0
 c78:	5101f300 	mrspl	pc, SP_irq	; <UNPREDICTABLE>
 c7c:	0000b09f 	muleq	r0, pc, r0	; <UNPREDICTABLE>
 c80:	0000b300 	andeq	fp, r0, r0, lsl #6
 c84:	51000100 	mrspl	r0, (UNDEF: 16)
 c88:	000000b3 	strheq	r0, [r0], -r3
 c8c:	000000b8 	strheq	r0, [r0], -r8
 c90:	01f30004 	mvnseq	r0, r4
 c94:	00009f51 	andeq	r9, r0, r1, asr pc
	...
 ca0:	00800000 	addeq	r0, r0, r0
 ca4:	00900000 	addseq	r0, r0, r0
 ca8:	00010000 	andeq	r0, r1, r0
 cac:	00009050 	andeq	r9, r0, r0, asr r0
 cb0:	00009c00 	andeq	r9, r0, r0, lsl #24
 cb4:	f3000400 	vshl.u8	d0, d0, d0
 cb8:	009f5001 	addseq	r5, pc, r1
	...
 cc4:	64000000 	strvs	r0, [r0], #-0
 cc8:	74000000 	strvc	r0, [r0], #-0
 ccc:	01000000 	mrseq	r0, (UNDEF: 0)
 cd0:	00745000 	rsbseq	r5, r4, r0
 cd4:	00800000 	addeq	r0, r0, r0
 cd8:	00040000 	andeq	r0, r4, r0
 cdc:	9f5001f3 	svcls	0x005001f3
	...
 cec:	00000054 	andeq	r0, r0, r4, asr r0
 cf0:	0000005f 	andeq	r0, r0, pc, asr r0
 cf4:	5f500001 	svcpl	0x00500001
 cf8:	64000000 	strvs	r0, [r0], #-0
 cfc:	04000000 	streq	r0, [r0], #-0
 d00:	5001f300 	andpl	pc, r1, r0, lsl #6
 d04:	0000009f 	muleq	r0, pc, r0	; <UNPREDICTABLE>
	...
 d14:	00002800 	andeq	r2, r0, r0, lsl #16
 d18:	50000100 	andpl	r0, r0, r0, lsl #2
 d1c:	00000028 	andeq	r0, r0, r8, lsr #32
 d20:	00000054 	andeq	r0, r0, r4, asr r0
 d24:	00540001 	subseq	r0, r4, r1
	...
 d34:	2b000000 	blcs	d3c <__code_start__-0x72c4>
 d38:	01000000 	mrseq	r0, (UNDEF: 0)
 d3c:	002b5100 	eoreq	r5, fp, r0, lsl #2
 d40:	00540000 	subseq	r0, r4, r0
 d44:	00040000 	andeq	r0, r4, r0
 d48:	9f5101f3 	svcls	0x005101f3
	...
 d54:	00240000 	eoreq	r0, r4, r0
 d58:	00540000 	subseq	r0, r4, r0
 d5c:	00010000 	andeq	r0, r1, r0
 d60:	00000057 	andeq	r0, r0, r7, asr r0
 d64:	00000000 	andeq	r0, r0, r0
 d68:	2c000000 	stccs	0, cr0, [r0], {-0}
 d6c:	48000000 	stmdami	r0, {}	; <UNPREDICTABLE>
 d70:	01000000 	mrseq	r0, (UNDEF: 0)
 d74:	00005000 	andeq	r5, r0, r0
	...
 d80:	00000038 	andeq	r0, r0, r8, lsr r0
 d84:	00000054 	andeq	r0, r0, r4, asr r0
 d88:	00550001 	subseq	r0, r5, r1
	...
 d98:	0b000000 	bleq	da0 <__code_start__-0x7260>
 d9c:	01000000 	mrseq	r0, (UNDEF: 0)
 da0:	000b5000 	andeq	r5, fp, r0
 da4:	00140000 	andseq	r0, r4, r0
 da8:	00010000 	andeq	r0, r1, r0
 dac:	00000054 	andeq	r0, r0, r4, asr r0
	...
 dbc:	00001c00 	andeq	r1, r0, r0, lsl #24
 dc0:	51000100 	mrspl	r0, (UNDEF: 16)
 dc4:	0000001c 	andeq	r0, r0, ip, lsl r0
 dc8:	00000034 	andeq	r0, r0, r4, lsr r0
 dcc:	01f30004 	mvnseq	r0, r4
 dd0:	00009f51 	andeq	r9, r0, r1, asr pc
 dd4:	00000000 	andeq	r0, r0, r0
 dd8:	00020000 	andeq	r0, r2, r0
 ddc:	01000000 	mrseq	r0, (UNDEF: 0)
 de0:	00000001 	andeq	r0, r0, r1
 de4:	00000000 	andeq	r0, r0, r0
 de8:	00000004 	andeq	r0, r0, r4
 dec:	04500001 	ldrbeq	r0, [r0], #-1
 df0:	1c000000 	stcne	0, cr0, [r0], {-0}
 df4:	01000000 	mrseq	r0, (UNDEF: 0)
 df8:	001c5200 	andseq	r5, ip, r0, lsl #4
 dfc:	00240000 	eoreq	r0, r4, r0
 e00:	00010000 	andeq	r0, r1, r0
 e04:	00002453 	andeq	r2, r0, r3, asr r4
 e08:	00002800 	andeq	r2, r0, r0, lsl #16
 e0c:	73000300 	movwvc	r0, #768	; 0x300
 e10:	00289f01 	eoreq	r9, r8, r1, lsl #30
 e14:	00340000 	eorseq	r0, r4, r0
 e18:	00010000 	andeq	r0, r1, r0
 e1c:	00000053 	andeq	r0, r0, r3, asr r0
 e20:	00000000 	andeq	r0, r0, r0
 e24:	00000300 	andeq	r0, r0, r0, lsl #6
 e28:	00000000 	andeq	r0, r0, r0
 e2c:	00002400 	andeq	r2, r0, r0, lsl #8
 e30:	51000100 	mrspl	r0, (UNDEF: 16)
 e34:	00000024 	andeq	r0, r0, r4, lsr #32
 e38:	00000034 	andeq	r0, r0, r4, lsr r0
 e3c:	7f710003 	svcvc	0x00710003
 e40:	0000009f 	muleq	r0, pc, r0	; <UNPREDICTABLE>
	...
 e4c:	00001000 	andeq	r1, r0, r0
 e50:	00001c00 	andeq	r1, r0, r0, lsl #24
 e54:	5c000100 	stfpls	f0, [r0], {-0}
 e58:	00000024 	andeq	r0, r0, r4, lsr #32
 e5c:	00000034 	andeq	r0, r0, r4, lsr r0
 e60:	00520001 	subseq	r0, r2, r1
	...
 e6c:	90000303 	andls	r0, r0, r3, lsl #6
 e70:	9000008d 	andls	r0, r0, sp, lsl #1
 e74:	0100008d 	smlabbeq	r0, sp, r0, r0
 e78:	8d905000 	ldchi	0, cr5, [r0]
 e7c:	8dbc0000 	ldchi	0, cr0, [ip]
 e80:	00040000 	andeq	r0, r4, r0
 e84:	9f5001f3 	svcls	0x005001f3
	...
 e90:	00030300 	andeq	r0, r3, r0, lsl #6
 e94:	00008d90 	muleq	r0, r0, sp
 e98:	00008d90 	muleq	r0, r0, sp
 e9c:	90510001 	subsls	r0, r1, r1
 ea0:	bc00008d 	stclt	0, cr0, [r0], {141}	; 0x8d
 ea4:	0400008d 	streq	r0, [r0], #-141	; 0xffffff73
 ea8:	5101f300 	mrspl	pc, SP_irq	; <UNPREDICTABLE>
 eac:	0000009f 	muleq	r0, pc, r0	; <UNPREDICTABLE>
 eb0:	00000000 	andeq	r0, r0, r0
 eb4:	03030000 	movweq	r0, #12288	; 0x3000
 eb8:	90000000 	andls	r0, r0, r0
 ebc:	9000008d 	andls	r0, r0, sp, lsl #1
 ec0:	0100008d 	smlabbeq	r0, sp, r0, r0
 ec4:	8d905200 	lfmhi	f5, 4, [r0]
 ec8:	8d980000 	ldchi	0, cr0, [r8]
 ecc:	00010000 	andeq	r0, r1, r0
 ed0:	008d9852 	addeq	r9, sp, r2, asr r8
 ed4:	008dbc00 	addeq	fp, sp, r0, lsl #24
 ed8:	72000300 	andvc	r0, r0, #0, 6
 edc:	00009f01 	andeq	r9, r0, r1, lsl #30
 ee0:	00000000 	andeq	r0, r0, r0
 ee4:	01020000 	mrseq	r0, (UNDEF: 2)
 ee8:	00000001 	andeq	r0, r0, r1
 eec:	8d900000 	ldchi	0, cr0, [r0]
 ef0:	8d9c0000 	ldchi	0, cr0, [ip]
 ef4:	00010000 	andeq	r0, r1, r0
 ef8:	008d9c50 	addeq	r9, sp, r0, asr ip
 efc:	008da000 	addeq	sl, sp, r0
 f00:	70000300 	andvc	r0, r0, r0, lsl #6
 f04:	8da09f01 	stchi	15, cr9, [r0, #4]!
 f08:	8db00000 	ldchi	0, cr0, [r0]
 f0c:	00010000 	andeq	r0, r1, r0
 f10:	008db450 	addeq	fp, sp, r0, asr r4
 f14:	008db800 	addeq	fp, sp, r0, lsl #16
 f18:	50000100 	andpl	r0, r0, r0, lsl #2
	...
 f24:	00000002 	andeq	r0, r0, r2
 f28:	8d900000 	ldchi	0, cr0, [r0]
 f2c:	8da00000 	stchi	0, cr0, [r0]
 f30:	00010000 	andeq	r0, r1, r0
 f34:	008da051 	addeq	sl, sp, r1, asr r0
 f38:	008da400 	addeq	sl, sp, r0, lsl #8
 f3c:	71000300 	mrsvc	r0, LR_irq
 f40:	8da49f01 	stchi	15, cr9, [r4, #4]!
 f44:	8dbc0000 	ldchi	0, cr0, [ip]
 f48:	00010000 	andeq	r0, r1, r0
 f4c:	00000051 	andeq	r0, r0, r1, asr r0
 f50:	00000000 	andeq	r0, r0, r0
	...

Disassembly of section .debug_aranges:

00000000 <.debug_aranges>:
   0:	0000001c 	andeq	r0, r0, ip, lsl r0
   4:	00000002 	andeq	r0, r0, r2
   8:	00040000 	andeq	r0, r4, r0
   c:	00000000 	andeq	r0, r0, r0
  10:	00008034 	andeq	r8, r0, r4, lsr r0
  14:	0000005c 	andeq	r0, r0, ip, asr r0
	...
  20:	0000001c 	andeq	r0, r0, ip, lsl r0
  24:	01b70002 			; <UNDEFINED> instruction: 0x01b70002
  28:	00040000 	andeq	r0, r4, r0
  2c:	00000000 	andeq	r0, r0, r0
  30:	00008090 	muleq	r0, r0, r0
  34:	000001b4 			; <UNDEFINED> instruction: 0x000001b4
	...
  40:	0000001c 	andeq	r0, r0, ip, lsl r0
  44:	05930002 	ldreq	r0, [r3, #2]
  48:	00040000 	andeq	r0, r4, r0
  4c:	00000000 	andeq	r0, r0, r0
  50:	00008244 	andeq	r8, r0, r4, asr #4
  54:	00000058 	andeq	r0, r0, r8, asr r0
	...
  60:	0000001c 	andeq	r0, r0, ip, lsl r0
  64:	07340002 	ldreq	r0, [r4, -r2]!
  68:	00040000 	andeq	r0, r4, r0
  6c:	00000000 	andeq	r0, r0, r0
  70:	0000829c 	muleq	r0, ip, r2
  74:	00000034 	andeq	r0, r0, r4, lsr r0
	...
  80:	0000001c 	andeq	r0, r0, ip, lsl r0
  84:	082b0002 	stmdaeq	fp!, {r1}
  88:	00040000 	andeq	r0, r4, r0
  8c:	00000000 	andeq	r0, r0, r0
  90:	000082d0 	ldrdeq	r8, [r0], -r0
  94:	0000062c 	andeq	r0, r0, ip, lsr #12
	...
  a0:	0000001c 	andeq	r0, r0, ip, lsl r0
  a4:	11330002 	teqne	r3, r2
  a8:	00040000 	andeq	r0, r4, r0
  ac:	00000000 	andeq	r0, r0, r0
  b0:	000088fc 	strdeq	r8, [r0], -ip
  b4:	0000002c 	andeq	r0, r0, ip, lsr #32
	...
  c0:	0000001c 	andeq	r0, r0, ip, lsl r0
  c4:	12660002 	rsbne	r0, r6, #2, 0
  c8:	00040000 	andeq	r0, r4, r0
  cc:	00000000 	andeq	r0, r0, r0
  d0:	00008928 	andeq	r8, r0, r8, lsr #18
  d4:	00000030 	andeq	r0, r0, r0, lsr r0
	...
  e0:	0000001c 	andeq	r0, r0, ip, lsl r0
  e4:	13c30002 	bicne	r0, r3, #2, 0
  e8:	00040000 	andeq	r0, r4, r0
  ec:	00000000 	andeq	r0, r0, r0
  f0:	00008958 	andeq	r8, r0, r8, asr r9
  f4:	00000004 	andeq	r0, r0, r4
	...
 100:	0000001c 	andeq	r0, r0, ip, lsl r0
 104:	14950002 	ldrne	r0, [r5], #2
 108:	00040000 	andeq	r0, r4, r0
 10c:	00000000 	andeq	r0, r0, r0
 110:	0000895c 	andeq	r8, r0, ip, asr r9
 114:	0000007c 	andeq	r0, r0, ip, ror r0
	...
 120:	0000001c 	andeq	r0, r0, ip, lsl r0
 124:	16b90002 	ldrtne	r0, [r9], r2
 128:	00040000 	andeq	r0, r4, r0
 12c:	00000000 	andeq	r0, r0, r0
 130:	000089d8 	ldrdeq	r8, [r0], -r8	; <UNPREDICTABLE>
 134:	0000009c 	muleq	r0, ip, r0
	...
 140:	0000001c 	andeq	r0, r0, ip, lsl r0
 144:	19350002 	ldmdbne	r5!, {r1}
 148:	00040000 	andeq	r0, r4, r0
 14c:	00000000 	andeq	r0, r0, r0
 150:	00008a8c 	andeq	r8, r0, ip, lsl #21
 154:	000001ac 	andeq	r0, r0, ip, lsr #3
	...
 160:	0000001c 	andeq	r0, r0, ip, lsl r0
 164:	1ea10002 	cdpne	0, 10, cr0, cr1, cr2, {0}
 168:	00040000 	andeq	r0, r4, r0
 16c:	00000000 	andeq	r0, r0, r0
 170:	00008c38 	andeq	r8, r0, r8, lsr ip
 174:	000000e8 	andeq	r0, r0, r8, ror #1
	...
 180:	0000001c 	andeq	r0, r0, ip, lsl r0
 184:	22600002 	rsbcs	r0, r0, #2, 0
 188:	00040000 	andeq	r0, r4, r0
 18c:	00000000 	andeq	r0, r0, r0
 190:	00008d20 	andeq	r8, r0, r0, lsr #26
 194:	0000003c 	andeq	r0, r0, ip, lsr r0
	...
 1a0:	0000001c 	andeq	r0, r0, ip, lsl r0
 1a4:	23ad0002 			; <UNDEFINED> instruction: 0x23ad0002
 1a8:	00040000 	andeq	r0, r4, r0
 1ac:	00000000 	andeq	r0, r0, r0
 1b0:	00008d5c 	andeq	r8, r0, ip, asr sp
 1b4:	00000034 	andeq	r0, r0, r4, lsr r0
	...
 1c0:	0000001c 	andeq	r0, r0, ip, lsl r0
 1c4:	24e80002 	strbtcs	r0, [r8], #2
 1c8:	00040000 	andeq	r0, r4, r0
 1cc:	00000000 	andeq	r0, r0, r0
 1d0:	00008d90 	muleq	r0, r0, sp
 1d4:	0000002c 	andeq	r0, r0, ip, lsr #32
	...

Disassembly of section .debug_line:

00000000 <.debug_line>:
       0:	000000ec 	andeq	r0, r0, ip, ror #1
       4:	00820003 	addeq	r0, r2, r3
       8:	01020000 	mrseq	r0, (UNDEF: 2)
       c:	000d0efb 	strdeq	r0, [sp], -fp
      10:	01010101 	tsteq	r1, r1, lsl #2
      14:	01000000 	mrseq	r0, (UNDEF: 0)
      18:	2f010000 	svccs	0x00010000
      1c:	72657355 	rsbvc	r7, r5, #1409286145	; 0x54000001
      20:	64612f73 	strbtvs	r2, [r1], #-3955	; 0xfffff08d
      24:	6e616972 			; <UNDEFINED> instruction: 0x6e616972
      28:	7472616d 	ldrbtvc	r6, [r2], #-365	; 0xfffffe93
      2c:	7a656e69 	bvc	195b9d8 <__bss_end__+0x1952628>
      30:	6f72702f 	svcvs	0x0072702f
      34:	7463656a 	strbtvc	r6, [r3], #-1386	; 0xfffffa96
      38:	73632f73 	cmnvc	r3, #460	; 0x1cc
      3c:	65303431 	ldrvs	r3, [r0, #-1073]!	; 0xfffffbcf
      40:	7331322d 	teqvc	r1, #-805306366	; 0xd0000002
      44:	6c2f7270 	sfmvs	f7, 4, [pc], #-448	; fffffe8c <__bss_end__+0xffff6adc>
      48:	69706269 	ldmdbvs	r0!, {r0, r3, r5, r6, r9, sp, lr}^
      4c:	636e692f 	cmnvs	lr, #770048	; 0xbc000
      50:	6564756c 	strbvs	r7, [r4, #-1388]!	; 0xfffffa94
      54:	002e2e00 	eoreq	r2, lr, r0, lsl #28
      58:	732d3100 			; <UNDEFINED> instruction: 0x732d3100
      5c:	6e2d7465 	cdpvs	4, 2, cr7, cr13, cr5, {3}
      60:	74756f2d 	ldrbtvc	r6, [r5], #-3885	; 0xfffff0d3
      64:	2e747570 	mrccs	5, 3, r7, cr4, cr0, {3}
      68:	00000063 	andeq	r0, r0, r3, rrx
      6c:	69707200 	ldmdbvs	r0!, {r9, ip, sp, lr}^
      70:	0100682e 	tsteq	r0, lr, lsr #16
      74:	72740000 	rsbsvc	r0, r4, #0, 0
      78:	2e656361 	cdpcs	3, 6, cr6, cr5, cr1, {3}
      7c:	00020068 	andeq	r0, r2, r8, rrx
      80:	69706700 	ldmdbvs	r0!, {r8, r9, sl, sp, lr}^
      84:	00682e6f 	rsbeq	r2, r8, pc, ror #28
      88:	00000001 	andeq	r0, r0, r1
      8c:	05001405 	streq	r1, [r0, #-1029]	; 0xfffffbfb
      90:	00803402 	addeq	r3, r0, r2, lsl #8
      94:	05051500 	streq	r1, [r5, #-1280]	; 0xfffffb00
      98:	0905302f 	stmdbeq	r5, {r0, r1, r2, r3, r5, ip, sp}
      9c:	060d0501 	streq	r0, [sp], -r1, lsl #10
      a0:	2e050501 	cfsh32cs	mvfx0, mvfx5, #1
      a4:	02000905 	andeq	r0, r0, #81920	; 0x14000
      a8:	2f060304 	svccs	0x00060304
      ac:	03040200 	movweq	r0, #16896	; 0x4200
      b0:	04020001 	streq	r0, [r2], #-1
      b4:	02008203 	andeq	r8, r0, #805306368	; 0x30000000
      b8:	004a0304 	subeq	r0, sl, r4, lsl #6
      bc:	4a030402 	bmi	c10cc <__bss_end__+0xb7d1c>
      c0:	03040200 	movweq	r0, #16896	; 0x4200
      c4:	0402002e 	streq	r0, [r2], #-46	; 0xffffffd2
      c8:	1d056603 	stcne	6, cr6, [r5, #-12]
      cc:	03040200 	movweq	r0, #16896	; 0x4200
      d0:	001e0511 	andseq	r0, lr, r1, lsl r5
      d4:	06030402 	streq	r0, [r3], -r2, lsl #8
      d8:	00150501 	andseq	r0, r5, r1, lsl #10
      dc:	06010402 	streq	r0, [r1], -r2, lsl #8
      e0:	0005052e 	andeq	r0, r5, lr, lsr #10
      e4:	06010402 	streq	r0, [r1], -r2, lsl #8
      e8:	024d0601 	subeq	r0, sp, #1048576	; 0x100000
      ec:	01010008 	tsteq	r1, r8
      f0:	00000200 	andeq	r0, r0, r0, lsl #4
      f4:	00d10003 	sbcseq	r0, r1, r3
      f8:	01020000 	mrseq	r0, (UNDEF: 2)
      fc:	000d0efb 	strdeq	r0, [sp], -fp
     100:	01010101 	tsteq	r1, r1, lsl #2
     104:	01000000 	mrseq	r0, (UNDEF: 0)
     108:	2f010000 	svccs	0x00010000
     10c:	72657355 	rsbvc	r7, r5, #1409286145	; 0x54000001
     110:	64612f73 	strbtvs	r2, [r1], #-3955	; 0xfffff08d
     114:	6e616972 			; <UNDEFINED> instruction: 0x6e616972
     118:	7472616d 	ldrbtvc	r6, [r2], #-365	; 0xfffffe93
     11c:	7a656e69 	bvc	195bac8 <__bss_end__+0x1952718>
     120:	6f72702f 	svcvs	0x0072702f
     124:	7463656a 	strbtvc	r6, [r3], #-1386	; 0xfffffa96
     128:	73632f73 	cmnvc	r3, #460	; 0x1cc
     12c:	65303431 	ldrvs	r3, [r0, #-1073]!	; 0xfffffbcf
     130:	7331322d 	teqvc	r1, #-805306366	; 0xd0000002
     134:	6c2f7270 	sfmvs	f7, 4, [pc], #-448	; ffffff7c <__bss_end__+0xffff6bcc>
     138:	69706269 	ldmdbvs	r0!, {r0, r3, r5, r6, r9, sp, lr}^
     13c:	636e692f 	cmnvs	lr, #770048	; 0xbc000
     140:	6564756c 	strbvs	r7, [r4, #-1388]!	; 0xfffffa94
     144:	73752f00 	cmnvc	r5, #0, 30
     148:	6f6c2f72 	svcvs	0x006c2f72
     14c:	2f6c6163 	svccs	0x006c6163
     150:	6c6c6543 	cfstr64vs	mvdx6, [ip], #-268	; 0xfffffef4
     154:	612f7261 			; <UNDEFINED> instruction: 0x612f7261
     158:	6e2d6d72 	mcrvs	13, 1, r6, cr13, cr2, {3}
     15c:	2d656e6f 	stclcs	14, cr6, [r5, #-444]!	; 0xfffffe44
     160:	69626165 	stmdbvs	r2!, {r0, r2, r5, r6, r8, sp, lr}^
     164:	7365742d 	cmnvc	r5, #754974720	; 0x2d000000
     168:	2d392f74 	ldccs	15, cr2, [r9, #-464]!	; 0xfffffe30
     16c:	39313032 	ldmdbcc	r1!, {r1, r4, r5, ip, sp}
     170:	632d3471 			; <UNDEFINED> instruction: 0x632d3471
     174:	37303173 			; <UNDEFINED> instruction: 0x37303173
     178:	696c2f65 	stmdbvs	ip!, {r0, r2, r5, r6, r8, r9, sl, fp, sp}^
     17c:	63672f62 	cmnvs	r7, #392	; 0x188
     180:	72612f63 	rsbvc	r2, r1, #396	; 0x18c
     184:	6f6e2d6d 	svcvs	0x006e2d6d
     188:	652d656e 	strvs	r6, [sp, #-1390]!	; 0xfffffa92
     18c:	2f696261 	svccs	0x00696261
     190:	2e322e39 	mrccs	14, 1, r2, cr2, cr9, {1}
     194:	6e692f31 	mcrvs	15, 3, r2, cr9, cr1, {1}
     198:	64756c63 	ldrbtvs	r6, [r5], #-3171	; 0xfffff39d
     19c:	74000065 	strvc	r0, [r0], #-101	; 0xffffff9b
     1a0:	65636172 	strbvs	r6, [r3, #-370]!	; 0xfffffe8e
     1a4:	6d69732d 	stclvs	3, cr7, [r9, #-180]!	; 0xffffff4c
     1a8:	2e656c70 	mcrcs	12, 3, r6, cr5, cr0, {3}
     1ac:	00000063 	andeq	r0, r0, r3, rrx
     1b0:	69707200 	ldmdbvs	r0!, {r9, ip, sp, lr}^
     1b4:	0100682e 	tsteq	r0, lr, lsr #16
     1b8:	74730000 	ldrbtvc	r0, [r3], #-0
     1bc:	746e6964 	strbtvc	r6, [lr], #-2404	; 0xfffff69c
     1c0:	6363672d 	cmnvs	r3, #11796480	; 0xb40000
     1c4:	0200682e 	andeq	r6, r0, #3014656	; 0x2e0000
     1c8:	05000000 	streq	r0, [r0, #-0]
     1cc:	02050035 	andeq	r0, r5, #53, 0	; 0x35
     1d0:	00008090 	muleq	r0, r0, r0
     1d4:	06013b03 	streq	r3, [r1], -r3, lsl #22
     1d8:	06050501 	streq	r0, [r5], -r1, lsl #10
     1dc:	2e2e064b 	cfmadda32cs	mvax2, mvax0, mvfx14, mvfx11
     1e0:	052f0105 	streq	r0, [pc, #-261]!	; e3 <__code_start__-0x7f1d>
     1e4:	064b0635 			; <UNDEFINED> instruction: 0x064b0635
     1e8:	06050501 	streq	r0, [r5], -r1, lsl #10
     1ec:	2e2e064b 	cfmadda32cs	mvax2, mvax0, mvfx14, mvfx11
     1f0:	052f0105 	streq	r0, [pc, #-261]!	; f3 <__code_start__-0x7f0d>
     1f4:	6d030620 	stcvs	6, cr0, [r3, #-128]	; 0xffffff80
     1f8:	1305054a 	movwne	r0, #21834	; 0x554a
     1fc:	04020001 	streq	r0, [r2], #-1
     200:	02008202 	andeq	r8, r0, #536870912	; 0x20000000
     204:	00010204 	andeq	r0, r1, r4, lsl #4
     208:	13020402 	movwne	r0, #9218	; 0x2402
     20c:	02000b05 	andeq	r0, r0, #5120	; 0x1400
     210:	01060204 	tsteq	r6, r4, lsl #4
     214:	02002005 	andeq	r2, r0, #5, 0
     218:	05800104 	streq	r0, [r0, #260]	; 0x104
     21c:	04020005 	streq	r0, [r2], #-5
     220:	004b0601 	subeq	r0, fp, r1, lsl #12
     224:	01010402 	tsteq	r1, r2, lsl #8
     228:	01040200 	mrseq	r0, R12_usr
     22c:	0200ba06 	andeq	fp, r0, #24576	; 0x6000
     230:	2e060104 	adfcss	f0, f6, f4
     234:	05c01705 	strbeq	r1, [r0, #1797]	; 0x705
     238:	00011305 	andeq	r1, r1, r5, lsl #6
     23c:	82020402 	andhi	r0, r2, #33554432	; 0x2000000
     240:	02040200 	andeq	r0, r4, #0, 4
     244:	04020001 	streq	r0, [r2], #-1
     248:	0b051302 	bleq	144e58 <__bss_end__+0x13baa8>
     24c:	02040200 	andeq	r0, r4, #0, 4
     250:	17050106 	strne	r0, [r5, -r6, lsl #2]
     254:	01040200 	mrseq	r0, R12_usr
     258:	00050580 	andeq	r0, r5, r0, lsl #11
     25c:	06010402 	streq	r0, [r1], -r2, lsl #8
     260:	0402004b 	streq	r0, [r2], #-75	; 0xffffffb5
     264:	02000101 	andeq	r0, r0, #1073741824	; 0x40000000
     268:	05d60104 	ldrbeq	r0, [r6, #260]	; 0x104
     26c:	ba0e0330 	blt	380f34 <__bss_end__+0x377b84>
     270:	05050106 	streq	r0, [r5, #-262]	; 0xfffffefa
     274:	0f056706 	svceq	0x00056706
     278:	08050106 	stmdaeq	r5, {r1, r2, r8}
     27c:	0605054a 	streq	r0, [r5], -sl, asr #10
     280:	0601054f 	streq	r0, [r1], -pc, asr #10
     284:	001e0567 	andseq	r0, lr, r7, ror #10
     288:	03010402 	movweq	r0, #5122	; 0x1402
     28c:	1b052e7a 	blne	14bc7c <__bss_end__+0x1428cc>
     290:	01040200 	mrseq	r0, R12_usr
     294:	0609054a 	streq	r0, [r9], -sl, asr #10
     298:	0621054b 	strteq	r0, [r1], -fp, asr #10
     29c:	06090501 	streq	r0, [r9], -r1, lsl #10
     2a0:	21052f67 	tstcs	r5, r7, ror #30
     2a4:	26050106 	strcs	r0, [r5], -r6, lsl #2
     2a8:	0106a406 	tsteq	r6, r6, lsl #8
     2ac:	4b060505 	blmi	1816c8 <__bss_end__+0x178318>
     2b0:	01061205 	tsteq	r6, r5, lsl #4
     2b4:	0605052e 	streq	r0, [r5], -lr, lsr #10
     2b8:	060f052f 	streq	r0, [pc], -pc, lsr #10
     2bc:	4a080501 	bmi	2016c8 <__bss_end__+0x1f8318>
     2c0:	05500105 	ldrbeq	r0, [r0, #-261]	; 0xfffffefb
     2c4:	0402001e 	streq	r0, [r2], #-30	; 0xffffffe2
     2c8:	4a7a0301 	bmi	1e80ed4 <__bss_end__+0x1e77b24>
     2cc:	02001b05 	andeq	r1, r0, #5120	; 0x1400
     2d0:	054a0104 	strbeq	r0, [sl, #-260]	; 0xfffffefc
     2d4:	054b0609 	strbeq	r0, [fp, #-1545]	; 0xfffff9f7
     2d8:	05010621 	streq	r0, [r1, #-1569]	; 0xfffff9df
     2dc:	06670609 	strbteq	r0, [r7], -r9, lsl #12
     2e0:	052f064a 	streq	r0, [pc, #-1610]!	; fffffc9e <__bss_end__+0xffff68ee>
     2e4:	05010621 	streq	r0, [r1, #-1569]	; 0xfffff9df
     2e8:	054c0605 	strbeq	r0, [ip, #-1541]	; 0xfffff9fb
     2ec:	0201060c 	andeq	r0, r1, #12, 12	; 0xc00000
     2f0:	01010006 	tsteq	r1, r6
     2f4:	0000011b 	andeq	r0, r0, fp, lsl r1
     2f8:	00e90003 	rsceq	r0, r9, r3
     2fc:	01020000 	mrseq	r0, (UNDEF: 2)
     300:	000d0efb 	strdeq	r0, [sp], -fp
     304:	01010101 	tsteq	r1, r1, lsl #2
     308:	01000000 	mrseq	r0, (UNDEF: 0)
     30c:	6c010000 	stcvs	0, cr0, [r1], {-0}
     310:	00636269 	rsbeq	r6, r3, r9, ror #4
     314:	7273752f 	rsbsvc	r7, r3, #197132288	; 0xbc00000
     318:	636f6c2f 	cmnvs	pc, #12032	; 0x2f00
     31c:	432f6c61 			; <UNDEFINED> instruction: 0x432f6c61
     320:	616c6c65 	cmnvs	ip, r5, ror #24
     324:	72612f72 	rsbvc	r2, r1, #456	; 0x1c8
     328:	6f6e2d6d 	svcvs	0x006e2d6d
     32c:	652d656e 	strvs	r6, [sp, #-1390]!	; 0xfffffa92
     330:	2d696261 	sfmcs	f6, 2, [r9, #-388]!	; 0xfffffe7c
     334:	74736574 	ldrbtvc	r6, [r3], #-1396	; 0xfffffa8c
     338:	322d392f 	eorcc	r3, sp, #770048	; 0xbc000
     33c:	71393130 	teqvc	r9, r0, lsr r1
     340:	73632d34 	cmnvc	r3, #52, 26	; 0xd00
     344:	65373031 	ldrvs	r3, [r7, #-49]!	; 0xffffffcf
     348:	62696c2f 	rsbvs	r6, r9, #12032	; 0x2f00
     34c:	6363672f 	cmnvs	r3, #12320768	; 0xbc0000
     350:	6d72612f 	ldfvse	f6, [r2, #-188]!	; 0xffffff44
     354:	6e6f6e2d 	cdpvs	14, 6, cr6, cr15, cr13, {1}
     358:	61652d65 	cmnvs	r5, r5, ror #26
     35c:	392f6962 	stmdbcc	pc!, {r1, r5, r6, r8, fp, sp, lr}	; <UNPREDICTABLE>
     360:	312e322e 			; <UNDEFINED> instruction: 0x312e322e
     364:	636e692f 	cmnvs	lr, #770048	; 0xbc000
     368:	6564756c 	strbvs	r7, [r4, #-1388]!	; 0xfffffa94
     36c:	73552f00 	cmpvc	r5, #0, 30
     370:	2f737265 	svccs	0x00737265
     374:	69726461 	ldmdbvs	r2!, {r0, r5, r6, sl, sp, lr}^
     378:	616d6e61 	cmnvs	sp, r1, ror #28
     37c:	6e697472 	mcrvs	4, 3, r7, cr9, cr2, {3}
     380:	702f7a65 	eorvc	r7, pc, r5, ror #20
     384:	656a6f72 	strbvs	r6, [sl, #-3954]!	; 0xfffff08e
     388:	2f737463 	svccs	0x00737463
     38c:	34317363 	ldrtcc	r7, [r1], #-867	; 0xfffffc9d
     390:	322d6530 	eorcc	r6, sp, #48, 10	; 0xc000000
     394:	72707331 	rsbsvc	r7, r0, #-1006632960	; 0xc4000000
     398:	62696c2f 	rsbvs	r6, r9, #12032	; 0x2f00
     39c:	692f6970 	stmdbvs	pc!, {r4, r5, r6, r8, fp, sp, lr}	; <UNPREDICTABLE>
     3a0:	756c636e 	strbvc	r6, [ip, #-878]!	; 0xfffffc92
     3a4:	00006564 	andeq	r6, r0, r4, ror #10
     3a8:	6e697270 	mcrvs	2, 3, r7, cr9, cr0, {3}
     3ac:	632e6b74 			; <UNDEFINED> instruction: 0x632e6b74
     3b0:	00000100 	andeq	r0, r0, r0, lsl #2
     3b4:	61647473 	smcvs	18243	; 0x4743
     3b8:	682e6772 	stmdavs	lr!, {r1, r4, r5, r6, r8, r9, sl, sp, lr}
     3bc:	00000200 	andeq	r0, r0, r0, lsl #4
     3c0:	2e697072 	mcrcs	0, 3, r7, cr9, cr2, {3}
     3c4:	00030068 	andeq	r0, r3, r8, rrx
     3c8:	75623c00 	strbvc	r3, [r2, #-3072]!	; 0xfffff400
     3cc:	2d746c69 	ldclcs	12, cr6, [r4, #-420]!	; 0xfffffe5c
     3d0:	003e6e69 	eorseq	r6, lr, r9, ror #28
     3d4:	76000000 	strvc	r0, [r0], -r0
     3d8:	72702d61 	rsbsvc	r2, r0, #6208	; 0x1840
     3dc:	6b746e69 	blvs	1d1bd88 <__bss_end__+0x1d129d8>
     3e0:	0100682e 	tsteq	r0, lr, lsr #16
     3e4:	05000000 	streq	r0, [r0, #-0]
     3e8:	02050022 	andeq	r0, r5, #34, 0	; 0x22
     3ec:	00008244 	andeq	r8, r0, r4, asr #4
     3f0:	05010617 	streq	r0, [r1, #-1559]	; 0xfffff9e9
     3f4:	13680605 	cmnne	r8, #5242880	; 0x500000
     3f8:	4b090514 	blmi	241850 <__bss_end__+0x2384a0>
     3fc:	01061205 	tsteq	r6, r5, lsl #4
     400:	bb060505 	bllt	18181c <__bss_end__+0x17846c>
     404:	06660616 			; <UNDEFINED> instruction: 0x06660616
     408:	06010534 			; <UNDEFINED> instruction: 0x06010534
     40c:	08026613 	stmdaeq	r2, {r0, r1, r4, r9, sl, sp, lr}
     410:	b3010100 	movwlt	r0, #4352	; 0x1100
     414:	03000000 	movweq	r0, #0
     418:	00006500 	andeq	r6, r0, r0, lsl #10
     41c:	fb010200 	blx	40c26 <__bss_end__+0x37876>
     420:	01000d0e 	tsteq	r0, lr, lsl #26
     424:	00010101 	andeq	r0, r1, r1, lsl #2
     428:	00010000 	andeq	r0, r1, r0
     42c:	696c0100 	stmdbvs	ip!, {r8}^
     430:	2f006362 	svccs	0x00006362
     434:	72657355 	rsbvc	r7, r5, #1409286145	; 0x54000001
     438:	64612f73 	strbtvs	r2, [r1], #-3955	; 0xfffff08d
     43c:	6e616972 			; <UNDEFINED> instruction: 0x6e616972
     440:	7472616d 	ldrbtvc	r6, [r2], #-365	; 0xfffffe93
     444:	7a656e69 	bvc	195bdf0 <__bss_end__+0x1952a40>
     448:	6f72702f 	svcvs	0x0072702f
     44c:	7463656a 	strbtvc	r6, [r3], #-1386	; 0xfffffa96
     450:	73632f73 	cmnvc	r3, #460	; 0x1cc
     454:	65303431 	ldrvs	r3, [r0, #-1073]!	; 0xfffffbcf
     458:	7331322d 	teqvc	r1, #-805306366	; 0xd0000002
     45c:	6c2f7270 	sfmvs	f7, 4, [pc], #-448	; 2a4 <__code_start__-0x7d5c>
     460:	69706269 	ldmdbvs	r0!, {r0, r3, r5, r6, r9, sp, lr}^
     464:	636e692f 	cmnvs	lr, #770048	; 0xbc000
     468:	6564756c 	strbvs	r7, [r4, #-1388]!	; 0xfffffa94
     46c:	75700000 	ldrbvc	r0, [r0, #-0]!
     470:	632e6b74 			; <UNDEFINED> instruction: 0x632e6b74
     474:	00000100 	andeq	r0, r0, r0, lsl #2
     478:	2e697072 	mcrcs	0, 3, r7, cr9, cr2, {3}
     47c:	00020068 	andeq	r0, r2, r8, rrx
     480:	22050000 	andcs	r0, r5, #0, 0
     484:	9c020500 	cfstr32ls	mvfx0, [r2], {-0}
     488:	15000082 	strne	r0, [r0, #-130]	; 0xffffff7e
     48c:	05050106 	streq	r0, [r5, #-262]	; 0xfffffefa
     490:	0b054b06 	bleq	1530b0 <__bss_end__+0x149d00>
     494:	01040200 	mrseq	r0, R12_usr
     498:	00050501 	andeq	r0, r5, r1, lsl #10
     49c:	06010402 	streq	r0, [r1], -r2, lsl #8
     4a0:	0009052e 	andeq	r0, r9, lr, lsr #10
     4a4:	06020402 	streq	r0, [r2], -r2, lsl #8
     4a8:	000f054b 	andeq	r0, pc, fp, asr #10
     4ac:	65020402 	strvs	r0, [r2, #-1026]	; 0xfffffbfe
     4b0:	02001005 	andeq	r1, r0, #5, 0
     4b4:	01060204 	tsteq	r6, r4, lsl #4
     4b8:	02040200 	andeq	r0, r4, #0, 4
     4bc:	0605052e 	streq	r0, [r5], -lr, lsr #10
     4c0:	06010532 			; <UNDEFINED> instruction: 0x06010532
     4c4:	00060213 	andeq	r0, r6, r3, lsl r2
     4c8:	05c50101 	strbeq	r0, [r5, #257]	; 0x101
     4cc:	00030000 	andeq	r0, r3, r0
     4d0:	000000ff 	strdeq	r0, [r0], -pc	; <UNPREDICTABLE>
     4d4:	0efb0102 	cdpeq	1, 15, cr0, cr11, cr2, {0}
     4d8:	0101000d 	tsteq	r1, sp
     4dc:	00000101 	andeq	r0, r0, r1, lsl #2
     4e0:	00000100 	andeq	r0, r0, r0, lsl #2
     4e4:	62696c01 	rsbvs	r6, r9, #256	; 0x100
     4e8:	752f0063 	strvc	r0, [pc, #-99]!	; 48d <__code_start__-0x7b73>
     4ec:	6c2f7273 	sfmvs	f7, 4, [pc], #-460	; 328 <__code_start__-0x7cd8>
     4f0:	6c61636f 	stclvs	3, cr6, [r1], #-444	; 0xfffffe44
     4f4:	6c65432f 	stclvs	3, cr4, [r5], #-188	; 0xffffff44
     4f8:	2f72616c 	svccs	0x0072616c
     4fc:	2d6d7261 	sfmcs	f7, 2, [sp, #-388]!	; 0xfffffe7c
     500:	656e6f6e 	strbvs	r6, [lr, #-3950]!	; 0xfffff092
     504:	6261652d 	rsbvs	r6, r1, #188743680	; 0xb400000
     508:	65742d69 	ldrbvs	r2, [r4, #-3433]!	; 0xfffff297
     50c:	392f7473 	stmdbcc	pc!, {r0, r1, r4, r5, r6, sl, ip, sp, lr}	; <UNPREDICTABLE>
     510:	3130322d 	teqcc	r0, sp, lsr #4
     514:	2d347139 	ldfcss	f7, [r4, #-228]!	; 0xffffff1c
     518:	30317363 	eorscc	r7, r1, r3, ror #6
     51c:	6c2f6537 	cfstr32vs	mvfx6, [pc], #-220	; 448 <__code_start__-0x7bb8>
     520:	672f6269 	strvs	r6, [pc, -r9, ror #4]!
     524:	612f6363 			; <UNDEFINED> instruction: 0x612f6363
     528:	6e2d6d72 	mcrvs	13, 1, r6, cr13, cr2, {3}
     52c:	2d656e6f 	stclcs	14, cr6, [r5, #-444]!	; 0xfffffe44
     530:	69626165 	stmdbvs	r2!, {r0, r2, r5, r6, r8, sp, lr}^
     534:	322e392f 	eorcc	r3, lr, #770048	; 0xbc000
     538:	692f312e 	stmdbvs	pc!, {r1, r2, r3, r5, r8, ip, sp}	; <UNPREDICTABLE>
     53c:	756c636e 	strbvc	r6, [ip, #-878]!	; 0xfffffc92
     540:	2f006564 	svccs	0x00006564
     544:	72657355 	rsbvc	r7, r5, #1409286145	; 0x54000001
     548:	64612f73 	strbtvs	r2, [r1], #-3955	; 0xfffff08d
     54c:	6e616972 			; <UNDEFINED> instruction: 0x6e616972
     550:	7472616d 	ldrbtvc	r6, [r2], #-365	; 0xfffffe93
     554:	7a656e69 	bvc	195bf00 <__bss_end__+0x1952b50>
     558:	6f72702f 	svcvs	0x0072702f
     55c:	7463656a 	strbtvc	r6, [r3], #-1386	; 0xfffffa96
     560:	73632f73 	cmnvc	r3, #460	; 0x1cc
     564:	65303431 	ldrvs	r3, [r0, #-1073]!	; 0xfffffbcf
     568:	7331322d 	teqvc	r1, #-805306366	; 0xd0000002
     56c:	6c2f7270 	sfmvs	f7, 4, [pc], #-448	; 3b4 <__code_start__-0x7c4c>
     570:	69706269 	ldmdbvs	r0!, {r0, r3, r5, r6, r9, sp, lr}^
     574:	636e692f 	cmnvs	lr, #770048	; 0xbc000
     578:	6564756c 	strbvs	r7, [r4, #-1388]!	; 0xfffffa94
     57c:	61760000 	cmnvs	r6, r0
     580:	6972702d 	ldmdbvs	r2!, {r0, r2, r3, r5, ip, sp, lr}^
     584:	2e6b746e 	cdpcs	4, 6, cr7, cr11, cr14, {3}
     588:	00010063 	andeq	r0, r1, r3, rrx
     58c:	64747300 	ldrbtvs	r7, [r4], #-768	; 0xfffffd00
     590:	2d746e69 	ldclcs	14, cr6, [r4, #-420]!	; 0xfffffe5c
     594:	2e636367 	cdpcs	3, 6, cr6, cr3, cr7, {3}
     598:	00020068 	andeq	r0, r2, r8, rrx
     59c:	69707200 	ldmdbvs	r0!, {r9, ip, sp, lr}^
     5a0:	0300682e 	movweq	r6, #2094	; 0x82e
     5a4:	70720000 	rsbsvc	r0, r2, r0
     5a8:	6e692d69 	cdpvs	13, 6, cr2, cr9, cr9, {3}
     5ac:	6e726574 	mrcvs	5, 3, r6, cr2, cr4, {3}
     5b0:	682e6c61 	stmdavs	lr!, {r0, r5, r6, sl, fp, sp, lr}
     5b4:	00000300 	andeq	r0, r0, r0, lsl #6
     5b8:	61647473 	smcvs	18243	; 0x4743
     5bc:	682e6772 	stmdavs	lr!, {r1, r4, r5, r6, r8, r9, sl, sp, lr}
     5c0:	00000200 	andeq	r0, r0, r0, lsl #4
     5c4:	6975623c 	ldmdbvs	r5!, {r2, r3, r4, r5, r9, sp, lr}^
     5c8:	692d746c 	pushvs	{r2, r3, r5, r6, sl, ip, sp, lr}
     5cc:	00003e6e 	andeq	r3, r0, lr, ror #28
     5d0:	05000000 	streq	r0, [r0, #-0]
     5d4:	0205001b 	andeq	r0, r5, #27, 0
     5d8:	000082d0 	ldrdeq	r8, [r0], -r0
     5dc:	05012603 	streq	r2, [r1, #-1539]	; 0xfffff9fd
     5e0:	2d05011d 	stfcss	f0, [r5, #-116]	; 0xffffff8c
     5e4:	01050106 	tsteq	r5, r6, lsl #2
     5e8:	33054a2e 	movwcc	r4, #23086	; 0x5a2e
     5ec:	02055106 	andeq	r5, r5, #-2147483647	; 0x80000001
     5f0:	06060513 			; <UNDEFINED> instruction: 0x06060513
     5f4:	06020501 	streq	r0, [r2], -r1, lsl #10
     5f8:	00080530 	andeq	r0, r8, r0, lsr r5
     5fc:	01010402 	tsteq	r1, r2, lsl #8
     600:	02000205 	andeq	r0, r0, #1342177280	; 0x50000000
     604:	01060104 	tsteq	r6, r4, lsl #2
     608:	02000305 	andeq	r0, r0, #335544320	; 0x14000000
     60c:	2f060204 	svccs	0x00060204
     610:	02000805 	andeq	r0, r0, #327680	; 0x50000
     614:	01060204 	tsteq	r6, r4, lsl #4
     618:	02001505 	andeq	r1, r0, #20971520	; 0x1400000
     61c:	49060204 	stmdbmi	r6, {r2, r9}
     620:	02001805 	andeq	r1, r0, #327680	; 0x50000
     624:	01060204 	tsteq	r6, r4, lsl #4
     628:	02040200 	andeq	r0, r4, #0, 4
     62c:	0602052e 	streq	r0, [r2], -lr, lsr #10
     630:	06050530 			; <UNDEFINED> instruction: 0x06050530
     634:	06020501 	streq	r0, [r2], -r1, lsl #10
     638:	0601054b 	streq	r0, [r1], -fp, asr #10
     63c:	063e0513 			; <UNDEFINED> instruction: 0x063e0513
     640:	14020531 	strne	r0, [r2], #-1329	; 0xfffffacf
     644:	01060e05 	tsteq	r6, r5, lsl #28
     648:	052e0605 	streq	r0, [lr, #-1541]!	; 0xfffff9fb
     64c:	052f0602 	streq	r0, [pc, #-1538]!	; 52 <__code_start__-0x7fae>
     650:	05010604 	streq	r0, [r1, #-1540]	; 0xfffff9fc
     654:	052f0603 	streq	r0, [pc, #-1539]!	; 59 <__code_start__-0x7fa7>
     658:	05010611 	streq	r0, [r1, #-1553]	; 0xfffff9ef
     65c:	02052e09 	andeq	r2, r5, #144	; 0x90
     660:	05153006 	ldreq	r3, [r5, #-6]
     664:	05010607 	streq	r0, [r1, #-1543]	; 0xfffff9f9
     668:	0b052e02 	bleq	14be78 <__bss_end__+0x142ac8>
     66c:	01040200 	mrseq	r0, R12_usr
     670:	02052e06 	andeq	r2, r5, #96	; 0x60
     674:	01040200 	mrseq	r0, R12_usr
     678:	03050106 	movweq	r0, #20742	; 0x5106
     67c:	03040200 	movweq	r0, #16896	; 0x4200
     680:	0c052f06 	stceq	15, cr2, [r5], {6}
     684:	03040200 	movweq	r0, #16896	; 0x4200
     688:	0a050106 	beq	140aa8 <__bss_end__+0x1376f8>
     68c:	03040200 	movweq	r0, #16896	; 0x4200
     690:	0017052e 	andseq	r0, r7, lr, lsr #10
     694:	06030402 	streq	r0, [r3], -r2, lsl #8
     698:	0402002d 	streq	r0, [r2], #-45	; 0xffffffd3
     69c:	05010603 	streq	r0, [r1, #-1539]	; 0xfffff9fd
     6a0:	05300602 	ldreq	r0, [r0, #-1538]!	; 0xfffff9fe
     6a4:	2e010609 	cfmadd32cs	mvax0, mvfx0, mvfx1, mvfx9
     6a8:	30060205 	andcc	r0, r6, r5, lsl #4
     6ac:	13060105 	movwne	r0, #24837	; 0x6105
     6b0:	31064905 	tstcc	r6, r5, lsl #18
     6b4:	02050106 	andeq	r0, r5, #-2147483647	; 0x80000001
     6b8:	0405a006 	streq	sl, [r5], #-6
     6bc:	03050106 	movweq	r0, #20742	; 0x5106
     6c0:	09052f06 	stmdbeq	r5, {r1, r2, r8, r9, sl, fp, sp}
     6c4:	02050106 	andeq	r0, r5, #-2147483647	; 0x80000001
     6c8:	05133006 	ldreq	r3, [r3, #-6]
     6cc:	0501060b 	streq	r0, [r1, #-1547]	; 0xfffff9f5
     6d0:	06300602 	ldrteq	r0, [r0], -r2, lsl #12
     6d4:	0604052e 	streq	r0, [r4], -lr, lsr #10
     6d8:	13152402 	tstne	r5, #33554432	; 0x2000000
     6dc:	01060f05 	tsteq	r6, r5, lsl #30
     6e0:	4a06052e 	bmi	181ba0 <__bss_end__+0x1787f0>
     6e4:	4b060505 	blmi	181b00 <__bss_end__+0x178750>
     6e8:	06090513 			; <UNDEFINED> instruction: 0x06090513
     6ec:	06050501 	streq	r0, [r5], -r1, lsl #10
     6f0:	060b052f 	streq	r0, [fp], -pc, lsr #10
     6f4:	000d0510 	andeq	r0, sp, r0, lsl r5
     6f8:	2c010402 	cfstrscs	mvf0, [r1], {2}
     6fc:	02000405 	andeq	r0, r0, #83886080	; 0x5000000
     700:	34060104 	strcc	r0, [r6], #-260	; 0xfffffefc
     704:	02000505 	andeq	r0, r0, #20971520	; 0x1400000
     708:	05130104 	ldreq	r0, [r3, #-260]	; 0xfffffefc
     70c:	0402001b 	streq	r0, [r2], #-27	; 0xffffffe5
     710:	05010601 	streq	r0, [r1, #-1537]	; 0xfffff9ff
     714:	04020007 	streq	r0, [r2], #-7
     718:	1805d601 	stmdane	r5, {r0, r9, sl, ip, lr, pc}
     71c:	01040200 	mrseq	r0, R12_usr
     720:	000a052e 	andeq	r0, sl, lr, lsr #10
     724:	4a010402 	bmi	41734 <__bss_end__+0x38384>
     728:	02000b05 	andeq	r0, r0, #5120	; 0x1400
     72c:	2f060104 	svccs	0x00060104
     730:	02000e05 	andeq	r0, r0, #80	; 0x50
     734:	2e060104 	adfcss	f0, f6, f4
     738:	02000405 	andeq	r0, r0, #83886080	; 0x5000000
     73c:	062e0104 	strteq	r0, [lr], -r4, lsl #2
     740:	0606054b 	streq	r0, [r6], -fp, asr #10
     744:	06050501 	streq	r0, [r5], -r1, lsl #10
     748:	060a052f 	streq	r0, [sl], -pc, lsr #10
     74c:	4a070501 	bmi	1c1b58 <__bss_end__+0x1b87a8>
     750:	030d052e 	movweq	r0, #54574	; 0xd52e
     754:	054a2e76 	strbeq	r2, [sl, #-3702]	; 0xfffff18a
     758:	0d050d0b 	stceq	13, cr0, [r5, #-44]	; 0xffffffd4
     75c:	01040200 	mrseq	r0, R12_usr
     760:	2e140306 	cdpcs	3, 1, cr0, cr4, cr6, {0}
     764:	02001105 	andeq	r1, r0, #1073741825	; 0x40000001
     768:	05130104 	ldreq	r0, [r3, #-260]	; 0xfffffefc
     76c:	0402002d 	streq	r0, [r2], #-45	; 0xffffffd3
     770:	05010601 	streq	r0, [r1, #-1537]	; 0xfffff9ff
     774:	0402002a 	streq	r0, [r2], #-42	; 0xffffffd6
     778:	16052e01 	strne	r2, [r5], -r1, lsl #28
     77c:	01040200 	mrseq	r0, R12_usr
     780:	0014054a 	andseq	r0, r4, sl, asr #10
     784:	06010402 	streq	r0, [r1], -r2, lsl #8
     788:	000d054b 	andeq	r0, sp, fp, asr #10
     78c:	06010402 	streq	r0, [r1], -r2, lsl #8
     790:	04020001 	streq	r0, [r2], #-1
     794:	2f064a01 	svccs	0x00064a01
     798:	01061205 	tsteq	r6, r5, lsl #4
     79c:	060d054a 	streq	r0, [sp], -sl, asr #10
     7a0:	0612052f 	ldreq	r0, [r2], -pc, lsr #10
     7a4:	06190501 	ldreq	r0, [r9], -r1, lsl #10
     7a8:	0004054b 	andeq	r0, r4, fp, asr #10
     7ac:	03020402 	movweq	r0, #9218	; 0x2402
     7b0:	02000111 	andeq	r0, r0, #1073741828	; 0x40000004
     7b4:	05010204 	streq	r0, [r1, #-516]	; 0xfffffdfc
     7b8:	04020002 	streq	r0, [r2], #-2
     7bc:	09051502 	stmdbeq	r5, {r1, r8, sl, ip}
     7c0:	02040200 	andeq	r0, r4, #0, 4
     7c4:	02000106 	andeq	r0, r0, #-2147483647	; 0x80000001
     7c8:	054a0204 	strbeq	r0, [sl, #-516]	; 0xfffffdfc
     7cc:	04020001 	streq	r0, [r2], #-1
     7d0:	04059f02 	streq	r9, [r5], #-3842	; 0xfffff0fe
     7d4:	4a6e0306 	bmi	1b813f4 <__bss_end__+0x1b78044>
     7d8:	01060905 	tsteq	r6, r5, lsl #18
     7dc:	2f060405 	svccs	0x00060405
     7e0:	11060605 	tstne	r6, r5, lsl #12
     7e4:	052f0405 	streq	r0, [pc, #-1029]!	; 3e7 <__code_start__-0x7c19>
     7e8:	2e63030b 	cdpcs	3, 6, cr0, cr3, cr11, {0}
     7ec:	02001905 	andeq	r1, r0, #81920	; 0x14000
     7f0:	03060104 	movweq	r0, #24836	; 0x6104
     7f4:	1a052e24 	bne	14c08c <__bss_end__+0x142cdc>
     7f8:	01040200 	mrseq	r0, R12_usr
     7fc:	00280513 	eoreq	r0, r8, r3, lsl r5
     800:	06010402 	streq	r0, [r1], -r2, lsl #8
     804:	00250501 	eoreq	r0, r5, r1, lsl #10
     808:	2e010402 	cdpcs	4, 0, cr0, cr1, cr2, {0}
     80c:	02001f05 	andeq	r1, r0, #5, 30
     810:	054a0104 	strbeq	r0, [sl, #-260]	; 0xfffffefc
     814:	0402000b 	streq	r0, [r2], #-11
     818:	054b0601 	strbeq	r0, [fp, #-1537]	; 0xfffff9ff
     81c:	04020004 	streq	r0, [r2], #-4
     820:	00010601 	andeq	r0, r1, r1, lsl #12
     824:	4a010402 	bmi	41834 <__bss_end__+0x38484>
     828:	01040200 	mrseq	r0, R12_usr
     82c:	02004e06 	andeq	r4, r0, #96	; 0x60
     830:	00010104 	andeq	r0, r1, r4, lsl #2
     834:	01010402 	tsteq	r1, r2, lsl #8
     838:	01040200 	mrseq	r0, R12_usr
     83c:	04020001 	streq	r0, [r2], #-1
     840:	002e0601 	eoreq	r0, lr, r1, lsl #12
     844:	66010402 	strvs	r0, [r1], -r2, lsl #8
     848:	01040200 	mrseq	r0, R12_usr
     84c:	0402002e 	streq	r0, [r2], #-46	; 0xffffffd2
     850:	054a0601 	strbeq	r0, [sl, #-1537]	; 0xfffff9ff
     854:	7fa60348 	svcvc	0x00a60348
     858:	05052008 	streq	r2, [r5, #-8]
     85c:	2e060113 	mcrcs	1, 0, r0, cr6, cr3, {0}
     860:	02040200 	andeq	r0, r4, #0, 4
     864:	02002e06 	andeq	r2, r0, #96	; 0x60
     868:	00010204 	andeq	r0, r1, r4, lsl #4
     86c:	13020402 	movwne	r0, #9218	; 0x2402
     870:	02001105 	andeq	r1, r0, #1073741825	; 0x40000001
     874:	01060204 	tsteq	r6, r4, lsl #4
     878:	02000505 	andeq	r0, r0, #20971520	; 0x1400000
     87c:	4b060204 	blmi	181094 <__bss_end__+0x177ce4>
     880:	02000705 	andeq	r0, r0, #1310720	; 0x140000
     884:	01060204 	tsteq	r6, r4, lsl #4
     888:	4b060905 	blmi	182ca4 <__bss_end__+0x1798f4>
     88c:	01060e05 	tsteq	r6, r5, lsl #28
     890:	02004805 	andeq	r4, r0, #327680	; 0x50000
     894:	05620104 	strbeq	r0, [r2, #-260]!	; 0xfffffefc
     898:	04020005 	streq	r0, [r2], #-5
     89c:	004b0601 	subeq	r0, fp, r1, lsl #12
     8a0:	01010402 	tsteq	r1, r2, lsl #8
     8a4:	01040200 	mrseq	r0, R12_usr
     8a8:	02009e06 	andeq	r9, r0, #96	; 0x60
     8ac:	002e0104 	eoreq	r0, lr, r4, lsl #2
     8b0:	06010402 	streq	r0, [r1], -r2, lsl #8
     8b4:	0340052e 	movteq	r0, #1326	; 0x52e
     8b8:	06d600e1 	ldrbeq	r0, [r6], r1, ror #1
     8bc:	06020501 	streq	r0, [r2], -r1, lsl #10
     8c0:	061e059f 			; <UNDEFINED> instruction: 0x061e059f
     8c4:	2e120501 	cfmul32cs	mvfx0, mvfx2, mvfx1
     8c8:	2f060505 	svccs	0x00060505
     8cc:	05140205 	ldreq	r0, [r4, #-517]	; 0xfffffdfb
     8d0:	05010609 	streq	r0, [r1, #-1545]	; 0xfffff9f7
     8d4:	054b0605 	strbeq	r0, [fp, #-1541]	; 0xfffff9fb
     8d8:	08051302 	stmdaeq	r5, {r1, r8, r9, ip}
     8dc:	02050d06 	andeq	r0, r5, #384	; 0x180
     8e0:	06040533 			; <UNDEFINED> instruction: 0x06040533
     8e4:	060f054c 	streq	r0, [pc], -ip, asr #10
     8e8:	2e090501 	cfsh32cs	mvfx0, mvfx9, #1
     8ec:	2c060805 	stccs	8, cr0, [r6], {5}
     8f0:	2e060205 	cdpcs	2, 0, cr0, cr6, cr5, {0}
     8f4:	02000d05 	andeq	r0, r0, #320	; 0x140
     8f8:	054a0104 	strbeq	r0, [sl, #-260]	; 0xfffffefc
     8fc:	054b0603 	strbeq	r0, [fp, #-1539]	; 0xfffff9fd
     900:	05010605 	streq	r0, [r1, #-1541]	; 0xfffff9fb
     904:	054d0608 	strbeq	r0, [sp, #-1544]	; 0xfffff9f8
     908:	0501060e 	streq	r0, [r1, #-1550]	; 0xfffff9f2
     90c:	04052e0a 	streq	r2, [r5], #-3594	; 0xfffff1f6
     910:	09052f06 	stmdbeq	r5, {r1, r2, r8, r9, sl, fp, sp}
     914:	04050106 	streq	r0, [r5], #-262	; 0xfffffefa
     918:	07052f06 	streq	r2, [r5, -r6, lsl #30]
     91c:	052e0106 	streq	r0, [lr, #-262]!	; 0xfffffefa
     920:	05300604 	ldreq	r0, [r0, #-1540]!	; 0xfffff9fc
     924:	05010607 	streq	r0, [r1, #-1543]	; 0xfffff9f9
     928:	13300604 	teqne	r0, #4, 12	; 0x400000
     92c:	060d0514 			; <UNDEFINED> instruction: 0x060d0514
     930:	06090510 			; <UNDEFINED> instruction: 0x06090510
     934:	06120530 			; <UNDEFINED> instruction: 0x06120530
     938:	2e0a0501 	cfsh32cs	mvfx0, mvfx10, #1
     93c:	05660905 	strbeq	r0, [r6, #-2309]!	; 0xfffff6fb
     940:	054b0605 	strbeq	r0, [fp, #-1541]	; 0xfffff9fb
     944:	05010612 	streq	r0, [r1, #-1554]	; 0xfffff9ee
     948:	0b052e16 	bleq	14c1a8 <__bss_end__+0x142df8>
     94c:	0605052e 	streq	r0, [r5], -lr, lsr #10
     950:	0608052f 	streq	r0, [r8], -pc, lsr #10
     954:	04052e01 	streq	r2, [r5], #-3585	; 0xfffff1ff
     958:	4a013006 	bmi	4c978 <__bss_end__+0x435c8>
     95c:	02001501 	andeq	r1, r0, #4194304	; 0x400000
     960:	36020104 	strcc	r0, [r2], -r4, lsl #2
     964:	0402000f 	streq	r0, [r2], #-15
     968:	02000101 	andeq	r0, r0, #1073741824	; 0x40000000
     96c:	05d60104 	ldrbeq	r0, [r6, #260]	; 0x104
     970:	00013311 	andeq	r3, r1, r1, lsl r3
     974:	ba020402 	blt	81984 <__bss_end__+0x785d4>
     978:	02040200 	andeq	r0, r4, #0, 4
     97c:	04020001 	streq	r0, [r2], #-1
     980:	15051302 	strne	r1, [r5, #-770]	; 0xfffffcfe
     984:	02040200 	andeq	r0, r4, #0, 4
     988:	11050106 	tstne	r5, r6, lsl #2
     98c:	02040200 	andeq	r0, r4, #0, 4
     990:	1a052f06 	bne	14c5b0 <__bss_end__+0x143200>
     994:	02040200 	andeq	r0, r4, #0, 4
     998:	11050106 	tstne	r5, r6, lsl #2
     99c:	02040200 	andeq	r0, r4, #0, 4
     9a0:	0200d706 	andeq	sp, r0, #1572864	; 0x180000
     9a4:	05130204 	ldreq	r0, [r3, #-516]	; 0xfffffdfc
     9a8:	04020005 	streq	r0, [r2], #-5
     9ac:	09051702 	stmdbeq	r5, {r1, r8, r9, sl, ip}
     9b0:	02040200 	andeq	r0, r4, #0, 4
     9b4:	02000106 	andeq	r0, r0, #-2147483647	; 0x80000001
     9b8:	05d60204 	ldrbeq	r0, [r6, #516]	; 0x204
     9bc:	04020005 	streq	r0, [r2], #-5
     9c0:	00300602 	eorseq	r0, r0, r2, lsl #12
     9c4:	06020402 	streq	r0, [r2], -r2, lsl #8
     9c8:	001105ba 			; <UNDEFINED> instruction: 0x001105ba
     9cc:	06020402 	streq	r0, [r2], -r2, lsl #8
     9d0:	0402002f 	streq	r0, [r2], #-47	; 0xffffffd1
     9d4:	02006702 	andeq	r6, r0, #524288	; 0x80000
     9d8:	73030104 	movwvc	r0, #12548	; 0x3104
     9dc:	0402002e 	streq	r0, [r2], #-46	; 0xffffffd2
     9e0:	02000101 	andeq	r0, r0, #1073741824	; 0x40000000
     9e4:	05d60104 	ldrbeq	r0, [r6, #260]	; 0x104
     9e8:	2e120305 	cdpcs	3, 1, cr0, cr2, cr5, {0}
     9ec:	032e9e01 			; <UNDEFINED> instruction: 0x032e9e01
     9f0:	0905010e 	stmdbeq	r5, {r1, r2, r3, r8}
     9f4:	05050106 	streq	r0, [r5, #-262]	; 0xfffffefa
     9f8:	06750806 	ldrbteq	r0, [r5], -r6, lsl #16
     9fc:	06040501 	streq	r0, [r4], -r1, lsl #10
     a00:	05011803 	streq	r1, [r1, #-2051]	; 0xfffff7fd
     a04:	05010607 	streq	r0, [r1, #-1543]	; 0xfffff9f9
     a08:	05310604 	ldreq	r0, [r1, #-1540]!	; 0xfffff9fc
     a0c:	2e670305 	cdpcs	3, 6, cr0, cr7, cr5, {0}
     a10:	01061c05 	tsteq	r6, r5, lsl #24
     a14:	05820905 	streq	r0, [r2, #2309]	; 0x905
     a18:	31f30605 	mvnscc	r0, r5, lsl #12
     a1c:	01061c05 	tsteq	r6, r5, lsl #24
     a20:	05820905 	streq	r0, [r2, #2309]	; 0x905
     a24:	30f30605 	rscscc	r0, r3, r5, lsl #12
     a28:	01061b05 	tsteq	r6, r5, lsl #22
     a2c:	05820905 	streq	r0, [r2, #2309]	; 0x905
     a30:	30f30605 	rscscc	r0, r3, r5, lsl #12
     a34:	01060705 	tsteq	r6, r5, lsl #14
     a38:	83060505 	movwhi	r0, #25861	; 0x6505
     a3c:	06090530 			; <UNDEFINED> instruction: 0x06090530
     a40:	06050501 	streq	r0, [r5], -r1, lsl #10
     a44:	11057508 	tstne	r5, r8, lsl #10
     a48:	06220530 			; <UNDEFINED> instruction: 0x06220530
     a4c:	06050501 	streq	r0, [r5], -r1, lsl #10
     a50:	8311054b 	tsthi	r1, #314572800	; 0x12c00000
     a54:	01830505 	orreq	r0, r3, r5, lsl #10
     a58:	062e069e 			; <UNDEFINED> instruction: 0x062e069e
     a5c:	060e0519 			; <UNDEFINED> instruction: 0x060e0519
     a60:	2e0a0501 	cfsh32cs	mvfx0, mvfx10, #1
     a64:	04052d06 	streq	r2, [r5], #-3334	; 0xfffff2fa
     a68:	13050106 	movwne	r0, #20742	; 0x5106
     a6c:	01040200 	mrseq	r0, R12_usr
     a70:	0010054a 	andseq	r0, r0, sl, asr #10
     a74:	2e010402 	cdpcs	4, 0, cr0, cr1, cr2, {0}
     a78:	01040200 	mrseq	r0, R12_usr
     a7c:	06020566 	streq	r0, [r2], -r6, ror #10
     a80:	06070516 			; <UNDEFINED> instruction: 0x06070516
     a84:	06020501 	streq	r0, [r2], -r1, lsl #10
     a88:	0601054b 	streq	r0, [r1], -fp, asr #10
     a8c:	14026613 	strne	r6, [r2], #-1555	; 0xfffff9ed
     a90:	8d010100 	stfhis	f0, [r1, #-0]
     a94:	03000000 	movweq	r0, #0
     a98:	00007200 	andeq	r7, r0, r0, lsl #4
     a9c:	fb010200 	blx	412a6 <__bss_end__+0x37ef6>
     aa0:	01000d0e 	tsteq	r0, lr, lsl #26
     aa4:	00010101 	andeq	r0, r1, r1, lsl #2
     aa8:	00010000 	andeq	r0, r1, r0
     aac:	74730100 	ldrbtvc	r0, [r3], #-256	; 0xffffff00
     ab0:	2d666661 	stclcs	6, cr6, [r6, #-388]!	; 0xfffffe7c
     ab4:	00637273 	rsbeq	r7, r3, r3, ror r2
     ab8:	6573552f 	ldrbvs	r5, [r3, #-1327]!	; 0xfffffad1
     abc:	612f7372 			; <UNDEFINED> instruction: 0x612f7372
     ac0:	61697264 	cmnvs	r9, r4, ror #4
     ac4:	72616d6e 	rsbvc	r6, r1, #7040	; 0x1b80
     ac8:	656e6974 	strbvs	r6, [lr, #-2420]!	; 0xfffff68c
     acc:	72702f7a 	rsbsvc	r2, r0, #488	; 0x1e8
     ad0:	63656a6f 	cmnvs	r5, #454656	; 0x6f000
     ad4:	632f7374 			; <UNDEFINED> instruction: 0x632f7374
     ad8:	30343173 	eorscc	r3, r4, r3, ror r1
     adc:	31322d65 	teqcc	r2, r5, ror #26
     ae0:	2f727073 	svccs	0x00727073
     ae4:	7062696c 	rsbvc	r6, r2, ip, ror #18
     ae8:	6e692f69 	cdpvs	15, 6, cr2, cr9, cr9, {3}
     aec:	64756c63 	ldrbtvs	r6, [r5], #-3171	; 0xfffff39d
     af0:	63000065 	movwvs	r0, #101	; 0x65
     af4:	6e61656c 	cdpvs	5, 6, cr6, cr1, cr12, {3}
     af8:	6265722d 	rsbvs	r7, r5, #-805306366	; 0xd0000002
     afc:	2e746f6f 	cdpcs	15, 7, cr6, cr4, cr15, {3}
     b00:	00010063 	andeq	r0, r1, r3, rrx
     b04:	69707200 	ldmdbvs	r0!, {r9, ip, sp, lr}^
     b08:	0200682e 	andeq	r6, r0, #3014656	; 0x2e0000
     b0c:	05000000 	streq	r0, [r0, #-0]
     b10:	02050019 	andeq	r0, r5, #25, 0
     b14:	000088fc 	strdeq	r8, [r0], -ip
     b18:	2f050515 	svccs	0x00050515
     b1c:	024b2f83 	subeq	r2, fp, #524	; 0x20c
     b20:	01010006 	tsteq	r1, r6
     b24:	000000a2 	andeq	r0, r0, r2, lsr #1
     b28:	006c0003 	rsbeq	r0, ip, r3
     b2c:	01020000 	mrseq	r0, (UNDEF: 2)
     b30:	000d0efb 	strdeq	r0, [sp], -fp
     b34:	01010101 	tsteq	r1, r1, lsl #2
     b38:	01000000 	mrseq	r0, (UNDEF: 0)
     b3c:	73010000 	movwvc	r0, #4096	; 0x1000
     b40:	66666174 			; <UNDEFINED> instruction: 0x66666174
     b44:	6372732d 	cmnvs	r2, #-1275068416	; 0xb4000000
     b48:	73552f00 	cmpvc	r5, #0, 30
     b4c:	2f737265 	svccs	0x00737265
     b50:	69726461 	ldmdbvs	r2!, {r0, r5, r6, sl, sp, lr}^
     b54:	616d6e61 	cmnvs	sp, r1, ror #28
     b58:	6e697472 	mcrvs	4, 3, r7, cr9, cr2, {3}
     b5c:	702f7a65 	eorvc	r7, pc, r5, ror #20
     b60:	656a6f72 	strbvs	r6, [sl, #-3954]!	; 0xfffff08e
     b64:	2f737463 	svccs	0x00737463
     b68:	34317363 	ldrtcc	r7, [r1], #-867	; 0xfffffc9d
     b6c:	322d6530 	eorcc	r6, sp, #48, 10	; 0xc000000
     b70:	72707331 	rsbsvc	r7, r0, #-1006632960	; 0xc4000000
     b74:	62696c2f 	rsbvs	r6, r9, #12032	; 0x2f00
     b78:	692f6970 	stmdbvs	pc!, {r4, r5, r6, r8, fp, sp, lr}	; <UNPREDICTABLE>
     b7c:	756c636e 	strbvc	r6, [ip, #-878]!	; 0xfffffc92
     b80:	00006564 	andeq	r6, r0, r4, ror #10
     b84:	61747363 	cmnvs	r4, r3, ror #6
     b88:	632e7472 			; <UNDEFINED> instruction: 0x632e7472
     b8c:	00000100 	andeq	r0, r0, r0, lsl #2
     b90:	2e697072 	mcrcs	0, 3, r7, cr9, cr2, {3}
     b94:	00020068 	andeq	r0, r2, r8, rrx
     b98:	10050000 	andne	r0, r5, r0
     b9c:	28020500 	stmdacs	r2, {r8, sl}
     ba0:	14000089 	strne	r0, [r0], #-137	; 0xffffff77
     ba4:	052f0505 	streq	r0, [pc, #-1285]!	; 6a7 <__code_start__-0x7959>
     ba8:	05051302 	streq	r1, [r5, #-770]	; 0xfffffcfe
     bac:	14133014 	ldrne	r3, [r3], #-20	; 0xffffffec
     bb0:	0f060a05 	svceq	0x00060a05
     bb4:	09053106 	stmdbeq	r5, {r1, r2, r8, ip, sp}
     bb8:	0610054b 	ldreq	r0, [r0], -fp, asr #10
     bbc:	05054a01 	streq	r4, [r5, #-2561]	; 0xfffff5ff
     bc0:	02053006 	andeq	r3, r5, #6, 0
     bc4:	0006022f 	andeq	r0, r6, pc, lsr #4
     bc8:	008b0101 	addeq	r0, fp, r1, lsl #2
     bcc:	00030000 	andeq	r0, r3, r0
     bd0:	00000073 	andeq	r0, r0, r3, ror r0
     bd4:	0efb0102 	cdpeq	1, 15, cr0, cr11, cr2, {0}
     bd8:	0101000d 	tsteq	r1, sp
     bdc:	00000101 	andeq	r0, r0, r1, lsl #2
     be0:	00000100 	andeq	r0, r0, r0, lsl #2
     be4:	61747301 	cmnvs	r4, r1, lsl #6
     be8:	732d6666 			; <UNDEFINED> instruction: 0x732d6666
     bec:	2f006372 	svccs	0x00006372
     bf0:	72657355 	rsbvc	r7, r5, #1409286145	; 0x54000001
     bf4:	64612f73 	strbtvs	r2, [r1], #-3955	; 0xfffff08d
     bf8:	6e616972 			; <UNDEFINED> instruction: 0x6e616972
     bfc:	7472616d 	ldrbtvc	r6, [r2], #-365	; 0xfffffe93
     c00:	7a656e69 	bvc	195c5ac <__bss_end__+0x19531fc>
     c04:	6f72702f 	svcvs	0x0072702f
     c08:	7463656a 	strbtvc	r6, [r3], #-1386	; 0xfffffa96
     c0c:	73632f73 	cmnvc	r3, #460	; 0x1cc
     c10:	65303431 	ldrvs	r3, [r0, #-1073]!	; 0xfffffbcf
     c14:	7331322d 	teqvc	r1, #-805306366	; 0xd0000002
     c18:	6c2f7270 	sfmvs	f7, 4, [pc], #-448	; a60 <__code_start__-0x75a0>
     c1c:	69706269 	ldmdbvs	r0!, {r0, r3, r5, r6, r9, sp, lr}^
     c20:	636e692f 	cmnvs	lr, #770048	; 0xbc000
     c24:	6564756c 	strbvs	r7, [r4, #-1388]!	; 0xfffffa94
     c28:	75630000 	strbvc	r0, [r3, #-0]!
     c2c:	6d6f7473 	cfstrdvs	mvd7, [pc, #-460]!	; a68 <__code_start__-0x7598>
     c30:	616f6c2d 	cmnvs	pc, sp, lsr #24
     c34:	2e726564 	cdpcs	5, 7, cr6, cr2, cr4, {3}
     c38:	00010063 	andeq	r0, r1, r3, rrx
     c3c:	69707200 	ldmdbvs	r0!, {r9, ip, sp, lr}^
     c40:	0200682e 	andeq	r6, r0, #3014656	; 0x2e0000
     c44:	05000000 	streq	r0, [r0, #-0]
     c48:	0205001a 	andeq	r0, r5, #26, 0
     c4c:	00008958 	andeq	r8, r0, r8, asr r9
     c50:	14010515 	strne	r0, [r1], #-1301	; 0xfffffaeb
     c54:	01000202 	tsteq	r0, r2, lsl #4
     c58:	0000dc01 	andeq	sp, r0, r1, lsl #24
     c5c:	6c000300 	stcvs	3, cr0, [r0], {-0}
     c60:	02000000 	andeq	r0, r0, #0, 0
     c64:	0d0efb01 	vstreq	d15, [lr, #-4]
     c68:	01010100 	mrseq	r0, (UNDEF: 17)
     c6c:	00000001 	andeq	r0, r0, r1
     c70:	01000001 	tsteq	r0, r1
     c74:	66617473 			; <UNDEFINED> instruction: 0x66617473
     c78:	72732d66 	rsbsvc	r2, r3, #6528	; 0x1980
     c7c:	552f0063 	strpl	r0, [pc, #-99]!	; c21 <__code_start__-0x73df>
     c80:	73726573 	cmnvc	r2, #482344960	; 0x1cc00000
     c84:	7264612f 	rsbvc	r6, r4, #-1073741813	; 0xc000000b
     c88:	6d6e6169 	stfvse	f6, [lr, #-420]!	; 0xfffffe5c
     c8c:	69747261 	ldmdbvs	r4!, {r0, r5, r6, r9, ip, sp, lr}^
     c90:	2f7a656e 	svccs	0x007a656e
     c94:	6a6f7270 	bvs	1bdd65c <__bss_end__+0x1bd42ac>
     c98:	73746365 	cmnvc	r4, #-1811939327	; 0x94000001
     c9c:	3173632f 	cmncc	r3, pc, lsr #6
     ca0:	2d653034 	stclcs	0, cr3, [r5, #-208]!	; 0xffffff30
     ca4:	70733132 	rsbsvc	r3, r3, r2, lsr r1
     ca8:	696c2f72 	stmdbvs	ip!, {r1, r4, r5, r6, r8, r9, sl, fp, sp}^
     cac:	2f697062 	svccs	0x00697062
     cb0:	6c636e69 	stclvs	14, cr6, [r3], #-420	; 0xfffffe5c
     cb4:	00656475 	rsbeq	r6, r5, r5, ror r4
     cb8:	62657200 	rsbvs	r7, r5, #0, 4
     cbc:	2e746f6f 	cdpcs	15, 7, cr6, cr4, cr15, {3}
     cc0:	00010063 	andeq	r0, r1, r3, rrx
     cc4:	69707200 	ldmdbvs	r0!, {r9, ip, sp, lr}^
     cc8:	0200682e 	andeq	r6, r0, #3014656	; 0x2e0000
     ccc:	05000000 	streq	r0, [r0, #-0]
     cd0:	02050019 	andeq	r0, r5, #25, 0
     cd4:	0000895c 	andeq	r8, r0, ip, asr r9
     cd8:	05010d03 	streq	r0, [r1, #-3331]	; 0xfffff2fd
     cdc:	31131305 	tstcc	r3, r5, lsl #6
     ce0:	01061305 	tsteq	r6, r5, lsl #6
     ce4:	052f0105 	streq	r0, [pc, #-261]!	; be7 <__code_start__-0x7419>
     ce8:	0585061b 	streq	r0, [r5, #1563]	; 0x61b
     cec:	05141305 	ldreq	r1, [r4, #-773]	; 0xfffffcfb
     cf0:	16052f09 	strne	r2, [r5], -r9, lsl #30
     cf4:	0e050106 	adfeqs	f0, f5, f6
     cf8:	0605052e 	streq	r0, [r5], -lr, lsr #10
     cfc:	0601052f 	streq	r0, [r1], -pc, lsr #10
     d00:	0617052f 	ldreq	r0, [r7], -pc, lsr #10
     d04:	2f050530 	svccs	0x00050530
     d08:	01060805 	tsteq	r6, r5, lsl #16
     d0c:	052e0705 	streq	r0, [lr, #-1797]!	; 0xfffff8fb
     d10:	0b030605 	bleq	c252c <__bss_end__+0xb917c>
     d14:	134d2f4a 	movtne	r2, #57162	; 0xdf4a
     d18:	67151313 			; <UNDEFINED> instruction: 0x67151313
     d1c:	01040200 	mrseq	r0, R12_usr
     d20:	000d0567 	andeq	r0, sp, r7, ror #10
     d24:	01010402 	tsteq	r1, r2, lsl #8
     d28:	02000a05 	andeq	r0, r0, #20480	; 0x5000
     d2c:	05010104 	streq	r0, [r1, #-260]	; 0xfffffefc
     d30:	2e6a0309 	cdpcs	3, 6, cr0, cr10, cr9, {0}
     d34:	01000c02 	tsteq	r0, r2, lsl #24
     d38:	0000fd01 	andeq	pc, r0, r1, lsl #26
     d3c:	6b000300 	blvs	1944 <__code_start__-0x66bc>
     d40:	02000000 	andeq	r0, r0, #0, 0
     d44:	0d0efb01 	vstreq	d15, [lr, #-4]
     d48:	01010100 	mrseq	r0, (UNDEF: 17)
     d4c:	00000001 	andeq	r0, r0, r1
     d50:	01000001 	tsteq	r0, r1
     d54:	66617473 			; <UNDEFINED> instruction: 0x66617473
     d58:	72732d66 	rsbsvc	r2, r3, #6528	; 0x1980
     d5c:	552f0063 	strpl	r0, [pc, #-99]!	; d01 <__code_start__-0x72ff>
     d60:	73726573 	cmnvc	r2, #482344960	; 0x1cc00000
     d64:	7264612f 	rsbvc	r6, r4, #-1073741813	; 0xc000000b
     d68:	6d6e6169 	stfvse	f6, [lr, #-420]!	; 0xfffffe5c
     d6c:	69747261 	ldmdbvs	r4!, {r0, r5, r6, r9, ip, sp, lr}^
     d70:	2f7a656e 	svccs	0x007a656e
     d74:	6a6f7270 	bvs	1bdd73c <__bss_end__+0x1bd438c>
     d78:	73746365 	cmnvc	r4, #-1811939327	; 0x94000001
     d7c:	3173632f 	cmncc	r3, pc, lsr #6
     d80:	2d653034 	stclcs	0, cr3, [r5, #-208]!	; 0xffffff30
     d84:	70733132 	rsbsvc	r3, r3, r2, lsr r1
     d88:	696c2f72 	stmdbvs	ip!, {r1, r4, r5, r6, r8, r9, sl, fp, sp}^
     d8c:	2f697062 	svccs	0x00697062
     d90:	6c636e69 	stclvs	14, cr6, [r3], #-420	; 0xfffffe5c
     d94:	00656475 	rsbeq	r6, r5, r5, ror r4
     d98:	6d697400 	cfstrdvs	mvd7, [r9, #-0]
     d9c:	632e7265 			; <UNDEFINED> instruction: 0x632e7265
     da0:	00000100 	andeq	r0, r0, r0, lsl #2
     da4:	2e697072 	mcrcs	0, 3, r7, cr9, cr2, {3}
     da8:	00020068 	andeq	r0, r2, r8, rrx
     dac:	23050000 	movwcs	r0, #20480	; 0x5000
     db0:	d8020500 	stmdale	r2, {r8, sl}
     db4:	16000089 	strne	r0, [r0], -r9, lsl #1
     db8:	05140505 	ldreq	r0, [r4, #-1285]	; 0xfffffafb
     dbc:	1005010a 	andne	r0, r5, sl, lsl #2
     dc0:	0a050106 	beq	1411e0 <__bss_end__+0x137e30>
     dc4:	0609052e 	streq	r0, [r9], -lr, lsr #10
     dc8:	0610054b 	ldreq	r0, [r0], -fp, asr #10
     dcc:	0623052d 	strteq	r0, [r3], -sp, lsr #10
     dd0:	054a0a03 	strbeq	r0, [sl, #-2563]	; 0xfffff5fd
     dd4:	0c052f05 	stceq	15, cr2, [r5], {5}
     dd8:	01050106 	tsteq	r5, r6, lsl #2
     ddc:	061f054b 	ldreq	r0, [pc], -fp, asr #10
     de0:	3105054d 	tstcc	r5, sp, asr #10
     de4:	0612052f 	ldreq	r0, [r2], -pc, lsr #10
     de8:	06050501 	streq	r0, [r5], -r1, lsl #10
     dec:	01052f4b 	tsteq	r5, fp, asr #30
     df0:	1c051306 	stcne	3, cr1, [r5], {6}
     df4:	01064c06 	tsteq	r6, r6, lsl #24
     df8:	4b060505 	blmi	182214 <__bss_end__+0x178e64>
     dfc:	01061305 	tsteq	r6, r5, lsl #6
     e00:	0605052e 	streq	r0, [r5], -lr, lsr #10
     e04:	1309052f 	movwne	r0, #38191	; 0x952f
     e08:	01061705 	tsteq	r6, r5, lsl #14
     e0c:	2f060905 	svccs	0x00060905
     e10:	01061105 	tsteq	r6, r5, lsl #2
     e14:	052e0c05 	streq	r0, [lr, #-3077]!	; 0xfffff3fb
     e18:	066b061c 			; <UNDEFINED> instruction: 0x066b061c
     e1c:	06050501 	streq	r0, [r5], -r1, lsl #10
     e20:	054a062f 	strbeq	r0, [sl, #-1583]	; 0xfffff9d1
     e24:	1e054b01 	vmlane.f64	d4, d5, d1
     e28:	01062f06 	tsteq	r6, r6, lsl #30
     e2c:	2f060505 	svccs	0x00060505
     e30:	01054a06 	tsteq	r5, r6, lsl #20
     e34:	0002024b 	andeq	r0, r2, fp, asr #4
     e38:	01b50101 			; <UNDEFINED> instruction: 0x01b50101
     e3c:	00030000 	andeq	r0, r3, r0
     e40:	0000009e 	muleq	r0, lr, r0
     e44:	0efb0102 	cdpeq	1, 15, cr0, cr11, cr2, {0}
     e48:	0101000d 	tsteq	r1, sp
     e4c:	00000101 	andeq	r0, r0, r1, lsl #2
     e50:	00000100 	andeq	r0, r0, r0, lsl #2
     e54:	6f682f01 	svcvs	0x00682f01
     e58:	652f656d 	strvs	r6, [pc, #-1389]!	; 8f3 <__code_start__-0x770d>
     e5c:	656c676e 	strbvs	r6, [ip, #-1902]!	; 0xfffff892
     e60:	6c632f72 	stclvs	15, cr2, [r3], #-456	; 0xfffffe38
     e64:	2f737361 	svccs	0x00737361
     e68:	34317363 	ldrtcc	r7, [r1], #-867	; 0xfffffc9d
     e6c:	322d6530 	eorcc	r6, sp, #48, 10	; 0xc000000
     e70:	72707331 	rsbsvc	r7, r0, #-1006632960	; 0xc4000000
     e74:	696c2f2f 	stmdbvs	ip!, {r0, r1, r2, r3, r5, r8, r9, sl, fp, sp}^
     e78:	2f697062 	svccs	0x00697062
     e7c:	6c636e69 	stclvs	14, cr6, [r3], #-420	; 0xfffffe5c
     e80:	00656475 	rsbeq	r6, r5, r5, ror r4
     e84:	7273752f 	rsbsvc	r7, r3, #197132288	; 0xbc00000
     e88:	62696c2f 	rsbvs	r6, r9, #12032	; 0x2f00
     e8c:	6363672f 	cmnvs	r3, #12320768	; 0xbc0000
     e90:	6d72612f 	ldfvse	f6, [r2, #-188]!	; 0xffffff44
     e94:	6e6f6e2d 	cdpvs	14, 6, cr6, cr15, cr13, {1}
     e98:	61652d65 	cmnvs	r5, r5, ror #26
     e9c:	392f6962 	stmdbcc	pc!, {r1, r5, r6, r8, fp, sp, lr}	; <UNPREDICTABLE>
     ea0:	312e322e 			; <UNDEFINED> instruction: 0x312e322e
     ea4:	636e692f 	cmnvs	lr, #770048	; 0xbc000
     ea8:	6564756c 	strbvs	r7, [r4, #-1388]!	; 0xfffffa94
     eac:	61750000 	cmnvs	r5, r0
     eb0:	632e7472 			; <UNDEFINED> instruction: 0x632e7472
     eb4:	00000000 	andeq	r0, r0, r0
     eb8:	2e697072 	mcrcs	0, 3, r7, cr9, cr2, {3}
     ebc:	00010068 	andeq	r0, r1, r8, rrx
     ec0:	72617500 	rsbvc	r7, r1, #0, 10
     ec4:	00682e74 	rsbeq	r2, r8, r4, ror lr
     ec8:	67000001 	strvs	r0, [r0, -r1]
     ecc:	2e6f6970 			; <UNDEFINED> instruction: 0x2e6f6970
     ed0:	00010068 	andeq	r0, r1, r8, rrx
     ed4:	64747300 	ldrbtvs	r7, [r4], #-768	; 0xfffffd00
     ed8:	2e746e69 	cdpcs	14, 7, cr6, cr4, cr9, {3}
     edc:	00020068 	andeq	r0, r2, r8, rrx
     ee0:	38050000 	stmdacc	r5, {}	; <UNPREDICTABLE>
     ee4:	8c020500 	cfstr32hi	mvfx0, [r2], {-0}
     ee8:	0300008a 	movweq	r0, #138	; 0x8a
     eec:	0106012d 	tsteq	r6, sp, lsr #2
     ef0:	67060505 	strvs	r0, [r6, -r5, lsl #10]
     ef4:	01061105 	tsteq	r6, r5, lsl #2
     ef8:	052e0505 	streq	r0, [lr, #-1285]!	; 0xfffffafb
     efc:	16056701 	strne	r6, [r5], -r1, lsl #14
     f00:	2e0b0306 	cdpcs	3, 0, cr0, cr11, cr6, {0}
     f04:	67350505 	ldrvs	r0, [r5, -r5, lsl #10]!
     f08:	03683568 	cmneq	r8, #104, 10	; 0x1a000000
     f0c:	6b852e0c 	blvs	fe14c744 <__bss_end__+0xfe143394>
     f10:	0c036969 			; <UNDEFINED> instruction: 0x0c036969
     f14:	676b1366 	strbvs	r1, [fp, -r6, ror #6]!
     f18:	2f060105 	svccs	0x00060105
     f1c:	08061905 	stmdaeq	r6, {r0, r2, r8, fp, ip}
     f20:	34050525 	strcc	r0, [r5], #-1317	; 0xfffffadb
     f24:	01060d05 	tsteq	r6, r5, lsl #26
     f28:	054c0105 	strbeq	r0, [ip, #-261]	; 0xfffffefb
     f2c:	05670619 	strbeq	r0, [r7, #-1561]!	; 0xfffff9e7
     f30:	0d053605 	stceq	6, cr3, [r5, #-20]	; 0xffffffec
     f34:	28050106 	stmdacs	r5, {r1, r2, r8}
     f38:	3001054a 	andcc	r0, r1, sl, asr #10
     f3c:	87061505 	strhi	r1, [r6, -r5, lsl #10]
     f40:	2f2f0505 	svccs	0x002f0505
     f44:	02000905 	andeq	r0, r0, #81920	; 0x14000
     f48:	05130104 	ldreq	r0, [r3, #-260]	; 0xfffffefc
     f4c:	0402000a 	streq	r0, [r2], #-10
     f50:	0c051101 	stfeqs	f1, [r5], {1}
     f54:	01040200 	mrseq	r0, R12_usr
     f58:	0a050106 	beq	141378 <__bss_end__+0x137fc8>
     f5c:	01040200 	mrseq	r0, R12_usr
     f60:	0605052e 	streq	r0, [r5], -lr, lsr #10
     f64:	060e054c 	streq	r0, [lr], -ip, asr #10
     f68:	4a090501 	bmi	242374 <__bss_end__+0x238fc4>
     f6c:	2f060505 	svccs	0x00060505
     f70:	0601052f 	streq	r0, [r1], -pc, lsr #10
     f74:	061c0513 			; <UNDEFINED> instruction: 0x061c0513
     f78:	05010667 	streq	r0, [r1, #-1639]	; 0xfffff999
     f7c:	2f4b0605 	svccs	0x004b0605
     f80:	02000905 	andeq	r0, r0, #81920	; 0x14000
     f84:	05130104 	ldreq	r0, [r3, #-260]	; 0xfffffefc
     f88:	0402000a 	streq	r0, [r2], #-10
     f8c:	0c051101 	stfeqs	f1, [r5], {1}
     f90:	01040200 	mrseq	r0, R12_usr
     f94:	0a050106 	beq	1413b4 <__bss_end__+0x138004>
     f98:	01040200 	mrseq	r0, R12_usr
     f9c:	0605052e 	streq	r0, [r5], -lr, lsr #10
     fa0:	0105674c 	tsteq	r5, ip, asr #14
     fa4:	19052f06 	stmdbne	r5, {r1, r2, r8, r9, sl, fp, sp}
     fa8:	1b054c06 	blne	153fc8 <__bss_end__+0x14ac18>
     fac:	2e2a052e 	cfsh64cs	mvdx0, mvdx10, #30
     fb0:	01063105 	tsteq	r6, r5, lsl #2
     fb4:	052e0105 	streq	r0, [lr, #-261]!	; 0xfffffefb
     fb8:	0531061c 	ldreq	r0, [r1, #-1564]!	; 0xfffff9e4
     fbc:	09032f05 	stmdbeq	r3, {r0, r2, r8, r9, sl, fp, sp}
     fc0:	060e052e 	streq	r0, [lr], -lr, lsr #10
     fc4:	4a210501 	bmi	8423d0 <__bss_end__+0x839020>
     fc8:	0a030105 	beq	c13e4 <__bss_end__+0xb8034>
     fcc:	061a052e 	ldreq	r0, [sl], -lr, lsr #10
     fd0:	00090568 	andeq	r0, r9, r8, ror #10
     fd4:	30010402 	andcc	r0, r1, r2, lsl #8
     fd8:	02000a05 	andeq	r0, r0, #20480	; 0x5000
     fdc:	05110104 	ldreq	r0, [r1, #-260]	; 0xfffffefc
     fe0:	0402000c 	streq	r0, [r2], #-12
     fe4:	05010601 	streq	r0, [r1, #-1537]	; 0xfffff9ff
     fe8:	0402000a 	streq	r0, [r2], #-10
     fec:	06022e01 	streq	r2, [r2], -r1, lsl #28
     ff0:	89010100 	stmdbhi	r1, {r8}
     ff4:	03000001 	movweq	r0, #1
     ff8:	0000d700 	andeq	sp, r0, r0, lsl #14
     ffc:	fb010200 	blx	41806 <__bss_end__+0x38456>
    1000:	01000d0e 	tsteq	r0, lr, lsl #26
    1004:	00010101 	andeq	r0, r1, r1, lsl #2
    1008:	00010000 	andeq	r0, r1, r0
    100c:	72730100 	rsbsvc	r0, r3, #0
    1010:	552f0063 	strpl	r0, [pc, #-99]!	; fb5 <__code_start__-0x704b>
    1014:	73726573 	cmnvc	r2, #482344960	; 0x1cc00000
    1018:	7264612f 	rsbvc	r6, r4, #-1073741813	; 0xc000000b
    101c:	6d6e6169 	stfvse	f6, [lr, #-420]!	; 0xfffffe5c
    1020:	69747261 	ldmdbvs	r4!, {r0, r5, r6, r9, ip, sp, lr}^
    1024:	2f7a656e 	svccs	0x007a656e
    1028:	6a6f7270 	bvs	1bdd9f0 <__bss_end__+0x1bd4640>
    102c:	73746365 	cmnvc	r4, #-1811939327	; 0x94000001
    1030:	3173632f 	cmncc	r3, pc, lsr #6
    1034:	2d653034 	stclcs	0, cr3, [r5, #-208]!	; 0xffffff30
    1038:	70733132 	rsbsvc	r3, r3, r2, lsr r1
    103c:	696c2f72 	stmdbvs	ip!, {r1, r4, r5, r6, r8, r9, sl, fp, sp}^
    1040:	2f697062 	svccs	0x00697062
    1044:	6c636e69 	stclvs	14, cr6, [r3], #-420	; 0xfffffe5c
    1048:	00656475 	rsbeq	r6, r5, r5, ror r4
    104c:	7273752f 	rsbsvc	r7, r3, #197132288	; 0xbc00000
    1050:	636f6c2f 	cmnvs	pc, #12032	; 0x2f00
    1054:	432f6c61 			; <UNDEFINED> instruction: 0x432f6c61
    1058:	616c6c65 	cmnvs	ip, r5, ror #24
    105c:	72612f72 	rsbvc	r2, r1, #456	; 0x1c8
    1060:	6f6e2d6d 	svcvs	0x006e2d6d
    1064:	652d656e 	strvs	r6, [sp, #-1390]!	; 0xfffffa92
    1068:	2d696261 	sfmcs	f6, 2, [r9, #-388]!	; 0xfffffe7c
    106c:	74736574 	ldrbtvc	r6, [r3], #-1396	; 0xfffffa8c
    1070:	322d392f 	eorcc	r3, sp, #770048	; 0xbc000
    1074:	71393130 	teqvc	r9, r0, lsr r1
    1078:	73632d34 	cmnvc	r3, #52, 26	; 0xd00
    107c:	65373031 	ldrvs	r3, [r7, #-49]!	; 0xffffffcf
    1080:	62696c2f 	rsbvs	r6, r9, #12032	; 0x2f00
    1084:	6363672f 	cmnvs	r3, #12320768	; 0xbc0000
    1088:	6d72612f 	ldfvse	f6, [r2, #-188]!	; 0xffffff44
    108c:	6e6f6e2d 	cdpvs	14, 6, cr6, cr15, cr13, {1}
    1090:	61652d65 	cmnvs	r5, r5, ror #26
    1094:	392f6962 	stmdbcc	pc!, {r1, r5, r6, r8, fp, sp, lr}	; <UNPREDICTABLE>
    1098:	312e322e 			; <UNDEFINED> instruction: 0x312e322e
    109c:	636e692f 	cmnvs	lr, #770048	; 0xbc000
    10a0:	6564756c 	strbvs	r7, [r4, #-1388]!	; 0xfffffa94
    10a4:	70670000 	rsbvc	r0, r7, r0
    10a8:	632e6f69 			; <UNDEFINED> instruction: 0x632e6f69
    10ac:	00000100 	andeq	r0, r0, r0, lsl #2
    10b0:	2e697072 	mcrcs	0, 3, r7, cr9, cr2, {3}
    10b4:	00020068 	andeq	r0, r2, r8, rrx
    10b8:	64747300 	ldrbtvs	r7, [r4], #-768	; 0xfffffd00
    10bc:	2d746e69 	ldclcs	14, cr6, [r4, #-420]!	; 0xfffffe5c
    10c0:	2e636367 	cdpcs	3, 6, cr6, cr3, cr7, {3}
    10c4:	00030068 	andeq	r0, r3, r8, rrx
    10c8:	69706700 	ldmdbvs	r0!, {r8, r9, sl, sp, lr}^
    10cc:	00682e6f 	rsbeq	r2, r8, pc, ror #28
    10d0:	00000002 	andeq	r0, r0, r2
    10d4:	05003605 	streq	r3, [r0, #-1541]	; 0xfffff9fb
    10d8:	008c3802 	addeq	r3, ip, r2, lsl #16
    10dc:	01130300 	tsteq	r3, r0, lsl #6
    10e0:	05050106 	streq	r0, [r5, #-262]	; 0xfffffefa
    10e4:	28056706 	stmdacs	r5, {r1, r2, r8, r9, sl, sp, lr}
    10e8:	22050106 	andcs	r0, r5, #-2147483647	; 0x80000001
    10ec:	4a0e0566 	bmi	38268c <__bss_end__+0x3792dc>
    10f0:	2f060505 	svccs	0x00060505
    10f4:	01061805 	tsteq	r6, r5, lsl #16
    10f8:	0605052e 	streq	r0, [r5], -lr, lsr #10
    10fc:	061f052f 	ldreq	r0, [pc], -pc, lsr #10
    1100:	4a0e0501 	bmi	38250c <__bss_end__+0x37915c>
    1104:	2f060505 	svccs	0x00060505
    1108:	01061d05 	tsteq	r6, r5, lsl #26
    110c:	4a4a0505 	bmi	1282528 <__bss_end__+0x1279178>
    1110:	052f0105 	streq	r0, [pc, #-261]!	; 1013 <__code_start__-0x6fed>
    1114:	0a030624 	beq	c29ac <__bss_end__+0xb95fc>
    1118:	0501064a 	streq	r0, [r1, #-1610]	; 0xfffff9b6
    111c:	052f0605 	streq	r0, [pc, #-1541]!	; b1f <__code_start__-0x74e1>
    1120:	054b0601 	strbeq	r0, [fp, #-1537]	; 0xfffff9ff
    1124:	06310620 	ldrteq	r0, [r1], -r0, lsr #12
    1128:	06050501 	streq	r0, [r5], -r1, lsl #10
    112c:	0566062f 	strbeq	r0, [r6, #-1583]!	; 0xfffff9d1
    1130:	21052f01 	tstcs	r5, r1, lsl #30
    1134:	01064d06 	tsteq	r6, r6, lsl #26
    1138:	2f060505 	svccs	0x00060505
    113c:	01056606 	tsteq	r5, r6, lsl #12
    1140:	062b052f 	strteq	r0, [fp], -pc, lsr #10
    1144:	0501064d 	streq	r0, [r1, #-1613]	; 0xfffff9b3
    1148:	052f0605 	streq	r0, [pc, #-1541]!	; b4b <__code_start__-0x74b5>
    114c:	05010607 	streq	r0, [r1, #-1543]	; 0xfffff9f9
    1150:	064b0608 	strbeq	r0, [fp], -r8, lsl #12
    1154:	0530062e 	ldreq	r0, [r0, #-1582]!	; 0xfffff9d2
    1158:	052f0601 	streq	r0, [pc, #-1537]!	; b5f <__code_start__-0x74a1>
    115c:	06350623 	ldrteq	r0, [r5], -r3, lsr #12
    1160:	06050501 	streq	r0, [r5], -r1, lsl #10
    1164:	0601052f 	streq	r0, [r1], -pc, lsr #10
    1168:	061d054b 	ldreq	r0, [sp], -fp, asr #10
    116c:	05010631 	streq	r0, [r1, #-1585]	; 0xfffff9cf
    1170:	054d0605 	strbeq	r0, [sp, #-1541]	; 0xfffff9fb
    1174:	2e01060c 	cfmadd32cs	mvax0, mvfx0, mvfx1, mvfx12
    1178:	022f0105 	eoreq	r0, pc, #1073741825	; 0x40000001
    117c:	01010008 	tsteq	r1, r8
    1180:	000000a6 	andeq	r0, r0, r6, lsr #1
    1184:	00680003 	rsbeq	r0, r8, r3
    1188:	01020000 	mrseq	r0, (UNDEF: 2)
    118c:	000d0efb 	strdeq	r0, [sp], -fp
    1190:	01010101 	tsteq	r1, r1, lsl #2
    1194:	01000000 	mrseq	r0, (UNDEF: 0)
    1198:	6c010000 	stcvs	0, cr0, [r1], {-0}
    119c:	00636269 	rsbeq	r6, r3, r9, ror #4
    11a0:	6573552f 	ldrbvs	r5, [r3, #-1327]!	; 0xfffffad1
    11a4:	612f7372 			; <UNDEFINED> instruction: 0x612f7372
    11a8:	61697264 	cmnvs	r9, r4, ror #4
    11ac:	72616d6e 	rsbvc	r6, r1, #7040	; 0x1b80
    11b0:	656e6974 	strbvs	r6, [lr, #-2420]!	; 0xfffff68c
    11b4:	72702f7a 	rsbsvc	r2, r0, #488	; 0x1e8
    11b8:	63656a6f 	cmnvs	r5, #454656	; 0x6f000
    11bc:	632f7374 			; <UNDEFINED> instruction: 0x632f7374
    11c0:	30343173 	eorscc	r3, r4, r3, ror r1
    11c4:	31322d65 	teqcc	r2, r5, ror #26
    11c8:	2f727073 	svccs	0x00727073
    11cc:	7062696c 	rsbvc	r6, r2, ip, ror #18
    11d0:	6e692f69 	cdpvs	15, 6, cr2, cr9, cr9, {3}
    11d4:	64756c63 	ldrbtvs	r6, [r5], #-3171	; 0xfffff39d
    11d8:	70000065 	andvc	r0, r0, r5, rrx
    11dc:	68637475 	stmdavs	r3!, {r0, r2, r4, r5, r6, sl, ip, sp, lr}^
    11e0:	632e7261 			; <UNDEFINED> instruction: 0x632e7261
    11e4:	00000100 	andeq	r0, r0, r0, lsl #2
    11e8:	2e697072 	mcrcs	0, 3, r7, cr9, cr2, {3}
    11ec:	00020068 	andeq	r0, r2, r8, rrx
    11f0:	24050000 	strcs	r0, [r5], #-0
    11f4:	20020500 	andcs	r0, r2, r0, lsl #10
    11f8:	1400008d 	strne	r0, [r0], #-141	; 0xffffff73
    11fc:	26050106 	strcs	r0, [r5], -r6, lsl #2
    1200:	34054a06 	strcc	r4, [r5], #-2566	; 0xfffff5fa
    1204:	0601052e 	streq	r0, [r1], -lr, lsr #10
    1208:	061b0501 	ldreq	r0, [fp], -r1, lsl #10
    120c:	1305054f 	movwne	r0, #21839	; 0x554f
    1210:	01061105 	tsteq	r6, r5, lsl #2
    1214:	05670105 	strbeq	r0, [r7, #-261]!	; 0xfffffefb
    1218:	05670623 	strbeq	r0, [r7, #-1571]!	; 0xfffff9dd
    121c:	11051305 	tstne	r5, r5, lsl #6
    1220:	01050106 	tsteq	r5, r6, lsl #2
    1224:	0004024b 	andeq	r0, r4, fp, asr #4
    1228:	00f20101 	rscseq	r0, r2, r1, lsl #2
    122c:	00030000 	andeq	r0, r3, r0
    1230:	00000067 	andeq	r0, r0, r7, rrx
    1234:	0efb0102 	cdpeq	1, 15, cr0, cr11, cr2, {0}
    1238:	0101000d 	tsteq	r1, sp
    123c:	00000101 	andeq	r0, r0, r1, lsl #2
    1240:	00000100 	andeq	r0, r0, r0, lsl #2
    1244:	62696c01 	rsbvs	r6, r9, #256	; 0x100
    1248:	552f0063 	strpl	r0, [pc, #-99]!	; 11ed <__code_start__-0x6e13>
    124c:	73726573 	cmnvc	r2, #482344960	; 0x1cc00000
    1250:	7264612f 	rsbvc	r6, r4, #-1073741813	; 0xc000000b
    1254:	6d6e6169 	stfvse	f6, [lr, #-420]!	; 0xfffffe5c
    1258:	69747261 	ldmdbvs	r4!, {r0, r5, r6, r9, ip, sp, lr}^
    125c:	2f7a656e 	svccs	0x007a656e
    1260:	6a6f7270 	bvs	1bddc28 <__bss_end__+0x1bd4878>
    1264:	73746365 	cmnvc	r4, #-1811939327	; 0x94000001
    1268:	3173632f 	cmncc	r3, pc, lsr #6
    126c:	2d653034 	stclcs	0, cr3, [r5, #-208]!	; 0xffffff30
    1270:	70733132 	rsbsvc	r3, r3, r2, lsr r1
    1274:	696c2f72 	stmdbvs	ip!, {r1, r4, r5, r6, r8, r9, sl, fp, sp}^
    1278:	2f697062 	svccs	0x00697062
    127c:	6c636e69 	stclvs	14, cr6, [r3], #-420	; 0xfffffe5c
    1280:	00656475 	rsbeq	r6, r5, r5, ror r4
    1284:	72747300 	rsbsvc	r7, r4, #0, 6
    1288:	2e746163 	rpwcssz	f6, f4, f3
    128c:	00010063 	andeq	r0, r1, r3, rrx
    1290:	69707200 	ldmdbvs	r0!, {r9, ip, sp, lr}^
    1294:	0200682e 	andeq	r6, r0, #3014656	; 0x2e0000
    1298:	05000000 	streq	r0, [r0, #-0]
    129c:	0205002c 	andeq	r0, r5, #44, 0	; 0x2c
    12a0:	00008d5c 	andeq	r8, r0, ip, asr sp
    12a4:	13050515 	movwne	r0, #21781	; 0x5515
    12a8:	060b0513 			; <UNDEFINED> instruction: 0x060b0513
    12ac:	00050511 	andeq	r0, r5, r1, lsl r5
    12b0:	06010402 	streq	r0, [r1], -r2, lsl #8
    12b4:	04020030 	streq	r0, [r2], #-48	; 0xffffffd0
    12b8:	09051501 	stmdbeq	r5, {r0, r8, sl, ip}
    12bc:	01040200 	mrseq	r0, R12_usr
    12c0:	00100513 	andseq	r0, r0, r3, lsl r5
    12c4:	06010402 	streq	r0, [r1], -r2, lsl #8
    12c8:	000b052e 	andeq	r0, fp, lr, lsr #10
    12cc:	2e010402 	cdpcs	4, 0, cr0, cr1, cr2, {0}
    12d0:	01040200 	mrseq	r0, R12_usr
    12d4:	05052f06 	streq	r2, [r5, #-3846]	; 0xfffff0fa
    12d8:	01040200 	mrseq	r0, R12_usr
    12dc:	4e060106 	adfmis	f0, f6, f6
    12e0:	01060805 	tsteq	r6, r5, lsl #16
    12e4:	02000505 	andeq	r0, r0, #20971520	; 0x1400000
    12e8:	2f060104 	svccs	0x00060104
    12ec:	02000905 	andeq	r0, r0, #81920	; 0x14000
    12f0:	05130104 	ldreq	r0, [r3, #-260]	; 0xfffffefc
    12f4:	0402000b 	streq	r0, [r2], #-11
    12f8:	05010601 	streq	r0, [r1, #-1537]	; 0xfffff9ff
    12fc:	04020009 	streq	r0, [r2], #-9
    1300:	054b0601 	strbeq	r0, [fp, #-1537]	; 0xfffff9ff
    1304:	0402000f 	streq	r0, [r2], #-15
    1308:	05010601 	streq	r0, [r1, #-1537]	; 0xfffff9ff
    130c:	0402000d 	streq	r0, [r2], #-13
    1310:	052f0601 	streq	r0, [pc, #-1537]!	; d17 <__code_start__-0x72e9>
    1314:	04020005 	streq	r0, [r2], #-5
    1318:	02010601 	andeq	r0, r1, #1048576	; 0x100000
    131c:	01010006 	tsteq	r1, r6
    1320:	00000109 	andeq	r0, r0, r9, lsl #2
    1324:	00cd0003 	sbceq	r0, sp, r3
    1328:	01020000 	mrseq	r0, (UNDEF: 2)
    132c:	000d0efb 	strdeq	r0, [sp], -fp
    1330:	01010101 	tsteq	r1, r1, lsl #2
    1334:	01000000 	mrseq	r0, (UNDEF: 0)
    1338:	6c010000 	stcvs	0, cr0, [r1], {-0}
    133c:	00636269 	rsbeq	r6, r3, r9, ror #4
    1340:	6573552f 	ldrbvs	r5, [r3, #-1327]!	; 0xfffffad1
    1344:	612f7372 			; <UNDEFINED> instruction: 0x612f7372
    1348:	61697264 	cmnvs	r9, r4, ror #4
    134c:	72616d6e 	rsbvc	r6, r1, #7040	; 0x1b80
    1350:	656e6974 	strbvs	r6, [lr, #-2420]!	; 0xfffff68c
    1354:	72702f7a 	rsbsvc	r2, r0, #488	; 0x1e8
    1358:	63656a6f 	cmnvs	r5, #454656	; 0x6f000
    135c:	632f7374 			; <UNDEFINED> instruction: 0x632f7374
    1360:	30343173 	eorscc	r3, r4, r3, ror r1
    1364:	31322d65 	teqcc	r2, r5, ror #26
    1368:	2f727073 	svccs	0x00727073
    136c:	7062696c 	rsbvc	r6, r2, ip, ror #18
    1370:	6e692f69 	cdpvs	15, 6, cr2, cr9, cr9, {3}
    1374:	64756c63 	ldrbtvs	r6, [r5], #-3171	; 0xfffff39d
    1378:	752f0065 	strvc	r0, [pc, #-101]!	; 131b <__code_start__-0x6ce5>
    137c:	6c2f7273 	sfmvs	f7, 4, [pc], #-460	; 11b8 <__code_start__-0x6e48>
    1380:	6c61636f 	stclvs	3, cr6, [r1], #-444	; 0xfffffe44
    1384:	6c65432f 	stclvs	3, cr4, [r5], #-188	; 0xffffff44
    1388:	2f72616c 	svccs	0x0072616c
    138c:	2d6d7261 	sfmcs	f7, 2, [sp, #-388]!	; 0xfffffe7c
    1390:	656e6f6e 	strbvs	r6, [lr, #-3950]!	; 0xfffff092
    1394:	6261652d 	rsbvs	r6, r1, #188743680	; 0xb400000
    1398:	65742d69 	ldrbvs	r2, [r4, #-3433]!	; 0xfffff297
    139c:	392f7473 	stmdbcc	pc!, {r0, r1, r4, r5, r6, sl, ip, sp, lr}	; <UNPREDICTABLE>
    13a0:	3130322d 	teqcc	r0, sp, lsr #4
    13a4:	2d347139 	ldfcss	f7, [r4, #-228]!	; 0xffffff1c
    13a8:	30317363 	eorscc	r7, r1, r3, ror #6
    13ac:	6c2f6537 	cfstr32vs	mvfx6, [pc], #-220	; 12d8 <__code_start__-0x6d28>
    13b0:	672f6269 	strvs	r6, [pc, -r9, ror #4]!
    13b4:	612f6363 			; <UNDEFINED> instruction: 0x612f6363
    13b8:	6e2d6d72 	mcrvs	13, 1, r6, cr13, cr2, {3}
    13bc:	2d656e6f 	stclcs	14, cr6, [r5, #-444]!	; 0xfffffe44
    13c0:	69626165 	stmdbvs	r2!, {r0, r2, r5, r6, r8, sp, lr}^
    13c4:	322e392f 	eorcc	r3, lr, #770048	; 0xbc000
    13c8:	692f312e 	stmdbvs	pc!, {r1, r2, r3, r5, r8, ip, sp}	; <UNPREDICTABLE>
    13cc:	756c636e 	strbvc	r6, [ip, #-878]!	; 0xfffffc92
    13d0:	00006564 	andeq	r6, r0, r4, ror #10
    13d4:	6e727473 	mrcvs	4, 3, r7, cr2, cr3, {3}
    13d8:	2e706d63 	cdpcs	13, 7, cr6, cr0, cr3, {3}
    13dc:	00010063 	andeq	r0, r1, r3, rrx
    13e0:	69707200 	ldmdbvs	r0!, {r9, ip, sp, lr}^
    13e4:	0200682e 	andeq	r6, r0, #3014656	; 0x2e0000
    13e8:	74730000 	ldrbtvc	r0, [r3], #-0
    13ec:	66656464 	strbtvs	r6, [r5], -r4, ror #8
    13f0:	0300682e 	movweq	r6, #2094	; 0x82e
    13f4:	05000000 	streq	r0, [r0, #-0]
    13f8:	02050039 	andeq	r0, r5, #57, 0	; 0x39
    13fc:	00008d90 	muleq	r0, r0, sp
    1400:	13050515 	movwne	r0, #21781	; 0x5515
    1404:	010a0513 	tsteq	sl, r3, lsl r5
    1408:	054a0106 	strbeq	r0, [sl, #-262]	; 0xfffffefa
    140c:	052f0609 	streq	r0, [pc, #-1545]!	; e0b <__code_start__-0x71f5>
    1410:	0501060c 	streq	r0, [r1, #-1548]	; 0xfffff9f4
    1414:	0b052e13 	bleq	14cc68 <__bss_end__+0x1438b8>
    1418:	060d052e 	streq	r0, [sp], -lr, lsr #10
    141c:	061b054b 	ldreq	r0, [fp], -fp, asr #10
    1420:	0c052e01 	stceq	14, cr2, [r5], {1}
    1424:	2f010530 	svccs	0x00010530
    1428:	01000202 	tsteq	r0, r2, lsl #4
    142c:	Address 0x000000000000142c is out of bounds.


Disassembly of section .debug_str:

00000000 <.debug_str>:
   0:	63617274 	cmnvs	r1, #116, 4	; 0x40000007
   4:	74735f65 	ldrbtvc	r5, [r3], #-3941	; 0xfffff09b
   8:	3100706f 	tstcc	r0, pc, rrx
   c:	7465732d 	strbtvc	r7, [r5], #-813	; 0xfffffcd3
  10:	6f2d6e2d 	svcvs	0x002d6e2d
  14:	75707475 	ldrbvc	r7, [r0, #-1141]!	; 0xfffffb8b
  18:	00632e74 	rsbeq	r2, r3, r4, ror lr
  1c:	6573552f 	ldrbvs	r5, [r3, #-1327]!	; 0xfffffad1
  20:	612f7372 			; <UNDEFINED> instruction: 0x612f7372
  24:	61697264 	cmnvs	r9, r4, ror #4
  28:	72616d6e 	rsbvc	r6, r1, #7040	; 0x1b80
  2c:	656e6974 	strbvs	r6, [lr, #-2420]!	; 0xfffff68c
  30:	72702f7a 	rsbsvc	r2, r0, #488	; 0x1e8
  34:	63656a6f 	cmnvs	r5, #454656	; 0x6f000
  38:	632f7374 			; <UNDEFINED> instruction: 0x632f7374
  3c:	30343173 	eorscc	r3, r4, r3, ror r1
  40:	31322d65 	teqcc	r2, r5, ror #26
  44:	2f727073 	svccs	0x00727073
  48:	7362616c 	cmnvc	r2, #27
  4c:	632d322f 			; <UNDEFINED> instruction: 0x632d322f
  50:	73736f72 	cmnvc	r3, #456	; 0x1c8
  54:	6568632d 	strbvs	r6, [r8, #-813]!	; 0xfffffcd3
  58:	322f6b63 	eorcc	r6, pc, #101376	; 0x18c00
  5c:	6172742d 	cmnvs	r2, sp, lsr #8
  60:	742f6563 	strtvc	r6, [pc], #-1379	; 68 <__code_start__-0x7f98>
  64:	73747365 	cmnvc	r4, #-1811939327	; 0x94000001
  68:	72617500 	rsbvc	r7, r1, #0, 10
  6c:	6e695f74 	mcrvs	15, 3, r5, cr9, cr4, {3}
  70:	75007469 	strvc	r7, [r0, #-1129]	; 0xfffffb97
  74:	6769736e 	strbvs	r7, [r9, -lr, ror #6]!
  78:	2064656e 	rsbcs	r6, r4, lr, ror #10
  7c:	72616863 	rsbvc	r6, r1, #6488064	; 0x630000
  80:	656c6300 	strbvs	r6, [ip, #-768]!	; 0xfffffd00
  84:	725f6e61 	subsvc	r6, pc, #1552	; 0x610
  88:	6f6f6265 	svcvs	0x006f6265
  8c:	72740074 	rsbsvc	r0, r4, #116, 0	; 0x74
  90:	5f656361 	svcpl	0x00656361
  94:	72617473 	rsbvc	r7, r1, #1929379840	; 0x73000000
  98:	68730074 	ldmdavs	r3!, {r2, r4, r5, r6}^
  9c:	2074726f 	rsbscs	r7, r4, pc, ror #4
  a0:	69736e75 	ldmdbvs	r3!, {r0, r2, r4, r5, r6, r9, sl, fp, sp, lr}^
  a4:	64656e67 	strbtvs	r6, [r5], #-3687	; 0xfffff199
  a8:	746e6920 	strbtvc	r6, [lr], #-2336	; 0xfffff6e0
  ac:	69706700 	ldmdbvs	r0!, {r8, r9, sl, sp, lr}^
  b0:	65735f6f 	ldrbvs	r5, [r3, #-3951]!	; 0xfffff091
  b4:	756f5f74 	strbvc	r5, [pc, #-3956]!	; fffff148 <__bss_end__+0xffff5d98>
  b8:	74757074 	ldrbtvc	r7, [r5], #-116	; 0xffffff8c
  bc:	6e6f6c00 	cdpvs	12, 6, cr6, cr15, cr0, {0}
  c0:	6f6c2067 	svcvs	0x006c2067
  c4:	7520676e 	strvc	r6, [r0, #-1902]!	; 0xfffff892
  c8:	6769736e 	strbvs	r7, [r9, -lr, ror #6]!
  cc:	2064656e 	rsbcs	r6, r4, lr, ror #10
  d0:	00746e69 	rsbseq	r6, r4, r9, ror #28
  d4:	676e6f6c 	strbvs	r6, [lr, -ip, ror #30]!
  d8:	6e6f6c20 	cdpvs	12, 6, cr6, cr15, cr0, {1}
  dc:	6e692067 	cdpvs	0, 6, cr2, cr9, cr7, {3}
  e0:	70720074 	rsbsvc	r0, r2, r4, ror r0
  e4:	75705f69 	ldrbvc	r5, [r0, #-3945]!	; 0xfffff097
  e8:	61686374 	smcvs	34356	; 0x8634
  ec:	68730072 	ldmdavs	r3!, {r1, r4, r5, r6}^
  f0:	2074726f 	rsbscs	r7, r4, pc, ror #4
  f4:	00746e69 	rsbseq	r6, r4, r9, ror #28
  f8:	20554e47 	subscs	r4, r5, r7, asr #28
  fc:	20393943 	eorscs	r3, r9, r3, asr #18
 100:	2e322e39 	mrccs	14, 1, r2, cr2, cr9, {1}
 104:	30322031 	eorscc	r2, r2, r1, lsr r0
 108:	30313931 	eorscc	r3, r1, r1, lsr r9
 10c:	28203532 	stmdacs	r0!, {r1, r4, r5, r8, sl, ip, sp}
 110:	656c6572 	strbvs	r6, [ip, #-1394]!	; 0xfffffa8e
 114:	29657361 	stmdbcs	r5!, {r0, r5, r6, r8, r9, ip, sp, lr}^
 118:	52415b20 	subpl	r5, r1, #32, 22	; 0x8000
 11c:	72612f4d 	rsbvc	r2, r1, #308	; 0x134
 120:	2d392d6d 	ldccs	13, cr2, [r9, #-436]!	; 0xfffffe4c
 124:	6e617262 	cdpvs	2, 6, cr7, cr1, cr2, {3}
 128:	72206863 	eorvc	r6, r0, #6488064	; 0x630000
 12c:	73697665 	cmnvc	r9, #105906176	; 0x6500000
 130:	206e6f69 	rsbcs	r6, lr, r9, ror #30
 134:	35373732 	ldrcc	r3, [r7, #-1842]!	; 0xfffff8ce
 138:	205d3939 	subscs	r3, sp, r9, lsr r9
 13c:	70636d2d 	rsbvc	r6, r3, sp, lsr #26
 140:	72613d75 	rsbvc	r3, r1, #7488	; 0x1d40
 144:	3731316d 	ldrcc	r3, [r1, -sp, ror #2]!
 148:	667a6a36 			; <UNDEFINED> instruction: 0x667a6a36
 14c:	2d20732d 	stccs	3, cr7, [r0, #-180]!	; 0xffffff4c
 150:	6e75746d 	cdpvs	4, 7, cr7, cr5, cr13, {3}
 154:	72613d65 	rsbvc	r3, r1, #6464	; 0x1940
 158:	3731316d 	ldrcc	r3, [r1, -sp, ror #2]!
 15c:	667a6a36 			; <UNDEFINED> instruction: 0x667a6a36
 160:	2d20732d 	stccs	3, cr7, [r0, #-180]!	; 0xffffff4c
 164:	6f6c666d 	svcvs	0x006c666d
 168:	612d7461 			; <UNDEFINED> instruction: 0x612d7461
 16c:	733d6962 	teqvc	sp, #1605632	; 0x188000
 170:	2074666f 	rsbscs	r6, r4, pc, ror #12
 174:	72616d2d 	rsbvc	r6, r1, #2880	; 0xb40
 178:	6d2d206d 	stcvs	0, cr2, [sp, #-436]!	; 0xfffffe4c
 17c:	68637261 	stmdavs	r3!, {r0, r5, r6, r9, ip, sp, lr}^
 180:	6d72613d 	ldfvse	f6, [r2, #-244]!	; 0xffffff0c
 184:	7a6b3676 	bvc	1acdb64 <__bss_end__+0x1ac47b4>
 188:	67672d20 	strbvs	r2, [r7, -r0, lsr #26]!
 18c:	2d206264 	sfmcs	f6, 4, [r0, #-400]!	; 0xfffffe70
 190:	2d20674f 	stccs	7, cr6, [r0, #-316]!	; 0xfffffec4
 194:	3d647473 	cfstrdcc	mvd7, [r4, #-460]!	; 0xfffffe34
 198:	39756e67 	ldmdbcc	r5!, {r0, r1, r2, r5, r6, r9, sl, fp, sp, lr}^
 19c:	662d2039 			; <UNDEFINED> instruction: 0x662d2039
 1a0:	65657266 	strbvs	r7, [r5, #-614]!	; 0xfffffd9a
 1a4:	6e617473 	mcrvs	4, 3, r7, cr1, cr3, {3}
 1a8:	676e6964 	strbvs	r6, [lr, -r4, ror #18]!
 1ac:	746f6e00 	strbtvc	r6, [pc], #-3584	; 1b4 <__code_start__-0x7e4c>
 1b0:	6e69616d 	powvsez	f6, f1, #5.0
 1b4:	725f5f00 	subsvc	r5, pc, #0, 30
 1b8:	5f6c6165 	svcpl	0x006c6165
 1bc:	33544547 	cmpcc	r4, #297795584	; 0x11c00000
 1c0:	74730032 	ldrbtvc	r0, [r3], #-50	; 0xffffffce
 1c4:	00657461 	rsbeq	r7, r5, r1, ror #8
 1c8:	74696d65 	strbtvc	r6, [r9], #-3429	; 0xfffff29b
 1cc:	7465675f 	strbtvc	r6, [r5], #-1887	; 0xfffff8a1
 1d0:	65003233 	strvs	r3, [r0, #-563]	; 0xfffffdcd
 1d4:	5f74696d 	svcpl	0x0074696d
 1d8:	33747570 	cmncc	r4, #112, 10	; 0x1c000000
 1dc:	5f5f0032 	svcpl	0x005f0032
 1e0:	70617277 	rsbvc	r7, r1, r7, ror r2
 1e4:	5455505f 	ldrbpl	r5, [r5], #-95	; 0xffffffa1
 1e8:	54003233 	strpl	r3, [r0], #-563	; 0xfffffdcd
 1ec:	45434152 	strbmi	r4, [r3, #-338]	; 0xfffffeae
 1f0:	004e4f5f 	subeq	r4, lr, pc, asr pc
 1f4:	72646461 	rsbvc	r6, r4, #1627389952	; 0x61000000
 1f8:	66756200 	ldrbtvs	r6, [r5], -r0, lsl #4
 1fc:	5f726566 	svcpl	0x00726566
 200:	5f5f0070 	svcpl	0x005f0070
 204:	434e5546 	movtmi	r5, #58694	; 0xe546
 208:	4e4f4954 			; <UNDEFINED> instruction: 0x4e4f4954
 20c:	5f005f5f 	svcpl	0x00005f5f
 210:	6165725f 	cmnvs	r5, pc, asr r2
 214:	55505f6c 	ldrbpl	r5, [r0, #-3948]	; 0xfffff094
 218:	00323354 	eorseq	r3, r2, r4, asr r3
 21c:	72775f5f 	rsbsvc	r5, r7, #380	; 0x17c
 220:	475f7061 	ldrbmi	r7, [pc, -r1, rrx]
 224:	32335445 	eorscc	r5, r3, #1157627904	; 0x45000000
 228:	61727400 	cmnvs	r2, r0, lsl #8
 22c:	732d6563 			; <UNDEFINED> instruction: 0x732d6563
 230:	6c706d69 	ldclvs	13, cr6, [r0], #-420	; 0xfffffe5c
 234:	00632e65 	rsbeq	r2, r3, r5, ror #28
 238:	43415254 	movtmi	r5, #4692	; 0x1254
 23c:	464f5f45 	strbmi	r5, [pc], -r5, asr #30
 240:	69750046 	ldmdbvs	r5!, {r1, r2, r6}^
 244:	3233746e 	eorscc	r7, r3, #1845493760	; 0x6e000000
 248:	7700745f 	smlsdvc	r0, pc, r4, r7	; <UNPREDICTABLE>
 24c:	69687469 	stmdbvs	r8!, {r0, r3, r5, r6, sl, ip, sp, lr}^
 250:	72705f6e 	rsbsvc	r5, r0, #440	; 0x1b8
 254:	6b746e69 	blvs	1d1bc00 <__bss_end__+0x1d12850>
 258:	65706f5f 	ldrbvs	r6, [r0, #-3935]!	; 0xfffff0a1
 25c:	69746172 	ldmdbvs	r4!, {r1, r4, r5, r6, r8, sp, lr}^
 260:	2f006e6f 	svccs	0x00006e6f
 264:	72657355 	rsbvc	r7, r5, #1409286145	; 0x54000001
 268:	64612f73 	strbtvs	r2, [r1], #-3955	; 0xfffff08d
 26c:	6e616972 			; <UNDEFINED> instruction: 0x6e616972
 270:	7472616d 	ldrbtvc	r6, [r2], #-365	; 0xfffffe93
 274:	7a656e69 	bvc	195bc20 <__bss_end__+0x1952870>
 278:	6f72702f 	svcvs	0x0072702f
 27c:	7463656a 	strbtvc	r6, [r3], #-1386	; 0xfffffa96
 280:	73632f73 	cmnvc	r3, #460	; 0x1cc
 284:	65303431 	ldrvs	r3, [r0, #-1073]!	; 0xfffffbcf
 288:	7331322d 	teqvc	r1, #-805306366	; 0xd0000002
 28c:	6c2f7270 	sfmvs	f7, 4, [pc], #-448	; d4 <__code_start__-0x7f2c>
 290:	2f736261 	svccs	0x00736261
 294:	72632d32 	rsbvc	r2, r3, #3200	; 0xc80
 298:	2d73736f 	ldclcs	3, cr7, [r3, #-444]!	; 0xfffffe44
 29c:	63656863 	cmnvs	r5, #6488064	; 0x630000
 2a0:	2d322f6b 	ldccs	15, cr2, [r2, #-428]!	; 0xfffffe54
 2a4:	63617274 	cmnvs	r1, #116, 4	; 0x40000007
 2a8:	52540065 	subspl	r0, r4, #101, 0	; 0x65
 2ac:	5f454341 	svcpl	0x00454341
 2b0:	50494b53 	subpl	r4, r9, r3, asr fp
 2b4:	67726100 	ldrbvs	r6, [r2, -r0, lsl #2]!
 2b8:	61760073 	cmnvs	r6, r3, ror r0
 2bc:	6972705f 	ldmdbvs	r2!, {r0, r1, r2, r3, r4, r6, ip, sp, lr}^
 2c0:	006b746e 	rsbeq	r7, fp, lr, ror #8
 2c4:	6e675f5f 	mcrvs	15, 3, r5, cr7, cr15, {2}
 2c8:	765f6375 			; <UNDEFINED> instruction: 0x765f6375
 2cc:	696c5f61 	stmdbvs	ip!, {r0, r5, r6, r8, r9, sl, fp, ip, lr}^
 2d0:	6c007473 	cfstrsvs	mvf7, [r0], {115}	; 0x73
 2d4:	2f636269 	svccs	0x00636269
 2d8:	6e697270 	mcrvs	2, 3, r7, cr9, cr0, {3}
 2dc:	632e6b74 			; <UNDEFINED> instruction: 0x632e6b74
 2e0:	615f5f00 	cmpvs	pc, r0, lsl #30
 2e4:	5f5f0070 	svcpl	0x005f0070
 2e8:	6c5f6176 	ldfvse	f6, [pc], {118}	; 0x76
 2ec:	00747369 	rsbseq	r7, r4, r9, ror #6
 2f0:	6573552f 	ldrbvs	r5, [r3, #-1327]!	; 0xfffffad1
 2f4:	612f7372 			; <UNDEFINED> instruction: 0x612f7372
 2f8:	61697264 	cmnvs	r9, r4, ror #4
 2fc:	72616d6e 	rsbvc	r6, r1, #7040	; 0x1b80
 300:	656e6974 	strbvs	r6, [lr, #-2420]!	; 0xfffff68c
 304:	72702f7a 	rsbsvc	r2, r0, #488	; 0x1e8
 308:	63656a6f 	cmnvs	r5, #454656	; 0x6f000
 30c:	632f7374 			; <UNDEFINED> instruction: 0x632f7374
 310:	30343173 	eorscc	r3, r4, r3, ror r1
 314:	31322d65 	teqcc	r2, r5, ror #26
 318:	2f727073 	svccs	0x00727073
 31c:	7062696c 	rsbvc	r6, r2, ip, ror #18
 320:	6e690069 	cdpvs	0, 6, cr0, cr9, cr9, {3}
 324:	6e726574 	mrcvs	5, 3, r6, cr2, cr4, {3}
 328:	705f6c61 	subsvc	r6, pc, r1, ror #24
 32c:	006b7475 	rsbeq	r7, fp, r5, ror r4
 330:	6362696c 	cmnvs	r2, #108, 18	; 0x1b0000
 334:	7475702f 	ldrbtvc	r7, [r5], #-47	; 0xffffffd1
 338:	00632e6b 	rsbeq	r2, r3, fp, ror #28
 33c:	69647369 	stmdbvs	r4!, {r0, r3, r5, r6, r8, r9, ip, sp, lr}^
 340:	00746967 	rsbseq	r6, r4, r7, ror #18
 344:	746e6975 	strbtvc	r6, [lr], #-2421	; 0xfffff68b
 348:	745f3436 	ldrbvc	r3, [pc], #-1078	; 350 <__code_start__-0x7cb0>
 34c:	635f5f00 	cmpvs	pc, #0, 30
 350:	5f65646f 	svcpl	0x0065646f
 354:	72617473 	rsbvc	r7, r1, #1929379840	; 0x73000000
 358:	005f5f74 	subseq	r5, pc, r4, ror pc	; <UNPREDICTABLE>
 35c:	73625f5f 	cmnvc	r2, #380	; 0x17c
 360:	74735f73 	ldrbtvc	r5, [r3], #-3955	; 0xfffff08d
 364:	5f747261 	svcpl	0x00747261
 368:	6977005f 	ldmdbvs	r7!, {r0, r1, r2, r3, r4, r6}^
 36c:	00687464 	rsbeq	r7, r8, r4, ror #8
 370:	61645f5f 	cmnvs	r4, pc, asr pc
 374:	655f6174 	ldrbvs	r6, [pc, #-372]	; 208 <__code_start__-0x7df8>
 378:	5f5f646e 	svcpl	0x005f646e
 37c:	74757000 	ldrbtvc	r7, [r5], #-0
 380:	70665f63 	rsbvc	r5, r6, r3, ror #30
 384:	625f5f00 	subsvs	r5, pc, #0, 30
 388:	655f7373 	ldrbvs	r7, [pc, #-883]	; 1d <__code_start__-0x7fe3>
 38c:	5f5f646e 	svcpl	0x005f646e
 390:	685f5f00 	ldmdavs	pc, {r8, r9, sl, fp, ip, lr}^	; <UNPREDICTABLE>
 394:	5f706165 	svcpl	0x00706165
 398:	72617473 	rsbvc	r7, r1, #1929379840	; 0x73000000
 39c:	005f5f74 	subseq	r5, pc, r4, ror pc	; <UNPREDICTABLE>
 3a0:	5f697072 	svcpl	0x00697072
 3a4:	5f746573 	svcpl	0x00746573
 3a8:	7074756f 	rsbsvc	r7, r4, pc, ror #10
 3ac:	66007475 			; <UNDEFINED> instruction: 0x66007475
 3b0:	735f746d 	cmpvc	pc, #1828716544	; 0x6d000000
 3b4:	74726174 	ldrbtvc	r6, [r2], #-372	; 0xfffffe8c
 3b8:	62696c00 	rsbvs	r6, r9, #0, 24
 3bc:	61762f63 	cmnvs	r6, r3, ror #30
 3c0:	6972702d 	ldmdbvs	r2!, {r0, r2, r3, r5, ip, sp, lr}^
 3c4:	2e6b746e 	cdpcs	4, 6, cr7, cr11, cr14, {3}
 3c8:	74730063 	ldrbtvc	r0, [r3], #-99	; 0xffffff9d
 3cc:	74616372 	strbtvc	r6, [r1], #-882	; 0xfffffc8e
 3d0:	67656e00 	strbvs	r6, [r5, -r0, lsl #28]!
 3d4:	5f00705f 	svcpl	0x0000705f
 3d8:	646f635f 	strbtvs	r6, [pc], #-863	; 3e0 <__code_start__-0x7c20>
 3dc:	6e655f65 	cdpvs	15, 6, cr5, cr5, cr5, {3}
 3e0:	005f5f64 	subseq	r5, pc, r4, ror #30
 3e4:	74696d65 	strbtvc	r6, [r9], #-3429	; 0xfffff29b
 3e8:	74757000 	ldrbtvc	r7, [r5], #-0
 3ec:	70665f73 	rsbvc	r5, r6, r3, ror pc
 3f0:	76657200 	strbtvc	r7, [r5], -r0, lsl #4
 3f4:	65737265 	ldrbvs	r7, [r3, #-613]!	; 0xfffffd9b
 3f8:	645f5f00 	ldrbvs	r5, [pc], #-3840	; 400 <__code_start__-0x7c00>
 3fc:	5f617461 	svcpl	0x00617461
 400:	72617473 	rsbvc	r7, r1, #1929379840	; 0x73000000
 404:	005f5f74 	subseq	r5, pc, r4, ror pc	; <UNPREDICTABLE>
 408:	72705f5f 	rsbsvc	r5, r0, #380	; 0x17c
 40c:	655f676f 	ldrbvs	r6, [pc, #-1903]	; fffffca5 <__bss_end__+0xffff68f5>
 410:	5f5f646e 	svcpl	0x005f646e
 414:	6d756e00 	ldclvs	14, cr6, [r5, #-0]
 418:	74730031 	ldrbtvc	r0, [r3], #-49	; 0xffffffcf
 41c:	6d636e72 	stclvs	14, cr6, [r3, #-456]!	; 0xfffffe38
 420:	61620070 	smcvs	8192	; 0x2000
 424:	73006573 	movwvc	r6, #1395	; 0x573
 428:	656e6769 	strbvs	r6, [lr, #-1897]!	; 0xfffff897
 42c:	00705f64 	rsbseq	r5, r0, r4, ror #30
 430:	5f697072 	svcpl	0x00697072
 434:	6f626572 	svcvs	0x00626572
 438:	6400746f 	strvs	r7, [r0], #-1135	; 0xfffffb91
 43c:	79616c65 	stmdbvc	r1!, {r0, r2, r5, r6, sl, fp, sp, lr}^
 440:	00736d5f 	rsbseq	r6, r3, pc, asr sp
 444:	66617473 			; <UNDEFINED> instruction: 0x66617473
 448:	72732d66 	rsbsvc	r2, r3, #6528	; 0x1980
 44c:	6c632f63 	stclvs	15, cr2, [r3], #-396	; 0xfffffe74
 450:	2d6e6165 	stfcse	f6, [lr, #-404]!	; 0xfffffe6c
 454:	6f626572 	svcvs	0x00626572
 458:	632e746f 			; <UNDEFINED> instruction: 0x632e746f
 45c:	72617500 	rsbvc	r7, r1, #0, 10
 460:	6c665f74 	stclvs	15, cr5, [r6], #-464	; 0xfffffe30
 464:	5f687375 	svcpl	0x00687375
 468:	5f007874 	svcpl	0x00007874
 46c:	61747363 	cmnvs	r4, r3, ror #6
 470:	62007472 	andvs	r7, r0, #1912602624	; 0x72000000
 474:	655f7373 	ldrbvs	r7, [pc, #-883]	; 109 <__code_start__-0x7ef7>
 478:	6300646e 	movwvs	r6, #1134	; 0x46e
 47c:	6f747375 	svcvs	0x00747375
 480:	6f6c5f6d 	svcvs	0x006c5f6d
 484:	72656461 	rsbvc	r6, r5, #1627389952	; 0x61000000
 488:	61747300 	cmnvs	r4, r0, lsl #6
 48c:	732d6666 			; <UNDEFINED> instruction: 0x732d6666
 490:	632f6372 			; <UNDEFINED> instruction: 0x632f6372
 494:	72617473 	rsbvc	r7, r1, #1929379840	; 0x73000000
 498:	00632e74 	rsbeq	r2, r3, r4, ror lr
 49c:	66617473 			; <UNDEFINED> instruction: 0x66617473
 4a0:	72732d66 	rsbsvc	r2, r3, #6528	; 0x1980
 4a4:	75632f63 	strbvc	r2, [r3, #-3939]!	; 0xfffff09d
 4a8:	6d6f7473 	cfstrdvs	mvd7, [pc, #-460]!	; 2e4 <__code_start__-0x7d1c>
 4ac:	616f6c2d 	cmnvs	pc, sp, lsr #24
 4b0:	2e726564 	cdpcs	5, 7, cr6, cr2, cr4, {3}
 4b4:	4d500063 	ldclmi	0, cr0, [r0, #-396]	; 0xfffffe74
 4b8:	4f44575f 	svcmi	0x0044575f
 4bc:	65730047 	ldrbvs	r0, [r3, #-71]!	; 0xffffffb9
 4c0:	73755f74 	cmnvc	r5, #116, 30	; 0x1d0
 4c4:	6c5f7265 	lfmvs	f7, 2, [pc], {101}	; 0x65
 4c8:	6c657665 	stclvs	6, cr7, [r5], #-404	; 0xfffffe6c
 4cc:	5f4d5000 	svcpl	0x004d5000
 4d0:	53534150 	cmppl	r3, #20
 4d4:	44524f57 	ldrbmi	r4, [r2], #-3927	; 0xfffff0a9
 4d8:	5f746100 	svcpl	0x00746100
 4dc:	72657375 	rsbvc	r7, r5, #-738197503	; 0xd4000001
 4e0:	76656c5f 			; <UNDEFINED> instruction: 0x76656c5f
 4e4:	73006c65 	movwvc	r6, #3173	; 0xc65
 4e8:	66666174 			; <UNDEFINED> instruction: 0x66666174
 4ec:	6372732d 	cmnvs	r2, #-1275068416	; 0xb4000000
 4f0:	6265722f 	rsbvs	r7, r5, #-268435454	; 0xf0000002
 4f4:	2e746f6f 	cdpcs	15, 7, cr6, cr4, cr15, {3}
 4f8:	4d500063 	ldclmi	0, cr0, [r0, #-396]	; 0xfffffe74
 4fc:	5453525f 	ldrbpl	r5, [r3], #-607	; 0xfffffda1
 500:	70630043 	rsbvc	r0, r3, r3, asr #32
 504:	50007273 	andpl	r7, r0, r3, ror r2
 508:	53525f4d 	cmppl	r2, #308	; 0x134
 50c:	575f4354 			; <UNDEFINED> instruction: 0x575f4354
 510:	47464352 	smlsldmi	r4, r6, r2, r3
 514:	4c55465f 	mrrcmi	6, 5, r4, r5, cr15
 518:	45525f4c 	ldrbmi	r5, [r2, #-3916]	; 0xfffff0b4
 51c:	00544553 	subseq	r4, r4, r3, asr r5
 520:	616c6564 	cmnvs	ip, r4, ror #10
 524:	79635f79 	stmdbvc	r3!, {r0, r3, r4, r5, r6, r8, r9, sl, fp, ip, lr}^
 528:	73656c63 	cmnvc	r5, #25344	; 0x6300
 52c:	76656400 	strbtvc	r6, [r5], -r0, lsl #8
 530:	7261625f 	rsbvc	r6, r1, #-268435451	; 0xf0000005
 534:	72656972 	rsbvc	r6, r5, #1867776	; 0x1c8000
 538:	63697400 	cmnvs	r9, #0, 8
 53c:	6400736b 	strvs	r7, [r0], #-875	; 0xfffffc95
 540:	79616c65 	stmdbvc	r1!, {r0, r2, r5, r6, sl, fp, sp, lr}^
 544:	6365735f 	cmnvs	r5, #2080374785	; 0x7c000001
 548:	6d697400 	cfstrdvs	mvd7, [r9, #-0]
 54c:	675f7265 	ldrbvs	r7, [pc, -r5, ror #4]
 550:	755f7465 	ldrbvc	r7, [pc, #-1125]	; f3 <__code_start__-0x7f0d>
 554:	00636573 	rsbeq	r6, r3, r3, ror r5
 558:	616c6564 	cmnvs	ip, r4, ror #10
 55c:	73755f79 	cmnvc	r5, #484	; 0x1e4
 560:	6d697400 	cfstrdvs	mvd7, [r9, #-0]
 564:	675f7265 	ldrbvs	r7, [pc, -r5, ror #4]
 568:	755f7465 	ldrbvc	r7, [pc, #-1125]	; 10b <__code_start__-0x7ef5>
 56c:	5f636573 	svcpl	0x00636573
 570:	00776172 	rsbseq	r6, r7, r2, ror r1
 574:	66617473 			; <UNDEFINED> instruction: 0x66617473
 578:	72732d66 	rsbsvc	r2, r3, #6528	; 0x1980
 57c:	69742f63 	ldmdbvs	r4!, {r0, r1, r5, r6, r8, r9, sl, fp, sp}^
 580:	2e72656d 	cdpcs	5, 7, cr6, cr2, cr13, {3}
 584:	61750063 	cmnvs	r5, r3, rrx
 588:	705f7472 	subsvc	r7, pc, r2, ror r4	; <UNPREDICTABLE>
 58c:	00637475 	rsbeq	r7, r3, r5, ror r4
 590:	74617473 	strbtvc	r7, [r1], #-1139	; 0xfffffb8d
 594:	72617500 	rsbvc	r7, r1, #0, 10
 598:	61635f74 	smcvs	13812	; 0x35f4
 59c:	65675f6e 	strbvs	r5, [r7, #-3950]!	; 0xfffff092
 5a0:	47006374 	smlsdxmi	r0, r4, r3, r6
 5a4:	5f4f4950 	svcpl	0x004f4950
 5a8:	434e5546 	movtmi	r5, #58694	; 0xe546
 5ac:	54554f5f 	ldrbpl	r4, [r5], #-3935	; 0xfffff0a1
 5b0:	00545550 	subseq	r5, r4, r0, asr r5
 5b4:	5f787561 	svcpl	0x00787561
 5b8:	69726570 	ldmdbvs	r2!, {r4, r5, r6, r8, sl, sp, lr}^
 5bc:	00736870 	rsbseq	r6, r3, r0, ror r8
 5c0:	74726175 	ldrbtvc	r6, [r2], #-373	; 0xfffffe8b
 5c4:	7500632e 	strvc	r6, [r0, #-814]	; 0xfffffcd2
 5c8:	5f747261 	svcpl	0x00747261
 5cc:	5f6e6163 	svcpl	0x006e6163
 5d0:	63747570 	cmnvs	r4, #112, 10	; 0x1c000000
 5d4:	6f682f00 	svcvs	0x00682f00
 5d8:	652f656d 	strvs	r6, [pc, #-1389]!	; 73 <__code_start__-0x7f8d>
 5dc:	656c676e 	strbvs	r6, [ip, #-1902]!	; 0xfffff892
 5e0:	6c632f72 	stclvs	15, cr2, [r3], #-456	; 0xfffffe38
 5e4:	2f737361 	svccs	0x00737361
 5e8:	34317363 	ldrtcc	r7, [r1], #-867	; 0xfffffc9d
 5ec:	322d6530 	eorcc	r6, sp, #48, 10	; 0xc000000
 5f0:	72707331 	rsbsvc	r7, r0, #-1006632960	; 0xc4000000
 5f4:	62696c2f 	rsbvs	r6, r9, #12032	; 0x2f00
 5f8:	732f6970 			; <UNDEFINED> instruction: 0x732f6970
 5fc:	66666174 			; <UNDEFINED> instruction: 0x66666174
 600:	6972702d 	ldmdbvs	r2!, {r0, r2, r3, r5, ip, sp, lr}^
 604:	65746176 	ldrbvs	r6, [r4, #-374]!	; 0xfffffe8a
 608:	49504700 	ldmdbmi	r0, {r8, r9, sl, lr}^
 60c:	55465f4f 	strbpl	r5, [r6, #-3919]	; 0xfffff0b1
 610:	415f434e 	cmpmi	pc, lr, asr #6
 614:	0030544c 	eorseq	r5, r0, ip, asr #8
 618:	4f495047 	svcmi	0x00495047
 61c:	4e55465f 	mrcmi	6, 2, r4, cr5, cr15, {2}
 620:	4c415f43 	mcrrmi	15, 4, r5, r1, cr3
 624:	47003154 	smlsdmi	r0, r4, r1, r3
 628:	5f4f4950 	svcpl	0x004f4950
 62c:	434e5546 	movtmi	r5, #58694	; 0xe546
 630:	544c415f 	strbpl	r4, [ip], #-351	; 0xfffffea1
 634:	50470032 	subpl	r0, r7, r2, lsr r0
 638:	465f4f49 	ldrbmi	r4, [pc], -r9, asr #30
 63c:	5f434e55 	svcpl	0x00434e55
 640:	33544c41 	cmpcc	r4, #16640	; 0x4100
 644:	49504700 	ldmdbmi	r0, {r8, r9, sl, lr}^
 648:	55465f4f 	strbpl	r5, [r6, #-3919]	; 0xfffff0b1
 64c:	415f434e 	cmpmi	pc, lr, asr #6
 650:	0035544c 	eorseq	r5, r5, ip, asr #8
 654:	64756162 	ldrbtvs	r6, [r5], #-354	; 0xfffffe9e
 658:	78756100 	ldmdavc	r5!, {r8, sp, lr}^
 65c:	616e655f 	cmnvs	lr, pc, asr r5
 660:	73656c62 	cmnvc	r5, #25088	; 0x6200
 664:	72617500 	rsbvc	r7, r1, #0, 10
 668:	65675f74 	strbvs	r5, [r7, #-3956]!	; 0xfffff08c
 66c:	75006374 	strvc	r6, [r0, #-884]	; 0xfffffc8c
 670:	5f747261 	svcpl	0x00747261
 674:	695f7874 	ldmdbvs	pc, {r2, r4, r5, r6, fp, ip, sp, lr}^	; <UNPREDICTABLE>
 678:	6d655f73 	stclvs	15, cr5, [r5, #-460]!	; 0xfffffe34
 67c:	00797470 	rsbseq	r7, r9, r0, ror r4
 680:	64756162 	ldrbtvs	r6, [r5], #-354	; 0xfffffe9e
 684:	6c61765f 	stclvs	6, cr7, [r1], #-380	; 0xfffffe84
 688:	746e6300 	strbtvc	r6, [lr], #-768	; 0xfffffd00
 68c:	6175006c 	cmnvs	r5, ip, rrx
 690:	685f7472 	ldmdavs	pc, {r1, r4, r5, r6, sl, ip, sp, lr}^	; <UNPREDICTABLE>
 694:	645f7361 	ldrbvs	r7, [pc], #-865	; 69c <__code_start__-0x7964>
 698:	00617461 	rsbeq	r7, r1, r1, ror #8
 69c:	4f495047 	svcmi	0x00495047
 6a0:	4e55465f 	mrcmi	6, 2, r4, cr5, cr15, {2}
 6a4:	4c415f43 	mcrrmi	15, 4, r5, r1, cr3
 6a8:	6f003454 	svcvs	0x00003454
 6ac:	6e695f72 	mcrvs	15, 3, r5, cr9, cr2, {3}
 6b0:	73003233 	movwvc	r3, #563	; 0x233
 6b4:	74617263 	strbtvc	r7, [r1], #-611	; 0xfffffd9d
 6b8:	75006863 	strvc	r6, [r0, #-2147]	; 0xfffff79d
 6bc:	00747261 	rsbseq	r7, r4, r1, ror #4
 6c0:	4f495047 	svcmi	0x00495047
 6c4:	4e55465f 	mrcmi	6, 2, r4, cr5, cr15, {2}
 6c8:	4e495f43 	cdpmi	15, 4, cr5, cr9, cr3, {2}
 6cc:	00545550 	subseq	r5, r4, r0, asr r5
 6d0:	6f697067 	svcvs	0x00697067
 6d4:	7465735f 	strbtvc	r7, [r5], #-863	; 0xfffffca1
 6d8:	6e75665f 	mrcvs	6, 3, r6, cr5, cr15, {2}
 6dc:	6f697463 	svcvs	0x00697463
 6e0:	7067006e 	rsbvc	r0, r7, lr, rrx
 6e4:	635f6f69 	cmpvs	pc, #420	; 0x1a4
 6e8:	0030726c 	eorseq	r7, r0, ip, ror #4
 6ec:	66696873 			; <UNDEFINED> instruction: 0x66696873
 6f0:	70670074 	rsbvc	r0, r7, r4, ror r0
 6f4:	735f6f69 	cmpvc	pc, #420	; 0x1a4
 6f8:	00307465 	eorseq	r7, r0, r5, ror #8
 6fc:	72727563 	rsbsvc	r7, r2, #415236096	; 0x18c00000
 700:	00746e65 	rsbseq	r6, r4, r5, ror #28
 704:	6f697067 	svcvs	0x00697067
 708:	6972775f 	ldmdbvs	r2!, {r0, r1, r2, r3, r4, r6, r8, r9, sl, ip, sp, lr}^
 70c:	67006574 	smlsdxvs	r0, r4, r5, r6
 710:	5f6f6970 	svcpl	0x006f6970
 714:	64616572 	strbtvs	r6, [r1], #-1394	; 0xfffffa8e
 718:	69706700 	ldmdbvs	r0!, {r8, r9, sl, sp, lr}^
 71c:	65735f6f 	ldrbvs	r5, [r3, #-3951]!	; 0xfffff091
 720:	6e695f74 	mcrvs	15, 3, r5, cr9, cr4, {3}
 724:	00747570 	rsbseq	r7, r4, r0, ror r5
 728:	6f697067 	svcvs	0x00697067
 72c:	7465735f 	strbtvc	r7, [r5], #-863	; 0xfffffca1
 730:	66666f5f 	uqsaxvs	r6, r6, pc	; <UNPREDICTABLE>
 734:	69706700 	ldmdbvs	r0!, {r8, r9, sl, sp, lr}^
 738:	75665f6f 	strbvc	r5, [r6, #-3951]!	; 0xfffff091
 73c:	745f636e 	ldrbvc	r6, [pc], #-878	; 744 <__code_start__-0x78bc>
 740:	64646100 	strbtvs	r6, [r4], #-256	; 0xffffff00
 744:	73736572 	cmnvc	r3, #478150656	; 0x1c800000
 748:	69706700 	ldmdbvs	r0!, {r8, r9, sl, sp, lr}^
 74c:	656c5f6f 	strbvs	r5, [ip, #-3951]!	; 0xfffff091
 750:	67003076 	smlsdxvs	r0, r6, r0, r3
 754:	5f6f6970 	svcpl	0x006f6970
 758:	306c6573 	rsbcc	r6, ip, r3, ror r5
 75c:	63727300 	cmnvs	r2, #0, 6
 760:	6970672f 	ldmdbvs	r0!, {r0, r1, r2, r3, r5, r8, r9, sl, sp, lr}^
 764:	00632e6f 	rsbeq	r2, r3, pc, ror #28
 768:	6f697067 	svcvs	0x00697067
 76c:	7465735f 	strbtvc	r7, [r5], #-863	; 0xfffffca1
 770:	006e6f5f 	rsbeq	r6, lr, pc, asr pc
 774:	65746e69 	ldrbvs	r6, [r4, #-3689]!	; 0xfffff197
 778:	6c616e72 	stclvs	14, cr6, [r1], #-456	; 0xfffffe38
 77c:	7475705f 	ldrbtvc	r7, [r5], #-95	; 0xffffffa1
 780:	72616863 	rsbvc	r6, r1, #6488064	; 0x630000
 784:	69707200 	ldmdbvs	r0!, {r9, ip, sp, lr}^
 788:	7465735f 	strbtvc	r7, [r5], #-863	; 0xfffffca1
 78c:	7475705f 	ldrbtvc	r7, [r5], #-95	; 0xffffffa1
 790:	696c0063 	stmdbvs	ip!, {r0, r1, r5, r6}^
 794:	702f6362 	eorvc	r6, pc, r2, ror #6
 798:	68637475 	stmdavs	r3!, {r0, r2, r4, r5, r6, sl, ip, sp, lr}^
 79c:	632e7261 			; <UNDEFINED> instruction: 0x632e7261
 7a0:	69707200 	ldmdbvs	r0!, {r9, ip, sp, lr}^
 7a4:	7365725f 	cmnvc	r5, #-268435451	; 0xf0000005
 7a8:	705f7465 	subsvc	r7, pc, r5, ror #8
 7ac:	00637475 	rsbeq	r7, r3, r5, ror r4
 7b0:	6362696c 	cmnvs	r2, #108, 18	; 0x1b0000
 7b4:	7274732f 	rsbsvc	r7, r4, #-1140850688	; 0xbc000000
 7b8:	2e746163 	rpwcssz	f6, f4, f3
 7bc:	65640063 	strbvs	r0, [r4, #-99]!	; 0xffffff9d
 7c0:	73007473 	movwvc	r7, #1139	; 0x473
 7c4:	5f657a69 	svcpl	0x00657a69
 7c8:	696c0074 	stmdbvs	ip!, {r2, r4, r5, r6}^
 7cc:	732f6362 			; <UNDEFINED> instruction: 0x732f6362
 7d0:	636e7274 	cmnvs	lr, #116, 4	; 0x40000007
 7d4:	632e706d 			; <UNDEFINED> instruction: 0x632e706d
	...

Disassembly of section .debug_frame:

00000000 <.debug_frame>:
   0:	0000000c 	andeq	r0, r0, ip
   4:	ffffffff 			; <UNDEFINED> instruction: 0xffffffff
   8:	7c020001 	stcvc	0, cr0, [r2], {1}
   c:	000d0c0e 	andeq	r0, sp, lr, lsl #24
  10:	00000018 	andeq	r0, r0, r8, lsl r0
  14:	00000000 	andeq	r0, r0, r0
  18:	00008034 	andeq	r8, r0, r4, lsr r0
  1c:	0000005c 	andeq	r0, r0, ip, asr r0
  20:	84100e42 	ldrhi	r0, [r0], #-3650	; 0xfffff1be
  24:	86038504 	strhi	r8, [r3], -r4, lsl #10
  28:	00018e02 	andeq	r8, r1, r2, lsl #28
  2c:	0000000c 	andeq	r0, r0, ip
  30:	ffffffff 			; <UNDEFINED> instruction: 0xffffffff
  34:	7c020001 	stcvc	0, cr0, [r2], {1}
  38:	000d0c0e 	andeq	r0, sp, lr, lsl #24
  3c:	00000014 	andeq	r0, r0, r4, lsl r0
  40:	0000002c 	andeq	r0, r0, ip, lsr #32
  44:	00008090 	muleq	r0, r0, r0
  48:	0000001c 	andeq	r0, r0, ip, lsl r0
  4c:	84080e42 	strhi	r0, [r8], #-3650	; 0xfffff1be
  50:	00018e02 	andeq	r8, r1, r2, lsl #28
  54:	00000014 	andeq	r0, r0, r4, lsl r0
  58:	0000002c 	andeq	r0, r0, ip, lsr #32
  5c:	000080ac 	andeq	r8, r0, ip, lsr #1
  60:	0000001c 	andeq	r0, r0, ip, lsl r0
  64:	84080e42 	strhi	r0, [r8], #-3650	; 0xfffff1be
  68:	00018e02 	andeq	r8, r1, r2, lsl #28
  6c:	00000014 	andeq	r0, r0, r4, lsl r0
  70:	0000002c 	andeq	r0, r0, ip, lsr #32
  74:	000080c8 	andeq	r8, r0, r8, asr #1
  78:	0000005c 	andeq	r0, r0, ip, asr r0
  7c:	8e040e52 	mcrhi	14, 0, r0, cr4, cr2, {2}
  80:	100e4201 	andne	r4, lr, r1, lsl #4
  84:	00000014 	andeq	r0, r0, r4, lsl r0
  88:	0000002c 	andeq	r0, r0, ip, lsr #32
  8c:	00008124 	andeq	r8, r0, r4, lsr #2
  90:	0000005c 	andeq	r0, r0, ip, asr r0
  94:	8e040e52 	mcrhi	14, 0, r0, cr4, cr2, {2}
  98:	100e4201 	andne	r4, lr, r1, lsl #4
  9c:	00000018 	andeq	r0, r0, r8, lsl r0
  a0:	0000002c 	andeq	r0, r0, ip, lsr #32
  a4:	00008180 	andeq	r8, r0, r0, lsl #3
  a8:	00000060 	andeq	r0, r0, r0, rrx
  ac:	84100e42 	ldrhi	r0, [r0], #-3650	; 0xfffff1be
  b0:	86038504 	strhi	r8, [r3], -r4, lsl #10
  b4:	00018e02 	andeq	r8, r1, r2, lsl #28
  b8:	00000018 	andeq	r0, r0, r8, lsl r0
  bc:	0000002c 	andeq	r0, r0, ip, lsr #32
  c0:	000081e0 	andeq	r8, r0, r0, ror #3
  c4:	00000064 	andeq	r0, r0, r4, rrx
  c8:	84100e42 	ldrhi	r0, [r0], #-3650	; 0xfffff1be
  cc:	86038504 	strhi	r8, [r3], -r4, lsl #10
  d0:	00018e02 	andeq	r8, r1, r2, lsl #28
  d4:	0000000c 	andeq	r0, r0, ip
  d8:	ffffffff 			; <UNDEFINED> instruction: 0xffffffff
  dc:	7c020001 	stcvc	0, cr0, [r2], {1}
  e0:	000d0c0e 	andeq	r0, sp, lr, lsl #24
  e4:	00000034 	andeq	r0, r0, r4, lsr r0
  e8:	000000d4 	ldrdeq	r0, [r0], -r4
  ec:	00008244 	andeq	r8, r0, r4, asr #4
  f0:	00000058 	andeq	r0, r0, r8, asr r0
  f4:	80100e42 	andshi	r0, r0, r2, asr #28
  f8:	82038104 	andhi	r8, r3, #1
  fc:	42018302 	andmi	r8, r1, #134217728	; 0x8000000
 100:	07841c0e 	streq	r1, [r4, lr, lsl #24]
 104:	058e0685 	streq	r0, [lr, #1669]	; 0x685
 108:	5c280e42 	stcpl	14, cr0, [r8], #-264	; 0xfffffef8
 10c:	ce421c0e 	cdpgt	12, 4, cr1, cr2, cr14, {0}
 110:	100ec4c5 	andne	ip, lr, r5, asr #9
 114:	c1c2c342 	bicgt	ip, r2, r2, asr #6
 118:	00000ec0 	andeq	r0, r0, r0, asr #29
 11c:	0000000c 	andeq	r0, r0, ip
 120:	ffffffff 			; <UNDEFINED> instruction: 0xffffffff
 124:	7c020001 	stcvc	0, cr0, [r2], {1}
 128:	000d0c0e 	andeq	r0, sp, lr, lsl #24
 12c:	00000014 	andeq	r0, r0, r4, lsl r0
 130:	0000011c 	andeq	r0, r0, ip, lsl r1
 134:	0000829c 	muleq	r0, ip, r2
 138:	00000034 	andeq	r0, r0, r4, lsr r0
 13c:	84080e42 	strhi	r0, [r8], #-3650	; 0xfffff1be
 140:	00018e02 	andeq	r8, r1, r2, lsl #28
 144:	0000000c 	andeq	r0, r0, ip
 148:	ffffffff 			; <UNDEFINED> instruction: 0xffffffff
 14c:	7c020001 	stcvc	0, cr0, [r2], {1}
 150:	000d0c0e 	andeq	r0, sp, lr, lsl #24
 154:	0000000c 	andeq	r0, r0, ip
 158:	00000144 	andeq	r0, r0, r4, asr #2
 15c:	000082d0 	ldrdeq	r8, [r0], -r0
 160:	00000014 	andeq	r0, r0, r4, lsl r0
 164:	0000000c 	andeq	r0, r0, ip
 168:	00000144 	andeq	r0, r0, r4, asr #2
 16c:	000082e4 	andeq	r8, r0, r4, ror #5
 170:	00000024 	andeq	r0, r0, r4, lsr #32
 174:	0000000c 	andeq	r0, r0, ip
 178:	00000144 	andeq	r0, r0, r4, asr #2
 17c:	00008308 	andeq	r8, r0, r8, lsl #6
 180:	00000038 	andeq	r0, r0, r8, lsr r0
 184:	00000024 	andeq	r0, r0, r4, lsr #32
 188:	00000144 	andeq	r0, r0, r4, asr #2
 18c:	00008340 	andeq	r8, r0, r0, asr #6
 190:	000001b4 			; <UNDEFINED> instruction: 0x000001b4
 194:	84140e42 	ldrhi	r0, [r4], #-3650	; 0xfffff1be
 198:	86048505 	strhi	r8, [r4], -r5, lsl #10
 19c:	8e028703 	cdphi	7, 0, cr8, cr2, cr3, {0}
 1a0:	600e4201 	andvs	r4, lr, r1, lsl #4
 1a4:	0e0a9a02 	vmlaeq.f32	s18, s20, s4
 1a8:	000b4214 	andeq	r4, fp, r4, lsl r2
 1ac:	00000014 	andeq	r0, r0, r4, lsl r0
 1b0:	00000144 	andeq	r0, r0, r4, asr #2
 1b4:	000084f4 	strdeq	r8, [r0], -r4
 1b8:	00000064 	andeq	r0, r0, r4, rrx
 1bc:	8e040e54 	mcrhi	14, 0, r0, cr4, cr4, {2}
 1c0:	100e4201 	andne	r4, lr, r1, lsl #4
 1c4:	0000002c 	andeq	r0, r0, ip, lsr #32
 1c8:	00000144 	andeq	r0, r0, r4, asr #2
 1cc:	00008558 	andeq	r8, r0, r8, asr r5
 1d0:	000003a4 	andeq	r0, r0, r4, lsr #7
 1d4:	84240e42 	strthi	r0, [r4], #-3650	; 0xfffff1be
 1d8:	86088509 	strhi	r8, [r8], -r9, lsl #10
 1dc:	88068707 	stmdahi	r6, {r0, r1, r2, r8, r9, sl, pc}
 1e0:	8a048905 	bhi	1225fc <__bss_end__+0x11924c>
 1e4:	8e028b03 	vmlahi.f64	d8, d2, d3
 1e8:	b80e4201 	stmdalt	lr, {r0, r9, lr}
 1ec:	01b80302 			; <UNDEFINED> instruction: 0x01b80302
 1f0:	0000240e 	andeq	r2, r0, lr, lsl #8
 1f4:	0000000c 	andeq	r0, r0, ip
 1f8:	ffffffff 			; <UNDEFINED> instruction: 0xffffffff
 1fc:	7c020001 	stcvc	0, cr0, [r2], {1}
 200:	000d0c0e 	andeq	r0, sp, lr, lsl #24
 204:	00000014 	andeq	r0, r0, r4, lsl r0
 208:	000001f4 	strdeq	r0, [r0], -r4
 20c:	000088fc 	strdeq	r8, [r0], -ip
 210:	0000002c 	andeq	r0, r0, ip, lsr #32
 214:	84080e42 	strhi	r0, [r8], #-3650	; 0xfffff1be
 218:	00018e02 	andeq	r8, r1, r2, lsl #28
 21c:	0000000c 	andeq	r0, r0, ip
 220:	ffffffff 			; <UNDEFINED> instruction: 0xffffffff
 224:	7c020001 	stcvc	0, cr0, [r2], {1}
 228:	000d0c0e 	andeq	r0, sp, lr, lsl #24
 22c:	00000014 	andeq	r0, r0, r4, lsl r0
 230:	0000021c 	andeq	r0, r0, ip, lsl r2
 234:	00008928 	andeq	r8, r0, r8, lsr #18
 238:	00000030 	andeq	r0, r0, r0, lsr r0
 23c:	84080e42 	strhi	r0, [r8], #-3650	; 0xfffff1be
 240:	00018e02 	andeq	r8, r1, r2, lsl #28
 244:	0000000c 	andeq	r0, r0, ip
 248:	ffffffff 			; <UNDEFINED> instruction: 0xffffffff
 24c:	7c020001 	stcvc	0, cr0, [r2], {1}
 250:	000d0c0e 	andeq	r0, sp, lr, lsl #24
 254:	0000000c 	andeq	r0, r0, ip
 258:	00000244 	andeq	r0, r0, r4, asr #4
 25c:	00008958 	andeq	r8, r0, r8, asr r9
 260:	00000004 	andeq	r0, r0, r4
 264:	0000000c 	andeq	r0, r0, ip
 268:	ffffffff 			; <UNDEFINED> instruction: 0xffffffff
 26c:	7c020001 	stcvc	0, cr0, [r2], {1}
 270:	000d0c0e 	andeq	r0, sp, lr, lsl #24
 274:	0000000c 	andeq	r0, r0, ip
 278:	00000264 	andeq	r0, r0, r4, ror #4
 27c:	0000895c 	andeq	r8, r0, ip, asr r9
 280:	00000018 	andeq	r0, r0, r8, lsl r0
 284:	0000000c 	andeq	r0, r0, ip
 288:	00000264 	andeq	r0, r0, r4, ror #4
 28c:	00008974 	andeq	r8, r0, r4, ror r9
 290:	00000014 	andeq	r0, r0, r4, lsl r0
 294:	00000014 	andeq	r0, r0, r4, lsl r0
 298:	00000264 	andeq	r0, r0, r4, ror #4
 29c:	00008988 	andeq	r8, r0, r8, lsl #19
 2a0:	00000050 	andeq	r0, r0, r0, asr r0
 2a4:	84080e42 	strhi	r0, [r8], #-3650	; 0xfffff1be
 2a8:	00018e02 	andeq	r8, r1, r2, lsl #28
 2ac:	0000000c 	andeq	r0, r0, ip
 2b0:	ffffffff 			; <UNDEFINED> instruction: 0xffffffff
 2b4:	7c020001 	stcvc	0, cr0, [r2], {1}
 2b8:	000d0c0e 	andeq	r0, sp, lr, lsl #24
 2bc:	0000000c 	andeq	r0, r0, ip
 2c0:	000002ac 	andeq	r0, r0, ip, lsr #5
 2c4:	000089d8 	ldrdeq	r8, [r0], -r8	; <UNPREDICTABLE>
 2c8:	00000018 	andeq	r0, r0, r8, lsl r0
 2cc:	00000014 	andeq	r0, r0, r4, lsl r0
 2d0:	000002ac 	andeq	r0, r0, ip, lsr #5
 2d4:	000089f0 	strdeq	r8, [r0], -r0
 2d8:	00000014 	andeq	r0, r0, r4, lsl r0
 2dc:	84080e42 	strhi	r0, [r8], #-3650	; 0xfffff1be
 2e0:	00018e02 	andeq	r8, r1, r2, lsl #28
 2e4:	00000014 	andeq	r0, r0, r4, lsl r0
 2e8:	000002ac 	andeq	r0, r0, ip, lsr #5
 2ec:	00008a04 	andeq	r8, r0, r4, lsl #20
 2f0:	0000001c 	andeq	r0, r0, ip, lsl r0
 2f4:	84080e42 	strhi	r0, [r8], #-3650	; 0xfffff1be
 2f8:	00018e02 	andeq	r8, r1, r2, lsl #28
 2fc:	00000018 	andeq	r0, r0, r8, lsl r0
 300:	000002ac 	andeq	r0, r0, ip, lsr #5
 304:	00008a20 	andeq	r8, r0, r0, lsr #20
 308:	00000024 	andeq	r0, r0, r4, lsr #32
 30c:	84100e42 	ldrhi	r0, [r0], #-3650	; 0xfffff1be
 310:	86038504 	strhi	r8, [r3], -r4, lsl #10
 314:	00018e02 	andeq	r8, r1, r2, lsl #28
 318:	00000014 	andeq	r0, r0, r4, lsl r0
 31c:	000002ac 	andeq	r0, r0, ip, lsr #5
 320:	00008a44 	andeq	r8, r0, r4, asr #20
 324:	00000018 	andeq	r0, r0, r8, lsl r0
 328:	84080e42 	strhi	r0, [r8], #-3650	; 0xfffff1be
 32c:	00018e02 	andeq	r8, r1, r2, lsl #28
 330:	00000014 	andeq	r0, r0, r4, lsl r0
 334:	000002ac 	andeq	r0, r0, ip, lsr #5
 338:	00008a5c 	andeq	r8, r0, ip, asr sl
 33c:	00000018 	andeq	r0, r0, r8, lsl r0
 340:	84080e42 	strhi	r0, [r8], #-3650	; 0xfffff1be
 344:	00018e02 	andeq	r8, r1, r2, lsl #28
 348:	0000000c 	andeq	r0, r0, ip
 34c:	ffffffff 			; <UNDEFINED> instruction: 0xffffffff
 350:	7c020001 	stcvc	0, cr0, [r2], {1}
 354:	000d0c0e 	andeq	r0, sp, lr, lsl #24
 358:	00000018 	andeq	r0, r0, r8, lsl r0
 35c:	00000348 	andeq	r0, r0, r8, asr #6
 360:	00008a8c 	andeq	r8, r0, ip, lsl #21
 364:	00000020 	andeq	r0, r0, r0, lsr #32
 368:	84100e42 	ldrhi	r0, [r0], #-3650	; 0xfffff1be
 36c:	86038504 	strhi	r8, [r3], -r4, lsl #10
 370:	00018e02 	andeq	r8, r1, r2, lsl #28
 374:	00000014 	andeq	r0, r0, r4, lsl r0
 378:	00000348 	andeq	r0, r0, r8, asr #6
 37c:	00008aac 	andeq	r8, r0, ip, lsr #21
 380:	000000b0 	strheq	r0, [r0], -r0	; <UNPREDICTABLE>
 384:	84080e42 	strhi	r0, [r8], #-3650	; 0xfffff1be
 388:	00018e02 	andeq	r8, r1, r2, lsl #28
 38c:	00000014 	andeq	r0, r0, r4, lsl r0
 390:	00000348 	andeq	r0, r0, r8, asr #6
 394:	00008b5c 	andeq	r8, r0, ip, asr fp
 398:	00000018 	andeq	r0, r0, r8, lsl r0
 39c:	84080e42 	strhi	r0, [r8], #-3650	; 0xfffff1be
 3a0:	00018e02 	andeq	r8, r1, r2, lsl #28
 3a4:	00000014 	andeq	r0, r0, r4, lsl r0
 3a8:	00000348 	andeq	r0, r0, r8, asr #6
 3ac:	00008b74 	andeq	r8, r0, r4, ror fp
 3b0:	00000020 	andeq	r0, r0, r0, lsr #32
 3b4:	84080e42 	strhi	r0, [r8], #-3650	; 0xfffff1be
 3b8:	00018e02 	andeq	r8, r1, r2, lsl #28
 3bc:	00000014 	andeq	r0, r0, r4, lsl r0
 3c0:	00000348 	andeq	r0, r0, r8, asr #6
 3c4:	00008b94 	muleq	r0, r4, fp
 3c8:	00000030 	andeq	r0, r0, r0, lsr r0
 3cc:	84080e42 	strhi	r0, [r8], #-3650	; 0xfffff1be
 3d0:	00018e02 	andeq	r8, r1, r2, lsl #28
 3d4:	00000014 	andeq	r0, r0, r4, lsl r0
 3d8:	00000348 	andeq	r0, r0, r8, asr #6
 3dc:	00008bc4 	andeq	r8, r0, r4, asr #23
 3e0:	00000030 	andeq	r0, r0, r0, lsr r0
 3e4:	84080e42 	strhi	r0, [r8], #-3650	; 0xfffff1be
 3e8:	00018e02 	andeq	r8, r1, r2, lsl #28
 3ec:	00000014 	andeq	r0, r0, r4, lsl r0
 3f0:	00000348 	andeq	r0, r0, r8, asr #6
 3f4:	00008bf4 	strdeq	r8, [r0], -r4
 3f8:	00000010 	andeq	r0, r0, r0, lsl r0
 3fc:	84080e42 	strhi	r0, [r8], #-3650	; 0xfffff1be
 400:	00018e02 	andeq	r8, r1, r2, lsl #28
 404:	00000014 	andeq	r0, r0, r4, lsl r0
 408:	00000348 	andeq	r0, r0, r8, asr #6
 40c:	00008c04 	andeq	r8, r0, r4, lsl #24
 410:	00000020 	andeq	r0, r0, r0, lsr #32
 414:	84080e42 	strhi	r0, [r8], #-3650	; 0xfffff1be
 418:	00018e02 	andeq	r8, r1, r2, lsl #28
 41c:	00000014 	andeq	r0, r0, r4, lsl r0
 420:	00000348 	andeq	r0, r0, r8, asr #6
 424:	00008c24 	andeq	r8, r0, r4, lsr #24
 428:	00000014 	andeq	r0, r0, r4, lsl r0
 42c:	84080e42 	strhi	r0, [r8], #-3650	; 0xfffff1be
 430:	00018e02 	andeq	r8, r1, r2, lsl #28
 434:	0000000c 	andeq	r0, r0, ip
 438:	ffffffff 			; <UNDEFINED> instruction: 0xffffffff
 43c:	7c020001 	stcvc	0, cr0, [r2], {1}
 440:	000d0c0e 	andeq	r0, sp, lr, lsl #24
 444:	0000001c 	andeq	r0, r0, ip, lsl r0
 448:	00000434 	andeq	r0, r0, r4, lsr r4
 44c:	00008c38 	andeq	r8, r0, r8, lsr ip
 450:	00000054 	andeq	r0, r0, r4, asr r0
 454:	84180e42 	ldrhi	r0, [r8], #-3650	; 0xfffff1be
 458:	86058506 	strhi	r8, [r5], -r6, lsl #10
 45c:	88038704 	stmdahi	r3, {r2, r8, r9, sl, pc}
 460:	00018e02 	andeq	r8, r1, r2, lsl #28
 464:	00000014 	andeq	r0, r0, r4, lsl r0
 468:	00000434 	andeq	r0, r0, r4, lsr r4
 46c:	00008c8c 	andeq	r8, r0, ip, lsl #25
 470:	00000010 	andeq	r0, r0, r0, lsl r0
 474:	84080e42 	strhi	r0, [r8], #-3650	; 0xfffff1be
 478:	00018e02 	andeq	r8, r1, r2, lsl #28
 47c:	00000014 	andeq	r0, r0, r4, lsl r0
 480:	00000434 	andeq	r0, r0, r4, lsr r4
 484:	00008c9c 	muleq	r0, ip, ip
 488:	0000001c 	andeq	r0, r0, ip, lsl r0
 48c:	84080e42 	strhi	r0, [r8], #-3650	; 0xfffff1be
 490:	00018e02 	andeq	r8, r1, r2, lsl #28
 494:	00000014 	andeq	r0, r0, r4, lsl r0
 498:	00000434 	andeq	r0, r0, r4, lsr r4
 49c:	00008cb8 			; <UNDEFINED> instruction: 0x00008cb8
 4a0:	0000001c 	andeq	r0, r0, ip, lsl r0
 4a4:	84080e42 	strhi	r0, [r8], #-3650	; 0xfffff1be
 4a8:	00018e02 	andeq	r8, r1, r2, lsl #28
 4ac:	00000014 	andeq	r0, r0, r4, lsl r0
 4b0:	00000434 	andeq	r0, r0, r4, lsr r4
 4b4:	00008cd4 	ldrdeq	r8, [r0], -r4
 4b8:	0000001c 	andeq	r0, r0, ip, lsl r0
 4bc:	84080e42 	strhi	r0, [r8], #-3650	; 0xfffff1be
 4c0:	00018e02 	andeq	r8, r1, r2, lsl #28
 4c4:	00000014 	andeq	r0, r0, r4, lsl r0
 4c8:	00000434 	andeq	r0, r0, r4, lsr r4
 4cc:	00008cf0 	strdeq	r8, [r0], -r0
 4d0:	00000010 	andeq	r0, r0, r0, lsl r0
 4d4:	84080e42 	strhi	r0, [r8], #-3650	; 0xfffff1be
 4d8:	00018e02 	andeq	r8, r1, r2, lsl #28
 4dc:	00000014 	andeq	r0, r0, r4, lsl r0
 4e0:	00000434 	andeq	r0, r0, r4, lsr r4
 4e4:	00008d00 	andeq	r8, r0, r0, lsl #26
 4e8:	00000020 	andeq	r0, r0, r0, lsr #32
 4ec:	84080e42 	strhi	r0, [r8], #-3650	; 0xfffff1be
 4f0:	00018e02 	andeq	r8, r1, r2, lsl #28
 4f4:	0000000c 	andeq	r0, r0, ip
 4f8:	ffffffff 			; <UNDEFINED> instruction: 0xffffffff
 4fc:	7c020001 	stcvc	0, cr0, [r2], {1}
 500:	000d0c0e 	andeq	r0, sp, lr, lsl #24
 504:	00000014 	andeq	r0, r0, r4, lsl r0
 508:	000004f4 	strdeq	r0, [r0], -r4
 50c:	00008d20 	andeq	r8, r0, r0, lsr #26
 510:	00000014 	andeq	r0, r0, r4, lsl r0
 514:	84080e42 	strhi	r0, [r8], #-3650	; 0xfffff1be
 518:	00018e02 	andeq	r8, r1, r2, lsl #28
 51c:	0000000c 	andeq	r0, r0, ip
 520:	000004f4 	strdeq	r0, [r0], -r4
 524:	00008d34 	andeq	r8, r0, r4, lsr sp
 528:	00000018 	andeq	r0, r0, r8, lsl r0
 52c:	0000000c 	andeq	r0, r0, ip
 530:	000004f4 	strdeq	r0, [r0], -r4
 534:	00008d4c 	andeq	r8, r0, ip, asr #26
 538:	00000010 	andeq	r0, r0, r0, lsl r0
 53c:	0000000c 	andeq	r0, r0, ip
 540:	ffffffff 			; <UNDEFINED> instruction: 0xffffffff
 544:	7c020001 	stcvc	0, cr0, [r2], {1}
 548:	000d0c0e 	andeq	r0, sp, lr, lsl #24
 54c:	0000000c 	andeq	r0, r0, ip
 550:	0000053c 	andeq	r0, r0, ip, lsr r5
 554:	00008d5c 	andeq	r8, r0, ip, asr sp
 558:	00000034 	andeq	r0, r0, r4, lsr r0
 55c:	0000000c 	andeq	r0, r0, ip
 560:	ffffffff 			; <UNDEFINED> instruction: 0xffffffff
 564:	7c020001 	stcvc	0, cr0, [r2], {1}
 568:	000d0c0e 	andeq	r0, sp, lr, lsl #24
 56c:	0000000c 	andeq	r0, r0, ip
 570:	0000055c 	andeq	r0, r0, ip, asr r5
 574:	00008d90 	muleq	r0, r0, sp
 578:	0000002c 	andeq	r0, r0, ip, lsr #32

Disassembly of section .debug_ranges:

00000000 <.debug_ranges>:
   0:	000003b8 			; <UNDEFINED> instruction: 0x000003b8
   4:	000004a4 	andeq	r0, r0, r4, lsr #9
   8:	000004ac 	andeq	r0, r0, ip, lsr #9
   c:	000005d0 	ldrdeq	r0, [r0], -r0	; <UNPREDICTABLE>
	...
  18:	0000895c 	andeq	r8, r0, ip, asr r9
  1c:	000089d8 	ldrdeq	r8, [r0], -r8	; <UNPREDICTABLE>
	...
  28:	00008d90 	muleq	r0, r0, sp
  2c:	00008dbc 			; <UNDEFINED> instruction: 0x00008dbc
	...
