
2-set-stuff.elf:     file format elf32-littlearm


Disassembly of section .text:

00008000 <__code_start__>:
    8000:	e3a00013 	mov	r0, #19, 0
    8004:	e3800080 	orr	r0, r0, #128, 0	; 0x80
    8008:	e129f000 	msr	CPSR_fc, r0
    800c:	e3a01000 	mov	r1, #0, 0
    8010:	ee071f95 	mcr	15, 0, r1, cr7, cr5, {4}
    8014:	e3a0d302 	mov	sp, #134217728	; 0x8000000
    8018:	e3a0b000 	mov	fp, #0, 0
    801c:	eb000270 	bl	89e4 <_cstart>
    8020:	eb000287 	bl	8a44 <rpi_reboot>

00008024 <PUT32>:
    8024:	e5801000 	str	r1, [r0]
    8028:	e12fff1e 	bx	lr

0000802c <GET32>:
    802c:	e5900000 	ldr	r0, [r0]
    8030:	e12fff1e 	bx	lr

00008034 <notmain>:
    8034:	e92d4070 	push	{r4, r5, r6, lr}
    8038:	eb0002ca 	bl	8b68 <uart_init>
    803c:	e59f00e8 	ldr	r0, [pc, #232]	; 812c <notmain+0xf8>
    8040:	eb0000ae 	bl	8300 <printk>
    8044:	e59f00e4 	ldr	r0, [pc, #228]	; 8130 <notmain+0xfc>
    8048:	eb0000ac 	bl	8300 <printk>
    804c:	e3a00000 	mov	r0, #0, 0
    8050:	eb00004b 	bl	8184 <trace_start>
    8054:	e3a00014 	mov	r0, #20, 0
    8058:	eb000357 	bl	8dbc <gpio_read>
    805c:	e1a04000 	mov	r4, r0
    8060:	eb00005e 	bl	81e0 <trace_stop>
    8064:	e1a01004 	mov	r1, r4
    8068:	e59f00c4 	ldr	r0, [pc, #196]	; 8134 <notmain+0x100>
    806c:	eb0000a3 	bl	8300 <printk>
    8070:	e59f40c0 	ldr	r4, [pc, #192]	; 8138 <notmain+0x104>
    8074:	e1a01004 	mov	r1, r4
    8078:	e59f00bc 	ldr	r0, [pc, #188]	; 813c <notmain+0x108>
    807c:	eb00009f 	bl	8300 <printk>
    8080:	e3a00000 	mov	r0, #0, 0
    8084:	eb00003e 	bl	8184 <trace_start>
    8088:	e3a00014 	mov	r0, #20, 0
    808c:	eb00034a 	bl	8dbc <gpio_read>
    8090:	eb000052 	bl	81e0 <trace_stop>
    8094:	e1a01004 	mov	r1, r4
    8098:	e59f00a0 	ldr	r0, [pc, #160]	; 8140 <notmain+0x10c>
    809c:	eb000097 	bl	8300 <printk>
    80a0:	e3a04014 	mov	r4, #20, 0
    80a4:	ea00000c 	b	80dc <notmain+0xa8>
    80a8:	e59f5094 	ldr	r5, [pc, #148]	; 8144 <notmain+0x110>
    80ac:	e1a01005 	mov	r1, r5
    80b0:	e59f0084 	ldr	r0, [pc, #132]	; 813c <notmain+0x108>
    80b4:	eb000091 	bl	8300 <printk>
    80b8:	e3a00000 	mov	r0, #0, 0
    80bc:	eb000030 	bl	8184 <trace_start>
    80c0:	e1a00004 	mov	r0, r4
    80c4:	eb00031f 	bl	8d48 <gpio_set_output>
    80c8:	eb000044 	bl	81e0 <trace_stop>
    80cc:	e1a01005 	mov	r1, r5
    80d0:	e59f0068 	ldr	r0, [pc, #104]	; 8140 <notmain+0x10c>
    80d4:	eb000089 	bl	8300 <printk>
    80d8:	e2844001 	add	r4, r4, #1, 0
    80dc:	e354001a 	cmp	r4, #26, 0
    80e0:	dafffff0 	ble	80a8 <notmain+0x74>
    80e4:	e3a04014 	mov	r4, #20, 0
    80e8:	ea00000c 	b	8120 <notmain+0xec>
    80ec:	e59f5054 	ldr	r5, [pc, #84]	; 8148 <notmain+0x114>
    80f0:	e1a01005 	mov	r1, r5
    80f4:	e59f0040 	ldr	r0, [pc, #64]	; 813c <notmain+0x108>
    80f8:	eb000080 	bl	8300 <printk>
    80fc:	e3a00000 	mov	r0, #0, 0
    8100:	eb00001f 	bl	8184 <trace_start>
    8104:	e1a00004 	mov	r0, r4
    8108:	eb000327 	bl	8dac <gpio_set_input>
    810c:	eb000033 	bl	81e0 <trace_stop>
    8110:	e1a01005 	mov	r1, r5
    8114:	e59f0024 	ldr	r0, [pc, #36]	; 8140 <notmain+0x10c>
    8118:	eb000078 	bl	8300 <printk>
    811c:	e2844001 	add	r4, r4, #1, 0
    8120:	e354001a 	cmp	r4, #26, 0
    8124:	dafffff0 	ble	80ec <notmain+0xb8>
    8128:	eb000222 	bl	89b8 <clean_reboot>
    812c:	00008e78 	andeq	r8, r0, r8, ror lr
    8130:	00008e80 	andeq	r8, r0, r0, lsl #29
    8134:	00008ea0 	andeq	r8, r0, r0, lsr #29
    8138:	00008eb8 			; <UNDEFINED> instruction: 0x00008eb8
    813c:	00008ec8 	andeq	r8, r0, r8, asr #29
    8140:	00008ee0 	andeq	r8, r0, r0, ror #29
    8144:	00008eec 	andeq	r8, r0, ip, ror #29
    8148:	00008f00 	andeq	r8, r0, r0, lsl #30

0000814c <emit_put32>:
    814c:	e92d4010 	push	{r4, lr}
    8150:	e1a02001 	mov	r2, r1
    8154:	e1a01000 	mov	r1, r0
    8158:	e59f0004 	ldr	r0, [pc, #4]	; 8164 <emit_put32+0x18>
    815c:	eb000067 	bl	8300 <printk>
    8160:	e8bd8010 	pop	{r4, pc}
    8164:	00008f14 	andeq	r8, r0, r4, lsl pc

00008168 <emit_get32>:
    8168:	e92d4010 	push	{r4, lr}
    816c:	e1a02001 	mov	r2, r1
    8170:	e1a01000 	mov	r1, r0
    8174:	e59f0004 	ldr	r0, [pc, #4]	; 8180 <emit_get32+0x18>
    8178:	eb000060 	bl	8300 <printk>
    817c:	e8bd8010 	pop	{r4, pc}
    8180:	00008f28 	andeq	r8, r0, r8, lsr #30

00008184 <trace_start>:
    8184:	e59f3040 	ldr	r3, [pc, #64]	; 81cc <trace_start+0x48>
    8188:	e5933000 	ldr	r3, [r3]
    818c:	e3530000 	cmp	r3, #0, 0
    8190:	1a000003 	bne	81a4 <trace_start+0x20>
    8194:	e59f3030 	ldr	r3, [pc, #48]	; 81cc <trace_start+0x48>
    8198:	e3a02001 	mov	r2, #1, 0
    819c:	e5832000 	str	r2, [r3]
    81a0:	e12fff1e 	bx	lr
    81a4:	e52de004 	push	{lr}		; (str lr, [sp, #-4]!)
    81a8:	e24dd00c 	sub	sp, sp, #12, 0
    81ac:	e59f301c 	ldr	r3, [pc, #28]	; 81d0 <trace_start+0x4c>
    81b0:	e58d3000 	str	r3, [sp]
    81b4:	e3a0302f 	mov	r3, #47, 0	; 0x2f
    81b8:	e59f2014 	ldr	r2, [pc, #20]	; 81d4 <trace_start+0x50>
    81bc:	e59f1014 	ldr	r1, [pc, #20]	; 81d8 <trace_start+0x54>
    81c0:	e59f0014 	ldr	r0, [pc, #20]	; 81dc <trace_start+0x58>
    81c4:	eb00004d 	bl	8300 <printk>
    81c8:	eb0001fa 	bl	89b8 <clean_reboot>
    81cc:	000090c0 	andeq	r9, r0, r0, asr #1
    81d0:	00008f60 	andeq	r8, r0, r0, ror #30
    81d4:	00008f88 	andeq	r8, r0, r8, lsl #31
    81d8:	00008f3c 	andeq	r8, r0, ip, lsr pc
    81dc:	00008f4c 	andeq	r8, r0, ip, asr #30

000081e0 <trace_stop>:
    81e0:	e59f3040 	ldr	r3, [pc, #64]	; 8228 <trace_stop+0x48>
    81e4:	e5933000 	ldr	r3, [r3]
    81e8:	e3530001 	cmp	r3, #1, 0
    81ec:	1a000003 	bne	8200 <trace_stop+0x20>
    81f0:	e59f3030 	ldr	r3, [pc, #48]	; 8228 <trace_stop+0x48>
    81f4:	e3a02000 	mov	r2, #0, 0
    81f8:	e5832000 	str	r2, [r3]
    81fc:	e12fff1e 	bx	lr
    8200:	e52de004 	push	{lr}		; (str lr, [sp, #-4]!)
    8204:	e24dd00c 	sub	sp, sp, #12, 0
    8208:	e59f301c 	ldr	r3, [pc, #28]	; 822c <trace_stop+0x4c>
    820c:	e58d3000 	str	r3, [sp]
    8210:	e3a03036 	mov	r3, #54, 0	; 0x36
    8214:	e59f2014 	ldr	r2, [pc, #20]	; 8230 <trace_stop+0x50>
    8218:	e59f1014 	ldr	r1, [pc, #20]	; 8234 <trace_stop+0x54>
    821c:	e59f0014 	ldr	r0, [pc, #20]	; 8238 <trace_stop+0x58>
    8220:	eb000036 	bl	8300 <printk>
    8224:	eb0001e3 	bl	89b8 <clean_reboot>
    8228:	000090c0 	andeq	r9, r0, r0, asr #1
    822c:	00008f74 	andeq	r8, r0, r4, ror pc
    8230:	00008f94 	muleq	r0, r4, pc	; <UNPREDICTABLE>
    8234:	00008f3c 	andeq	r8, r0, ip, lsr pc
    8238:	00008f4c 	andeq	r8, r0, ip, asr #30

0000823c <__wrap_PUT32>:
    823c:	e92d4070 	push	{r4, r5, r6, lr}
    8240:	e1a04000 	mov	r4, r0
    8244:	e1a05001 	mov	r5, r1
    8248:	e59f3044 	ldr	r3, [pc, #68]	; 8294 <__wrap_PUT32+0x58>
    824c:	e5933000 	ldr	r3, [r3]
    8250:	e3530001 	cmp	r3, #1, 0
    8254:	0a000003 	beq	8268 <__wrap_PUT32+0x2c>
    8258:	e1a01005 	mov	r1, r5
    825c:	e1a00004 	mov	r0, r4
    8260:	ebffff6f 	bl	8024 <PUT32>
    8264:	e8bd8070 	pop	{r4, r5, r6, pc}
    8268:	e59f3028 	ldr	r3, [pc, #40]	; 8298 <__wrap_PUT32+0x5c>
    826c:	e5933000 	ldr	r3, [r3]
    8270:	e3530000 	cmp	r3, #0, 0
    8274:	1afffff7 	bne	8258 <__wrap_PUT32+0x1c>
    8278:	e59f6018 	ldr	r6, [pc, #24]	; 8298 <__wrap_PUT32+0x5c>
    827c:	e3a03001 	mov	r3, #1, 0
    8280:	e5863000 	str	r3, [r6]
    8284:	ebffffb0 	bl	814c <emit_put32>
    8288:	e3a03000 	mov	r3, #0, 0
    828c:	e5863000 	str	r3, [r6]
    8290:	eafffff0 	b	8258 <__wrap_PUT32+0x1c>
    8294:	000090c0 	andeq	r9, r0, r0, asr #1
    8298:	000094c4 	andeq	r9, r0, r4, asr #9

0000829c <__wrap_GET32>:
    829c:	e92d4070 	push	{r4, r5, r6, lr}
    82a0:	e1a05000 	mov	r5, r0
    82a4:	ebffff60 	bl	802c <GET32>
    82a8:	e1a04000 	mov	r4, r0
    82ac:	e59f3044 	ldr	r3, [pc, #68]	; 82f8 <__wrap_GET32+0x5c>
    82b0:	e5933000 	ldr	r3, [r3]
    82b4:	e3530001 	cmp	r3, #1, 0
    82b8:	0a000001 	beq	82c4 <__wrap_GET32+0x28>
    82bc:	e1a00004 	mov	r0, r4
    82c0:	e8bd8070 	pop	{r4, r5, r6, pc}
    82c4:	e59f3030 	ldr	r3, [pc, #48]	; 82fc <__wrap_GET32+0x60>
    82c8:	e5933000 	ldr	r3, [r3]
    82cc:	e3530000 	cmp	r3, #0, 0
    82d0:	1afffff9 	bne	82bc <__wrap_GET32+0x20>
    82d4:	e59f6020 	ldr	r6, [pc, #32]	; 82fc <__wrap_GET32+0x60>
    82d8:	e3a03001 	mov	r3, #1, 0
    82dc:	e5863000 	str	r3, [r6]
    82e0:	e1a01000 	mov	r1, r0
    82e4:	e1a00005 	mov	r0, r5
    82e8:	ebffff9e 	bl	8168 <emit_get32>
    82ec:	e3a03000 	mov	r3, #0, 0
    82f0:	e5863000 	str	r3, [r6]
    82f4:	eafffff0 	b	82bc <__wrap_GET32+0x20>
    82f8:	000090c0 	andeq	r9, r0, r0, asr #1
    82fc:	000094c4 	andeq	r9, r0, r4, asr #9

00008300 <printk>:
    8300:	e92d000f 	push	{r0, r1, r2, r3}
    8304:	e92d4030 	push	{r4, r5, lr}
    8308:	e24dd00c 	sub	sp, sp, #12, 0
    830c:	e28d301c 	add	r3, sp, #28, 0
    8310:	e58d3004 	str	r3, [sp, #4]
    8314:	e59f5034 	ldr	r5, [pc, #52]	; 8350 <printk+0x50>
    8318:	e59d2018 	ldr	r2, [sp, #24]
    831c:	e3a01b01 	mov	r1, #1024	; 0x400
    8320:	e1a00005 	mov	r0, r5
    8324:	eb0000ba 	bl	8614 <va_printk>
    8328:	e1a04000 	mov	r4, r0
    832c:	e59f3020 	ldr	r3, [pc, #32]	; 8354 <printk+0x54>
    8330:	e5933000 	ldr	r3, [r3]
    8334:	e1a00005 	mov	r0, r5
    8338:	e12fff33 	blx	r3
    833c:	e1a00004 	mov	r0, r4
    8340:	e28dd00c 	add	sp, sp, #12, 0
    8344:	e8bd4030 	pop	{r4, r5, lr}
    8348:	e28dd010 	add	sp, sp, #16, 0
    834c:	e12fff1e 	bx	lr
    8350:	000090c4 	andeq	r9, r0, r4, asr #1
    8354:	000090b8 	strheq	r9, [r0], -r8

00008358 <internal_putk>:
    8358:	e92d4010 	push	{r4, lr}
    835c:	e1a04000 	mov	r4, r0
    8360:	e5d40000 	ldrb	r0, [r4]
    8364:	e3500000 	cmp	r0, #0, 0
    8368:	0a000004 	beq	8380 <internal_putk+0x28>
    836c:	e59f3014 	ldr	r3, [pc, #20]	; 8388 <internal_putk+0x30>
    8370:	e5933000 	ldr	r3, [r3]
    8374:	e12fff33 	blx	r3
    8378:	e2844001 	add	r4, r4, #1, 0
    837c:	eafffff7 	b	8360 <internal_putk+0x8>
    8380:	e3a00001 	mov	r0, #1, 0
    8384:	e8bd8010 	pop	{r4, pc}
    8388:	000090bc 	strheq	r9, [r0], -ip

0000838c <isdigit>:
    838c:	e2400030 	sub	r0, r0, #48, 0	; 0x30
    8390:	e3500009 	cmp	r0, #9, 0
    8394:	83a00000 	movhi	r0, #0, 0
    8398:	93a00001 	movls	r0, #1, 0
    839c:	e12fff1e 	bx	lr

000083a0 <pad>:
    83a0:	e0401001 	sub	r1, r0, r1
    83a4:	e1510002 	cmp	r1, r2
    83a8:	b3a03020 	movlt	r3, #32, 0
    83ac:	b4c03001 	strblt	r3, [r0], #1
    83b0:	b2811001 	addlt	r1, r1, #1, 0
    83b4:	bafffffa 	blt	83a4 <pad+0x4>
    83b8:	e3a03000 	mov	r3, #0, 0
    83bc:	e5c03000 	strb	r3, [r0]
    83c0:	e12fff1e 	bx	lr

000083c4 <reverse>:
    83c4:	e042c003 	sub	ip, r2, r3
    83c8:	e28cc001 	add	ip, ip, #1, 0
    83cc:	e15c0001 	cmp	ip, r1
    83d0:	c04cc001 	subgt	ip, ip, r1
    83d4:	c083300c 	addgt	r3, r3, ip
    83d8:	e2421001 	sub	r1, r2, #1, 0
    83dc:	e1a02000 	mov	r2, r0
    83e0:	e1510003 	cmp	r1, r3
    83e4:	2451c001 	ldrbcs	ip, [r1], #-1
    83e8:	24c2c001 	strbcs	ip, [r2], #1
    83ec:	2afffffb 	bcs	83e0 <reverse+0x1c>
    83f0:	e3a03000 	mov	r3, #0, 0
    83f4:	e5c23000 	strb	r3, [r2]
    83f8:	e12fff1e 	bx	lr

000083fc <emit>:
    83fc:	e92d40f0 	push	{r4, r5, r6, r7, lr}
    8400:	e24dd04c 	sub	sp, sp, #76, 0	; 0x4c
    8404:	e1a05001 	mov	r5, r1
    8408:	e1a04002 	mov	r4, r2
    840c:	e59d2060 	ldr	r2, [sp, #96]	; 0x60
    8410:	e1520004 	cmp	r2, r4
    8414:	c2442001 	subgt	r2, r4, #1, 0
    8418:	e1a0c003 	mov	ip, r3
    841c:	e2400002 	sub	r0, r0, #2, 0
    8420:	e350000e 	cmp	r0, #14, 0
    8424:	979ff100 	ldrls	pc, [pc, r0, lsl #2]
    8428:	ea000050 	b	8570 <emit+0x174>
    842c:	00008548 	andeq	r8, r0, r8, asr #10
    8430:	00008570 	andeq	r8, r0, r0, ror r5
    8434:	00008570 	andeq	r8, r0, r0, ror r5
    8438:	00008570 	andeq	r8, r0, r0, ror r5
    843c:	00008570 	andeq	r8, r0, r0, ror r5
    8440:	00008570 	andeq	r8, r0, r0, ror r5
    8444:	0000853c 	andeq	r8, r0, ip, lsr r5
    8448:	00008570 	andeq	r8, r0, r0, ror r5
    844c:	00008468 	andeq	r8, r0, r8, ror #8
    8450:	00008570 	andeq	r8, r0, r0, ror r5
    8454:	00008570 	andeq	r8, r0, r0, ror r5
    8458:	00008570 	andeq	r8, r0, r0, ror r5
    845c:	00008570 	andeq	r8, r0, r0, ror r5
    8460:	00008570 	andeq	r8, r0, r0, ror r5
    8464:	000084e0 	andeq	r8, r0, r0, ror #9
    8468:	e59d1064 	ldr	r1, [sp, #100]	; 0x64
    846c:	e2511000 	subs	r1, r1, #0, 0
    8470:	13a01001 	movne	r1, #1, 0
    8474:	e0111fa3 	ands	r1, r1, r3, lsr #31
    8478:	0a000016 	beq	84d8 <emit+0xdc>
    847c:	e263c000 	rsb	ip, r3, #0, 0
    8480:	e3a06001 	mov	r6, #1, 0
    8484:	e28d0008 	add	r0, sp, #8, 0
    8488:	e59f3100 	ldr	r3, [pc, #256]	; 8590 <emit+0x194>
    848c:	e0831c93 	umull	r1, r3, r3, ip
    8490:	e1a031a3 	lsr	r3, r3, #3
    8494:	e1a0e003 	mov	lr, r3
    8498:	e0833103 	add	r3, r3, r3, lsl #2
    849c:	e04c3083 	sub	r3, ip, r3, lsl #1
    84a0:	e1a01000 	mov	r1, r0
    84a4:	e2800001 	add	r0, r0, #1, 0
    84a8:	e59f70e4 	ldr	r7, [pc, #228]	; 8594 <emit+0x198>
    84ac:	e7d73003 	ldrb	r3, [r7, r3]
    84b0:	e5c13000 	strb	r3, [r1]
    84b4:	e1a0300c 	mov	r3, ip
    84b8:	e1a0c00e 	mov	ip, lr
    84bc:	e3530009 	cmp	r3, #9, 0
    84c0:	8afffff0 	bhi	8488 <emit+0x8c>
    84c4:	e3560000 	cmp	r6, #0, 0
    84c8:	13a0302d 	movne	r3, #45, 0	; 0x2d
    84cc:	15c03000 	strbne	r3, [r0]
    84d0:	12810002 	addne	r0, r1, #2, 0
    84d4:	ea00000f 	b	8518 <emit+0x11c>
    84d8:	e3a06000 	mov	r6, #0, 0
    84dc:	eaffffe8 	b	8484 <emit+0x88>
    84e0:	e28d1008 	add	r1, sp, #8, 0
    84e4:	e20c000f 	and	r0, ip, #15, 0
    84e8:	e59fe0a8 	ldr	lr, [pc, #168]	; 8598 <emit+0x19c>
    84ec:	e7de0000 	ldrb	r0, [lr, r0]
    84f0:	e5c10000 	strb	r0, [r1]
    84f4:	e2811001 	add	r1, r1, #1, 0
    84f8:	e35c000f 	cmp	ip, #15, 0
    84fc:	e1a0c22c 	lsr	ip, ip, #4
    8500:	8afffff7 	bhi	84e4 <emit+0xe8>
    8504:	e1a00001 	mov	r0, r1
    8508:	e3a03078 	mov	r3, #120, 0	; 0x78
    850c:	e4c03002 	strb	r3, [r0], #2
    8510:	e3a03030 	mov	r3, #48, 0	; 0x30
    8514:	e5c13001 	strb	r3, [r1, #1]
    8518:	e28d1008 	add	r1, sp, #8, 0
    851c:	ebffff9f 	bl	83a0 <pad>
    8520:	e1a02000 	mov	r2, r0
    8524:	e28d3008 	add	r3, sp, #8, 0
    8528:	e1a01004 	mov	r1, r4
    852c:	e1a00005 	mov	r0, r5
    8530:	ebffffa3 	bl	83c4 <reverse>
    8534:	e28dd04c 	add	sp, sp, #76, 0	; 0x4c
    8538:	e8bd80f0 	pop	{r4, r5, r6, r7, pc}
    853c:	e5cd3008 	strb	r3, [sp, #8]
    8540:	e28d0009 	add	r0, sp, #9, 0
    8544:	eafffff3 	b	8518 <emit+0x11c>
    8548:	e28d0008 	add	r0, sp, #8, 0
    854c:	e20c1001 	and	r1, ip, #1, 0
    8550:	e59fe044 	ldr	lr, [pc, #68]	; 859c <emit+0x1a0>
    8554:	e7de1001 	ldrb	r1, [lr, r1]
    8558:	e5c01000 	strb	r1, [r0]
    855c:	e2800001 	add	r0, r0, #1, 0
    8560:	e35c0001 	cmp	ip, #1, 0
    8564:	e1a0c0ac 	lsr	ip, ip, #1
    8568:	8afffff7 	bhi	854c <emit+0x150>
    856c:	eaffffe9 	b	8518 <emit+0x11c>
    8570:	e59f3028 	ldr	r3, [pc, #40]	; 85a0 <emit+0x1a4>
    8574:	e58d3000 	str	r3, [sp]
    8578:	e3a03079 	mov	r3, #121, 0	; 0x79
    857c:	e59f2020 	ldr	r2, [pc, #32]	; 85a4 <emit+0x1a8>
    8580:	e59f1020 	ldr	r1, [pc, #32]	; 85a8 <emit+0x1ac>
    8584:	e59f0020 	ldr	r0, [pc, #32]	; 85ac <emit+0x1b0>
    8588:	ebffff5c 	bl	8300 <printk>
    858c:	eb000109 	bl	89b8 <clean_reboot>
    8590:	cccccccd 	stclgt	12, cr12, [ip], {205}	; 0xcd
    8594:	00008fb8 			; <UNDEFINED> instruction: 0x00008fb8
    8598:	00008fc4 	andeq	r8, r0, r4, asr #31
    859c:	00008fd8 	ldrdeq	r8, [r0], -r8	; <UNPREDICTABLE>
    85a0:	00008fb4 			; <UNDEFINED> instruction: 0x00008fb4
    85a4:	00009088 	andeq	r9, r0, r8, lsl #1
    85a8:	00008fa0 	andeq	r8, r0, r0, lsr #31
    85ac:	00008f4c 	andeq	r8, r0, ip, asr #30

000085b0 <rpi_set_output>:
    85b0:	e3500000 	cmp	r0, #0, 0
    85b4:	0a000006 	beq	85d4 <rpi_set_output+0x24>
    85b8:	e59f303c 	ldr	r3, [pc, #60]	; 85fc <rpi_set_output+0x4c>
    85bc:	e5830000 	str	r0, [r3]
    85c0:	e3510000 	cmp	r1, #0, 0
    85c4:	012fff1e 	bxeq	lr
    85c8:	e59f3030 	ldr	r3, [pc, #48]	; 8600 <rpi_set_output+0x50>
    85cc:	e5831000 	str	r1, [r3]
    85d0:	e12fff1e 	bx	lr
    85d4:	e52de004 	push	{lr}		; (str lr, [sp, #-4]!)
    85d8:	e24dd00c 	sub	sp, sp, #12, 0
    85dc:	e59f3020 	ldr	r3, [pc, #32]	; 8604 <rpi_set_output+0x54>
    85e0:	e58d3000 	str	r3, [sp]
    85e4:	e3a03020 	mov	r3, #32, 0
    85e8:	e59f2018 	ldr	r2, [pc, #24]	; 8608 <rpi_set_output+0x58>
    85ec:	e59f1018 	ldr	r1, [pc, #24]	; 860c <rpi_set_output+0x5c>
    85f0:	e59f0018 	ldr	r0, [pc, #24]	; 8610 <rpi_set_output+0x60>
    85f4:	ebffff41 	bl	8300 <printk>
    85f8:	eb0000ee 	bl	89b8 <clean_reboot>
    85fc:	000090bc 	strheq	r9, [r0], -ip
    8600:	000090b8 	strheq	r9, [r0], -r8
    8604:	00008fdc 	ldrdeq	r8, [r0], -ip
    8608:	00009090 	muleq	r0, r0, r0
    860c:	00008fa0 	andeq	r8, r0, r0, lsr #31
    8610:	00008f4c 	andeq	r8, r0, ip, asr #30

00008614 <va_printk>:
    8614:	e92d4ff0 	push	{r4, r5, r6, r7, r8, r9, sl, fp, lr}
    8618:	e24ddf45 	sub	sp, sp, #276	; 0x114
    861c:	e1a09000 	mov	r9, r0
    8620:	e58d2008 	str	r2, [sp, #8]
    8624:	e58d300c 	str	r3, [sp, #12]
    8628:	e2411001 	sub	r1, r1, #1, 0
    862c:	e0808001 	add	r8, r0, r1
    8630:	e3a03000 	mov	r3, #0, 0
    8634:	e5c03000 	strb	r3, [r0]
    8638:	e1a04000 	mov	r4, r0
    863c:	e1a06002 	mov	r6, r2
    8640:	ea000001 	b	864c <va_printk+0x38>
    8644:	e2866001 	add	r6, r6, #1, 0
    8648:	e4c43001 	strb	r3, [r4], #1
    864c:	e5d63000 	ldrb	r3, [r6]
    8650:	e3530000 	cmp	r3, #0, 0
    8654:	0a0000c8 	beq	897c <va_printk+0x368>
    8658:	e1540008 	cmp	r4, r8
    865c:	2a0000c6 	bcs	897c <va_printk+0x368>
    8660:	e3530025 	cmp	r3, #37, 0	; 0x25
    8664:	1afffff6 	bne	8644 <va_printk+0x30>
    8668:	e5d62001 	ldrb	r2, [r6, #1]
    866c:	e3520025 	cmp	r2, #37, 0	; 0x25
    8670:	04c43001 	strbeq	r3, [r4], #1
    8674:	02866002 	addeq	r6, r6, #2, 0
    8678:	0afffff3 	beq	864c <va_printk+0x38>
    867c:	e2866001 	add	r6, r6, #1, 0
    8680:	e3a05000 	mov	r5, #0, 0
    8684:	e5d67000 	ldrb	r7, [r6]
    8688:	e1a0a007 	mov	sl, r7
    868c:	e1a00007 	mov	r0, r7
    8690:	ebffff3d 	bl	838c <isdigit>
    8694:	e3500000 	cmp	r0, #0, 0
    8698:	0a000004 	beq	86b0 <va_printk+0x9c>
    869c:	e0855105 	add	r5, r5, r5, lsl #2
    86a0:	e0875085 	add	r5, r7, r5, lsl #1
    86a4:	e2455030 	sub	r5, r5, #48, 0	; 0x30
    86a8:	e2866001 	add	r6, r6, #1, 0
    86ac:	eafffff4 	b	8684 <va_printk+0x70>
    86b0:	e355001f 	cmp	r5, #31, 0
    86b4:	8a00001a 	bhi	8724 <va_printk+0x110>
    86b8:	e2477062 	sub	r7, r7, #98, 0	; 0x62
    86bc:	e3570016 	cmp	r7, #22, 0
    86c0:	979ff107 	ldrls	pc, [pc, r7, lsl #2]
    86c4:	ea000094 	b	891c <va_printk+0x308>
    86c8:	000088a0 	andeq	r8, r0, r0, lsr #17
    86cc:	000088e8 	andeq	r8, r0, r8, ror #17
    86d0:	00008800 	andeq	r8, r0, r0, lsl #16
    86d4:	0000891c 	andeq	r8, r0, ip, lsl r9
    86d8:	000087e8 	andeq	r8, r0, r8, ror #15
    86dc:	0000891c 	andeq	r8, r0, ip, lsl r9
    86e0:	0000891c 	andeq	r8, r0, ip, lsl r9
    86e4:	0000891c 	andeq	r8, r0, ip, lsl r9
    86e8:	0000891c 	andeq	r8, r0, ip, lsl r9
    86ec:	0000891c 	andeq	r8, r0, ip, lsl r9
    86f0:	00008744 	andeq	r8, r0, r4, asr #14
    86f4:	0000891c 	andeq	r8, r0, ip, lsl r9
    86f8:	0000891c 	andeq	r8, r0, ip, lsl r9
    86fc:	0000891c 	andeq	r8, r0, ip, lsl r9
    8700:	0000886c 	andeq	r8, r0, ip, ror #16
    8704:	0000891c 	andeq	r8, r0, ip, lsl r9
    8708:	0000891c 	andeq	r8, r0, ip, lsl r9
    870c:	000088d4 	ldrdeq	r8, [r0], -r4
    8710:	0000891c 	andeq	r8, r0, ip, lsl r9
    8714:	00008838 	andeq	r8, r0, r8, lsr r8
    8718:	0000891c 	andeq	r8, r0, ip, lsl r9
    871c:	0000891c 	andeq	r8, r0, ip, lsl r9
    8720:	0000886c 	andeq	r8, r0, ip, ror #16
    8724:	e59f3264 	ldr	r3, [pc, #612]	; 8990 <va_printk+0x37c>
    8728:	e58d3000 	str	r3, [sp]
    872c:	e3a03098 	mov	r3, #152, 0	; 0x98
    8730:	e59f225c 	ldr	r2, [pc, #604]	; 8994 <va_printk+0x380>
    8734:	e59f125c 	ldr	r1, [pc, #604]	; 8998 <va_printk+0x384>
    8738:	e59f025c 	ldr	r0, [pc, #604]	; 899c <va_printk+0x388>
    873c:	ebfffeef 	bl	8300 <printk>
    8740:	eb00009c 	bl	89b8 <clean_reboot>
    8744:	e3a02003 	mov	r2, #3, 0
    8748:	e59f1250 	ldr	r1, [pc, #592]	; 89a0 <va_printk+0x38c>
    874c:	e1a00006 	mov	r0, r6
    8750:	eb0001bd 	bl	8e4c <strncmp>
    8754:	e3500000 	cmp	r0, #0, 0
    8758:	1a00001a 	bne	87c8 <va_printk+0x1b4>
    875c:	e2866002 	add	r6, r6, #2, 0
    8760:	e59d300c 	ldr	r3, [sp, #12]
    8764:	e2833007 	add	r3, r3, #7, 0
    8768:	e3c33007 	bic	r3, r3, #7, 0
    876c:	e2832008 	add	r2, r3, #8, 0
    8770:	e58d200c 	str	r2, [sp, #12]
    8774:	e593b000 	ldr	fp, [r3]
    8778:	e5933004 	ldr	r3, [r3, #4]
    877c:	e3a0a000 	mov	sl, #0, 0
    8780:	e58da004 	str	sl, [sp, #4]
    8784:	e58d5000 	str	r5, [sp]
    8788:	e3a02080 	mov	r2, #128, 0	; 0x80
    878c:	e28d1010 	add	r1, sp, #16, 0
    8790:	e3a00010 	mov	r0, #16, 0
    8794:	ebffff18 	bl	83fc <emit>
    8798:	e1a07000 	mov	r7, r0
    879c:	e58da004 	str	sl, [sp, #4]
    87a0:	e58d5000 	str	r5, [sp]
    87a4:	e1a0300b 	mov	r3, fp
    87a8:	e3a02080 	mov	r2, #128, 0	; 0x80
    87ac:	e28d1090 	add	r1, sp, #144, 0	; 0x90
    87b0:	e3a00010 	mov	r0, #16, 0
    87b4:	ebffff10 	bl	83fc <emit>
    87b8:	e28d1092 	add	r1, sp, #146, 0	; 0x92
    87bc:	e28d0010 	add	r0, sp, #16, 0
    87c0:	eb000194 	bl	8e18 <strcat>
    87c4:	ea000019 	b	8830 <va_printk+0x21c>
    87c8:	e59f31d4 	ldr	r3, [pc, #468]	; 89a4 <va_printk+0x390>
    87cc:	e58d3000 	str	r3, [sp]
    87d0:	e3a0309d 	mov	r3, #157, 0	; 0x9d
    87d4:	e59f21b8 	ldr	r2, [pc, #440]	; 8994 <va_printk+0x380>
    87d8:	e59f11b8 	ldr	r1, [pc, #440]	; 8998 <va_printk+0x384>
    87dc:	e59f01b8 	ldr	r0, [pc, #440]	; 899c <va_printk+0x388>
    87e0:	ebfffec6 	bl	8300 <printk>
    87e4:	eb000073 	bl	89b8 <clean_reboot>
    87e8:	e3a030af 	mov	r3, #175, 0	; 0xaf
    87ec:	e59f21a0 	ldr	r2, [pc, #416]	; 8994 <va_printk+0x380>
    87f0:	e59f11a0 	ldr	r1, [pc, #416]	; 8998 <va_printk+0x384>
    87f4:	e59f01ac 	ldr	r0, [pc, #428]	; 89a8 <va_printk+0x394>
    87f8:	ebfffec0 	bl	8300 <printk>
    87fc:	eb00006d 	bl	89b8 <clean_reboot>
    8800:	e59d300c 	ldr	r3, [sp, #12]
    8804:	e2832004 	add	r2, r3, #4, 0
    8808:	e58d200c 	str	r2, [sp, #12]
    880c:	e5933000 	ldr	r3, [r3]
    8810:	e3a02001 	mov	r2, #1, 0
    8814:	e58d2004 	str	r2, [sp, #4]
    8818:	e58d5000 	str	r5, [sp]
    881c:	e3a02080 	mov	r2, #128, 0	; 0x80
    8820:	e28d1010 	add	r1, sp, #16, 0
    8824:	e3a0000a 	mov	r0, #10, 0
    8828:	ebfffef3 	bl	83fc <emit>
    882c:	e1a07000 	mov	r7, r0
    8830:	e2866001 	add	r6, r6, #1, 0
    8834:	ea00004a 	b	8964 <va_printk+0x350>
    8838:	e59d300c 	ldr	r3, [sp, #12]
    883c:	e2832004 	add	r2, r3, #4, 0
    8840:	e58d200c 	str	r2, [sp, #12]
    8844:	e5933000 	ldr	r3, [r3]
    8848:	e3a02000 	mov	r2, #0, 0
    884c:	e58d2004 	str	r2, [sp, #4]
    8850:	e58d5000 	str	r5, [sp]
    8854:	e3a02080 	mov	r2, #128, 0	; 0x80
    8858:	e28d1010 	add	r1, sp, #16, 0
    885c:	e3a0000a 	mov	r0, #10, 0
    8860:	ebfffee5 	bl	83fc <emit>
    8864:	e1a07000 	mov	r7, r0
    8868:	eafffff0 	b	8830 <va_printk+0x21c>
    886c:	e59d300c 	ldr	r3, [sp, #12]
    8870:	e2832004 	add	r2, r3, #4, 0
    8874:	e58d200c 	str	r2, [sp, #12]
    8878:	e5933000 	ldr	r3, [r3]
    887c:	e3a02000 	mov	r2, #0, 0
    8880:	e58d2004 	str	r2, [sp, #4]
    8884:	e58d5000 	str	r5, [sp]
    8888:	e3a02080 	mov	r2, #128, 0	; 0x80
    888c:	e28d1010 	add	r1, sp, #16, 0
    8890:	e3a00010 	mov	r0, #16, 0
    8894:	ebfffed8 	bl	83fc <emit>
    8898:	e1a07000 	mov	r7, r0
    889c:	eaffffe3 	b	8830 <va_printk+0x21c>
    88a0:	e59d300c 	ldr	r3, [sp, #12]
    88a4:	e2832004 	add	r2, r3, #4, 0
    88a8:	e58d200c 	str	r2, [sp, #12]
    88ac:	e5933000 	ldr	r3, [r3]
    88b0:	e3a02000 	mov	r2, #0, 0
    88b4:	e58d2004 	str	r2, [sp, #4]
    88b8:	e58d5000 	str	r5, [sp]
    88bc:	e3a02080 	mov	r2, #128, 0	; 0x80
    88c0:	e28d1010 	add	r1, sp, #16, 0
    88c4:	e3a00002 	mov	r0, #2, 0
    88c8:	ebfffecb 	bl	83fc <emit>
    88cc:	e1a07000 	mov	r7, r0
    88d0:	eaffffd6 	b	8830 <va_printk+0x21c>
    88d4:	e59d300c 	ldr	r3, [sp, #12]
    88d8:	e2832004 	add	r2, r3, #4, 0
    88dc:	e58d200c 	str	r2, [sp, #12]
    88e0:	e5937000 	ldr	r7, [r3]
    88e4:	eaffffd1 	b	8830 <va_printk+0x21c>
    88e8:	e59d300c 	ldr	r3, [sp, #12]
    88ec:	e2832004 	add	r2, r3, #4, 0
    88f0:	e58d200c 	str	r2, [sp, #12]
    88f4:	e5933000 	ldr	r3, [r3]
    88f8:	e3a02000 	mov	r2, #0, 0
    88fc:	e58d2004 	str	r2, [sp, #4]
    8900:	e58d5000 	str	r5, [sp]
    8904:	e3a02080 	mov	r2, #128, 0	; 0x80
    8908:	e28d1010 	add	r1, sp, #16, 0
    890c:	e3a00008 	mov	r0, #8, 0
    8910:	ebfffeb9 	bl	83fc <emit>
    8914:	e1a07000 	mov	r7, r0
    8918:	eaffffc4 	b	8830 <va_printk+0x21c>
    891c:	e3a03000 	mov	r3, #0, 0
    8920:	e5c63001 	strb	r3, [r6, #1]
    8924:	e1a0200a 	mov	r2, sl
    8928:	e1a0100a 	mov	r1, sl
    892c:	e59f0078 	ldr	r0, [pc, #120]	; 89ac <va_printk+0x398>
    8930:	ebfffe72 	bl	8300 <printk>
    8934:	e59f3074 	ldr	r3, [pc, #116]	; 89b0 <va_printk+0x39c>
    8938:	e5933000 	ldr	r3, [r3]
    893c:	e59d0008 	ldr	r0, [sp, #8]
    8940:	e12fff33 	blx	r3
    8944:	e3a030d3 	mov	r3, #211, 0	; 0xd3
    8948:	e59f2044 	ldr	r2, [pc, #68]	; 8994 <va_printk+0x380>
    894c:	e59f1044 	ldr	r1, [pc, #68]	; 8998 <va_printk+0x384>
    8950:	e59f005c 	ldr	r0, [pc, #92]	; 89b4 <va_printk+0x3a0>
    8954:	ebfffe69 	bl	8300 <printk>
    8958:	eb000016 	bl	89b8 <clean_reboot>
    895c:	e2877001 	add	r7, r7, #1, 0
    8960:	e4c43001 	strb	r3, [r4], #1
    8964:	e1540008 	cmp	r4, r8
    8968:	2affff37 	bcs	864c <va_printk+0x38>
    896c:	e5d73000 	ldrb	r3, [r7]
    8970:	e3530000 	cmp	r3, #0, 0
    8974:	1afffff8 	bne	895c <va_printk+0x348>
    8978:	eaffff33 	b	864c <va_printk+0x38>
    897c:	e3a03000 	mov	r3, #0, 0
    8980:	e4c43001 	strb	r3, [r4], #1
    8984:	e0440009 	sub	r0, r4, r9
    8988:	e28ddf45 	add	sp, sp, #276	; 0x114
    898c:	e8bd8ff0 	pop	{r4, r5, r6, r7, r8, r9, sl, fp, pc}
    8990:	00008fe4 	andeq	r8, r0, r4, ror #31
    8994:	000090a0 	andeq	r9, r0, r0, lsr #1
    8998:	00008fa0 	andeq	r8, r0, r0, lsr #31
    899c:	00008f4c 	andeq	r8, r0, ip, asr #30
    89a0:	00008ff0 	strdeq	r8, [r0], -r0
    89a4:	00008ff4 	strdeq	r8, [r0], -r4
    89a8:	00009010 	andeq	r9, r0, r0, lsl r0
    89ac:	00009038 	andeq	r9, r0, r8, lsr r0
    89b0:	000090b8 	strheq	r9, [r0], -r8
    89b4:	00009068 	andeq	r9, r0, r8, rrx

000089b8 <clean_reboot>:
    89b8:	e92d4010 	push	{r4, lr}
    89bc:	e59f3018 	ldr	r3, [pc, #24]	; 89dc <clean_reboot+0x24>
    89c0:	e5933000 	ldr	r3, [r3]
    89c4:	e59f0014 	ldr	r0, [pc, #20]	; 89e0 <clean_reboot+0x28>
    89c8:	e12fff33 	blx	r3
    89cc:	eb0000c3 	bl	8ce0 <uart_flush_tx>
    89d0:	e3a0000a 	mov	r0, #10, 0
    89d4:	eb000049 	bl	8b00 <delay_ms>
    89d8:	eb000019 	bl	8a44 <rpi_reboot>
    89dc:	000090b8 	strheq	r9, [r0], -r8
    89e0:	000090ac 	andeq	r9, r0, ip, lsr #1

000089e4 <_cstart>:
    89e4:	e92d4010 	push	{r4, lr}
    89e8:	eb000009 	bl	8a14 <custom_loader>
    89ec:	e59f3018 	ldr	r3, [pc, #24]	; 8a0c <_cstart+0x28>
    89f0:	e59f2018 	ldr	r2, [pc, #24]	; 8a10 <_cstart+0x2c>
    89f4:	e1530002 	cmp	r3, r2
    89f8:	33a02000 	movcc	r2, #0, 0
    89fc:	34832004 	strcc	r2, [r3], #4
    8a00:	3afffffa 	bcc	89f0 <_cstart+0xc>
    8a04:	ebfffd8a 	bl	8034 <notmain>
    8a08:	ebffffea 	bl	89b8 <clean_reboot>
    8a0c:	000090c0 	andeq	r9, r0, r0, asr #1
    8a10:	000094c8 	andeq	r9, r0, r8, asr #9

00008a14 <custom_loader>:
    8a14:	e12fff1e 	bx	lr

00008a18 <at_user_level>:
    8a18:	e10f0000 	mrs	r0, CPSR
    8a1c:	e200001f 	and	r0, r0, #31, 0
    8a20:	e3500010 	cmp	r0, #16, 0
    8a24:	13a00000 	movne	r0, #0, 0
    8a28:	03a00001 	moveq	r0, #1, 0
    8a2c:	e12fff1e 	bx	lr

00008a30 <set_user_level>:
    8a30:	e10f3000 	mrs	r3, CPSR
    8a34:	e3c3301f 	bic	r3, r3, #31, 0
    8a38:	e3833010 	orr	r3, r3, #16, 0
    8a3c:	e129f003 	msr	CPSR_fc, r3
    8a40:	e12fff1e 	bx	lr

00008a44 <rpi_reboot>:
    8a44:	e92d4010 	push	{r4, lr}
    8a48:	ebfffff2 	bl	8a18 <at_user_level>
    8a4c:	e3500000 	cmp	r0, #0, 0
    8a50:	1a000009 	bne	8a7c <rpi_reboot+0x38>
    8a54:	eb0000a1 	bl	8ce0 <uart_flush_tx>
    8a58:	e3a0000a 	mov	r0, #10, 0
    8a5c:	eb000027 	bl	8b00 <delay_ms>
    8a60:	e59f101c 	ldr	r1, [pc, #28]	; 8a84 <rpi_reboot+0x40>
    8a64:	e59f001c 	ldr	r0, [pc, #28]	; 8a88 <rpi_reboot+0x44>
    8a68:	ebfffdf3 	bl	823c <__wrap_PUT32>
    8a6c:	e59f1018 	ldr	r1, [pc, #24]	; 8a8c <rpi_reboot+0x48>
    8a70:	e59f0018 	ldr	r0, [pc, #24]	; 8a90 <rpi_reboot+0x4c>
    8a74:	ebfffdf0 	bl	823c <__wrap_PUT32>
    8a78:	eafffffe 	b	8a78 <rpi_reboot+0x34>
    8a7c:	ebffffeb 	bl	8a30 <set_user_level>
    8a80:	eafffff3 	b	8a54 <rpi_reboot+0x10>
    8a84:	5a000001 	bpl	8a90 <rpi_reboot+0x4c>
    8a88:	20100024 	andscs	r0, r0, r4, lsr #32
    8a8c:	5a000020 	bpl	8b14 <delay_ms+0x14>
    8a90:	2010001c 	andscs	r0, r0, ip, lsl r0

00008a94 <delay_cycles>:
    8a94:	e2403001 	sub	r3, r0, #1, 0
    8a98:	e3500000 	cmp	r0, #0, 0
    8a9c:	012fff1e 	bxeq	lr
    8aa0:	e2811000 	add	r1, r1, #0, 0
    8aa4:	e1a00003 	mov	r0, r3
    8aa8:	eafffff9 	b	8a94 <delay_cycles>

00008aac <timer_get_usec_raw>:
    8aac:	e92d4010 	push	{r4, lr}
    8ab0:	e59f0004 	ldr	r0, [pc, #4]	; 8abc <timer_get_usec_raw+0x10>
    8ab4:	ebfffdf8 	bl	829c <__wrap_GET32>
    8ab8:	e8bd8010 	pop	{r4, pc}
    8abc:	20003004 	andcs	r3, r0, r4

00008ac0 <timer_get_usec>:
    8ac0:	e92d4010 	push	{r4, lr}
    8ac4:	eb000019 	bl	8b30 <dev_barrier>
    8ac8:	ebfffff7 	bl	8aac <timer_get_usec_raw>
    8acc:	e1a04000 	mov	r4, r0
    8ad0:	eb000016 	bl	8b30 <dev_barrier>
    8ad4:	e1a00004 	mov	r0, r4
    8ad8:	e8bd8010 	pop	{r4, pc}

00008adc <delay_us>:
    8adc:	e92d4070 	push	{r4, r5, r6, lr}
    8ae0:	e1a05000 	mov	r5, r0
    8ae4:	ebfffff5 	bl	8ac0 <timer_get_usec>
    8ae8:	e1a04000 	mov	r4, r0
    8aec:	ebfffff3 	bl	8ac0 <timer_get_usec>
    8af0:	e0400004 	sub	r0, r0, r4
    8af4:	e1500005 	cmp	r0, r5
    8af8:	3afffffb 	bcc	8aec <delay_us+0x10>
    8afc:	e8bd8070 	pop	{r4, r5, r6, pc}

00008b00 <delay_ms>:
    8b00:	e92d4010 	push	{r4, lr}
    8b04:	e0603280 	rsb	r3, r0, r0, lsl #5
    8b08:	e0800103 	add	r0, r0, r3, lsl #2
    8b0c:	e1a00180 	lsl	r0, r0, #3
    8b10:	ebfffff1 	bl	8adc <delay_us>
    8b14:	e8bd8010 	pop	{r4, pc}

00008b18 <delay_sec>:
    8b18:	e92d4010 	push	{r4, lr}
    8b1c:	e0603280 	rsb	r3, r0, r0, lsl #5
    8b20:	e0800103 	add	r0, r0, r3, lsl #2
    8b24:	e1a00180 	lsl	r0, r0, #3
    8b28:	ebfffff4 	bl	8b00 <delay_ms>
    8b2c:	e8bd8010 	pop	{r4, pc}

00008b30 <dev_barrier>:
    8b30:	ea000002 	b	8b40 <dsb>

00008b34 <dmb>:
    8b34:	e3a00000 	mov	r0, #0, 0
    8b38:	ee070fba 	mcr	15, 0, r0, cr7, cr10, {5}
    8b3c:	e12fff1e 	bx	lr

00008b40 <dsb>:
    8b40:	ee070f9a 	mcr	15, 0, r0, cr7, cr10, {4}
    8b44:	e12fff1e 	bx	lr

00008b48 <or_in32>:
    8b48:	e92d4070 	push	{r4, r5, r6, lr}
    8b4c:	e1a04000 	mov	r4, r0
    8b50:	e1a05001 	mov	r5, r1
    8b54:	ebfffd34 	bl	802c <GET32>
    8b58:	e1801005 	orr	r1, r0, r5
    8b5c:	e1a00004 	mov	r0, r4
    8b60:	ebfffd2f 	bl	8024 <PUT32>
    8b64:	e8bd8070 	pop	{r4, r5, r6, pc}

00008b68 <uart_init>:
    8b68:	e92d4010 	push	{r4, lr}
    8b6c:	e3a01002 	mov	r1, #2, 0
    8b70:	e3a0000e 	mov	r0, #14, 0
    8b74:	eb00005e 	bl	8cf4 <gpio_set_function>
    8b78:	e3a01002 	mov	r1, #2, 0
    8b7c:	e3a0000f 	mov	r0, #15, 0
    8b80:	eb00005b 	bl	8cf4 <gpio_set_function>
    8b84:	ebffffe9 	bl	8b30 <dev_barrier>
    8b88:	e3a01001 	mov	r1, #1, 0
    8b8c:	e59f0064 	ldr	r0, [pc, #100]	; 8bf8 <uart_init+0x90>
    8b90:	ebffffec 	bl	8b48 <or_in32>
    8b94:	ebffffe5 	bl	8b30 <dev_barrier>
    8b98:	e59f405c 	ldr	r4, [pc, #92]	; 8bfc <uart_init+0x94>
    8b9c:	e3a01000 	mov	r1, #0, 0
    8ba0:	e1a00004 	mov	r0, r4
    8ba4:	ebfffd1e 	bl	8024 <PUT32>
    8ba8:	e3a01000 	mov	r1, #0, 0
    8bac:	e59f004c 	ldr	r0, [pc, #76]	; 8c00 <uart_init+0x98>
    8bb0:	ebfffd1b 	bl	8024 <PUT32>
    8bb4:	e3a01003 	mov	r1, #3, 0
    8bb8:	e59f0044 	ldr	r0, [pc, #68]	; 8c04 <uart_init+0x9c>
    8bbc:	ebfffd18 	bl	8024 <PUT32>
    8bc0:	e3a01000 	mov	r1, #0, 0
    8bc4:	e59f003c 	ldr	r0, [pc, #60]	; 8c08 <uart_init+0xa0>
    8bc8:	ebfffd15 	bl	8024 <PUT32>
    8bcc:	e3a010c7 	mov	r1, #199, 0	; 0xc7
    8bd0:	e59f0034 	ldr	r0, [pc, #52]	; 8c0c <uart_init+0xa4>
    8bd4:	ebfffd12 	bl	8024 <PUT32>
    8bd8:	e59f1030 	ldr	r1, [pc, #48]	; 8c10 <uart_init+0xa8>
    8bdc:	e59f0030 	ldr	r0, [pc, #48]	; 8c14 <uart_init+0xac>
    8be0:	ebfffd0f 	bl	8024 <PUT32>
    8be4:	e3a01003 	mov	r1, #3, 0
    8be8:	e1a00004 	mov	r0, r4
    8bec:	ebfffd0c 	bl	8024 <PUT32>
    8bf0:	ebffffce 	bl	8b30 <dev_barrier>
    8bf4:	e8bd8010 	pop	{r4, pc}
    8bf8:	20215004 	eorcs	r5, r1, r4
    8bfc:	20215060 	eorcs	r5, r1, r0, rrx
    8c00:	20215044 	eorcs	r5, r1, r4, asr #32
    8c04:	2021504c 	eorcs	r5, r1, ip, asr #32
    8c08:	20215050 	eorcs	r5, r1, r0, asr r0
    8c0c:	20215048 	eorcs	r5, r1, r8, asr #32
    8c10:	0000010e 	andeq	r0, r0, lr, lsl #2
    8c14:	20215068 	eorcs	r5, r1, r8, rrx

00008c18 <uart_can_getc>:
    8c18:	e92d4010 	push	{r4, lr}
    8c1c:	e59f0008 	ldr	r0, [pc, #8]	; 8c2c <uart_can_getc+0x14>
    8c20:	ebfffd01 	bl	802c <GET32>
    8c24:	e2000001 	and	r0, r0, #1, 0
    8c28:	e8bd8010 	pop	{r4, pc}
    8c2c:	20215064 	eorcs	r5, r1, r4, rrx

00008c30 <uart_can_putc>:
    8c30:	e92d4010 	push	{r4, lr}
    8c34:	e59f0010 	ldr	r0, [pc, #16]	; 8c4c <uart_can_putc+0x1c>
    8c38:	ebfffcfb 	bl	802c <GET32>
    8c3c:	e3100002 	tst	r0, #2, 0
    8c40:	13a00001 	movne	r0, #1, 0
    8c44:	03a00000 	moveq	r0, #0, 0
    8c48:	e8bd8010 	pop	{r4, pc}
    8c4c:	20215064 	eorcs	r5, r1, r4, rrx

00008c50 <uart_getc>:
    8c50:	e92d4010 	push	{r4, lr}
    8c54:	ebffffb5 	bl	8b30 <dev_barrier>
    8c58:	ebffffee 	bl	8c18 <uart_can_getc>
    8c5c:	e3500000 	cmp	r0, #0, 0
    8c60:	0afffffc 	beq	8c58 <uart_getc+0x8>
    8c64:	e59f0010 	ldr	r0, [pc, #16]	; 8c7c <uart_getc+0x2c>
    8c68:	ebfffcef 	bl	802c <GET32>
    8c6c:	e6ef4070 	uxtb	r4, r0
    8c70:	ebffffae 	bl	8b30 <dev_barrier>
    8c74:	e1a00004 	mov	r0, r4
    8c78:	e8bd8010 	pop	{r4, pc}
    8c7c:	20215040 	eorcs	r5, r1, r0, asr #32

00008c80 <uart_putc>:
    8c80:	e92d4010 	push	{r4, lr}
    8c84:	e1a04000 	mov	r4, r0
    8c88:	ebffffa8 	bl	8b30 <dev_barrier>
    8c8c:	ebffffe7 	bl	8c30 <uart_can_putc>
    8c90:	e3500000 	cmp	r0, #0, 0
    8c94:	0afffffc 	beq	8c8c <uart_putc+0xc>
    8c98:	e6ef1074 	uxtb	r1, r4
    8c9c:	e59f0008 	ldr	r0, [pc, #8]	; 8cac <uart_putc+0x2c>
    8ca0:	ebfffcdf 	bl	8024 <PUT32>
    8ca4:	ebffffa1 	bl	8b30 <dev_barrier>
    8ca8:	e8bd8010 	pop	{r4, pc}
    8cac:	20215040 	eorcs	r5, r1, r0, asr #32

00008cb0 <uart_has_data>:
    8cb0:	e92d4010 	push	{r4, lr}
    8cb4:	ebffff9d 	bl	8b30 <dev_barrier>
    8cb8:	ebffffd6 	bl	8c18 <uart_can_getc>
    8cbc:	e8bd8010 	pop	{r4, pc}

00008cc0 <uart_tx_is_empty>:
    8cc0:	e92d4010 	push	{r4, lr}
    8cc4:	ebffff99 	bl	8b30 <dev_barrier>
    8cc8:	e59f000c 	ldr	r0, [pc, #12]	; 8cdc <uart_tx_is_empty+0x1c>
    8ccc:	ebfffcd6 	bl	802c <GET32>
    8cd0:	e1a004a0 	lsr	r0, r0, #9
    8cd4:	e2000001 	and	r0, r0, #1, 0
    8cd8:	e8bd8010 	pop	{r4, pc}
    8cdc:	20215064 	eorcs	r5, r1, r4, rrx

00008ce0 <uart_flush_tx>:
    8ce0:	e92d4010 	push	{r4, lr}
    8ce4:	ebfffff5 	bl	8cc0 <uart_tx_is_empty>
    8ce8:	e3500000 	cmp	r0, #0, 0
    8cec:	0afffffc 	beq	8ce4 <uart_flush_tx+0x4>
    8cf0:	e8bd8010 	pop	{r4, pc}

00008cf4 <gpio_set_function>:
    8cf4:	e92d41f0 	push	{r4, r5, r6, r7, r8, lr}
    8cf8:	e1a04000 	mov	r4, r0
    8cfc:	e1a06001 	mov	r6, r1
    8d00:	e59f503c 	ldr	r5, [pc, #60]	; 8d44 <gpio_set_function+0x50>
    8d04:	e0853095 	umull	r3, r5, r5, r0
    8d08:	e1a051a5 	lsr	r5, r5, #3
    8d0c:	e2857302 	add	r7, r5, #134217728	; 0x8000000
    8d10:	e2877702 	add	r7, r7, #524288	; 0x80000
    8d14:	e1a07107 	lsl	r7, r7, #2
    8d18:	e1a00007 	mov	r0, r7
    8d1c:	ebfffd5e 	bl	829c <__wrap_GET32>
    8d20:	e0855105 	add	r5, r5, r5, lsl #2
    8d24:	e0445085 	sub	r5, r4, r5, lsl #1
    8d28:	e0855085 	add	r5, r5, r5, lsl #1
    8d2c:	e3a01007 	mov	r1, #7, 0
    8d30:	e1c01511 	bic	r1, r0, r1, lsl r5
    8d34:	e1811516 	orr	r1, r1, r6, lsl r5
    8d38:	e1a00007 	mov	r0, r7
    8d3c:	ebfffd3e 	bl	823c <__wrap_PUT32>
    8d40:	e8bd81f0 	pop	{r4, r5, r6, r7, r8, pc}
    8d44:	cccccccd 	stclgt	12, cr12, [ip], {205}	; 0xcd

00008d48 <gpio_set_output>:
    8d48:	e92d4010 	push	{r4, lr}
    8d4c:	e3a01001 	mov	r1, #1, 0
    8d50:	ebffffe7 	bl	8cf4 <gpio_set_function>
    8d54:	e8bd8010 	pop	{r4, pc}

00008d58 <gpio_set_on>:
    8d58:	e92d4010 	push	{r4, lr}
    8d5c:	e3a01001 	mov	r1, #1, 0
    8d60:	e1a01011 	lsl	r1, r1, r0
    8d64:	e59f0004 	ldr	r0, [pc, #4]	; 8d70 <gpio_set_on+0x18>
    8d68:	ebfffd33 	bl	823c <__wrap_PUT32>
    8d6c:	e8bd8010 	pop	{r4, pc}
    8d70:	2020001c 	eorcs	r0, r0, ip, lsl r0

00008d74 <gpio_set_off>:
    8d74:	e92d4010 	push	{r4, lr}
    8d78:	e3a01001 	mov	r1, #1, 0
    8d7c:	e1a01011 	lsl	r1, r1, r0
    8d80:	e59f0004 	ldr	r0, [pc, #4]	; 8d8c <gpio_set_off+0x18>
    8d84:	ebfffd2c 	bl	823c <__wrap_PUT32>
    8d88:	e8bd8010 	pop	{r4, pc}
    8d8c:	20200028 	eorcs	r0, r0, r8, lsr #32

00008d90 <gpio_write>:
    8d90:	e92d4010 	push	{r4, lr}
    8d94:	e3510000 	cmp	r1, #0, 0
    8d98:	0a000001 	beq	8da4 <gpio_write+0x14>
    8d9c:	ebffffed 	bl	8d58 <gpio_set_on>
    8da0:	e8bd8010 	pop	{r4, pc}
    8da4:	ebfffff2 	bl	8d74 <gpio_set_off>
    8da8:	e8bd8010 	pop	{r4, pc}

00008dac <gpio_set_input>:
    8dac:	e92d4010 	push	{r4, lr}
    8db0:	e3a01000 	mov	r1, #0, 0
    8db4:	ebffffce 	bl	8cf4 <gpio_set_function>
    8db8:	e8bd8010 	pop	{r4, pc}

00008dbc <gpio_read>:
    8dbc:	e92d4010 	push	{r4, lr}
    8dc0:	e1a04000 	mov	r4, r0
    8dc4:	e59f000c 	ldr	r0, [pc, #12]	; 8dd8 <gpio_read+0x1c>
    8dc8:	ebfffd33 	bl	829c <__wrap_GET32>
    8dcc:	e3a03001 	mov	r3, #1, 0
    8dd0:	e0000413 	and	r0, r0, r3, lsl r4
    8dd4:	e8bd8010 	pop	{r4, pc}
    8dd8:	20200034 	eorcs	r0, r0, r4, lsr r0

00008ddc <internal_putchar>:
    8ddc:	e92d4010 	push	{r4, lr}
    8de0:	e1a04000 	mov	r4, r0
    8de4:	ebffffa5 	bl	8c80 <uart_putc>
    8de8:	e1a00004 	mov	r0, r4
    8dec:	e8bd8010 	pop	{r4, pc}

00008df0 <rpi_reset_putc>:
    8df0:	e59f3008 	ldr	r3, [pc, #8]	; 8e00 <rpi_reset_putc+0x10>
    8df4:	e59f2008 	ldr	r2, [pc, #8]	; 8e04 <rpi_reset_putc+0x14>
    8df8:	e5832000 	str	r2, [r3]
    8dfc:	e12fff1e 	bx	lr
    8e00:	000090bc 	strheq	r9, [r0], -ip
    8e04:	00008ddc 	ldrdeq	r8, [r0], -ip

00008e08 <rpi_set_putc>:
    8e08:	e59f3004 	ldr	r3, [pc, #4]	; 8e14 <rpi_set_putc+0xc>
    8e0c:	e5830000 	str	r0, [r3]
    8e10:	e12fff1e 	bx	lr
    8e14:	000090bc 	strheq	r9, [r0], -ip

00008e18 <strcat>:
    8e18:	e1a02000 	mov	r2, r0
    8e1c:	e1a03002 	mov	r3, r2
    8e20:	e2822001 	add	r2, r2, #1, 0
    8e24:	e5d3c000 	ldrb	ip, [r3]
    8e28:	e35c0000 	cmp	ip, #0, 0
    8e2c:	1afffffa 	bne	8e1c <strcat+0x4>
    8e30:	e2433001 	sub	r3, r3, #1, 0
    8e34:	e5d12000 	ldrb	r2, [r1]
    8e38:	e2811001 	add	r1, r1, #1, 0
    8e3c:	e5e32001 	strb	r2, [r3, #1]!
    8e40:	e3520000 	cmp	r2, #0, 0
    8e44:	1afffffa 	bne	8e34 <strcat+0x1c>
    8e48:	e12fff1e 	bx	lr

00008e4c <strncmp>:
    8e4c:	e3520000 	cmp	r2, #0, 0
    8e50:	e2422001 	sub	r2, r2, #1, 0
    8e54:	0a000005 	beq	8e70 <strncmp+0x24>
    8e58:	e4d03001 	ldrb	r3, [r0], #1
    8e5c:	e4d1c001 	ldrb	ip, [r1], #1
    8e60:	e153000c 	cmp	r3, ip
    8e64:	0afffff8 	beq	8e4c <strncmp>
    8e68:	e043000c 	sub	r0, r3, ip
    8e6c:	e12fff1e 	bx	lr
    8e70:	e3a00000 	mov	r0, #0, 0
    8e74:	e12fff1e 	bx	lr

Disassembly of section .rodata:

00008e78 <__FUNCTION__.3935-0x110>:
    8e78:	6c6c6568 	cfstr64vs	mvdx6, [ip], #-416	; 0xfffffe60
    8e7c:	00000a6f 	andeq	r0, r0, pc, ror #20
    8e80:	756f6261 	strbvc	r6, [pc, #-609]!	; 8c27 <uart_can_getc+0xf>
    8e84:	6f742074 	svcvs	0x00742074
    8e88:	61727420 	cmnvs	r2, r0, lsr #8
    8e8c:	67206563 	strvs	r6, [r0, -r3, ror #10]!
    8e90:	5f6f6970 	svcpl	0x006f6970
    8e94:	64616572 	strbtvs	r6, [r1], #-1394	; 0xfffffa8e
    8e98:	29303228 	ldmdbcs	r0!, {r3, r5, r9, ip, sp}
    8e9c:	00000a3a 	andeq	r0, r0, sl, lsr sl
    8ea0:	656e6f64 	strbvs	r6, [lr, #-3940]!	; 0xfffff09c
    8ea4:	7067203a 	rsbvc	r2, r7, sl, lsr r0
    8ea8:	725f6f69 	subsvc	r6, pc, #420	; 0x1a4
    8eac:	28646165 	stmdacs	r4!, {r0, r2, r5, r6, r8, sp, lr}^
    8eb0:	3d293032 	stccc	0, cr3, [r9, #-200]!	; 0xffffff38
    8eb4:	000a6425 	andeq	r6, sl, r5, lsr #8
    8eb8:	6f697067 	svcvs	0x00697067
    8ebc:	6165725f 	cmnvs	r5, pc, asr r2
    8ec0:	30322864 	eorscc	r2, r2, r4, ror #16
    8ec4:	00000029 	andeq	r0, r0, r9, lsr #32
    8ec8:	756f6261 	strbvc	r6, [pc, #-609]!	; 8c6f <uart_getc+0x1f>
    8ecc:	6f742074 	svcvs	0x00742074
    8ed0:	61727420 	cmnvs	r2, r0, lsr #8
    8ed4:	203a6563 	eorscs	r6, sl, r3, ror #10
    8ed8:	3e73253c 	mrccc	5, 3, r2, cr3, cr12, {1}
    8edc:	0000000a 	andeq	r0, r0, sl
    8ee0:	656e6f64 	strbvs	r6, [lr, #-3940]!	; 0xfffff09c
    8ee4:	253c203a 	ldrcs	r2, [ip, #-58]!	; 0xffffffc6
    8ee8:	000a3e73 	andeq	r3, sl, r3, ror lr
    8eec:	6f697067 	svcvs	0x00697067
    8ef0:	7465735f 	strbtvc	r7, [r5], #-863	; 0xfffffca1
    8ef4:	74756f5f 	ldrbtvc	r6, [r5], #-3935	; 0xfffff0a1
    8ef8:	28747570 	ldmdacs	r4!, {r4, r5, r6, r8, sl, ip, sp, lr}^
    8efc:	00002969 	andeq	r2, r0, r9, ror #18
    8f00:	6f697067 	svcvs	0x00697067
    8f04:	7465735f 	strbtvc	r7, [r5], #-863	; 0xfffffca1
    8f08:	706e695f 	rsbvc	r6, lr, pc, asr r9
    8f0c:	69287475 	stmdbvs	r8!, {r0, r2, r4, r5, r6, sl, ip, sp, lr}
    8f10:	00000029 	andeq	r0, r0, r9, lsr #32
    8f14:	43415254 	movtmi	r5, #4692	; 0x1254
    8f18:	55503a45 	ldrbpl	r3, [r0, #-2629]	; 0xfffff5bb
    8f1c:	28323354 	ldmdacs	r2!, {r2, r4, r6, r8, r9, ip, sp}
    8f20:	3d297825 	stccc	8, cr7, [r9, #-148]!	; 0xffffff6c
    8f24:	000a7825 	andeq	r7, sl, r5, lsr #16
    8f28:	43415254 	movtmi	r5, #4692	; 0x1254
    8f2c:	45473a45 	strbmi	r3, [r7, #-2629]	; 0xfffff5bb
    8f30:	28323354 	ldmdacs	r2!, {r2, r4, r6, r8, r9, ip, sp}
    8f34:	3d297825 	stccc	8, cr7, [r9, #-148]!	; 0xffffff6c
    8f38:	000a7825 	andeq	r7, sl, r5, lsr #16
    8f3c:	63617274 	cmnvs	r1, #116, 4	; 0x40000007
    8f40:	69732d65 	ldmdbvs	r3!, {r0, r2, r5, r6, r8, sl, fp, sp}^
    8f44:	656c706d 	strbvs	r7, [ip, #-109]!	; 0xffffff93
    8f48:	0000632e 	andeq	r6, r0, lr, lsr #6
    8f4c:	494e4150 	stmdbmi	lr, {r4, r6, r8, lr}^
    8f50:	73253a43 			; <UNDEFINED> instruction: 0x73253a43
    8f54:	3a73253a 	bcc	1cd2444 <__bss_end__+0x1cc8f7c>
    8f58:	253a6425 	ldrcs	r6, [sl, #-1061]!	; 0xfffffbdb
    8f5c:	00000a73 	andeq	r0, r0, r3, ror sl
    8f60:	74617473 	strbtvc	r7, [r1], #-1139	; 0xfffffb8d
    8f64:	3d3d2065 	ldccc	0, cr2, [sp, #-404]!	; 0xfffffe6c
    8f68:	41525420 	cmpmi	r2, r0, lsr #8
    8f6c:	4f5f4543 	svcmi	0x005f4543
    8f70:	00004646 	andeq	r4, r0, r6, asr #12
    8f74:	74617473 	strbtvc	r7, [r1], #-1139	; 0xfffffb8d
    8f78:	3d3d2065 	ldccc	0, cr2, [sp, #-404]!	; 0xfffffe6c
    8f7c:	41525420 	cmpmi	r2, r0, lsr #8
    8f80:	4f5f4543 	svcmi	0x005f4543
    8f84:	0000004e 	andeq	r0, r0, lr, asr #32

00008f88 <__FUNCTION__.3935>:
    8f88:	63617274 	cmnvs	r1, #116, 4	; 0x40000007
    8f8c:	74735f65 	ldrbtvc	r5, [r3], #-3941	; 0xfffff09b
    8f90:	00747261 	rsbseq	r7, r4, r1, ror #4

00008f94 <__FUNCTION__.3939>:
    8f94:	63617274 	cmnvs	r1, #116, 4	; 0x40000007
    8f98:	74735f65 	ldrbtvc	r5, [r3], #-3941	; 0xfffff09b
    8f9c:	0000706f 	andeq	r7, r0, pc, rrx
    8fa0:	6362696c 	cmnvs	r2, #108, 18	; 0x1b0000
    8fa4:	2d61762f 	stclcs	6, cr7, [r1, #-188]!	; 0xffffff44
    8fa8:	6e697270 	mcrvs	2, 3, r7, cr9, cr0, {3}
    8fac:	632e6b74 			; <UNDEFINED> instruction: 0x632e6b74
    8fb0:	00000000 	andeq	r0, r0, r0
    8fb4:	00000030 	andeq	r0, r0, r0, lsr r0
    8fb8:	33323130 	teqcc	r2, #12
    8fbc:	37363534 			; <UNDEFINED> instruction: 0x37363534
    8fc0:	00003938 	andeq	r3, r0, r8, lsr r9
    8fc4:	33323130 	teqcc	r2, #12
    8fc8:	37363534 			; <UNDEFINED> instruction: 0x37363534
    8fcc:	62613938 	rsbvs	r3, r1, #56, 18	; 0xe0000
    8fd0:	66656463 	strbtvs	r6, [r5], -r3, ror #8
    8fd4:	00000000 	andeq	r0, r0, r0
    8fd8:	00003130 	andeq	r3, r0, r0, lsr r1
    8fdc:	63747570 	cmnvs	r4, #112, 10	; 0x1c000000
    8fe0:	0070665f 	rsbseq	r6, r0, pc, asr r6
    8fe4:	74646977 	strbtvc	r6, [r4], #-2423	; 0xfffff689
    8fe8:	203c2068 	eorscs	r2, ip, r8, rrx
    8fec:	00003233 	andeq	r3, r0, r3, lsr r2
    8ff0:	00786c6c 	rsbseq	r6, r8, ip, ror #24
    8ff4:	6e727473 	mrcvs	4, 3, r7, cr2, cr3, {3}
    8ff8:	28706d63 	ldmdacs	r0!, {r0, r1, r5, r6, r8, sl, fp, sp, lr}^
    8ffc:	2c746d66 	ldclcs	13, cr6, [r4], #-408	; 0xfffffe68
    9000:	6c6c2220 	sfmvs	f2, 2, [ip], #-128	; 0xffffff80
    9004:	202c2278 	eorcs	r2, ip, r8, ror r2
    9008:	3d202933 			; <UNDEFINED> instruction: 0x3d202933
    900c:	0030203d 	eorseq	r2, r0, sp, lsr r0
    9010:	494e4150 	stmdbmi	lr, {r4, r6, r8, lr}^
    9014:	73253a43 			; <UNDEFINED> instruction: 0x73253a43
    9018:	3a73253a 	bcc	1cd2508 <__bss_end__+0x1cc9040>
    901c:	663a6425 	ldrtvs	r6, [sl], -r5, lsr #8
    9020:	74616f6c 	strbtvc	r6, [r1], #-3948	; 0xfffff094
    9024:	746f6e20 	strbtvc	r6, [pc], #-3616	; 902c <__FUNCTION__.3939+0x98>
    9028:	616e6520 	cmnvs	lr, r0, lsr #10
    902c:	64656c62 	strbtvs	r6, [r5], #-3170	; 0xfffff39e
    9030:	0a212121 	beq	8514bc <__bss_end__+0x847ff4>
    9034:	00000000 	andeq	r0, r0, r0
    9038:	6e697270 	mcrvs	2, 3, r7, cr9, cr0, {3}
    903c:	203a6b74 	eorscs	r6, sl, r4, ror fp
    9040:	20746f6e 	rsbscs	r6, r4, lr, ror #30
    9044:	646e6168 	strbtvs	r6, [lr], #-360	; 0xfffffe98
    9048:	676e696c 	strbvs	r6, [lr, -ip, ror #18]!
    904c:	65707320 	ldrbvs	r7, [r0, #-800]!	; 0xfffffce0
    9050:	69666963 	stmdbvs	r6!, {r0, r1, r5, r6, r8, fp, sp, lr}^
    9054:	27207265 	strcs	r7, [r0, -r5, ror #4]!
    9058:	20276325 	eorcs	r6, r7, r5, lsr #6
    905c:	63736128 	cmnvs	r3, #10
    9060:	253d6969 	ldrcs	r6, [sp, #-2409]!	; 0xfffff697
    9064:	000a2964 	andeq	r2, sl, r4, ror #18
    9068:	494e4150 	stmdbmi	lr, {r4, r6, r8, lr}^
    906c:	73253a43 			; <UNDEFINED> instruction: 0x73253a43
    9070:	3a73253a 	bcc	1cd2560 <__bss_end__+0x1cc9098>
    9074:	703a6425 	eorsvc	r6, sl, r5, lsr #8
    9078:	746e6972 	strbtvc	r6, [lr], #-2418	; 0xfffff68e
    907c:	7265206b 	rsbvc	r2, r5, #107, 0	; 0x6b
    9080:	0a726f72 	beq	1ca4e50 <__bss_end__+0x1c9b988>
    9084:	0000000a 	andeq	r0, r0, sl

00009088 <__FUNCTION__.3978>:
    9088:	74696d65 	strbtvc	r6, [r9], #-3429	; 0xfffff29b
    908c:	00000000 	andeq	r0, r0, r0

00009090 <__FUNCTION__.3926>:
    9090:	5f697072 	svcpl	0x00697072
    9094:	5f746573 	svcpl	0x00746573
    9098:	7074756f 	rsbsvc	r7, r4, pc, ror #10
    909c:	00007475 	andeq	r7, r0, r5, ror r4

000090a0 <__FUNCTION__.4004>:
    90a0:	705f6176 	subsvc	r6, pc, r6, ror r1	; <UNPREDICTABLE>
    90a4:	746e6972 	strbtvc	r6, [lr], #-2418	; 0xfffff68e
    90a8:	0000006b 	andeq	r0, r0, fp, rrx
    90ac:	454e4f44 	strbmi	r4, [lr, #-3908]	; 0xfffff0bc
    90b0:	0a212121 	beq	85153c <__bss_end__+0x848074>
	...

Disassembly of section .data:

000090b8 <putk>:
    90b8:	00008358 	andeq	r8, r0, r8, asr r3

000090bc <rpi_putchar>:
    90bc:	00008ddc 	ldrdeq	r8, [r0], -ip

Disassembly of section .bss:

000090c0 <__bss_start__>:
    90c0:	00000000 	andeq	r0, r0, r0

000090c4 <buf.3918>:
	...

000094c4 <within_printk_operation>:
    94c4:	00000000 	andeq	r0, r0, r0

Disassembly of section .ARM.attributes:

00000000 <.ARM.attributes>:
   0:	00002a41 	andeq	r2, r0, r1, asr #20
   4:	61656100 	cmnvs	r5, r0, lsl #2
   8:	01006962 	tsteq	r0, r2, ror #18
   c:	00000020 	andeq	r0, r0, r0, lsr #32
  10:	4b5a3605 	blmi	168d82c <__bss_end__+0x1684364>
  14:	08070600 	stmdaeq	r7, {r9, sl}
  18:	12010901 	andne	r0, r1, #16384	; 0x4000
  1c:	15011404 	strne	r1, [r1, #-1028]	; 0xfffffbfc
  20:	18031701 	stmdane	r3, {r0, r8, r9, sl, ip}
  24:	22011a01 	andcs	r1, r1, #4096	; 0x1000
  28:	Address 0x0000000000000028 is out of bounds.


Disassembly of section .comment:

00000000 <.comment>:
   0:	3a434347 	bcc	10d0d24 <__bss_end__+0x10c785c>
   4:	4e472820 	cdpmi	8, 4, cr2, cr7, cr0, {1}
   8:	6f542055 	svcvs	0x00542055
   c:	20736c6f 	rsbscs	r6, r3, pc, ror #24
  10:	20726f66 	rsbscs	r6, r2, r6, ror #30
  14:	206d7241 	rsbcs	r7, sp, r1, asr #4
  18:	65626d45 	strbvs	r6, [r2, #-3397]!	; 0xfffff2bb
  1c:	64656464 	strbtvs	r6, [r5], #-1124	; 0xfffffb9c
  20:	6f725020 	svcvs	0x00725020
  24:	73736563 	cmnvc	r3, #415236096	; 0x18c00000
  28:	2073726f 	rsbscs	r7, r3, pc, ror #4
  2c:	30322d39 	eorscc	r2, r2, r9, lsr sp
  30:	712d3931 			; <UNDEFINED> instruction: 0x712d3931
  34:	616d2d34 	cmnvs	sp, r4, lsr sp
  38:	29726f6a 	ldmdbcs	r2!, {r1, r3, r5, r6, r8, r9, sl, fp, sp, lr}^
  3c:	322e3920 	eorcc	r3, lr, #32, 18	; 0x80000
  40:	3220312e 	eorcc	r3, r0, #-2147483637	; 0x8000000b
  44:	31393130 	teqcc	r9, r0, lsr r1
  48:	20353230 	eorscs	r3, r5, r0, lsr r2
  4c:	6c657228 	sfmvs	f7, 2, [r5], #-160	; 0xffffff60
  50:	65736165 	ldrbvs	r6, [r3, #-357]!	; 0xfffffe9b
  54:	415b2029 	cmpmi	fp, r9, lsr #32
  58:	612f4d52 			; <UNDEFINED> instruction: 0x612f4d52
  5c:	392d6d72 	pushcc	{r1, r4, r5, r6, r8, sl, fp, sp, lr}
  60:	6172622d 	cmnvs	r2, sp, lsr #4
  64:	2068636e 	rsbcs	r6, r8, lr, ror #6
  68:	69766572 	ldmdbvs	r6!, {r1, r4, r5, r6, r8, sl, sp, lr}^
  6c:	6e6f6973 			; <UNDEFINED> instruction: 0x6e6f6973
  70:	37373220 	ldrcc	r3, [r7, -r0, lsr #4]!
  74:	5d393935 			; <UNDEFINED> instruction: 0x5d393935
  78:	43434700 	movtmi	r4, #14080	; 0x3700
  7c:	3128203a 			; <UNDEFINED> instruction: 0x3128203a
  80:	2d393a35 	vldmdbcs	r9!, {s6-s58}
  84:	39313032 	ldmdbcc	r1!, {r1, r4, r5, ip, sp}
  88:	2d34712d 	ldfcss	f7, [r4, #-180]!	; 0xffffff4c
  8c:	75627530 	strbvc	r7, [r2, #-1328]!	; 0xfffffad0
  90:	3175746e 	cmncc	r5, lr, ror #8
  94:	2e392029 	cdpcs	0, 3, cr2, cr9, cr9, {1}
  98:	20312e32 	eorscs	r2, r1, r2, lsr lr
  9c:	39313032 	ldmdbcc	r1!, {r1, r4, r5, ip, sp}
  a0:	35323031 	ldrcc	r3, [r2, #-49]!	; 0xffffffcf
  a4:	65722820 	ldrbvs	r2, [r2, #-2080]!	; 0xfffff7e0
  a8:	7361656c 	cmnvc	r1, #108, 10	; 0x1b000000
  ac:	5b202965 	blpl	80a648 <__bss_end__+0x801180>
  b0:	2f4d5241 	svccs	0x004d5241
  b4:	2d6d7261 	sfmcs	f7, 2, [sp, #-388]!	; 0xfffffe7c
  b8:	72622d39 	rsbvc	r2, r2, #3648	; 0xe40
  bc:	68636e61 	stmdavs	r3!, {r0, r5, r6, r9, sl, fp, sp, lr}^
  c0:	76657220 	strbtvc	r7, [r5], -r0, lsr #4
  c4:	6f697369 	svcvs	0x00697369
  c8:	3732206e 	ldrcc	r2, [r2, -lr, rrx]!
  cc:	39393537 	ldmdbcc	r9!, {r0, r1, r2, r4, r5, r8, sl, ip, sp}
  d0:	Address 0x00000000000000d0 is out of bounds.


Disassembly of section .debug_info:

00000000 <.debug_info>:
       0:	00000346 	andeq	r0, r0, r6, asr #6
       4:	00000004 	andeq	r0, r0, r4
       8:	01040000 	mrseq	r0, (UNDEF: 4)
       c:	0000010e 	andeq	r0, r0, lr, lsl #2
      10:	0000c50c 	andeq	ip, r0, ip, lsl #10
      14:	00001500 	andeq	r1, r0, r0, lsl #10
      18:	00803400 	addeq	r3, r0, r0, lsl #8
      1c:	00011800 	andeq	r1, r1, r0, lsl #16
      20:	00000000 	andeq	r0, r0, r0
      24:	05040200 	streq	r0, [r4, #-512]	; 0xfffffe00
      28:	00746e69 	rsbseq	r6, r4, r9, ror #28
      2c:	dd070403 	cfstrsle	mvf0, [r7, #-12]
      30:	03000000 	movweq	r0, #0
      34:	006e0601 	rsbeq	r0, lr, r1, lsl #12
      38:	02030000 	andeq	r0, r3, #0, 0
      3c:	00010405 	andeq	r0, r1, r5, lsl #8
      40:	05040300 	streq	r0, [r4, #-768]	; 0xfffffd00
      44:	000000ef 	andeq	r0, r0, pc, ror #1
      48:	ea050803 	b	14205c <__bss_end__+0x138b94>
      4c:	03000000 	movweq	r0, #0
      50:	006c0801 	rsbeq	r0, ip, r1, lsl #16
      54:	02030000 	andeq	r0, r3, #0, 0
      58:	00009307 	andeq	r9, r0, r7, lsl #6
      5c:	07040300 	streq	r0, [r4, -r0, lsl #6]
      60:	000000d8 	ldrdeq	r0, [r0], -r8
      64:	d3070803 	movwle	r0, #30723	; 0x7803
      68:	04000000 	streq	r0, [r0], #-0
      6c:	00000025 	andeq	r0, r0, r5, lsr #32
      70:	0000007a 	andeq	r0, r0, sl, ror r0
      74:	00002505 	andeq	r2, r0, r5, lsl #10
      78:	f8060000 			; <UNDEFINED> instruction: 0xf8060000
      7c:	02000000 	andeq	r0, r0, #0, 0
      80:	00860e1c 	addeq	r0, r6, ip, lsl lr
      84:	04070000 	streq	r0, [r7], #-0
      88:	0000006b 	andeq	r0, r0, fp, rrx
      8c:	00002504 	andeq	r2, r0, r4, lsl #10
      90:	00009b00 	andeq	r9, r0, r0, lsl #22
      94:	009b0500 	addseq	r0, fp, r0, lsl #10
      98:	07000000 	streq	r0, [r0, -r0]
      9c:	0000a804 	andeq	sl, r0, r4, lsl #16
      a0:	08010300 	stmdaeq	r1, {r8, r9}
      a4:	00000075 	andeq	r0, r0, r5, ror r0
      a8:	0000a108 	andeq	sl, r0, r8, lsl #2
      ac:	03410600 	movteq	r0, #5632	; 0x1600
      b0:	21020000 	mrscs	r0, (UNDEF: 2)
      b4:	0000b90e 	andeq	fp, r0, lr, lsl #18
      b8:	8c040700 	stchi	7, cr0, [r4], {-0}
      bc:	09000000 	stmdbeq	r0, {}	; <UNPREDICTABLE>
      c0:	000001c3 	andeq	r0, r0, r3, asr #3
      c4:	34060601 	strcc	r0, [r6], #-1537	; 0xfffff9ff
      c8:	18000080 	stmdane	r0, {r7}
      cc:	01000001 	tsteq	r0, r1
      d0:	0002e99c 	muleq	r2, ip, r9
      d4:	00760a00 	rsbseq	r0, r6, r0, lsl #20
      d8:	25090b01 	strcs	r0, [r9, #-2817]	; 0xfffff4ff
      dc:	04000000 	streq	r0, [r0], #-0
      e0:	00000000 	andeq	r0, r0, r0
      e4:	0b000000 	bleq	ec <__code_start__-0x7f14>
      e8:	000080a0 	andeq	r8, r0, r0, lsr #1
      ec:	00000044 	andeq	r0, r0, r4, asr #32
      f0:	0000016d 	andeq	r0, r0, sp, ror #2
      f4:	0100690a 	tsteq	r0, sl, lsl #18
      f8:	00250d27 	eoreq	r0, r5, r7, lsr #26
      fc:	00260000 	eoreq	r0, r6, r0
     100:	00220000 	eoreq	r0, r2, r0
     104:	b80c0000 	stmdalt	ip, {}	; <UNPREDICTABLE>
     108:	e9000080 	stmdb	r0, {r7}
     10c:	23000002 	movwcs	r0, #2
     110:	0d000001 	stceq	0, cr0, [r0, #-4]
     114:	03055001 	movweq	r5, #20481	; 0x5001
     118:	00008ec8 	andeq	r8, r0, r8, asr #29
     11c:	0251010d 	subseq	r0, r1, #1073741827	; 0x40000003
     120:	0c000075 	stceq	0, cr0, [r0], {117}	; 0x75
     124:	000080c0 	andeq	r8, r0, r0, asr #1
     128:	000002f5 	strdeq	r0, [r0], -r5
     12c:	00000136 	andeq	r0, r0, r6, lsr r1
     130:	0150010d 	cmpeq	r0, sp, lsl #2
     134:	c80c0030 	stmdagt	ip, {r4, r5}
     138:	01000080 	smlabbeq	r0, r0, r0, r0
     13c:	4a000003 	bmi	150 <__code_start__-0x7eb0>
     140:	0d000001 	stceq	0, cr0, [r0, #-4]
     144:	74025001 	strvc	r5, [r2], #-1
     148:	cc0e0000 	stcgt	0, cr0, [lr], {-0}
     14c:	0d000080 	stceq	0, cr0, [r0, #-512]	; 0xfffffe00
     150:	0f000003 	svceq	0x00000003
     154:	000080d8 	ldrdeq	r8, [r0], -r8	; <UNPREDICTABLE>
     158:	000002e9 	andeq	r0, r0, r9, ror #5
     15c:	0550010d 	ldrbeq	r0, [r0, #-269]	; 0xfffffef3
     160:	008ee003 	addeq	lr, lr, r3
     164:	51010d00 	tstpl	r1, r0, lsl #26
     168:	00007502 	andeq	r7, r0, r2, lsl #10
     16c:	80e40b00 	rschi	r0, r4, r0, lsl #22
     170:	00440000 	subeq	r0, r4, r0
     174:	01f30000 	mvnseq	r0, r0
     178:	690a0000 	stmdbvs	sl, {}	; <UNPREDICTABLE>
     17c:	0d290100 	stfeqs	f0, [r9, #-0]
     180:	00000025 	andeq	r0, r0, r5, lsr #32
     184:	00000047 	andeq	r0, r0, r7, asr #32
     188:	00000045 	andeq	r0, r0, r5, asr #32
     18c:	0080fc0c 	addeq	pc, r0, ip, lsl #24
     190:	0002e900 	andeq	lr, r2, r0, lsl #18
     194:	0001a900 	andeq	sl, r1, r0, lsl #18
     198:	50010d00 	andpl	r0, r1, r0, lsl #26
     19c:	8ec80305 	cdphi	3, 12, cr0, cr8, cr5, {0}
     1a0:	010d0000 	mrseq	r0, (UNDEF: 13)
     1a4:	00750251 	rsbseq	r0, r5, r1, asr r2
     1a8:	81040c00 	tsthi	r4, r0, lsl #24
     1ac:	02f50000 	rscseq	r0, r5, #0, 0
     1b0:	01bc0000 			; <UNDEFINED> instruction: 0x01bc0000
     1b4:	010d0000 	mrseq	r0, (UNDEF: 13)
     1b8:	00300150 	eorseq	r0, r0, r0, asr r1
     1bc:	00810c0c 	addeq	r0, r1, ip, lsl #24
     1c0:	00031900 	andeq	r1, r3, r0, lsl #18
     1c4:	0001d000 	andeq	sp, r1, r0
     1c8:	50010d00 	andpl	r0, r1, r0, lsl #26
     1cc:	00007402 	andeq	r7, r0, r2, lsl #8
     1d0:	0081100e 	addeq	r1, r1, lr
     1d4:	00030d00 	andeq	r0, r3, r0, lsl #26
     1d8:	811c0f00 	tsthi	ip, r0, lsl #30
     1dc:	02e90000 	rsceq	r0, r9, #0, 0
     1e0:	010d0000 	mrseq	r0, (UNDEF: 13)
     1e4:	e0030550 	and	r0, r3, r0, asr r5
     1e8:	0d00008e 	stceq	0, cr0, [r0, #-568]	; 0xfffffdc8
     1ec:	75025101 	strvc	r5, [r2, #-257]	; 0xfffffeff
     1f0:	0e000000 	cdpeq	0, 0, cr0, cr0, cr0, {0}
     1f4:	0000803c 	andeq	r8, r0, ip, lsr r0
     1f8:	00000325 	andeq	r0, r0, r5, lsr #6
     1fc:	0080440c 	addeq	r4, r0, ip, lsl #8
     200:	0002e900 	andeq	lr, r2, r0, lsl #18
     204:	00021300 	andeq	r1, r2, r0, lsl #6
     208:	50010d00 	andpl	r0, r1, r0, lsl #26
     20c:	8e780305 	cdphi	3, 7, cr0, cr8, cr5, {0}
     210:	0c000000 	stceq	0, cr0, [r0], {-0}
     214:	0000804c 	andeq	r8, r0, ip, asr #32
     218:	000002e9 	andeq	r0, r0, r9, ror #5
     21c:	0000022a 	andeq	r0, r0, sl, lsr #4
     220:	0550010d 	ldrbeq	r0, [r0, #-269]	; 0xfffffef3
     224:	008e8003 	addeq	r8, lr, r3
     228:	540c0000 	strpl	r0, [ip], #-0
     22c:	f5000080 			; <UNDEFINED> instruction: 0xf5000080
     230:	3d000002 	stccc	0, cr0, [r0, #-8]
     234:	0d000002 	stceq	0, cr0, [r0, #-8]
     238:	30015001 	andcc	r5, r1, r1
     23c:	805c0c00 	subshi	r0, ip, r0, lsl #24
     240:	03310000 	teqeq	r1, #0, 0
     244:	02500000 	subseq	r0, r0, #0, 0
     248:	010d0000 	mrseq	r0, (UNDEF: 13)
     24c:	00440150 	subeq	r0, r4, r0, asr r1
     250:	0080640e 	addeq	r6, r0, lr, lsl #8
     254:	00030d00 	andeq	r0, r3, r0, lsl #26
     258:	80700c00 	rsbshi	r0, r0, r0, lsl #24
     25c:	02e90000 	rsceq	r0, r9, #0, 0
     260:	02760000 	rsbseq	r0, r6, #0, 0
     264:	010d0000 	mrseq	r0, (UNDEF: 13)
     268:	a0030550 	andge	r0, r3, r0, asr r5
     26c:	0d00008e 	stceq	0, cr0, [r0, #-568]	; 0xfffffdc8
     270:	74025101 	strvc	r5, [r2], #-257	; 0xfffffeff
     274:	800c0000 	andhi	r0, ip, r0
     278:	e9000080 	stmdb	r0, {r7}
     27c:	93000002 	movwls	r0, #2
     280:	0d000002 	stceq	0, cr0, [r0, #-8]
     284:	03055001 	movweq	r5, #20481	; 0x5001
     288:	00008ec8 	andeq	r8, r0, r8, asr #29
     28c:	0251010d 	subseq	r0, r1, #1073741827	; 0x40000003
     290:	0c000074 	stceq	0, cr0, [r0], {116}	; 0x74
     294:	00008088 	andeq	r8, r0, r8, lsl #1
     298:	000002f5 	strdeq	r0, [r0], -r5
     29c:	000002a6 	andeq	r0, r0, r6, lsr #5
     2a0:	0150010d 	cmpeq	r0, sp, lsl #2
     2a4:	900c0030 	andls	r0, ip, r0, lsr r0
     2a8:	31000080 	smlabbcc	r0, r0, r0, r0
     2ac:	b9000003 	stmdblt	r0, {r0, r1}
     2b0:	0d000002 	stceq	0, cr0, [r0, #-8]
     2b4:	44015001 	strmi	r5, [r1], #-1
     2b8:	80940e00 	addshi	r0, r4, r0, lsl #28
     2bc:	030d0000 	movweq	r0, #53248	; 0xd000
     2c0:	a00c0000 	andge	r0, ip, r0
     2c4:	e9000080 	stmdb	r0, {r7}
     2c8:	df000002 	svcle	0x00000002
     2cc:	0d000002 	stceq	0, cr0, [r0, #-8]
     2d0:	03055001 	movweq	r5, #20481	; 0x5001
     2d4:	00008ee0 	andeq	r8, r0, r0, ror #29
     2d8:	0251010d 	subseq	r0, r1, #1073741827	; 0x40000003
     2dc:	0e000074 	mcreq	0, 0, r0, cr0, cr4, {3}
     2e0:	0000812c 	andeq	r8, r0, ip, lsr #2
     2e4:	0000033d 	andeq	r0, r0, sp, lsr r3
     2e8:	02d31000 	sbcseq	r1, r3, #0, 0
     2ec:	02d30000 	sbcseq	r0, r3, #0, 0
     2f0:	28020000 	stmdacs	r2, {}	; <UNPREDICTABLE>
     2f4:	00871006 	addeq	r1, r7, r6
     2f8:	00870000 	addeq	r0, r7, r0
     2fc:	0b030000 	bleq	c0304 <__bss_end__+0xb6e3c>
     300:	00b51006 	adcseq	r1, r5, r6
     304:	00b50000 	adcseq	r0, r5, r0
     308:	1d040000 	stcne	0, cr0, [r4, #-0]
     30c:	00001006 	andeq	r1, r0, r6
     310:	00000000 	andeq	r0, r0, r0
     314:	0f030000 	svceq	0x00030000
     318:	00a61006 	adceq	r1, r6, r6
     31c:	00a60000 	adceq	r0, r6, r0
     320:	1c040000 	stcne	0, cr0, [r4], {-0}
     324:	00621006 	rsbeq	r1, r2, r6
     328:	00620000 	rsbeq	r0, r2, r0
     32c:	39020000 	stmdbcc	r2, {}	; <UNPREDICTABLE>
     330:	000b1006 	andeq	r1, fp, r6
     334:	000b0000 	andeq	r0, fp, r0
     338:	24040000 	strcs	r0, [r4], #-0
     33c:	007a1005 	rsbseq	r1, sl, r5
     340:	007a0000 	rsbseq	r0, sl, r0
     344:	67020000 	strvs	r0, [r2, -r0]
     348:	03d80006 	bicseq	r0, r8, #6, 0
     34c:	00040000 	andeq	r0, r4, r0
     350:	000000dc 	ldrdeq	r0, [r0], -ip
     354:	010e0104 	tsteq	lr, r4, lsl #2
     358:	3f0c0000 	svccc	0x000c0000
     35c:	79000002 	stmdbvc	r0, {r1}
     360:	4c000002 	stcmi	0, cr0, [r0], {2}
     364:	b4000081 	strlt	r0, [r0], #-129	; 0xffffff7f
     368:	4f000001 	svcmi	0x00000001
     36c:	02000001 	andeq	r0, r0, #1, 0
     370:	6e690504 	cdpvs	5, 6, cr0, cr9, cr4, {0}
     374:	04030074 	streq	r0, [r3], #-116	; 0xffffff8c
     378:	0000dd07 	andeq	sp, r0, r7, lsl #26
     37c:	06010300 	streq	r0, [r1], -r0, lsl #6
     380:	0000006e 	andeq	r0, r0, lr, rrx
     384:	04050203 	streq	r0, [r5], #-515	; 0xfffffdfd
     388:	03000001 	movweq	r0, #1
     38c:	00ef0504 	rsceq	r0, pc, r4, lsl #10
     390:	08030000 	stmdaeq	r3, {}	; <UNPREDICTABLE>
     394:	0000ea05 	andeq	lr, r0, r5, lsl #20
     398:	08010300 	stmdaeq	r1, {r8, r9}
     39c:	0000006c 	andeq	r0, r0, ip, rrx
     3a0:	93070203 	movwls	r0, #29187	; 0x7203
     3a4:	04000000 	streq	r0, [r0], #-0
     3a8:	00000258 	andeq	r0, r0, r8, asr r2
     3ac:	69193403 	ldmdbvs	r9, {r0, r1, sl, ip, sp}
     3b0:	03000000 	movweq	r0, #0
     3b4:	00d80704 	sbcseq	r0, r8, r4, lsl #14
     3b8:	08030000 	stmdaeq	r3, {}	; <UNPREDICTABLE>
     3bc:	0000d307 	andeq	sp, r0, r7, lsl #6
     3c0:	00250500 	eoreq	r0, r5, r0, lsl #10
     3c4:	00860000 	addeq	r0, r6, r0
     3c8:	25060000 	strcs	r0, [r6, #-0]
     3cc:	00000000 	andeq	r0, r0, r0
     3d0:	0000f807 	andeq	pc, r0, r7, lsl #16
     3d4:	0e1c0200 	cdpeq	2, 1, cr0, cr12, cr0, {0}
     3d8:	00000092 	muleq	r0, r2, r0
     3dc:	00770408 	rsbseq	r0, r7, r8, lsl #8
     3e0:	25050000 	strcs	r0, [r5, #-0]
     3e4:	a7000000 	strge	r0, [r0, -r0]
     3e8:	06000000 	streq	r0, [r0], -r0
     3ec:	000000a7 	andeq	r0, r0, r7, lsr #1
     3f0:	b4040800 	strlt	r0, [r4], #-2048	; 0xfffff800
     3f4:	03000000 	movweq	r0, #0
     3f8:	00750801 	rsbseq	r0, r5, r1, lsl #16
     3fc:	ad090000 	stcge	0, cr0, [r9, #-0]
     400:	07000000 	streq	r0, [r0, -r0]
     404:	00000341 	andeq	r0, r0, r1, asr #6
     408:	c50e2102 	strgt	r2, [lr, #-258]	; 0xfffffefe
     40c:	08000000 	stmdaeq	r0, {}	; <UNPREDICTABLE>
     410:	00009804 	andeq	r9, r0, r4, lsl #16
     414:	02610a00 	rsbeq	r0, r1, #0, 20
     418:	18010000 	stmdane	r1, {}	; <UNPREDICTABLE>
     41c:	00002c0a 	andeq	r2, r0, sl, lsl #24
     420:	c4030500 	strgt	r0, [r3], #-1280	; 0xfffffb00
     424:	0b000094 	bleq	67c <__code_start__-0x7984>
     428:	004f0107 	subeq	r0, pc, r7, lsl #2
     42c:	21010000 	mrscs	r0, (UNDEF: 1)
     430:	0000fe06 	andeq	pc, r0, r6, lsl #28
     434:	024e0c00 	subeq	r0, lr, #0, 24
     438:	0c000000 	stceq	0, cr0, [r0], {-0}
     43c:	00000201 	andeq	r0, r0, r1, lsl #4
     440:	02c00c01 	sbceq	r0, r0, #256	; 0x100
     444:	00020000 	andeq	r0, r2, r0
     448:	0001d80d 	andeq	sp, r1, sp, lsl #16
     44c:	0c260100 	stfeqs	f0, [r6], #-0
     450:	00000025 	andeq	r0, r0, r5, lsr #32
     454:	90c00305 	sbcls	r0, r0, r5, lsl #6
     458:	320e0000 	andcc	r0, lr, #0, 0
     45c:	01000002 	tsteq	r0, r2
     460:	002c0a4e 	eoreq	r0, ip, lr, asr #20
     464:	829c0000 	addshi	r0, ip, #0, 0
     468:	00640000 	rsbeq	r0, r4, r0
     46c:	9c010000 	stcls	0, cr0, [r1], {-0}
     470:	0000017b 	andeq	r0, r0, fp, ror r1
     474:	00020a0f 	andeq	r0, r2, pc, lsl #20
     478:	204e0100 	subcs	r0, lr, r0, lsl #2
     47c:	0000002c 	andeq	r0, r0, ip, lsr #32
     480:	0000005e 	andeq	r0, r0, lr, asr r0
     484:	0000005a 	andeq	r0, r0, sl, asr r0
     488:	01007610 	tsteq	r0, r0, lsl r6
     48c:	002c0e4f 	eoreq	r0, ip, pc, asr #28
     490:	00840000 	addeq	r0, r4, r0
     494:	007c0000 	rsbseq	r0, ip, r0
     498:	a8110000 	ldmdage	r1, {}	; <UNPREDICTABLE>
     49c:	ab000082 	blge	6ac <__code_start__-0x7954>
     4a0:	64000003 	strvs	r0, [r0], #-3
     4a4:	12000001 	andne	r0, r0, #1, 0
     4a8:	75025001 	strvc	r5, [r2, #-1]
     4ac:	ec130000 	ldc	0, cr0, [r3], {-0}
     4b0:	dd000082 	stcle	0, cr0, [r0, #-520]	; 0xfffffdf8
     4b4:	12000001 	andne	r0, r0, #1, 0
     4b8:	75025001 	strvc	r5, [r2, #-1]
     4bc:	51011200 	mrspl	r1, R9_usr
     4c0:	00007402 	andeq	r7, r0, r2, lsl #8
     4c4:	01f41400 	mvnseq	r1, r0, lsl #8
     4c8:	44010000 	strmi	r0, [r1], #-0
     4cc:	00823c06 	addeq	r3, r2, r6, lsl #24
     4d0:	00006000 	andeq	r6, r0, r0
     4d4:	dd9c0100 	ldfles	f0, [ip]
     4d8:	0f000001 	svceq	0x00000001
     4dc:	0000020a 	andeq	r0, r0, sl, lsl #4
     4e0:	2c1c4401 	cfldrscs	mvf4, [ip], {1}
     4e4:	c0000000 	andgt	r0, r0, r0
     4e8:	b8000000 	stmdalt	r0, {}	; <UNPREDICTABLE>
     4ec:	15000000 	strne	r0, [r0, #-0]
     4f0:	006c6176 	rsbeq	r6, ip, r6, ror r1
     4f4:	2c2b4401 	cfstrscs	mvf4, [fp], #-4
     4f8:	fc000000 	stc2	0, cr0, [r0], {-0}
     4fc:	f4000000 	vst4.8	{d0-d3}, [r0], r0
     500:	11000000 	mrsne	r0, (UNDEF: 0)
     504:	00008264 	andeq	r8, r0, r4, ror #4
     508:	000003b7 			; <UNDEFINED> instruction: 0x000003b7
     50c:	000001d3 	ldrdeq	r0, [r0], -r3
     510:	02500112 	subseq	r0, r0, #-2147483644	; 0x80000004
     514:	01120074 	tsteq	r2, r4, ror r0
     518:	00750251 	rsbseq	r0, r5, r1, asr r2
     51c:	82881600 	addhi	r1, r8, #0, 12
     520:	023d0000 	eorseq	r0, sp, #0, 0
     524:	17000000 	strne	r0, [r0, -r0]
     528:	000001de 	ldrdeq	r0, [r0], -lr
     52c:	680d3f01 	stmdavs	sp, {r0, r8, r9, sl, fp, ip, sp}
     530:	1c000081 	stcne	0, cr0, [r0], {129}	; 0x81
     534:	01000000 	mrseq	r0, (UNDEF: 0)
     538:	00023d9c 	muleq	r2, ip, sp
     53c:	020a0f00 	andeq	r0, sl, #0, 30
     540:	3f010000 	svccc	0x00010000
     544:	00005d21 	andeq	r5, r0, r1, lsr #26
     548:	00013600 	andeq	r3, r1, r0, lsl #12
     54c:	00013000 	andeq	r3, r1, r0
     550:	61761500 	cmnvs	r6, r0, lsl #10
     554:	3f01006c 	svccc	0x0001006c
     558:	00005d30 	andeq	r5, r0, r0, lsr sp
     55c:	00016800 	andeq	r6, r1, r0, lsl #16
     560:	00016200 	andeq	r6, r1, r0, lsl #4
     564:	817c1300 	cmnhi	ip, r0, lsl #6
     568:	03c30000 	biceq	r0, r3, #0, 0
     56c:	01120000 	tsteq	r2, r0
     570:	28030550 	stmdacs	r3, {r4, r6, r8, sl}
     574:	1200008f 	andne	r0, r0, #143, 0	; 0x8f
     578:	f3035101 	vrhadd.u8	d5, d3, d1
     57c:	01125001 	tsteq	r2, r1
     580:	01f30352 	mvnseq	r0, r2, asr r3
     584:	17000051 	smlsdne	r0, r1, r0, r0
     588:	000001e9 	andeq	r0, r0, r9, ror #3
     58c:	4c0d3c01 	stcmi	12, cr3, [sp], {1}
     590:	1c000081 	stcne	0, cr0, [r0], {129}	; 0x81
     594:	01000000 	mrseq	r0, (UNDEF: 0)
     598:	00029d9c 	muleq	r2, ip, sp
     59c:	020a0f00 	andeq	r0, sl, #0, 30
     5a0:	3c010000 	stccc	0, cr0, [r1], {-0}
     5a4:	00005d21 	andeq	r5, r0, r1, lsr #26
     5a8:	00019a00 	andeq	r9, r1, r0, lsl #20
     5ac:	00019400 	andeq	r9, r1, r0, lsl #8
     5b0:	61761500 	cmnvs	r6, r0, lsl #10
     5b4:	3c01006c 	stccc	0, cr0, [r1], {108}	; 0x6c
     5b8:	00005d30 	andeq	r5, r0, r0, lsr sp
     5bc:	0001cc00 	andeq	ip, r1, r0, lsl #24
     5c0:	0001c600 	andeq	ip, r1, r0, lsl #12
     5c4:	81601300 	cmnhi	r0, r0, lsl #6
     5c8:	03c30000 	biceq	r0, r3, #0, 0
     5cc:	01120000 	tsteq	r2, r0
     5d0:	14030550 	strne	r0, [r3], #-1360	; 0xfffffab0
     5d4:	1200008f 	andne	r0, r0, #143, 0	; 0x8f
     5d8:	f3035101 	vrhadd.u8	d5, d3, d1
     5dc:	01125001 	tsteq	r2, r1
     5e0:	01f30352 	mvnseq	r0, r2, asr r3
     5e4:	14000051 	strne	r0, [r0], #-81	; 0xffffffaf
     5e8:	00000000 	andeq	r0, r0, r0
     5ec:	e0063501 	and	r3, r6, r1, lsl #10
     5f0:	5c000081 	stcpl	0, cr0, [r0], {129}	; 0x81
     5f4:	01000000 	mrseq	r0, (UNDEF: 0)
     5f8:	0003059c 	muleq	r3, ip, r5
     5fc:	02181800 	andseq	r1, r8, #0, 16
     600:	03150000 	tsteq	r5, #0, 0
     604:	03050000 	movweq	r0, #20480	; 0x5000
     608:	00008f94 	muleq	r0, r4, pc	; <UNPREDICTABLE>
     60c:	00822411 	addeq	r2, r2, r1, lsl r4
     610:	0003c300 	andeq	ip, r3, r0, lsl #6
     614:	0002fb00 	andeq	pc, r2, r0, lsl #22
     618:	50011200 	andpl	r1, r1, r0, lsl #4
     61c:	8f4c0305 	svchi	0x004c0305
     620:	01120000 	tsteq	r2, r0
     624:	3c030551 	cfstr32cc	mvfx0, [r3], {81}	; 0x51
     628:	1200008f 	andne	r0, r0, #143, 0	; 0x8f
     62c:	03055201 	movweq	r5, #20993	; 0x5201
     630:	00008f94 	muleq	r0, r4, pc	; <UNPREDICTABLE>
     634:	02530112 	subseq	r0, r3, #-2147483644	; 0x80000004
     638:	02123608 	andseq	r3, r2, #8, 12	; 0x800000
     63c:	0305007d 	movweq	r0, #20605	; 0x507d
     640:	00008f74 	andeq	r8, r0, r4, ror pc
     644:	82281600 	eorhi	r1, r8, #0, 12
     648:	03cf0000 	biceq	r0, pc, #0, 0
     64c:	19000000 	stmdbne	r0, {}	; <UNPREDICTABLE>
     650:	000000b4 	strheq	r0, [r0], -r4
     654:	00000315 	andeq	r0, r0, r5, lsl r3
     658:	00002c1a 	andeq	r2, r0, sl, lsl ip
     65c:	09000a00 	stmdbeq	r0, {r9, fp}
     660:	00000305 	andeq	r0, r0, r5, lsl #6
     664:	00008714 	andeq	r8, r0, r4, lsl r7
     668:	062e0100 	strteq	r0, [lr], -r0, lsl #2
     66c:	00008184 	andeq	r8, r0, r4, lsl #3
     670:	0000005c 	andeq	r0, r0, ip, asr r0
     674:	03969c01 	orrseq	r9, r6, #256	; 0x100
     678:	0f0f0000 	svceq	0x000f0000
     67c:	01000002 	tsteq	r0, r2
     680:	0025162e 	eoreq	r1, r5, lr, lsr #12
     684:	01fc0000 	mvnseq	r0, r0
     688:	01f80000 	mvnseq	r0, r0
     68c:	18180000 	ldmdane	r8, {}	; <UNPREDICTABLE>
     690:	a6000002 	strge	r0, [r0], -r2
     694:	05000003 	streq	r0, [r0, #-3]
     698:	008f8803 	addeq	r8, pc, r3, lsl #16
     69c:	81c81100 	bichi	r1, r8, r0, lsl #2
     6a0:	03c30000 	biceq	r0, r3, #0, 0
     6a4:	038c0000 	orreq	r0, ip, #0, 0
     6a8:	01120000 	tsteq	r2, r0
     6ac:	4c030550 	cfstr32mi	mvfx0, [r3], {80}	; 0x50
     6b0:	1200008f 	andne	r0, r0, #143, 0	; 0x8f
     6b4:	03055101 	movweq	r5, #20737	; 0x5101
     6b8:	00008f3c 	andeq	r8, r0, ip, lsr pc
     6bc:	05520112 	ldrbeq	r0, [r2, #-274]	; 0xfffffeee
     6c0:	008f8803 	addeq	r8, pc, r3, lsl #16
     6c4:	53011200 	movwpl	r1, #4608	; 0x1200
     6c8:	122f0802 	eorne	r0, pc, #131072	; 0x20000
     6cc:	05007d02 	streq	r7, [r0, #-3330]	; 0xfffff2fe
     6d0:	008f6003 	addeq	r6, pc, r3
     6d4:	cc160000 	ldcgt	0, cr0, [r6], {-0}
     6d8:	cf000081 	svcgt	0x00000081
     6dc:	00000003 	andeq	r0, r0, r3
     6e0:	0000b419 	andeq	fp, r0, r9, lsl r4
     6e4:	0003a600 	andeq	sl, r3, r0, lsl #12
     6e8:	002c1a00 	eoreq	r1, ip, r0, lsl #20
     6ec:	000b0000 	andeq	r0, fp, r0
     6f0:	00039609 	andeq	r9, r3, r9, lsl #12
     6f4:	01cb1b00 	biceq	r1, fp, r0, lsl #22
     6f8:	01cb0000 	biceq	r0, fp, r0
     6fc:	1c010000 	stcne	0, cr0, [r1], {-0}
     700:	02251b0a 	eoreq	r1, r5, #10240	; 0x2800
     704:	02250000 	eoreq	r0, r5, #0, 0
     708:	1e010000 	cdpne	0, 0, cr0, cr1, cr0, {0}
     70c:	02d31b06 	sbcseq	r1, r3, #6144	; 0x1800
     710:	02d30000 	sbcseq	r0, r3, #0, 0
     714:	28020000 	stmdacs	r2, {}	; <UNPREDICTABLE>
     718:	007a1b06 	rsbseq	r1, sl, r6, lsl #22
     71c:	007a0000 	rsbseq	r0, sl, r0
     720:	67020000 	strvs	r0, [r2, -r0]
     724:	019d0006 	orrseq	r0, sp, r6
     728:	00040000 	andeq	r0, r4, r0
     72c:	0000027b 	andeq	r0, r0, fp, ror r2
     730:	010e0104 	tsteq	lr, r4, lsl #2
     734:	e90c0000 	stmdb	ip, {}	; <UNPREDICTABLE>
     738:	06000002 	streq	r0, [r0], -r2
     73c:	00000003 	andeq	r0, r0, r3
     740:	58000083 	stmdapl	r0, {r0, r1, r7}
     744:	53000000 	movwpl	r0, #0
     748:	02000003 	andeq	r0, r0, #3, 0
     74c:	000002da 	ldrdeq	r0, [r0], -sl
     750:	311b2802 	tstcc	fp, r2, lsl #16
     754:	03000000 	movweq	r0, #0
     758:	000002fc 	strdeq	r0, [r0], -ip
     75c:	48000404 	stmdami	r0, {r2, sl}
     760:	04000000 	streq	r0, [r0], #-0
     764:	000002f7 	strdeq	r0, [r0], -r7
     768:	00000048 	andeq	r0, r0, r8, asr #32
     76c:	04050000 	streq	r0, [r5], #-0
     770:	0002fe02 	andeq	pc, r2, r2, lsl #28
     774:	18630200 	stmdane	r3!, {r9}^
     778:	00000025 	andeq	r0, r0, r5, lsr #32
     77c:	69050406 	stmdbvs	r5, {r1, r2, sl}
     780:	0700746e 	streq	r7, [r0, -lr, ror #8]
     784:	00dd0704 	sbcseq	r0, sp, r4, lsl #14
     788:	01070000 	mrseq	r0, (UNDEF: 7)
     78c:	00006e06 	andeq	r6, r0, r6, lsl #28
     790:	05020700 	streq	r0, [r2, #-1792]	; 0xfffff900
     794:	00000104 	andeq	r0, r0, r4, lsl #2
     798:	ef050407 	svc	0x00050407
     79c:	07000000 	streq	r0, [r0, -r0]
     7a0:	00ea0508 	rsceq	r0, sl, r8, lsl #10
     7a4:	01070000 	mrseq	r0, (UNDEF: 7)
     7a8:	00006c08 	andeq	r6, r0, r8, lsl #24
     7ac:	07020700 	streq	r0, [r2, -r0, lsl #14]
     7b0:	00000093 	muleq	r0, r3, r0
     7b4:	d8070407 	stmdale	r7, {r0, r1, r2, sl}
     7b8:	07000000 	streq	r0, [r0, -r0]
     7bc:	00d30708 	sbcseq	r0, r3, r8, lsl #14
     7c0:	56080000 	strpl	r0, [r8], -r0
     7c4:	ab000000 	blge	7cc <__code_start__-0x7834>
     7c8:	09000000 	stmdbeq	r0, {}	; <UNPREDICTABLE>
     7cc:	00000056 	andeq	r0, r0, r6, asr r0
     7d0:	00f80a00 	rscseq	r0, r8, r0, lsl #20
     7d4:	1c030000 	stcne	0, cr0, [r3], {-0}
     7d8:	0000b70e 	andeq	fp, r0, lr, lsl #14
     7dc:	9c040b00 			; <UNDEFINED> instruction: 0x9c040b00
     7e0:	08000000 	stmdaeq	r0, {}	; <UNPREDICTABLE>
     7e4:	00000056 	andeq	r0, r0, r6, asr r0
     7e8:	000000cc 	andeq	r0, r0, ip, asr #1
     7ec:	0000cc09 	andeq	ip, r0, r9, lsl #24
     7f0:	040b0000 	streq	r0, [fp], #-0
     7f4:	000000d9 	ldrdeq	r0, [r0], -r9
     7f8:	75080107 	strvc	r0, [r8, #-263]	; 0xfffffef9
     7fc:	0c000000 	stceq	0, cr0, [r0], {-0}
     800:	000000d2 	ldrdeq	r0, [r0], -r2
     804:	0003410a 	andeq	r4, r3, sl, lsl #2
     808:	0e210300 	cdpeq	3, 2, cr0, cr1, cr0, {0}
     80c:	000000ea 	andeq	r0, r0, sl, ror #1
     810:	00bd040b 	adcseq	r0, sp, fp, lsl #8
     814:	d30d0000 	movwle	r0, #53248	; 0xd000
     818:	01000002 	tsteq	r0, r2
     81c:	00560506 	subseq	r0, r6, r6, lsl #10
     820:	83000000 	movwhi	r0, #0
     824:	00580000 	subseq	r0, r8, r0
     828:	9c010000 	stcls	0, cr0, [r1], {-0}
     82c:	00000183 	andeq	r0, r0, r3, lsl #3
     830:	746d660e 	strbtvc	r6, [sp], #-1550	; 0xfffff9f2
     834:	18060100 	stmdane	r6, {r8}
     838:	000000cc 	andeq	r0, r0, ip, asr #1
     83c:	0f709102 	svceq	0x00709102
     840:	66756210 			; <UNDEFINED> instruction: 0x66756210
     844:	11080100 	mrsne	r0, (UNDEF: 24)
     848:	00000183 	andeq	r0, r0, r3, lsl #3
     84c:	90c40305 	sbcls	r0, r4, r5, lsl #6
     850:	cb110000 	blgt	440858 <__bss_end__+0x437390>
     854:	01000002 	tsteq	r0, r2
     858:	004a0d09 	subeq	r0, sl, r9, lsl #26
     85c:	91020000 	mrsls	r0, (UNDEF: 2)
     860:	7a73125c 	bvc	1cc51d8 <__bss_end__+0x1cbbd10>
     864:	0d0c0100 	stfeqs	f0, [ip, #-0]
     868:	00000056 	andeq	r0, r0, r6, asr r0
     86c:	00000223 	andeq	r0, r0, r3, lsr #4
     870:	0000021d 	andeq	r0, r0, sp, lsl r2
     874:	00832813 	addeq	r2, r3, r3, lsl r8
     878:	00019400 	andeq	r9, r1, r0, lsl #8
     87c:	00017600 	andeq	r7, r1, r0, lsl #12
     880:	50011400 	andpl	r1, r1, r0, lsl #8
     884:	14007502 	strne	r7, [r0], #-1282	; 0xfffffafe
     888:	0a035101 	beq	d4c94 <__bss_end__+0xcb7cc>
     88c:	01140400 	tsteq	r4, r0, lsl #8
     890:	48910352 	ldmmi	r1, {r1, r4, r6, r8, r9}
     894:	53011406 	movwpl	r1, #5126	; 0x1406
     898:	004c9102 	subeq	r9, ip, r2, lsl #2
     89c:	00833c15 	addeq	r3, r3, r5, lsl ip
     8a0:	50011400 	andpl	r1, r1, r0, lsl #8
     8a4:	00007502 	andeq	r7, r0, r2, lsl #10
     8a8:	00d21600 	sbcseq	r1, r2, r0, lsl #12
     8ac:	01940000 	orrseq	r0, r4, r0
     8b0:	5d170000 	ldcpl	0, cr0, [r7, #-0]
     8b4:	ff000000 			; <UNDEFINED> instruction: 0xff000000
     8b8:	d0180003 	andsle	r0, r8, r3
     8bc:	d0000002 	andle	r0, r0, r2
     8c0:	05000002 	streq	r0, [r0, #-2]
     8c4:	f3000502 	vrshl.u8	d0, d2, d0
     8c8:	04000000 	streq	r0, [r0], #-0
     8cc:	0003bd00 	andeq	fp, r3, r0, lsl #26
     8d0:	0e010400 	cfcpyseq	mvf0, mvf1
     8d4:	0c000001 	stceq	0, cr0, [r0], {1}
     8d8:	00000346 	andeq	r0, r0, r6, asr #6
     8dc:	00000306 	andeq	r0, r0, r6, lsl #6
     8e0:	00008358 	andeq	r8, r0, r8, asr r3
     8e4:	00000034 	andeq	r0, r0, r4, lsr r0
     8e8:	00000472 	andeq	r0, r0, r2, ror r4
     8ec:	69050402 	stmdbvs	r5, {r1, sl}
     8f0:	0300746e 	movweq	r7, #1134	; 0x46e
     8f4:	00dd0704 	sbcseq	r0, sp, r4, lsl #14
     8f8:	01030000 	mrseq	r0, (UNDEF: 3)
     8fc:	00006e06 	andeq	r6, r0, r6, lsl #28
     900:	05020300 	streq	r0, [r2, #-768]	; 0xfffffd00
     904:	00000104 	andeq	r0, r0, r4, lsl #2
     908:	ef050403 	svc	0x00050403
     90c:	03000000 	movweq	r0, #0
     910:	00ea0508 	rsceq	r0, sl, r8, lsl #10
     914:	01030000 	mrseq	r0, (UNDEF: 3)
     918:	00006c08 	andeq	r6, r0, r8, lsl #24
     91c:	07020300 	streq	r0, [r2, -r0, lsl #6]
     920:	00000093 	muleq	r0, r3, r0
     924:	d8070403 	stmdale	r7, {r0, r1, sl}
     928:	03000000 	movweq	r0, #0
     92c:	00d30708 	sbcseq	r0, r3, r8, lsl #14
     930:	25040000 	strcs	r0, [r4, #-0]
     934:	7a000000 	bvc	93c <__code_start__-0x76c4>
     938:	05000000 	streq	r0, [r0, #-0]
     93c:	00000025 	andeq	r0, r0, r5, lsr #32
     940:	00f80600 	rscseq	r0, r8, r0, lsl #12
     944:	1c020000 	stcne	0, cr0, [r2], {-0}
     948:	0000860e 	andeq	r8, r0, lr, lsl #12
     94c:	6b040700 	blvs	102554 <__bss_end__+0xf908c>
     950:	04000000 	streq	r0, [r0], #-0
     954:	00000025 	andeq	r0, r0, r5, lsr #32
     958:	0000009b 	muleq	r0, fp, r0
     95c:	00009b05 	andeq	r9, r0, r5, lsl #22
     960:	04070000 	streq	r0, [r7], #-0
     964:	000000a8 	andeq	r0, r0, r8, lsr #1
     968:	75080103 	strvc	r0, [r8, #-259]	; 0xfffffefd
     96c:	08000000 	stmdaeq	r0, {}	; <UNPREDICTABLE>
     970:	000000a1 	andeq	r0, r0, r1, lsr #1
     974:	00034106 	andeq	r4, r3, r6, lsl #2
     978:	0e210200 	cdpeq	2, 2, cr0, cr1, cr0, {0}
     97c:	000000b9 	strheq	r0, [r0], -r9
     980:	008c0407 	addeq	r0, ip, r7, lsl #8
     984:	ad090000 	stcge	0, cr0, [r9, #-0]
     988:	01000000 	mrseq	r0, (UNDEF: 0)
     98c:	0305070c 	movweq	r0, #22284	; 0x570c
     990:	000090b8 	strheq	r9, [r0], -r8
     994:	0003380a 	andeq	r3, r3, sl, lsl #16
     998:	05040100 	streq	r0, [r4, #-256]	; 0xffffff00
     99c:	00000025 	andeq	r0, r0, r5, lsr #32
     9a0:	00008358 	andeq	r8, r0, r8, asr r3
     9a4:	00000034 	andeq	r0, r0, r4, lsr r0
     9a8:	700b9c01 	andvc	r9, fp, r1, lsl #24
     9ac:	1f040100 	svcne	0x00040100
     9b0:	0000009b 	muleq	r0, fp, r0
     9b4:	00000250 	andeq	r0, r0, r0, asr r2
     9b8:	0000024c 	andeq	r0, r0, ip, asr #4
     9bc:	09040000 	stmdbeq	r4, {}	; <UNPREDICTABLE>
     9c0:	00040000 	andeq	r0, r4, r0
     9c4:	0000045b 	andeq	r0, r0, fp, asr r4
     9c8:	010e0104 	tsteq	lr, r4, lsl #2
     9cc:	cf0c0000 	svcgt	0x000c0000
     9d0:	06000003 	streq	r0, [r0], -r3
     9d4:	8c000003 	stchi	0, cr0, [r0], {3}
     9d8:	2c000083 	stccs	0, cr0, [r0], {131}	; 0x83
     9dc:	29000006 	stmdbcs	r0, {r1, r2}
     9e0:	02000005 	andeq	r0, r0, #5, 0
     9e4:	6e690504 	cdpvs	5, 6, cr0, cr9, cr4, {0}
     9e8:	04030074 	streq	r0, [r3], #-116	; 0xffffff8c
     9ec:	0000dd07 	andeq	sp, r0, r7, lsl #26
     9f0:	06010300 	streq	r0, [r1], -r0, lsl #6
     9f4:	0000006e 	andeq	r0, r0, lr, rrx
     9f8:	04050203 	streq	r0, [r5], #-515	; 0xfffffdfd
     9fc:	03000001 	movweq	r0, #1
     a00:	00ef0504 	rsceq	r0, pc, r4, lsl #10
     a04:	08030000 	stmdaeq	r3, {}	; <UNPREDICTABLE>
     a08:	0000ea05 	andeq	lr, r0, r5, lsl #20
     a0c:	08010300 	stmdaeq	r1, {r8, r9}
     a10:	0000006c 	andeq	r0, r0, ip, rrx
     a14:	93070203 	movwls	r0, #29187	; 0x7203
     a18:	04000000 	streq	r0, [r0], #-0
     a1c:	00000258 	andeq	r0, r0, r8, asr r2
     a20:	69193402 	ldmdbvs	r9, {r1, sl, ip, sp}
     a24:	03000000 	movweq	r0, #0
     a28:	00d80704 	sbcseq	r0, r8, r4, lsl #14
     a2c:	5a040000 	bpl	100a34 <__bss_end__+0xf756c>
     a30:	02000003 	andeq	r0, r0, #3, 0
     a34:	007c1937 	rsbseq	r1, ip, r7, lsr r9
     a38:	08030000 	stmdaeq	r3, {}	; <UNPREDICTABLE>
     a3c:	0000d307 	andeq	sp, r0, r7, lsl #6
     a40:	00250500 	eoreq	r0, r5, r0, lsl #10
     a44:	00920000 	addseq	r0, r2, r0
     a48:	25060000 	strcs	r0, [r6, #-0]
     a4c:	00000000 	andeq	r0, r0, r0
     a50:	0000f807 	andeq	pc, r0, r7, lsl #16
     a54:	0e1c0300 	cdpeq	3, 1, cr0, cr12, cr0, {0}
     a58:	0000009e 	muleq	r0, lr, r0
     a5c:	00830408 	addeq	r0, r3, r8, lsl #8
     a60:	25050000 	strcs	r0, [r5, #-0]
     a64:	b3000000 	movwlt	r0, #0
     a68:	06000000 	streq	r0, [r0], -r0
     a6c:	000000b3 	strheq	r0, [r0], -r3
     a70:	c0040800 	andgt	r0, r4, r0, lsl #16
     a74:	03000000 	movweq	r0, #0
     a78:	00750801 	rsbseq	r0, r5, r1, lsl #16
     a7c:	b9090000 	stmdblt	r9, {}	; <UNPREDICTABLE>
     a80:	07000000 	streq	r0, [r0, -r0]
     a84:	00000341 	andeq	r0, r0, r1, asr #6
     a88:	d10e2103 	tstle	lr, r3, lsl #2
     a8c:	08000000 	stmdaeq	r0, {}	; <UNPREDICTABLE>
     a90:	0000a404 	andeq	sl, r0, r4, lsl #8
     a94:	03630700 	cmneq	r3, #0, 14
     a98:	0b040000 	bleq	100aa0 <__bss_end__+0xf75d8>
     a9c:	0000b90d 	andeq	fp, r0, sp, lsl #18
     aa0:	03ed0700 	mvneq	r0, #0, 14
     aa4:	0c040000 	stceq	0, cr0, [r4], {-0}
     aa8:	0000b90d 	andeq	fp, r0, sp, lsl #18
     aac:	03720700 	cmneq	r2, #0, 14
     ab0:	0d040000 	stceq	0, cr0, [r4, #-0]
     ab4:	0000b90d 	andeq	fp, r0, sp, lsl #18
     ab8:	039b0700 	orrseq	r0, fp, #0, 14
     abc:	0e040000 	cdpeq	0, 0, cr0, cr4, cr0, {0}
     ac0:	0000b90d 	andeq	fp, r0, sp, lsl #18
     ac4:	040f0700 	streq	r0, [pc], #-1792	; acc <__code_start__-0x7534>
     ac8:	0f040000 	svceq	0x00040000
     acc:	0000b90d 	andeq	fp, r0, sp, lsl #18
     ad0:	03860700 	orreq	r0, r6, #0, 14
     ad4:	10040000 	andne	r0, r4, r0
     ad8:	0000b90d 	andeq	fp, r0, sp, lsl #18
     adc:	041e0700 	ldreq	r0, [lr], #-1792	; 0xfffff900
     ae0:	11040000 	mrsne	r0, (UNDEF: 4)
     ae4:	0000b90d 	andeq	fp, r0, sp, lsl #18
     ae8:	03a70700 			; <UNDEFINED> instruction: 0x03a70700
     aec:	12040000 	andne	r0, r4, #0, 0
     af0:	0000b90d 	andeq	fp, r0, sp, lsl #18
     af4:	02da0400 	sbcseq	r0, sl, #0, 8
     af8:	28050000 	stmdacs	r5, {}	; <UNPREDICTABLE>
     afc:	0001431b 	andeq	r4, r1, fp, lsl r3
     b00:	02fc0a00 	rscseq	r0, ip, #0, 20
     b04:	06040000 	streq	r0, [r4], -r0
     b08:	00015a00 	andeq	r5, r1, r0, lsl #20
     b0c:	02f70b00 	rscseq	r0, r7, #0, 22
     b10:	015a0000 	cmpeq	sl, r0
     b14:	00000000 	andeq	r0, r0, r0
     b18:	fe04040c 	cdp2	4, 0, cr0, cr4, cr12, {0}
     b1c:	05000002 	streq	r0, [r0, #-2]
     b20:	01371863 	teqeq	r7, r3, ror #16
     b24:	d00d0000 	andle	r0, sp, r0
     b28:	01000002 	tsteq	r0, r2
     b2c:	00250581 	eoreq	r0, r5, r1, lsl #11
     b30:	86140000 	ldrhi	r0, [r4], -r0
     b34:	03a40000 			; <UNDEFINED> instruction: 0x03a40000
     b38:	9c010000 	stcls	0, cr0, [r1], {-0}
     b3c:	0000055c 	andeq	r0, r0, ip, asr r5
     b40:	6675620e 	ldrbtvs	r6, [r5], -lr, lsl #4
     b44:	15810100 	strne	r0, [r1, #256]	; 0x100
     b48:	0000055c 	andeq	r0, r0, ip, asr r5
     b4c:	00000274 	andeq	r0, r0, r4, ror r2
     b50:	0000026e 	andeq	r0, r0, lr, ror #4
     b54:	01006e0e 	tsteq	r0, lr, lsl #28
     b58:	00251e81 	eoreq	r1, r5, r1, lsl #29
     b5c:	02a60000 	adceq	r0, r6, #0, 0
     b60:	02a00000 	adceq	r0, r0, #0, 0
     b64:	660e0000 	strvs	r0, [lr], -r0
     b68:	0100746d 	tsteq	r0, sp, ror #8
     b6c:	00b32d81 	adcseq	r2, r3, r1, lsl #27
     b70:	02d80000 	sbcseq	r0, r8, #0, 0
     b74:	02d40000 	sbcseq	r0, r4, #0, 0
     b78:	cb0f0000 	blgt	3c0b80 <__bss_end__+0x3b76b8>
     b7c:	01000002 	tsteq	r0, r2
     b80:	015c3a81 	cmpeq	ip, r1, lsl #21
     b84:	91030000 	mrsls	r0, (UNDEF: 3)
     b88:	70107dd4 			; <UNDEFINED> instruction: 0x70107dd4
     b8c:	08820100 	stmeq	r2, {r8}
     b90:	0000055c 	andeq	r0, r0, ip, asr r5
     b94:	0000030a 	andeq	r0, r0, sl, lsl #6
     b98:	000002f6 	strdeq	r0, [r0], -r6
     b9c:	01006510 	tsteq	r0, r0, lsl r5
     ba0:	055c1282 	ldrbeq	r1, [ip, #-642]	; 0xfffffd7e
     ba4:	038c0000 	orreq	r0, ip, #0, 0
     ba8:	03880000 	orreq	r0, r8, #0, 0
     bac:	78100000 	ldmdavc	r0, {}	; <UNPREDICTABLE>
     bb0:	83010030 	movwhi	r0, #4144	; 0x1030
     bb4:	00005d0e 	andeq	r5, r0, lr, lsl #26
     bb8:	0003b500 	andeq	fp, r3, r0, lsl #10
     bbc:	0003b300 	andeq	fp, r3, r0, lsl #6
     bc0:	31781100 	cmncc	r8, r0, lsl #2
     bc4:	11830100 	orrne	r0, r3, r0, lsl #2
     bc8:	0000005d 	andeq	r0, r0, sp, asr r0
     bcc:	0003c512 	andeq	ip, r3, r2, lsl r5
     bd0:	11860100 	orrne	r0, r6, r0, lsl #2
     bd4:	000000b3 	strheq	r0, [r0], -r3
     bd8:	000003cc 	andeq	r0, r0, ip, asr #7
     bdc:	000003c8 	andeq	r0, r0, r8, asr #7
     be0:	00021813 	andeq	r1, r2, r3, lsl r8
     be4:	00057200 	andeq	r7, r5, r0, lsl #4
     be8:	a0030500 	andge	r0, r3, r0, lsl #10
     bec:	14000090 	strne	r0, [r0], #-144	; 0xffffff70
     bf0:	0000867c 	andeq	r8, r0, ip, ror r6
     bf4:	00000300 	andeq	r0, r0, r0, lsl #6
     bf8:	01007310 	tsteq	r0, r0, lsl r3
     bfc:	055c0a91 	ldrbeq	r0, [ip, #-2705]	; 0xfffff56f
     c00:	03fe0000 	mvnseq	r0, #0, 0
     c04:	03ec0000 	mvneq	r0, #0, 0
     c08:	6e150000 	cdpvs	0, 1, cr0, cr5, cr0, {0}
     c0c:	01006d75 	tsteq	r0, r5, ror sp
     c10:	05770d91 	ldrbeq	r0, [r7, #-3473]!	; 0xfffff26f
     c14:	91030000 	mrsls	r0, (UNDEF: 3)
     c18:	2b167dd8 	blcs	5a0380 <__bss_end__+0x596eb8>
     c1c:	01000004 	tsteq	r0, r4
     c20:	05771791 	ldrbeq	r1, [r7, #-1937]!	; 0xfffff86f
     c24:	91030000 	mrsls	r0, (UNDEF: 3)
     c28:	80127ed8 			; <UNDEFINED> instruction: 0x80127ed8
     c2c:	01000003 	tsteq	r0, r3
     c30:	002c0d92 	mlaeq	ip, r2, sp, r0
     c34:	046f0000 	strbteq	r0, [pc], #-0	; c3c <__code_start__-0x73c4>
     c38:	04690000 	strbteq	r0, [r9], #-0
     c3c:	00170000 	andseq	r0, r7, r0
     c40:	04000000 	streq	r0, [r0], #-0
     c44:	15000005 	strne	r0, [r0, #-5]
     c48:	01007878 	tsteq	r0, r8, ror r8
     c4c:	00701a9f 			; <UNDEFINED> instruction: 0x00701a9f
     c50:	5b060000 	blpl	180c58 <__bss_end__+0x177790>
     c54:	93530493 	cmpls	r3, #-1828716544	; 0x93000000
     c58:	87541804 	ldrbhi	r1, [r4, -r4, lsl #16]
     c5c:	08d70000 	ldmeq	r7, {}^	; <UNPREDICTABLE>
     c60:	02bd0000 	adcseq	r0, sp, #0, 0
     c64:	01190000 	tsteq	r9, r0
     c68:	00760250 	rsbseq	r0, r6, r0, asr r2
     c6c:	05510119 	ldrbeq	r0, [r1, #-281]	; 0xfffffee7
     c70:	008ff003 	addeq	pc, pc, r3
     c74:	52011900 	andpl	r1, r1, #0, 18
     c78:	18003301 	stmdane	r0, {r0, r8, r9, ip, sp}
     c7c:	00008798 	muleq	r0, r8, r7
     c80:	00000587 	andeq	r0, r0, r7, lsl #11
     c84:	000002eb 	andeq	r0, r0, fp, ror #5
     c88:	01500119 	cmpeq	r0, r9, lsl r1
     c8c:	51011940 	tstpl	r1, r0, asr #18
     c90:	7dd09103 	ldfvcp	f1, [r0, #12]
     c94:	02520119 	subseq	r0, r2, #1073741830	; 0x40000006
     c98:	02198008 	andseq	r8, r9, #8, 0
     c9c:	7502007d 	strvc	r0, [r2, #-125]	; 0xffffff83
     ca0:	7d021900 	vstrvc.16	s2, [r2, #-0]	; <UNPREDICTABLE>
     ca4:	007a0204 	rsbseq	r0, sl, r4, lsl #4
     ca8:	87b81800 	ldrhi	r1, [r8, r0, lsl #16]!
     cac:	05870000 	streq	r0, [r7]
     cb0:	031f0000 	tsteq	pc, #0, 0
     cb4:	01190000 	tsteq	r9, r0
     cb8:	19400150 	stmdbne	r0, {r4, r6, r8}^
     cbc:	91035101 	tstls	r3, r1, lsl #2
     cc0:	01197ed0 			; <UNDEFINED> instruction: 0x01197ed0
     cc4:	80080252 	andhi	r0, r8, r2, asr r2
     cc8:	02530119 	subseq	r0, r3, #1073741830	; 0x40000006
     ccc:	0219007b 	andseq	r0, r9, #123, 0	; 0x7b
     cd0:	7502007d 	strvc	r0, [r2, #-125]	; 0xffffff83
     cd4:	7d021900 	vstrvc.16	s2, [r2, #-0]	; <UNPREDICTABLE>
     cd8:	007a0204 	rsbseq	r0, sl, r4, lsl #4
     cdc:	87c41800 	strbhi	r1, [r4, r0, lsl #16]
     ce0:	08e30000 	stmiaeq	r3!, {}^	; <UNPREDICTABLE>
     ce4:	033b0000 	teqeq	fp, #0, 0
     ce8:	01190000 	tsteq	r9, r0
     cec:	d0910350 	addsle	r0, r1, r0, asr r3
     cf0:	5101197d 	tstpl	r1, sp, ror r9
     cf4:	7ed29103 	atnvcs	f1, f3
     cf8:	87e41800 	strbhi	r1, [r4, r0, lsl #16]!
     cfc:	08ef0000 	stmiaeq	pc!, {}^	; <UNPREDICTABLE>
     d00:	03740000 	cmneq	r4, #0, 0
     d04:	01190000 	tsteq	r9, r0
     d08:	4c030550 	cfstr32mi	mvfx0, [r3], {80}	; 0x50
     d0c:	1900008f 	stmdbne	r0, {r0, r1, r2, r3, r7}
     d10:	03055101 	movweq	r5, #20737	; 0x5101
     d14:	00008fa0 	andeq	r8, r0, r0, lsr #31
     d18:	05520119 	ldrbeq	r0, [r2, #-281]	; 0xfffffee7
     d1c:	0090a003 	addseq	sl, r0, r3
     d20:	53011900 	movwpl	r1, #6400	; 0x1900
     d24:	199d0802 	ldmibne	sp, {r1, fp}
     d28:	05007d02 	streq	r7, [r0, #-3330]	; 0xfffff2fe
     d2c:	008ff403 	addeq	pc, pc, r3, lsl #8
     d30:	e81a0000 	ldmda	sl, {}	; <UNPREDICTABLE>
     d34:	fb000087 	blx	f5a <__code_start__-0x70a6>
     d38:	18000008 	stmdane	r0, {r3}
     d3c:	000087fc 	strdeq	r8, [r0], -ip
     d40:	000008ef 	andeq	r0, r0, pc, ror #17
     d44:	000003ac 	andeq	r0, r0, ip, lsr #7
     d48:	05500119 	ldrbeq	r0, [r0, #-281]	; 0xfffffee7
     d4c:	00901003 	addseq	r1, r0, r3
     d50:	51011900 	tstpl	r1, r0, lsl #18
     d54:	8fa00305 	svchi	0x00a00305
     d58:	01190000 	tsteq	r9, r0
     d5c:	a0030552 	andge	r0, r3, r2, asr r5
     d60:	19000090 	stmdbne	r0, {r4, r7}
     d64:	08025301 	stmdaeq	r2, {r0, r8, r9, ip, lr}
     d68:	001a00af 	andseq	r0, sl, pc, lsr #1
     d6c:	fb000088 	blx	f96 <__code_start__-0x706a>
     d70:	18000008 	stmdane	r0, {r3}
     d74:	0000882c 	andeq	r8, r0, ip, lsr #16
     d78:	00000587 	andeq	r0, r0, r7, lsl #11
     d7c:	000003e2 	andeq	r0, r0, r2, ror #7
     d80:	01500119 	cmpeq	r0, r9, lsl r1
     d84:	5101193a 	tstpl	r1, sl, lsr r9
     d88:	7dd09103 	ldfvcp	f1, [r0, #12]
     d8c:	02520119 	subseq	r0, r2, #1073741830	; 0x40000006
     d90:	02198008 	andseq	r8, r9, #8, 0
     d94:	7502007d 	strvc	r0, [r2, #-125]	; 0xffffff83
     d98:	7d021900 	vstrvc.16	s2, [r2, #-0]	; <UNPREDICTABLE>
     d9c:	00310104 	eorseq	r0, r1, r4, lsl #2
     da0:	00886418 	addeq	r6, r8, r8, lsl r4
     da4:	00058700 	andeq	r8, r5, r0, lsl #14
     da8:	00040f00 	andeq	r0, r4, r0, lsl #30
     dac:	50011900 	andpl	r1, r1, r0, lsl #18
     db0:	01193a01 	tsteq	r9, r1, lsl #20
     db4:	d0910351 	addsle	r0, r1, r1, asr r3
     db8:	5201197d 	andpl	r1, r1, #2048000	; 0x1f4000
     dbc:	19800802 	stmibne	r0, {r1, fp}
     dc0:	02007d02 	andeq	r7, r0, #128	; 0x80
     dc4:	02190075 	andseq	r0, r9, #117, 0	; 0x75
     dc8:	3001047d 	andcc	r0, r1, sp, ror r4
     dcc:	88981800 	ldmhi	r8, {fp, ip}
     dd0:	05870000 	streq	r0, [r7]
     dd4:	043c0000 	ldrteq	r0, [ip], #-0
     dd8:	01190000 	tsteq	r9, r0
     ddc:	19400150 	stmdbne	r0, {r4, r6, r8}^
     de0:	91035101 	tstls	r3, r1, lsl #2
     de4:	01197dd0 			; <UNDEFINED> instruction: 0x01197dd0
     de8:	80080252 	andhi	r0, r8, r2, asr r2
     dec:	007d0219 	rsbseq	r0, sp, r9, lsl r2
     df0:	19007502 	stmdbne	r0, {r1, r8, sl, ip, sp, lr}
     df4:	01047d02 	tsteq	r4, r2, lsl #26
     df8:	cc180030 	ldcgt	0, cr0, [r8], {48}	; 0x30
     dfc:	87000088 	strhi	r0, [r0, -r8, lsl #1]
     e00:	69000005 	stmdbvs	r0, {r0, r2}
     e04:	19000004 	stmdbne	r0, {r2}
     e08:	32015001 	andcc	r5, r1, #1, 0
     e0c:	03510119 	cmpeq	r1, #1073741830	; 0x40000006
     e10:	197dd091 	ldmdbne	sp!, {r0, r4, r7, ip, lr, pc}^
     e14:	08025201 	stmdaeq	r2, {r0, r9, ip, lr}
     e18:	7d021980 	vstrvc.16	s2, [r2, #-256]	; 0xffffff00	; <UNPREDICTABLE>
     e1c:	00750200 	rsbseq	r0, r5, r0, lsl #4
     e20:	047d0219 	ldrbteq	r0, [sp], #-537	; 0xfffffde7
     e24:	18003001 	stmdane	r0, {r0, ip, sp}
     e28:	00008914 	andeq	r8, r0, r4, lsl r9
     e2c:	00000587 	andeq	r0, r0, r7, lsl #11
     e30:	00000496 	muleq	r0, r6, r4
     e34:	01500119 	cmpeq	r0, r9, lsl r1
     e38:	51011938 	tstpl	r1, r8, lsr r9
     e3c:	7dd09103 	ldfvcp	f1, [r0, #12]
     e40:	02520119 	subseq	r0, r2, #1073741830	; 0x40000006
     e44:	02198008 	andseq	r8, r9, #8, 0
     e48:	7502007d 	strvc	r0, [r2, #-125]	; 0xffffff83
     e4c:	7d021900 	vstrvc.16	s2, [r2, #-0]	; <UNPREDICTABLE>
     e50:	00300104 	eorseq	r0, r0, r4, lsl #2
     e54:	00893418 	addeq	r3, r9, r8, lsl r4
     e58:	0008ef00 	andeq	lr, r8, r0, lsl #30
     e5c:	0004b900 	andeq	fp, r4, r0, lsl #18
     e60:	50011900 	andpl	r1, r1, r0, lsl #18
     e64:	90380305 	eorsls	r0, r8, r5, lsl #6
     e68:	01190000 	tsteq	r9, r0
     e6c:	007a0251 	rsbseq	r0, sl, r1, asr r2
     e70:	02520119 	subseq	r0, r2, #1073741830	; 0x40000006
     e74:	1b00007a 	blne	1064 <__code_start__-0x6f9c>
     e78:	00008944 	andeq	r8, r0, r4, asr #18
     e7c:	000004cb 	andeq	r0, r0, fp, asr #9
     e80:	04500119 	ldrbeq	r0, [r0], #-281	; 0xfffffee7
     e84:	067dc891 			; <UNDEFINED> instruction: 0x067dc891
     e88:	89581800 	ldmdbhi	r8, {fp, ip}^
     e8c:	08ef0000 	stmiaeq	pc!, {}^	; <UNPREDICTABLE>
     e90:	04fa0000 	ldrbteq	r0, [sl], #0
     e94:	01190000 	tsteq	r9, r0
     e98:	68030550 	stmdavs	r3, {r4, r6, r8, sl}
     e9c:	19000090 	stmdbne	r0, {r4, r7}
     ea0:	03055101 	movweq	r5, #20737	; 0x5101
     ea4:	00008fa0 	andeq	r8, r0, r0, lsr #31
     ea8:	05520119 	ldrbeq	r0, [r2, #-281]	; 0xfffffee7
     eac:	0090a003 	addseq	sl, r0, r3
     eb0:	53011900 	movwpl	r1, #6400	; 0x1900
     eb4:	00d30802 	sbcseq	r0, r3, r2, lsl #16
     eb8:	00895c1a 	addeq	r5, r9, sl, lsl ip
     ebc:	0008fb00 	andeq	pc, r8, r0, lsl #22
     ec0:	94180000 	ldrls	r0, [r8], #-0
     ec4:	05000086 	streq	r0, [r0, #-134]	; 0xffffff7a
     ec8:	18000008 	stmdane	r0, {r3}
     ecc:	19000005 	stmdbne	r0, {r0, r2}
     ed0:	77025001 	strvc	r5, [r2, -r1]
     ed4:	40180000 	andsmi	r0, r8, r0
     ed8:	ef000087 	svc	0x00000087
     edc:	51000008 	tstpl	r0, r8
     ee0:	19000005 	stmdbne	r0, {r0, r2}
     ee4:	03055001 	movweq	r5, #20481	; 0x5001
     ee8:	00008f4c 	andeq	r8, r0, ip, asr #30
     eec:	05510119 	ldrbeq	r0, [r1, #-281]	; 0xfffffee7
     ef0:	008fa003 	addeq	sl, pc, r3
     ef4:	52011900 	andpl	r1, r1, #0, 18
     ef8:	90a00305 	adcls	r0, r0, r5, lsl #6
     efc:	01190000 	tsteq	r9, r0
     f00:	98080253 	stmdals	r8, {r0, r1, r4, r6, r9}
     f04:	007d0219 	rsbseq	r0, sp, r9, lsl r2
     f08:	8fe40305 	svchi	0x00e40305
     f0c:	1a000000 	bne	f14 <__code_start__-0x70ec>
     f10:	00008744 	andeq	r8, r0, r4, asr #14
     f14:	000008fb 	strdeq	r0, [r0], -fp
     f18:	04080000 	streq	r0, [r8], #-0
     f1c:	000000b9 	strheq	r0, [r0], -r9
     f20:	0000c01c 	andeq	ip, r0, ip, lsl r0
     f24:	00057200 	andeq	r7, r5, r0, lsl #4
     f28:	002c1d00 	eoreq	r1, ip, r0, lsl #26
     f2c:	00090000 	andeq	r0, r9, r0
     f30:	00056209 	andeq	r6, r5, r9, lsl #4
     f34:	00b91c00 	adcseq	r1, r9, r0, lsl #24
     f38:	05870000 	streq	r0, [r7]
     f3c:	2c1d0000 	ldccs	0, cr0, [sp], {-0}
     f40:	7f000000 	svcvc	0x00000000
     f44:	03fa1e00 	mvnseq	r1, #0, 28
     f48:	49010000 	stmdbmi	r1, {}	; <UNPREDICTABLE>
     f4c:	00055c01 	andeq	r5, r5, r1, lsl #24
     f50:	0083fc00 	addeq	pc, r3, r0, lsl #24
     f54:	0001b400 	andeq	fp, r1, r0, lsl #8
     f58:	f09c0100 			; <UNDEFINED> instruction: 0xf09c0100
     f5c:	1f000006 	svcne	0x00000006
     f60:	00000438 	andeq	r0, r0, r8, lsr r4
     f64:	2c0f4901 			; <UNDEFINED> instruction: 0x2c0f4901
     f68:	9f000000 	svcls	0x00000000
     f6c:	99000004 	stmdbls	r0, {r2}
     f70:	0e000004 	cdpeq	0, 0, cr0, cr0, cr4, {0}
     f74:	00747364 	rsbseq	r7, r4, r4, ror #6
     f78:	5c1b4901 			; <UNDEFINED> instruction: 0x5c1b4901
     f7c:	dd000005 	stcle	0, cr0, [r0, #-20]	; 0xffffffec
     f80:	cd000004 	stcgt	0, cr0, [r0, #-16]
     f84:	0e000004 	cdpeq	0, 0, cr0, cr0, cr4, {0}
     f88:	4901006e 	stmdbmi	r1, {r1, r2, r3, r5, r6}
     f8c:	00002524 	andeq	r2, r0, r4, lsr #10
     f90:	00054100 	andeq	r4, r5, r0, lsl #2
     f94:	00053d00 	andeq	r3, r5, r0, lsl #26
     f98:	61760e00 	cmnvs	r6, r0, lsl #28
     f9c:	4901006c 	stmdbmi	r1, {r2, r3, r5, r6}
     fa0:	0000252b 	andeq	r2, r0, fp, lsr #10
     fa4:	00056b00 	andeq	r6, r5, r0, lsl #22
     fa8:	00055f00 	andeq	r5, r5, r0, lsl #30
     fac:	03801f00 	orreq	r1, r0, #0, 30
     fb0:	49010000 	stmdbmi	r1, {}	; <UNPREDICTABLE>
     fb4:	00002534 	andeq	r2, r0, r4, lsr r5
     fb8:	0005c100 	andeq	ip, r5, r0, lsl #2
     fbc:	0005bb00 	andeq	fp, r5, r0, lsl #22
     fc0:	043d0f00 	ldrteq	r0, [sp], #-3840	; 0xfffff100
     fc4:	49010000 	stmdbmi	r1, {}	; <UNPREDICTABLE>
     fc8:	0000253f 	andeq	r2, r0, pc, lsr r5
     fcc:	04910200 	ldreq	r0, [r1], #512	; 0x200
     fd0:	66756215 			; <UNDEFINED> instruction: 0x66756215
     fd4:	074e0100 	strbeq	r0, [lr, -r0, lsl #2]
     fd8:	000006f0 	strdeq	r0, [r0], -r0	; <UNPREDICTABLE>
     fdc:	7fa89103 	svcvc	0x00a89103
     fe0:	01007010 	tsteq	r0, r0, lsl r0
     fe4:	055c114e 	ldrbeq	r1, [ip, #-334]	; 0xfffffeb2
     fe8:	060b0000 	streq	r0, [fp], -r0
     fec:	05eb0000 	strbeq	r0, [fp, #0]!
     ff0:	75100000 	ldrvc	r0, [r0, #-0]
     ff4:	0b4f0100 	bleq	13c13fc <__bss_end__+0x13b7f34>
     ff8:	0000002c 	andeq	r0, r0, ip, lsr #32
     ffc:	000006f1 	strdeq	r0, [r0], -r1
    1000:	000006dd 	ldrdeq	r0, [r0], -sp
    1004:	00021813 	andeq	r1, r2, r3, lsl r8
    1008:	00071000 	andeq	r1, r7, r0
    100c:	88030500 	stmdahi	r3, {r8, sl}
    1010:	20000090 	mulcs	r0, r0, r0
    1014:	00008468 	andeq	r8, r0, r8, ror #8
    1018:	00000078 	andeq	r0, r0, r8, ror r0
    101c:	00000677 	andeq	r0, r0, r7, ror r6
    1020:	0003e712 	andeq	lr, r3, r2, lsl r7
    1024:	0d540100 	ldfeqe	f0, [r4, #-0]
    1028:	0000002c 	andeq	r0, r0, ip, lsr #32
    102c:	00000772 	andeq	r0, r0, r2, ror r7
    1030:	0000076a 	andeq	r0, r0, sl, ror #14
    1034:	85201800 	strhi	r1, [r0, #-2048]!	; 0xfffff800
    1038:	07a20000 	streq	r0, [r2, r0]!
    103c:	068c0000 	streq	r0, [ip], r0
    1040:	01190000 	tsteq	r9, r0
    1044:	a0910351 	addsge	r0, r1, r1, asr r3
    1048:	3418007f 	ldrcc	r0, [r8], #-127	; 0xffffff81
    104c:	15000085 	strne	r0, [r0, #-133]	; 0xffffff7b
    1050:	ad000007 	stcge	0, cr0, [r0, #-28]	; 0xffffffe4
    1054:	19000006 	stmdbne	r0, {r1, r2}
    1058:	75025001 	strvc	r5, [r2, #-1]
    105c:	51011900 	tstpl	r1, r0, lsl #18
    1060:	19007402 	stmdbne	r0, {r1, sl, ip, sp, lr}
    1064:	91035301 	tstls	r3, r1, lsl #6
    1068:	18007fa0 	stmdane	r0, {r5, r7, r8, r9, sl, fp, ip, sp, lr}
    106c:	0000858c 	andeq	r8, r0, ip, lsl #11
    1070:	000008ef 	andeq	r0, r0, pc, ror #17
    1074:	000006e6 	andeq	r0, r0, r6, ror #13
    1078:	05500119 	ldrbeq	r0, [r0, #-281]	; 0xfffffee7
    107c:	008f4c03 	addeq	r4, pc, r3, lsl #24
    1080:	51011900 	tstpl	r1, r0, lsl #18
    1084:	8fa00305 	svchi	0x00a00305
    1088:	01190000 	tsteq	r9, r0
    108c:	88030552 	stmdahi	r3, {r1, r4, r6, r8, sl}
    1090:	19000090 	stmdbne	r0, {r4, r7}
    1094:	08025301 	stmdaeq	r2, {r0, r8, r9, ip, lr}
    1098:	7d021979 	vstrvc.16	s2, [r2, #-242]	; 0xffffff0e	; <UNPREDICTABLE>
    109c:	b4030500 	strlt	r0, [r3], #-1280	; 0xfffffb00
    10a0:	0000008f 	andeq	r0, r0, pc, lsl #1
    10a4:	0085901a 	addeq	r9, r5, sl, lsl r0
    10a8:	0008fb00 	andeq	pc, r8, r0, lsl #22
    10ac:	b91c0000 	ldmdblt	ip, {}	; <UNPREDICTABLE>
    10b0:	00000000 	andeq	r0, r0, r0
    10b4:	1d000007 	stcne	0, cr0, [r0, #-28]	; 0xffffffe4
    10b8:	0000002c 	andeq	r0, r0, ip, lsr #32
    10bc:	c01c003f 	andsgt	r0, ip, pc, lsr r0
    10c0:	10000000 	andne	r0, r0, r0
    10c4:	1d000007 	stcne	0, cr0, [r0, #-28]	; 0xffffffe4
    10c8:	0000002c 	andeq	r0, r0, ip, lsr #32
    10cc:	00090004 	andeq	r0, r9, r4
    10d0:	1e000007 	cdpne	0, 0, cr0, cr0, cr7, {0}
    10d4:	00000407 	andeq	r0, r0, r7, lsl #8
    10d8:	5c0e3801 	stcpl	8, cr3, [lr], {1}
    10dc:	c4000005 	strgt	r0, [r0], #-5
    10e0:	38000083 	stmdacc	r0, {r0, r1, r7}
    10e4:	01000000 	mrseq	r0, (UNDEF: 0)
    10e8:	0007a29c 	muleq	r7, ip, r2
    10ec:	73640e00 	cmnvc	r4, #0, 28
    10f0:	38010074 	stmdacc	r1, {r2, r4, r5, r6}
    10f4:	00055c1c 	andeq	r5, r5, ip, lsl ip
    10f8:	0007b300 	andeq	fp, r7, r0, lsl #6
    10fc:	0007a900 	andeq	sl, r7, r0, lsl #18
    1100:	006e0e00 	rsbeq	r0, lr, r0, lsl #28
    1104:	25253801 	strcs	r3, [r5, #-2049]!	; 0xfffff7ff
    1108:	fa000000 	blx	1110 <__code_start__-0x6ef0>
    110c:	f6000007 			; <UNDEFINED> instruction: 0xf6000007
    1110:	0e000007 	cdpeq	0, 0, cr0, cr0, cr7, {0}
    1114:	38010070 	stmdacc	r1, {r4, r5, r6}
    1118:	00055c2e 	andeq	r5, r5, lr, lsr #24
    111c:	00082300 	andeq	r2, r8, r0, lsl #6
    1120:	00081b00 	andeq	r1, r8, r0, lsl #22
    1124:	008d1f00 	addeq	r1, sp, r0, lsl #30
    1128:	38010000 	stmdacc	r1, {}	; <UNPREDICTABLE>
    112c:	00055c37 	andeq	r5, r5, r7, lsr ip
    1130:	00085d00 	andeq	r5, r8, r0, lsl #26
    1134:	00085900 	andeq	r5, r8, r0, lsl #18
    1138:	656c1000 	strbvs	r1, [ip, #-0]!
    113c:	3a01006e 	bcc	412fc <__bss_end__+0x37e34>
    1140:	00002506 	andeq	r2, r0, r6, lsl #10
    1144:	00088300 	andeq	r8, r8, r0, lsl #6
    1148:	00087b00 	andeq	r7, r8, r0, lsl #22
    114c:	00731000 	rsbseq	r1, r3, r0
    1150:	5c083e01 	stcpl	14, cr3, [r8], {1}
    1154:	d1000005 	tstle	r0, r5
    1158:	cf000008 	svcgt	0x00000008
    115c:	00000008 	andeq	r0, r0, r8
    1160:	64617021 	strbtvs	r7, [r1], #-33	; 0xffffffdf
    1164:	0e2e0100 	sufeqe	f0, f6, f0
    1168:	0000055c 	andeq	r0, r0, ip, asr r5
    116c:	000083a0 	andeq	r8, r0, r0, lsr #7
    1170:	00000024 	andeq	r0, r0, r4, lsr #32
    1174:	08059c01 	stmdaeq	r5, {r0, sl, fp, ip, pc}
    1178:	700e0000 	andvc	r0, lr, r0
    117c:	182e0100 	stmdane	lr!, {r8}
    1180:	0000055c 	andeq	r0, r0, ip, asr r5
    1184:	000008ea 	andeq	r0, r0, sl, ror #17
    1188:	000008e4 	andeq	r0, r0, r4, ror #17
    118c:	0004381f 	andeq	r3, r4, pc, lsl r8
    1190:	222e0100 	eorcs	r0, lr, #0
    1194:	0000055c 	andeq	r0, r0, ip, asr r5
    1198:	00000919 	andeq	r0, r0, r9, lsl r9
    119c:	00000915 	andeq	r0, r0, r5, lsl r9
    11a0:	0003800f 	andeq	r8, r3, pc
    11a4:	2c2e0100 	stfcss	f0, [lr], #-0
    11a8:	00000025 	andeq	r0, r0, r5, lsr #32
    11ac:	6c105201 	lfmvs	f5, 4, [r0], {1}
    11b0:	01006e65 	tsteq	r0, r5, ror #28
    11b4:	0025062f 	eoreq	r0, r5, pc, lsr #12
    11b8:	093c0000 	ldmdbeq	ip!, {}	; <UNPREDICTABLE>
    11bc:	093a0000 	ldmdbeq	sl!, {}	; <UNPREDICTABLE>
    11c0:	1e000000 	cdpne	0, 0, cr0, cr0, cr0, {0}
    11c4:	00000352 	andeq	r0, r0, r2, asr r3
    11c8:	250c2701 	strcs	r2, [ip, #-1793]	; 0xfffff8ff
    11cc:	8c000000 	stchi	0, cr0, [r0], {-0}
    11d0:	14000083 	strne	r0, [r0], #-131	; 0xffffff7d
    11d4:	01000000 	mrseq	r0, (UNDEF: 0)
    11d8:	0008329c 	muleq	r8, ip, r2
    11dc:	00630e00 	rsbeq	r0, r3, r0, lsl #28
    11e0:	25182701 	ldrcs	r2, [r8, #-1793]	; 0xfffff8ff
    11e4:	55000000 	strpl	r0, [r0, #-0]
    11e8:	4f000009 	svcmi	0x00000009
    11ec:	00000009 	andeq	r0, r0, r9
    11f0:	0003b622 	andeq	fp, r3, r2, lsr #12
    11f4:	061f0100 	ldreq	r0, [pc], -r0, lsl #2
    11f8:	000085b0 			; <UNDEFINED> instruction: 0x000085b0
    11fc:	00000064 	andeq	r0, r0, r4, rrx
    1200:	08c29c01 	stmiaeq	r2, {r0, sl, fp, ip, pc}^
    1204:	931f0000 	tstls	pc, #0, 0
    1208:	01000003 	tsteq	r0, r3
    120c:	009e1b1f 	addseq	r1, lr, pc, lsl fp
    1210:	09870000 	stmibeq	r7, {}	; <UNPREDICTABLE>
    1214:	09830000 	stmibeq	r3, {}	; <UNPREDICTABLE>
    1218:	ff1f0000 			; <UNDEFINED> instruction: 0xff1f0000
    121c:	01000003 	tsteq	r0, r3
    1220:	00d1301f 	sbcseq	r3, r1, pc, lsl r0
    1224:	09ac0000 	stmibeq	ip!, {}	; <UNPREDICTABLE>
    1228:	09a80000 	stmibeq	r8!, {}	; <UNPREDICTABLE>
    122c:	18130000 	ldmdane	r3, {}	; <UNPREDICTABLE>
    1230:	d2000002 	andle	r0, r0, #2, 0
    1234:	05000008 	streq	r0, [r0, #-8]
    1238:	00909003 	addseq	r9, r0, r3
    123c:	85f81800 	ldrbhi	r1, [r8, #2048]!	; 0x800
    1240:	08ef0000 	stmiaeq	pc!, {}^	; <UNPREDICTABLE>
    1244:	08b80000 	ldmeq	r8!, {}	; <UNPREDICTABLE>
    1248:	01190000 	tsteq	r9, r0
    124c:	4c030550 	cfstr32mi	mvfx0, [r3], {80}	; 0x50
    1250:	1900008f 	stmdbne	r0, {r0, r1, r2, r3, r7}
    1254:	03055101 	movweq	r5, #20737	; 0x5101
    1258:	00008fa0 	andeq	r8, r0, r0, lsr #31
    125c:	05520119 	ldrbeq	r0, [r2, #-281]	; 0xfffffee7
    1260:	00909003 	addseq	r9, r0, r3
    1264:	53011900 	movwpl	r1, #6400	; 0x1900
    1268:	19200802 	stmdbne	r0!, {r1, fp}
    126c:	05007d02 	streq	r7, [r0, #-3330]	; 0xfffff2fe
    1270:	008fdc03 	addeq	sp, pc, r3, lsl #24
    1274:	fc1a0000 	ldc2	0, cr0, [sl], {-0}
    1278:	fb000085 	blx	1496 <__code_start__-0x6b6a>
    127c:	00000008 	andeq	r0, r0, r8
    1280:	0000c01c 	andeq	ip, r0, ip, lsl r0
    1284:	0008d200 	andeq	sp, r8, r0, lsl #4
    1288:	002c1d00 	eoreq	r1, ip, r0, lsl #26
    128c:	000e0000 	andeq	r0, lr, r0
    1290:	0008c209 	andeq	ip, r8, r9, lsl #4
    1294:	04302300 	ldrteq	r2, [r0], #-768	; 0xfffffd00
    1298:	04300000 	ldrteq	r0, [r0], #-0
    129c:	d6030000 	strle	r0, [r3], -r0
    12a0:	03e02305 	mvneq	r2, #335544320	; 0x14000000
    12a4:	03e00000 	mvneq	r0, #0, 0
    12a8:	d9030000 	stmdble	r3, {}	; <UNPREDICTABLE>
    12ac:	02d32307 	sbcseq	r2, r3, #469762048	; 0x1c000000
    12b0:	02d30000 	sbcseq	r0, r3, #0, 0
    12b4:	28030000 	stmdacs	r3, {}	; <UNPREDICTABLE>
    12b8:	007a2306 	rsbseq	r2, sl, r6, lsl #6
    12bc:	007a0000 	rsbseq	r0, sl, r0
    12c0:	67030000 	strvs	r0, [r3, -r0]
    12c4:	012f0006 			; <UNDEFINED> instruction: 0x012f0006
    12c8:	00040000 	andeq	r0, r4, r0
    12cc:	0000066e 	andeq	r0, r0, lr, ror #12
    12d0:	010e0104 	tsteq	lr, r4, lsl #2
    12d4:	5a0c0000 	bpl	3012dc <__bss_end__+0x2f7e14>
    12d8:	06000004 	streq	r0, [r0], -r4
    12dc:	b8000003 	stmdalt	r0, {r0, r1}
    12e0:	2c000089 	stccs	0, cr0, [r0], {137}	; 0x89
    12e4:	f2000000 	vhadd.s8	d0, d0, d0
    12e8:	0200000a 	andeq	r0, r0, #10, 0
    12ec:	6e690504 	cdpvs	5, 6, cr0, cr9, cr4, {0}
    12f0:	04030074 	streq	r0, [r3], #-116	; 0xffffff8c
    12f4:	0000dd07 	andeq	sp, r0, r7, lsl #26
    12f8:	06010300 	streq	r0, [r1], -r0, lsl #6
    12fc:	0000006e 	andeq	r0, r0, lr, rrx
    1300:	04050203 	streq	r0, [r5], #-515	; 0xfffffdfd
    1304:	03000001 	movweq	r0, #1
    1308:	00ef0504 	rsceq	r0, pc, r4, lsl #10
    130c:	08030000 	stmdaeq	r3, {}	; <UNPREDICTABLE>
    1310:	0000ea05 	andeq	lr, r0, r5, lsl #20
    1314:	08010300 	stmdaeq	r1, {r8, r9}
    1318:	0000006c 	andeq	r0, r0, ip, rrx
    131c:	93070203 	movwls	r0, #29187	; 0x7203
    1320:	03000000 	movweq	r0, #0
    1324:	00d80704 	sbcseq	r0, r8, r4, lsl #14
    1328:	08030000 	stmdaeq	r3, {}	; <UNPREDICTABLE>
    132c:	0000d307 	andeq	sp, r0, r7, lsl #6
    1330:	00250400 	eoreq	r0, r5, r0, lsl #8
    1334:	007a0000 	rsbseq	r0, sl, r0
    1338:	25050000 	strcs	r0, [r5, #-0]
    133c:	00000000 	andeq	r0, r0, r0
    1340:	0000f806 	andeq	pc, r0, r6, lsl #16
    1344:	0e1c0200 	cdpeq	2, 1, cr0, cr12, cr0, {0}
    1348:	00000086 	andeq	r0, r0, r6, lsl #1
    134c:	006b0407 	rsbeq	r0, fp, r7, lsl #8
    1350:	25040000 	strcs	r0, [r4, #-0]
    1354:	9b000000 	blls	135c <__code_start__-0x6ca4>
    1358:	05000000 	streq	r0, [r0, #-0]
    135c:	0000009b 	muleq	r0, fp, r0
    1360:	a8040700 	stmdage	r4, {r8, r9, sl}
    1364:	03000000 	movweq	r0, #0
    1368:	00750801 	rsbseq	r0, r5, r1, lsl #16
    136c:	a1080000 	mrsge	r0, (UNDEF: 8)
    1370:	06000000 	streq	r0, [r0], -r0
    1374:	00000341 	andeq	r0, r0, r1, asr #6
    1378:	b90e2102 	stmdblt	lr, {r1, r8, sp}
    137c:	07000000 	streq	r0, [r0, -r0]
    1380:	00008c04 	andeq	r8, r0, r4, lsl #24
    1384:	007a0900 	rsbseq	r0, sl, r0, lsl #18
    1388:	04010000 	streq	r0, [r1], #-0
    138c:	0089b806 	addeq	fp, r9, r6, lsl #16
    1390:	00002c00 	andeq	r2, r0, r0, lsl #24
    1394:	0e9c0100 	fmleqe	f0, f4, f0
    1398:	0a000001 	beq	13a4 <__code_start__-0x6c5c>
    139c:	000089cc 	andeq	r8, r0, ip, asr #19
    13a0:	000000e8 	andeq	r0, r0, r8, ror #1
    13a4:	0550010b 	ldrbeq	r0, [r0, #-267]	; 0xfffffef5
    13a8:	0090ac03 	addseq	sl, r0, r3, lsl #24
    13ac:	d00c0000 	andle	r0, ip, r0
    13b0:	0e000089 	cdpeq	0, 0, cr0, cr0, cr9, {4}
    13b4:	0d000001 	stceq	0, cr0, [r0, #-4]
    13b8:	000089d8 	ldrdeq	r8, [r0], -r8	; <UNPREDICTABLE>
    13bc:	0000011a 	andeq	r0, r0, sl, lsl r1
    13c0:	00000104 	andeq	r0, r0, r4, lsl #2
    13c4:	0150010b 	cmpeq	r0, fp, lsl #2
    13c8:	dc0c003a 	stcle	0, cr0, [ip], {58}	; 0x3a
    13cc:	26000089 	strcs	r0, [r0], -r9, lsl #1
    13d0:	00000001 	andeq	r0, r0, r1
    13d4:	0004730e 	andeq	r7, r4, lr, lsl #6
    13d8:	00047300 	andeq	r7, r4, r0, lsl #6
    13dc:	06460200 	strbeq	r0, [r6], -r0, lsl #4
    13e0:	0004510e 	andeq	r5, r4, lr, lsl #2
    13e4:	00045100 	andeq	r5, r4, r0, lsl #2
    13e8:	06510200 	ldrbeq	r0, [r1], -r0, lsl #4
    13ec:	0004460e 	andeq	r4, r4, lr, lsl #12
    13f0:	00044600 	andeq	r4, r4, r0, lsl #12
    13f4:	06640200 	strbteq	r0, [r4], -r0, lsl #4
    13f8:	00015900 	andeq	r5, r1, r0, lsl #18
    13fc:	2e000400 	cfcpyscs	mvf0, mvf0
    1400:	04000007 	streq	r0, [r0], #-7
    1404:	00010e01 	andeq	r0, r1, r1, lsl #28
    1408:	049f0c00 	ldreq	r0, [pc], #3072	; 1410 <__code_start__-0x6bf0>
    140c:	03060000 	movweq	r0, #24576	; 0x6000
    1410:	89e40000 	stmibhi	r4!, {}^	; <UNPREDICTABLE>
    1414:	00300000 	eorseq	r0, r0, r0
    1418:	0b830000 	bleq	fe0c1420 <__bss_end__+0xfe0b7f58>
    141c:	04020000 	streq	r0, [r2], #-0
    1420:	746e6905 	strbtvc	r6, [lr], #-2309	; 0xfffff6fb
    1424:	07040300 	streq	r0, [r4, -r0, lsl #6]
    1428:	000000dd 	ldrdeq	r0, [r0], -sp
    142c:	6e060103 	adfvss	f0, f6, f3
    1430:	03000000 	movweq	r0, #0
    1434:	01040502 	tsteq	r4, r2, lsl #10
    1438:	04030000 	streq	r0, [r3], #-0
    143c:	0000ef05 	andeq	lr, r0, r5, lsl #30
    1440:	05080300 	streq	r0, [r8, #-768]	; 0xfffffd00
    1444:	000000ea 	andeq	r0, r0, sl, ror #1
    1448:	6c080103 	stfvss	f0, [r8], {3}
    144c:	03000000 	movweq	r0, #0
    1450:	00930702 	addseq	r0, r3, r2, lsl #14
    1454:	04030000 	streq	r0, [r3], #-0
    1458:	0000d807 	andeq	sp, r0, r7, lsl #16
    145c:	07080300 	streq	r0, [r8, -r0, lsl #6]
    1460:	000000d3 	ldrdeq	r0, [r0], -r3
    1464:	00002504 	andeq	r2, r0, r4, lsl #10
    1468:	00007a00 	andeq	r7, r0, r0, lsl #20
    146c:	00250500 	eoreq	r0, r5, r0, lsl #10
    1470:	06000000 	streq	r0, [r0], -r0
    1474:	000000f8 	strdeq	r0, [r0], -r8
    1478:	860e1c02 	strhi	r1, [lr], -r2, lsl #24
    147c:	07000000 	streq	r0, [r0, -r0]
    1480:	00006b04 	andeq	r6, r0, r4, lsl #22
    1484:	00250400 	eoreq	r0, r5, r0, lsl #8
    1488:	009b0000 	addseq	r0, fp, r0
    148c:	9b050000 	blls	141494 <__bss_end__+0x137fcc>
    1490:	00000000 	andeq	r0, r0, r0
    1494:	00a80407 	adceq	r0, r8, r7, lsl #8
    1498:	01030000 	mrseq	r0, (UNDEF: 3)
    149c:	00007508 	andeq	r7, r0, r8, lsl #10
    14a0:	00a10800 	adceq	r0, r1, r0, lsl #16
    14a4:	41060000 	mrsmi	r0, (UNDEF: 6)
    14a8:	02000003 	andeq	r0, r0, #3, 0
    14ac:	00b90e21 	adcseq	r0, r9, r1, lsr #28
    14b0:	04070000 	streq	r0, [r7], #-0
    14b4:	0000008c 	andeq	r0, r0, ip, lsl #1
    14b8:	00048109 	andeq	r8, r4, r9, lsl #2
    14bc:	06030100 	streq	r0, [r3], -r0, lsl #2
    14c0:	000089e4 	andeq	r8, r0, r4, ror #19
    14c4:	00000030 	andeq	r0, r0, r0, lsr r0
    14c8:	01319c01 	teqeq	r1, r1, lsl #24
    14cc:	72060000 	andvc	r0, r6, #0, 0
    14d0:	01000003 	tsteq	r0, r3
    14d4:	00251004 	eoreq	r1, r5, r4
    14d8:	9b060000 	blls	1814e0 <__bss_end__+0x178018>
    14dc:	01000003 	tsteq	r0, r3
    14e0:	00251f04 	eoreq	r1, r5, r4, lsl #30
    14e4:	c30a0000 	movwgt	r0, #40960	; 0xa000
    14e8:	01000001 	tsteq	r0, r1
    14ec:	620b0705 	andvs	r0, fp, #1310720	; 0x140000
    14f0:	01007373 	tsteq	r0, r3, ror r3
    14f4:	01310a09 	teqeq	r1, r9, lsl #20
    14f8:	09d30000 	ldmibeq	r3, {}^	; <UNPREDICTABLE>
    14fc:	09cd0000 	stmibeq	sp, {}^	; <UNPREDICTABLE>
    1500:	890c0000 	stmdbhi	ip, {}	; <UNPREDICTABLE>
    1504:	01000004 	tsteq	r0, r4
    1508:	01310a0a 	teqeq	r1, sl, lsl #20
    150c:	ec0d0000 	stc	0, cr0, [sp], {-0}
    1510:	37000089 	strcc	r0, [r0, -r9, lsl #1]
    1514:	0d000001 	stceq	0, cr0, [r0, #-4]
    1518:	00008a08 	andeq	r8, r0, r8, lsl #20
    151c:	00000144 	andeq	r0, r0, r4, asr #2
    1520:	008a0c0d 	addeq	r0, sl, sp, lsl #24
    1524:	00015000 	andeq	r5, r1, r0
    1528:	04070000 	streq	r0, [r7], #-0
    152c:	00000025 	andeq	r0, r0, r5, lsr #32
    1530:	0004910e 	andeq	r9, r4, lr, lsl #2
    1534:	00049100 	andeq	r9, r4, r0, lsl #2
    1538:	01170200 	tsteq	r7, r0, lsl #4
    153c:	01c30f06 	biceq	r0, r3, r6, lsl #30
    1540:	01c30000 	biceq	r0, r3, r0
    1544:	eb020000 	bl	8154c <__bss_end__+0x78084>
    1548:	007a0f06 	rsbseq	r0, sl, r6, lsl #30
    154c:	007a0000 	rsbseq	r0, sl, r0
    1550:	67020000 	strvs	r0, [r2, -r0]
    1554:	00ce0006 	sbceq	r0, lr, r6
    1558:	00040000 	andeq	r0, r4, r0
    155c:	0000080e 	andeq	r0, r0, lr, lsl #16
    1560:	010e0104 	tsteq	lr, r4, lsl #2
    1564:	b20c0000 	andlt	r0, ip, #0, 0
    1568:	06000004 	streq	r0, [r0], -r4
    156c:	14000003 	strne	r0, [r0], #-3
    1570:	0400008a 	streq	r0, [r0], #-138	; 0xffffff76
    1574:	29000000 	stmdbcs	r0, {}	; <UNPREDICTABLE>
    1578:	0200000c 	andeq	r0, r0, #12, 0
    157c:	6e690504 	cdpvs	5, 6, cr0, cr9, cr4, {0}
    1580:	04030074 	streq	r0, [r3], #-116	; 0xffffff8c
    1584:	0000dd07 	andeq	sp, r0, r7, lsl #26
    1588:	06010300 	streq	r0, [r1], -r0, lsl #6
    158c:	0000006e 	andeq	r0, r0, lr, rrx
    1590:	04050203 	streq	r0, [r5], #-515	; 0xfffffdfd
    1594:	03000001 	movweq	r0, #1
    1598:	00ef0504 	rsceq	r0, pc, r4, lsl #10
    159c:	08030000 	stmdaeq	r3, {}	; <UNPREDICTABLE>
    15a0:	0000ea05 	andeq	lr, r0, r5, lsl #20
    15a4:	08010300 	stmdaeq	r1, {r8, r9}
    15a8:	0000006c 	andeq	r0, r0, ip, rrx
    15ac:	93070203 	movwls	r0, #29187	; 0x7203
    15b0:	03000000 	movweq	r0, #0
    15b4:	00d80704 	sbcseq	r0, r8, r4, lsl #14
    15b8:	08030000 	stmdaeq	r3, {}	; <UNPREDICTABLE>
    15bc:	0000d307 	andeq	sp, r0, r7, lsl #6
    15c0:	00250400 	eoreq	r0, r5, r0, lsl #8
    15c4:	007a0000 	rsbseq	r0, sl, r0
    15c8:	25050000 	strcs	r0, [r5, #-0]
    15cc:	00000000 	andeq	r0, r0, r0
    15d0:	0000f806 	andeq	pc, r0, r6, lsl #16
    15d4:	0e1c0200 	cdpeq	2, 1, cr0, cr12, cr0, {0}
    15d8:	00000086 	andeq	r0, r0, r6, lsl #1
    15dc:	006b0407 	rsbeq	r0, fp, r7, lsl #8
    15e0:	25040000 	strcs	r0, [r4, #-0]
    15e4:	9b000000 	blls	15ec <__code_start__-0x6a14>
    15e8:	05000000 	streq	r0, [r0, #-0]
    15ec:	0000009b 	muleq	r0, fp, r0
    15f0:	a8040700 	stmdage	r4, {r8, r9, sl}
    15f4:	03000000 	movweq	r0, #0
    15f8:	00750801 	rsbseq	r0, r5, r1, lsl #16
    15fc:	a1080000 	mrsge	r0, (UNDEF: 8)
    1600:	06000000 	streq	r0, [r0], -r0
    1604:	00000341 	andeq	r0, r0, r1, asr #6
    1608:	b90e2102 	stmdblt	lr, {r1, r8, sp}
    160c:	07000000 	streq	r0, [r0, -r0]
    1610:	00008c04 	andeq	r8, r0, r4, lsl #24
    1614:	04910900 	ldreq	r0, [r1], #2304	; 0x900
    1618:	04010000 	streq	r0, [r1], #-0
    161c:	008a1406 	addeq	r1, sl, r6, lsl #8
    1620:	00000400 	andeq	r0, r0, r0, lsl #8
    1624:	009c0100 	addseq	r0, ip, r0, lsl #2
    1628:	00000220 	andeq	r0, r0, r0, lsr #4
    162c:	08870004 	stmeq	r7, {r2}
    1630:	01040000 	mrseq	r0, (UNDEF: 4)
    1634:	0000010e 	andeq	r0, r0, lr, lsl #2
    1638:	0004fd0c 	andeq	pc, r4, ip, lsl #26
    163c:	00030600 	andeq	r0, r3, r0, lsl #12
    1640:	00001800 	andeq	r1, r0, r0, lsl #16
    1644:	00000000 	andeq	r0, r0, r0
    1648:	000cb800 	andeq	fp, ip, r0, lsl #16
    164c:	05040200 	streq	r0, [r4, #-512]	; 0xfffffe00
    1650:	00746e69 	rsbseq	r6, r4, r9, ror #28
    1654:	00002503 	andeq	r2, r0, r3, lsl #10
    1658:	07040400 	streq	r0, [r4, -r0, lsl #8]
    165c:	000000dd 	ldrdeq	r0, [r0], -sp
    1660:	6e060104 	adfvss	f0, f6, f4
    1664:	04000000 	streq	r0, [r0], #-0
    1668:	01040502 	tsteq	r4, r2, lsl #10
    166c:	04040000 	streq	r0, [r4], #-0
    1670:	0000ef05 	andeq	lr, r0, r5, lsl #30
    1674:	05080400 	streq	r0, [r8, #-1024]	; 0xfffffc00
    1678:	000000ea 	andeq	r0, r0, sl, ror #1
    167c:	6c080104 	stfvss	f0, [r8], {4}
    1680:	04000000 	streq	r0, [r0], #-0
    1684:	00930702 	addseq	r0, r3, r2, lsl #14
    1688:	04040000 	streq	r0, [r4], #-0
    168c:	0000d807 	andeq	sp, r0, r7, lsl #16
    1690:	07080400 	streq	r0, [r8, -r0, lsl #8]
    1694:	000000d3 	ldrdeq	r0, [r0], -r3
    1698:	00002505 	andeq	r2, r0, r5, lsl #10
    169c:	00007f00 	andeq	r7, r0, r0, lsl #30
    16a0:	00250600 	eoreq	r0, r5, r0, lsl #12
    16a4:	07000000 	streq	r0, [r0, -r0]
    16a8:	000000f8 	strdeq	r0, [r0], -r8
    16ac:	8b0e1c02 	blhi	3886bc <__bss_end__+0x37f1f4>
    16b0:	08000000 	stmdaeq	r0, {}	; <UNPREDICTABLE>
    16b4:	00007004 	andeq	r7, r0, r4
    16b8:	00250500 	eoreq	r0, r5, r0, lsl #10
    16bc:	00a00000 	adceq	r0, r0, r0
    16c0:	a0060000 	andge	r0, r6, r0
    16c4:	00000000 	andeq	r0, r0, r0
    16c8:	00ad0408 	adceq	r0, sp, r8, lsl #8
    16cc:	01040000 	mrseq	r0, (UNDEF: 4)
    16d0:	00007508 	andeq	r7, r0, r8, lsl #10
    16d4:	00a60300 	adceq	r0, r6, r0, lsl #6
    16d8:	41070000 	mrsmi	r0, (UNDEF: 7)
    16dc:	02000003 	andeq	r0, r0, #3, 0
    16e0:	00be0e21 	adcseq	r0, lr, r1, lsr #28
    16e4:	04080000 	streq	r0, [r8], #-0
    16e8:	00000091 	muleq	r0, r1, r0
    16ec:	0004f209 	andeq	pc, r4, r9, lsl #4
    16f0:	110d0100 	mrsne	r0, (UNDEF: 29)
    16f4:	00000031 	andeq	r0, r0, r1, lsr r0
    16f8:	0004460a 	andeq	r4, r4, sl, lsl #12
    16fc:	061f0100 	ldreq	r0, [pc], -r0, lsl #2
    1700:	00008a44 	andeq	r8, r0, r4, asr #20
    1704:	00000050 	andeq	r0, r0, r0, asr r0
    1708:	01a59c01 			; <UNDEFINED> instruction: 0x01a59c01
    170c:	100b0000 	andne	r0, fp, r0
    1710:	01000005 	tsteq	r0, r5
    1714:	002c0f2f 	eoreq	r0, ip, pc, lsr #30
    1718:	0a000000 	beq	1720 <__code_start__-0x68e0>
    171c:	09fe0000 	ldmibeq	lr!, {}^	; <UNPREDICTABLE>
    1720:	cc0b0000 	stcgt	0, cr0, [fp], {-0}
    1724:	01000004 	tsteq	r0, r4
    1728:	002c0f30 	eoreq	r0, ip, r0, lsr pc
    172c:	0a1a0000 	beq	681734 <__bss_end__+0x67826c>
    1730:	0a180000 	beq	601738 <__bss_end__+0x5f8270>
    1734:	e30b0000 	movw	r0, #45056	; 0xb000
    1738:	01000004 	tsteq	r0, r4
    173c:	002c0f31 	eoreq	r0, ip, r1, lsr pc
    1740:	0a340000 	beq	d01748 <__bss_end__+0xcf8280>
    1744:	0a320000 	beq	c8174c <__bss_end__+0xc78284>
    1748:	1d0b0000 	stcne	0, cr0, [fp, #-0]
    174c:	01000005 	tsteq	r0, r5
    1750:	002c0f32 	eoreq	r0, ip, r2, lsr pc
    1754:	0a4d0000 	beq	134175c <__bss_end__+0x1338294>
    1758:	0a4b0000 	beq	12c1760 <__bss_end__+0x12b8298>
    175c:	4c0c0000 	stcmi	0, cr0, [ip], {-0}
    1760:	d000008a 	andle	r0, r0, sl, lsl #1
    1764:	0c000001 	stceq	0, cr0, [r0], {1}
    1768:	00008a58 	andeq	r8, r0, r8, asr sl
    176c:	000001ff 	strdeq	r0, [r0], -pc	; <UNPREDICTABLE>
    1770:	008a600d 	addeq	r6, sl, sp
    1774:	00020b00 	andeq	r0, r2, r0, lsl #22
    1778:	00015b00 	andeq	r5, r1, r0, lsl #22
    177c:	50010e00 	andpl	r0, r1, r0, lsl #28
    1780:	0d003a01 	vstreq	s6, [r0, #-4]
    1784:	00008a6c 	andeq	r8, r0, ip, ror #20
    1788:	00000217 	andeq	r0, r0, r7, lsl r2
    178c:	0000017b 	andeq	r0, r0, fp, ror r1
    1790:	0550010e 	ldrbeq	r0, [r0, #-270]	; 0xfffffef2
    1794:	1000240c 	andne	r2, r0, ip, lsl #8
    1798:	51010e20 	tstpl	r1, r0, lsr #28
    179c:	00010c05 	andeq	r0, r1, r5, lsl #24
    17a0:	0d005a00 	vstreq	s10, [r0, #-0]
    17a4:	00008a78 	andeq	r8, r0, r8, ror sl
    17a8:	00000217 	andeq	r0, r0, r7, lsl r2
    17ac:	0000019b 	muleq	r0, fp, r1
    17b0:	0550010e 	ldrbeq	r0, [r0, #-270]	; 0xfffffef2
    17b4:	10001c0c 	andne	r1, r0, ip, lsl #24
    17b8:	51010e20 	tstpl	r1, r0, lsr #28
    17bc:	00200c05 	eoreq	r0, r0, r5, lsl #24
    17c0:	0c005a00 			; <UNDEFINED> instruction: 0x0c005a00
    17c4:	00008a80 	andeq	r8, r0, r0, lsl #21
    17c8:	000001a5 	andeq	r0, r0, r5, lsr #3
    17cc:	04d40f00 	ldrbeq	r0, [r4], #3840	; 0xf00
    17d0:	17010000 	strne	r0, [r1, -r0]
    17d4:	008a3006 	addeq	r3, sl, r6
    17d8:	00001400 	andeq	r1, r0, r0, lsl #8
    17dc:	d09c0100 	addsle	r0, ip, r0, lsl #2
    17e0:	0b000001 	bleq	17ec <__code_start__-0x6814>
    17e4:	00000518 	andeq	r0, r0, r8, lsl r5
    17e8:	310e1801 	tstcc	lr, r1, lsl #16
    17ec:	68000000 	stmdavs	r0, {}	; <UNPREDICTABLE>
    17f0:	6200000a 	andvs	r0, r0, #10, 0
    17f4:	0000000a 	andeq	r0, r0, sl
    17f8:	0004ef10 	andeq	lr, r4, r0, lsl pc
    17fc:	050e0100 	streq	r0, [lr, #-256]	; 0xffffff00
    1800:	00000025 	andeq	r0, r0, r5, lsr #32
    1804:	00008a18 	andeq	r8, r0, r8, lsl sl
    1808:	00000018 	andeq	r0, r0, r8, lsl r0
    180c:	01ff9c01 	mvnseq	r9, r1, lsl #24
    1810:	180b0000 	stmdane	fp, {}	; <UNPREDICTABLE>
    1814:	01000005 	tsteq	r0, r5
    1818:	00310e0f 	eorseq	r0, r1, pc, lsl #28
    181c:	0a960000 	beq	fe581824 <__bss_end__+0xfe57835c>
    1820:	0a920000 	beq	fe481828 <__bss_end__+0xfe478360>
    1824:	11000000 	mrsne	r0, (UNDEF: 0)
    1828:	00000473 	andeq	r0, r0, r3, ror r4
    182c:	00000473 	andeq	r0, r0, r3, ror r4
    1830:	11064602 	tstne	r6, r2, lsl #12
    1834:	00000451 	andeq	r0, r0, r1, asr r4
    1838:	00000451 	andeq	r0, r0, r1, asr r4
    183c:	11065102 	tstne	r6, r2, lsl #2
    1840:	0000022c 	andeq	r0, r0, ip, lsr #4
    1844:	0000022c 	andeq	r0, r0, ip, lsr #4
    1848:	0006a102 	andeq	sl, r6, r2, lsl #2
    184c:	00000278 	andeq	r0, r0, r8, ror r2
    1850:	09990004 	ldmibeq	r9, {r2}
    1854:	01040000 	mrseq	r0, (UNDEF: 4)
    1858:	0000010e 	andeq	r0, r0, lr, lsl #2
    185c:	00058a0c 	andeq	r8, r5, ip, lsl #20
    1860:	00030600 	andeq	r0, r3, r0, lsl #12
    1864:	008a9400 	addeq	r9, sl, r0, lsl #8
    1868:	00009c00 	andeq	r9, r0, r0, lsl #24
    186c:	000d9800 	andeq	r9, sp, r0, lsl #16
    1870:	05040200 	streq	r0, [r4, #-512]	; 0xfffffe00
    1874:	00746e69 	rsbseq	r6, r4, r9, ror #28
    1878:	dd070403 	cfstrsle	mvf0, [r7, #-12]
    187c:	03000000 	movweq	r0, #0
    1880:	006e0601 	rsbeq	r0, lr, r1, lsl #12
    1884:	02030000 	andeq	r0, r3, #0, 0
    1888:	00010405 	andeq	r0, r1, r5, lsl #8
    188c:	05040300 	streq	r0, [r4, #-768]	; 0xfffffd00
    1890:	000000ef 	andeq	r0, r0, pc, ror #1
    1894:	ea050803 	b	1438a8 <__bss_end__+0x13a3e0>
    1898:	03000000 	movweq	r0, #0
    189c:	006c0801 	rsbeq	r0, ip, r1, lsl #16
    18a0:	02030000 	andeq	r0, r3, #0, 0
    18a4:	00009307 	andeq	r9, r0, r7, lsl #6
    18a8:	07040300 	streq	r0, [r4, -r0, lsl #6]
    18ac:	000000d8 	ldrdeq	r0, [r0], -r8
    18b0:	d3070803 	movwle	r0, #30723	; 0x7803
    18b4:	04000000 	streq	r0, [r0], #-0
    18b8:	00000025 	andeq	r0, r0, r5, lsr #32
    18bc:	0000007a 	andeq	r0, r0, sl, ror r0
    18c0:	00002505 	andeq	r2, r0, r5, lsl #10
    18c4:	f8060000 			; <UNDEFINED> instruction: 0xf8060000
    18c8:	02000000 	andeq	r0, r0, #0, 0
    18cc:	00860e1c 	addeq	r0, r6, ip, lsl lr
    18d0:	04070000 	streq	r0, [r7], #-0
    18d4:	0000006b 	andeq	r0, r0, fp, rrx
    18d8:	00002504 	andeq	r2, r0, r4, lsl #10
    18dc:	00009b00 	andeq	r9, r0, r0, lsl #22
    18e0:	009b0500 	addseq	r0, fp, r0, lsl #10
    18e4:	07000000 	streq	r0, [r0, -r0]
    18e8:	0000a804 	andeq	sl, r0, r4, lsl #16
    18ec:	08010300 	stmdaeq	r1, {r8, r9}
    18f0:	00000075 	andeq	r0, r0, r5, ror r0
    18f4:	0000a108 	andeq	sl, r0, r8, lsl #2
    18f8:	03410600 	movteq	r0, #5632	; 0x1600
    18fc:	21020000 	mrscs	r0, (UNDEF: 2)
    1900:	0000b90e 	andeq	fp, r0, lr, lsl #18
    1904:	8c040700 	stchi	7, cr0, [r4], {-0}
    1908:	09000000 	stmdbeq	r0, {}	; <UNPREDICTABLE>
    190c:	00000555 	andeq	r0, r0, r5, asr r5
    1910:	18062b01 	stmdane	r6, {r0, r8, r9, fp, sp}
    1914:	1800008b 	stmdane	r0, {r0, r1, r3, r7}
    1918:	01000000 	mrseq	r0, (UNDEF: 0)
    191c:	0001099c 	muleq	r1, ip, r9
    1920:	65730a00 	ldrbvs	r0, [r3, #-2560]!	; 0xfffff600
    1924:	2b010063 	blcs	41ab8 <__bss_end__+0x385f0>
    1928:	00002c19 	andeq	r2, r0, r9, lsl ip
    192c:	000ab900 	andeq	fp, sl, r0, lsl #18
    1930:	000ab500 	andeq	fp, sl, r0, lsl #10
    1934:	8b2c0b00 	blhi	b0453c <__bss_end__+0xafb074>
    1938:	01090000 	mrseq	r0, (UNDEF: 9)
    193c:	010c0000 	mrseq	r0, (UNDEF: 12)
    1940:	01f31150 	mvnseq	r1, r0, asr r1
    1944:	f3243550 	vqrshl.u32	<illegal reg q1.5>, q0, q2
    1948:	321c5001 	andscc	r5, ip, #1, 0
    194c:	5001f324 	andpl	pc, r1, r4, lsr #6
    1950:	00243322 	eoreq	r3, r4, r2, lsr #6
    1954:	04510900 	ldrbeq	r0, [r1], #-2304	; 0xfffff700
    1958:	28010000 	stmdacs	r1, {}	; <UNPREDICTABLE>
    195c:	008b0006 	addeq	r0, fp, r6
    1960:	00001800 	andeq	r1, r0, r0, lsl #16
    1964:	529c0100 	addspl	r0, ip, #0
    1968:	0a000001 	beq	1974 <__code_start__-0x668c>
    196c:	0100736d 	tsteq	r0, sp, ror #6
    1970:	002c1828 	eoreq	r1, ip, r8, lsr #16
    1974:	0ade0000 	beq	ff78197c <__bss_end__+0xff7784b4>
    1978:	0ada0000 	beq	ff681980 <__bss_end__+0xff6784b8>
    197c:	140b0000 	strne	r0, [fp], #-0
    1980:	5200008b 	andpl	r0, r0, #139, 0	; 0x8b
    1984:	0c000001 	stceq	0, cr0, [r0], {1}
    1988:	f3115001 	vhadd.u16	d5, d1, d1
    198c:	24355001 	ldrtcs	r5, [r5], #-1
    1990:	1c5001f3 	ldfnee	f0, [r0], {243}	; 0xf3
    1994:	01f32432 	mvnseq	r2, r2, lsr r4
    1998:	24332250 	ldrtcs	r2, [r3], #-592	; 0xfffffdb0
    199c:	6e090000 	cdpvs	0, 0, cr0, cr9, cr0, {0}
    19a0:	01000005 	tsteq	r0, r5
    19a4:	8adc061f 	bhi	ff703228 <__bss_end__+0xff6f9d60>
    19a8:	00240000 	eoreq	r0, r4, r0
    19ac:	9c010000 	stcls	0, cr0, [r1], {-0}
    19b0:	000001c2 	andeq	r0, r0, r2, asr #3
    19b4:	0073750a 	rsbseq	r7, r3, sl, lsl #10
    19b8:	2c181f01 	ldccs	15, cr1, [r8], {1}
    19bc:	03000000 	movweq	r0, #0
    19c0:	ff00000b 			; <UNDEFINED> instruction: 0xff00000b
    19c4:	0d00000a 	stceq	0, cr0, [r0, #-40]	; 0xffffffd8
    19c8:	01006272 	tsteq	r0, r2, ror r2
    19cc:	002c0e20 	eoreq	r0, ip, r0, lsr #28
    19d0:	0b230000 	bleq	8c19d8 <__bss_end__+0x8b8510>
    19d4:	0b210000 	bleq	8419dc <__bss_end__+0x838514>
    19d8:	ec0e0000 	stc	0, cr0, [lr], {-0}
    19dc:	1400008a 	strne	r0, [r0], #-138	; 0xffffff76
    19e0:	b8000000 	stmdalt	r0, {}	; <UNPREDICTABLE>
    19e4:	0d000001 	stceq	0, cr0, [r0, #-4]
    19e8:	01006172 	tsteq	r0, r2, ror r1
    19ec:	002c1222 	eoreq	r1, ip, r2, lsr #4
    19f0:	0b380000 	bleq	e019f8 <__bss_end__+0xdf8530>
    19f4:	0b360000 	bleq	d819fc <__bss_end__+0xd78534>
    19f8:	f00f0000 			; <UNDEFINED> instruction: 0xf00f0000
    19fc:	c200008a 	andgt	r0, r0, #138, 0	; 0x8a
    1a00:	00000001 	andeq	r0, r0, r1
    1a04:	008ae80f 	addeq	lr, sl, pc, lsl #16
    1a08:	0001c200 	andeq	ip, r1, r0, lsl #4
    1a0c:	5f100000 	svcpl	0x00100000
    1a10:	01000005 	tsteq	r0, r5
    1a14:	002c0a16 	eoreq	r0, ip, r6, lsl sl
    1a18:	8ac00000 	bhi	ff001a20 <__bss_end__+0xfeff8558>
    1a1c:	001c0000 	andseq	r0, ip, r0
    1a20:	9c010000 	stcls	0, cr0, [r1], {-0}
    1a24:	0000020a 	andeq	r0, r0, sl, lsl #4
    1a28:	0100750d 	tsteq	r0, sp, lsl #10
    1a2c:	002c0e1a 	eoreq	r0, ip, sl, lsl lr
    1a30:	0b4f0000 	bleq	13c1a38 <__bss_end__+0x13b8570>
    1a34:	0b4b0000 	bleq	12c1a3c <__bss_end__+0x12b8574>
    1a38:	c80f0000 	stmdagt	pc, {}	; <UNPREDICTABLE>
    1a3c:	6300008a 	movwvs	r0, #138	; 0x8a
    1a40:	0f000002 	svceq	0x00000002
    1a44:	00008acc 	andeq	r8, r0, ip, asr #21
    1a48:	0000020a 	andeq	r0, r0, sl, lsl #4
    1a4c:	008ad40f 	addeq	sp, sl, pc, lsl #8
    1a50:	00026300 	andeq	r6, r2, r0, lsl #6
    1a54:	77100000 	ldrvc	r0, [r0, -r0]
    1a58:	01000005 	tsteq	r0, r5
    1a5c:	002c0a11 	eoreq	r0, ip, r1, lsl sl
    1a60:	8aac0000 	bhi	feb01a68 <__bss_end__+0xfeaf85a0>
    1a64:	00140000 	andseq	r0, r4, r0
    1a68:	9c010000 	stcls	0, cr0, [r1], {-0}
    1a6c:	00000238 	andeq	r0, r0, r8, lsr r2
    1a70:	008ab80b 	addeq	fp, sl, fp, lsl #16
    1a74:	00026f00 	andeq	r6, r2, r0, lsl #30
    1a78:	50010c00 	andpl	r0, r1, r0, lsl #24
    1a7c:	30040c05 	andcc	r0, r4, r5, lsl #24
    1a80:	00002000 	andeq	r2, r0, r0
    1a84:	00053609 	andeq	r3, r5, r9, lsl #12
    1a88:	06050100 	streq	r0, [r5], -r0, lsl #2
    1a8c:	00008a94 	muleq	r0, r4, sl
    1a90:	00000018 	andeq	r0, r0, r8, lsl r0
    1a94:	02639c01 	rsbeq	r9, r3, #256	; 0x100
    1a98:	4f110000 	svcmi	0x00110000
    1a9c:	01000005 	tsteq	r0, r5
    1aa0:	002c1c05 	eoreq	r1, ip, r5, lsl #24
    1aa4:	0b710000 	bleq	1c41aac <__bss_end__+0x1c385e4>
    1aa8:	0b6d0000 	bleq	1b41ab0 <__bss_end__+0x1b385e8>
    1aac:	12000000 	andne	r0, r0, #0, 0
    1ab0:	00000543 	andeq	r0, r0, r3, asr #10
    1ab4:	00000543 	andeq	r0, r0, r3, asr #10
    1ab8:	12069002 	andne	r9, r6, #2, 0
    1abc:	000001d2 	ldrdeq	r0, [r0], -r2
    1ac0:	000001d2 	ldrdeq	r0, [r0], -r2
    1ac4:	000aad02 	andeq	sl, sl, r2, lsl #26
    1ac8:	00000568 	andeq	r0, r0, r8, ror #10
    1acc:	0aae0004 	beq	feb81ae4 <__bss_end__+0xfeb7861c>
    1ad0:	01040000 	mrseq	r0, (UNDEF: 4)
    1ad4:	0000010e 	andeq	r0, r0, lr, lsl #2
    1ad8:	0005d60c 	andeq	sp, r5, ip, lsl #12
    1adc:	0005eb00 	andeq	lr, r5, r0, lsl #22
    1ae0:	008b4800 	addeq	r4, fp, r0, lsl #16
    1ae4:	0001ac00 	andeq	sl, r1, r0, lsl #24
    1ae8:	000e9900 	andeq	r9, lr, r0, lsl #18
    1aec:	05040200 	streq	r0, [r4, #-512]	; 0xfffffe00
    1af0:	00746e69 	rsbseq	r6, r4, r9, ror #28
    1af4:	dd070403 	cfstrsle	mvf0, [r7, #-12]
    1af8:	04000000 	streq	r0, [r0], #-0
    1afc:	0000002c 	andeq	r0, r0, ip, lsr #32
    1b00:	6e060103 	adfvss	f0, f6, f3
    1b04:	03000000 	movweq	r0, #0
    1b08:	01040502 	tsteq	r4, r2, lsl #10
    1b0c:	04030000 	streq	r0, [r3], #-0
    1b10:	0000ef05 	andeq	lr, r0, r5, lsl #30
    1b14:	05080300 	streq	r0, [r8, #-768]	; 0xfffffd00
    1b18:	000000ea 	andeq	r0, r0, sl, ror #1
    1b1c:	6c080103 	stfvss	f0, [r8], {3}
    1b20:	03000000 	movweq	r0, #0
    1b24:	00930702 	addseq	r0, r3, r2, lsl #14
    1b28:	58050000 	stmdapl	r5, {}	; <UNPREDICTABLE>
    1b2c:	05000002 	streq	r0, [r0, #-2]
    1b30:	006e1934 	rsbeq	r1, lr, r4, lsr r9
    1b34:	04030000 	streq	r0, [r3], #-0
    1b38:	0000d807 	andeq	sp, r0, r7, lsl #16
    1b3c:	07080300 	streq	r0, [r8, -r0, lsl #6]
    1b40:	000000d3 	ldrdeq	r0, [r0], -r3
    1b44:	00002506 	andeq	r2, r0, r6, lsl #10
    1b48:	00008b00 	andeq	r8, r0, r0, lsl #22
    1b4c:	00250700 	eoreq	r0, r5, r0, lsl #14
    1b50:	08000000 	stmdaeq	r0, {}	; <UNPREDICTABLE>
    1b54:	000000f8 	strdeq	r0, [r0], -r8
    1b58:	970e1c02 	strls	r1, [lr, -r2, lsl #24]
    1b5c:	09000000 	stmdbeq	r0, {}	; <UNPREDICTABLE>
    1b60:	00007c04 	andeq	r7, r0, r4, lsl #24
    1b64:	00250600 	eoreq	r0, r5, r0, lsl #12
    1b68:	00ac0000 	adceq	r0, ip, r0
    1b6c:	ac070000 	stcge	0, cr0, [r7], {-0}
    1b70:	00000000 	andeq	r0, r0, r0
    1b74:	00b90409 	adcseq	r0, r9, r9, lsl #8
    1b78:	01030000 	mrseq	r0, (UNDEF: 3)
    1b7c:	00007508 	andeq	r7, r0, r8, lsl #10
    1b80:	00b20a00 	adcseq	r0, r2, r0, lsl #20
    1b84:	41080000 	mrsmi	r0, (UNDEF: 8)
    1b88:	02000003 	andeq	r0, r0, #3, 0
    1b8c:	00ca0e21 	sbceq	r0, sl, r1, lsr #28
    1b90:	04090000 	streq	r0, [r9], #-0
    1b94:	0000009d 	muleq	r0, sp, r0
    1b98:	5401070b 	strpl	r0, [r1], #-1803	; 0xfffff8f5
    1b9c:	04000000 	streq	r0, [r0], #-0
    1ba0:	010f0e0c 	tsteq	pc, ip, lsl #28
    1ba4:	d60c0000 	strle	r0, [ip], -r0
    1ba8:	00000006 	andeq	r0, r0, r6
    1bac:	0005b90c 	andeq	fp, r5, ip, lsl #18
    1bb0:	1f0c0100 	svcne	0x000c0100
    1bb4:	04000006 	streq	r0, [r0], #-6
    1bb8:	00062e0c 	andeq	r2, r6, ip, lsl #28
    1bbc:	3d0c0500 	cfstr32cc	mvfx0, [ip, #-0]
    1bc0:	06000006 	streq	r0, [r0], -r6
    1bc4:	00064c0c 	andeq	r4, r6, ip, lsl #24
    1bc8:	b20c0700 	andlt	r0, ip, #0, 14
    1bcc:	03000006 	movweq	r0, #6
    1bd0:	00065b0c 	andeq	r5, r6, ip, lsl #22
    1bd4:	0d000200 	sfmeq	f0, 4, [r0, #-0]
    1bd8:	000005ca 	andeq	r0, r0, sl, asr #11
    1bdc:	0806032c 	stmdaeq	r6, {r2, r3, r5, r8, r9}
    1be0:	000001ab 	andeq	r0, r0, fp, lsr #3
    1be4:	006f690e 	rsbeq	r6, pc, lr, lsl #18
    1be8:	33090903 	movwcc	r0, #39171	; 0x9903
    1bec:	00000000 	andeq	r0, r0, r0
    1bf0:	7265690e 	rsbvc	r6, r5, #229376	; 0x38000
    1bf4:	090a0300 	stmdbeq	sl, {r8, r9}
    1bf8:	00000033 	andeq	r0, r0, r3, lsr r0
    1bfc:	69690e04 	stmdbvs	r9!, {r2, r9, sl, fp}^
    1c00:	11030072 	tstne	r3, r2, ror r0
    1c04:	00003309 	andeq	r3, r0, r9, lsl #6
    1c08:	6c0e0800 	stcvs	8, cr0, [lr], {-0}
    1c0c:	03007263 	movweq	r7, #611	; 0x263
    1c10:	00330913 	eorseq	r0, r3, r3, lsl r9
    1c14:	0e0c0000 	cdpeq	0, 0, cr0, cr12, cr0, {0}
    1c18:	0072636d 	rsbseq	r6, r2, sp, ror #6
    1c1c:	33091403 	movwcc	r1, #37891	; 0x9403
    1c20:	10000000 	andne	r0, r0, r0
    1c24:	72736c0e 	rsbsvc	r6, r3, #3584	; 0xe00
    1c28:	09150300 	ldmdbeq	r5, {r8, r9}
    1c2c:	00000033 	andeq	r0, r0, r3, lsr r0
    1c30:	736d0e14 	cmnvc	sp, #20, 28	; 0x140
    1c34:	16030072 			; <UNDEFINED> instruction: 0x16030072
    1c38:	00003309 	andeq	r3, r0, r9, lsl #6
    1c3c:	c90f1800 	stmdbgt	pc, {fp, ip}	; <UNPREDICTABLE>
    1c40:	03000006 	movweq	r0, #6
    1c44:	00330917 	eorseq	r0, r3, r7, lsl r9
    1c48:	0f1c0000 	svceq	0x001c0000
    1c4c:	0000069f 	muleq	r0, pc, r6	; <UNPREDICTABLE>
    1c50:	33091b03 	movwcc	r1, #39683	; 0x9b03
    1c54:	20000000 	andcs	r0, r0, r0
    1c58:	0005a60f 	andeq	sl, r5, pc, lsl #12
    1c5c:	091d0300 	ldmdbeq	sp, {r8, r9}
    1c60:	00000033 	andeq	r0, r0, r3, lsr r0
    1c64:	066a0f24 	strbteq	r0, [sl], -r4, lsr #30
    1c68:	1e030000 	cdpne	0, 0, cr0, cr3, cr0, {0}
    1c6c:	00003309 	andeq	r3, r0, r9, lsl #6
    1c70:	10002800 	andne	r2, r0, r0, lsl #16
    1c74:	0000066f 	andeq	r0, r0, pc, ror #12
    1c78:	c1090801 	tstgt	r9, r1, lsl #16
    1c7c:	04000001 	streq	r0, [r0], #-1
    1c80:	09202150 	stmdbeq	r0!, {r4, r6, r8, sp}
    1c84:	00003304 	andeq	r3, r0, r4, lsl #6
    1c88:	01bb0a00 			; <UNDEFINED> instruction: 0x01bb0a00
    1c8c:	d1100000 	tstle	r0, r0
    1c90:	01000006 	tsteq	r0, r6
    1c94:	01dc2329 	bicseq	r2, ip, r9, lsr #6
    1c98:	50400000 	subpl	r0, r0, r0
    1c9c:	04092021 	streq	r2, [r9], #-33	; 0xffffffdf
    1ca0:	0000010f 	andeq	r0, r0, pc, lsl #2
    1ca4:	0001d60a 	andeq	sp, r1, sl, lsl #12
    1ca8:	04731100 	ldrbteq	r1, [r3], #-256	; 0xffffff00
    1cac:	c2010000 	andgt	r0, r1, #0, 0
    1cb0:	008ce006 	addeq	lr, ip, r6
    1cb4:	00001400 	andeq	r1, r0, r0, lsl #8
    1cb8:	019c0100 	orrseq	r0, ip, r0, lsl #2
    1cbc:	12000002 	andne	r0, r0, #2, 0
    1cc0:	00008ce8 	andeq	r8, r0, r8, ror #25
    1cc4:	00000201 	andeq	r0, r0, r1, lsl #4
    1cc8:	06851300 	streq	r1, [r5], r0, lsl #6
    1ccc:	ac010000 	stcge	0, cr0, [r1], {-0}
    1cd0:	00002505 	andeq	r2, r0, r5, lsl #10
    1cd4:	008cc000 	addeq	ip, ip, r0
    1cd8:	00002000 	andeq	r2, r0, r0
    1cdc:	389c0100 	ldmcc	ip, {r8}
    1ce0:	12000002 	andne	r0, r0, #2, 0
    1ce4:	00008cc8 	andeq	r8, r0, r8, asr #25
    1ce8:	0000053b 	andeq	r0, r0, fp, lsr r5
    1cec:	008cd014 	addeq	sp, ip, r4, lsl r0
    1cf0:	00054700 	andeq	r4, r5, r0, lsl #14
    1cf4:	50011500 	andpl	r1, r1, r0, lsl #10
    1cf8:	50640c05 	rsbpl	r0, r4, r5, lsl #24
    1cfc:	00002021 	andeq	r2, r0, r1, lsr #32
    1d00:	0006a413 	andeq	sl, r6, r3, lsl r4
    1d04:	05a90100 	streq	r0, [r9, #256]!	; 0x100
    1d08:	00000025 	andeq	r0, r0, r5, lsr #32
    1d0c:	00008cb0 			; <UNDEFINED> instruction: 0x00008cb0
    1d10:	00000010 	andeq	r0, r0, r0, lsl r0
    1d14:	02659c01 	rsbeq	r9, r5, #256	; 0x100
    1d18:	b8120000 	ldmdalt	r2, {}	; <UNPREDICTABLE>
    1d1c:	3b00008c 	blcc	1f54 <__code_start__-0x60ac>
    1d20:	12000005 	andne	r0, r0, #5, 0
    1d24:	00008cbc 			; <UNDEFINED> instruction: 0x00008cbc
    1d28:	00000356 	andeq	r0, r0, r6, asr r3
    1d2c:	059c1100 	ldreq	r1, [ip, #256]	; 0x100
    1d30:	a1010000 	mrsge	r0, (UNDEF: 1)
    1d34:	008c8006 	addeq	r8, ip, r6
    1d38:	00003000 	andeq	r3, r0, r0
    1d3c:	c99c0100 	ldmibgt	ip, {r8}
    1d40:	16000002 	strne	r0, [r0], -r2
    1d44:	a1010063 	tstge	r1, r3, rrx
    1d48:	00002c19 	andeq	r2, r0, r9, lsl ip
    1d4c:	000b9300 	andeq	r9, fp, r0, lsl #6
    1d50:	000b8f00 	andeq	r8, fp, r0, lsl #30
    1d54:	8c8c1200 	sfmhi	f1, 4, [ip], {0}
    1d58:	053b0000 	ldreq	r0, [fp, #-0]!
    1d5c:	90120000 	andsls	r0, r2, r0
    1d60:	2800008c 	stmdacs	r0, {r2, r3, r7}
    1d64:	17000003 	strne	r0, [r0, -r3]
    1d68:	00008ca4 	andeq	r8, r0, r4, lsr #25
    1d6c:	00000553 	andeq	r0, r0, r3, asr r5
    1d70:	000002bf 			; <UNDEFINED> instruction: 0x000002bf
    1d74:	05500115 	ldrbeq	r0, [r0, #-277]	; 0xfffffeeb
    1d78:	2150400c 	cmpcs	r0, ip
    1d7c:	51011520 	tstpl	r1, r0, lsr #10
    1d80:	08007405 	stmdaeq	r0, {r0, r2, sl, ip, sp, lr}
    1d84:	12001aff 	andne	r1, r0, #1044480	; 0xff000
    1d88:	00008ca8 	andeq	r8, r0, r8, lsr #25
    1d8c:	0000053b 	andeq	r0, r0, fp, lsr r5
    1d90:	067b1300 	ldrbteq	r1, [fp], -r0, lsl #6
    1d94:	99010000 	stmdbls	r1, {}	; <UNPREDICTABLE>
    1d98:	00002505 	andeq	r2, r0, r5, lsl #10
    1d9c:	008c5000 	addeq	r5, ip, r0
    1da0:	00003000 	andeq	r3, r0, r0
    1da4:	289c0100 	ldmcs	ip, {r8}
    1da8:	18000003 	stmdane	r0, {r0, r1}
    1dac:	9d010063 	stcls	0, cr0, [r1, #-396]	; 0xfffffe74
    1db0:	00002509 	andeq	r2, r0, r9, lsl #10
    1db4:	000bb300 	andeq	fp, fp, r0, lsl #6
    1db8:	000bb100 	andeq	fp, fp, r0, lsl #2
    1dbc:	8c581200 	lfmhi	f1, 2, [r8], {-0}
    1dc0:	053b0000 	ldreq	r0, [fp, #-0]!
    1dc4:	5c120000 	ldcpl	0, cr0, [r2], {-0}
    1dc8:	5600008c 	strpl	r0, [r0], -ip, lsl #1
    1dcc:	17000003 	strne	r0, [r0, -r3]
    1dd0:	00008c6c 	andeq	r8, r0, ip, ror #24
    1dd4:	00000547 	andeq	r0, r0, r7, asr #10
    1dd8:	0000031e 	andeq	r0, r0, lr, lsl r3
    1ddc:	05500115 	ldrbeq	r0, [r0, #-277]	; 0xfffffeeb
    1de0:	2150400c 	cmpcs	r0, ip
    1de4:	74120020 	ldrvc	r0, [r2], #-32	; 0xffffffe0
    1de8:	3b00008c 	blcc	2020 <__code_start__-0x5fe0>
    1dec:	00000005 	andeq	r0, r0, r5
    1df0:	0005dd13 	andeq	sp, r5, r3, lsl sp
    1df4:	058a0100 	streq	r0, [sl, #256]	; 0x100
    1df8:	00000025 	andeq	r0, r0, r5, lsr #32
    1dfc:	00008c30 	andeq	r8, r0, r0, lsr ip
    1e00:	00000020 	andeq	r0, r0, r0, lsr #32
    1e04:	03569c01 	cmpeq	r6, #256	; 0x100
    1e08:	3c140000 	ldccc	0, cr0, [r4], {-0}
    1e0c:	4700008c 	strmi	r0, [r0, -ip, lsl #1]
    1e10:	15000005 	strne	r0, [r0, #-5]
    1e14:	0c055001 	stceq	0, cr5, [r5], {1}
    1e18:	20215064 	eorcs	r5, r1, r4, rrx
    1e1c:	ab130000 	blge	4c1e24 <__bss_end__+0x4b895c>
    1e20:	01000005 	tsteq	r0, r5
    1e24:	00250581 	eoreq	r0, r5, r1, lsl #11
    1e28:	8c180000 	ldchi	0, cr0, [r8], {-0}
    1e2c:	00180000 	andseq	r0, r8, r0
    1e30:	9c010000 	stcls	0, cr0, [r1], {-0}
    1e34:	00000384 	andeq	r0, r0, r4, lsl #7
    1e38:	008c2414 	addeq	r2, ip, r4, lsl r4
    1e3c:	00054700 	andeq	r4, r5, r0, lsl #14
    1e40:	50011500 	andpl	r1, r1, r0, lsl #10
    1e44:	50640c05 	rsbpl	r0, r4, r5, lsl #24
    1e48:	00002021 	andeq	r2, r0, r1, lsr #32
    1e4c:	00006211 	andeq	r6, r0, r1, lsl r2
    1e50:	063b0100 	ldrteq	r0, [fp], -r0, lsl #2
    1e54:	00008b68 	andeq	r8, r0, r8, ror #22
    1e58:	000000b0 	strheq	r0, [r0], -r0	; <UNPREDICTABLE>
    1e5c:	04d19c01 	ldrbeq	r9, [r1], #3073	; 0xc01
    1e60:	96190000 	ldrls	r0, [r9], -r0
    1e64:	01000006 	tsteq	r0, r6
    1e68:	00620e74 	rsbeq	r0, r2, r4, ror lr
    1e6c:	010e0000 	mrseq	r0, (UNDEF: 14)
    1e70:	008b7817 	addeq	r7, fp, r7, lsl r8
    1e74:	00055f00 	andeq	r5, r5, r0, lsl #30
    1e78:	0003c000 	andeq	ip, r3, r0
    1e7c:	50011500 	andpl	r1, r1, r0, lsl #10
    1e80:	01153e01 	tsteq	r5, r1, lsl #28
    1e84:	00320151 	eorseq	r0, r2, r1, asr r1
    1e88:	008b8417 	addeq	r8, fp, r7, lsl r4
    1e8c:	00055f00 	andeq	r5, r5, r0, lsl #30
    1e90:	0003d800 	andeq	sp, r3, r0, lsl #16
    1e94:	50011500 	andpl	r1, r1, r0, lsl #10
    1e98:	01153f01 	tsteq	r5, r1, lsl #30
    1e9c:	00320151 	eorseq	r0, r2, r1, asr r1
    1ea0:	008b8812 	addeq	r8, fp, r2, lsl r8
    1ea4:	00053b00 	andeq	r3, r5, r0, lsl #22
    1ea8:	8b941700 	blhi	fe507ab0 <__bss_end__+0xfe4fe5e8>
    1eac:	04d10000 	ldrbeq	r0, [r1], #0
    1eb0:	03fd0000 	mvnseq	r0, #0, 0
    1eb4:	01150000 	tsteq	r5, r0
    1eb8:	040c0550 	streq	r0, [ip], #-1360	; 0xfffffab0
    1ebc:	15202150 	strne	r2, [r0, #-336]!	; 0xfffffeb0
    1ec0:	31015101 	tstcc	r1, r1, lsl #2
    1ec4:	8b981200 	blhi	fe6066cc <__bss_end__+0xfe5fd204>
    1ec8:	053b0000 	ldreq	r0, [fp, #-0]!
    1ecc:	a8170000 	ldmdage	r7, {}	; <UNPREDICTABLE>
    1ed0:	5300008b 	movwpl	r0, #139	; 0x8b
    1ed4:	1f000005 	svcne	0x00000005
    1ed8:	15000004 	strne	r0, [r0, #-4]
    1edc:	74025001 	strvc	r5, [r2], #-1
    1ee0:	51011500 	tstpl	r1, r0, lsl #10
    1ee4:	17003001 	strne	r3, [r0, -r1]
    1ee8:	00008bb4 			; <UNDEFINED> instruction: 0x00008bb4
    1eec:	00000553 	andeq	r0, r0, r3, asr r5
    1ef0:	0000043b 	andeq	r0, r0, fp, lsr r4
    1ef4:	05500115 	ldrbeq	r0, [r0, #-277]	; 0xfffffeeb
    1ef8:	2150440c 	cmpcs	r0, ip, lsl #8
    1efc:	51011520 	tstpl	r1, r0, lsr #10
    1f00:	17003001 	strne	r3, [r0, -r1]
    1f04:	00008bc0 	andeq	r8, r0, r0, asr #23
    1f08:	00000553 	andeq	r0, r0, r3, asr r5
    1f0c:	00000457 	andeq	r0, r0, r7, asr r4
    1f10:	05500115 	ldrbeq	r0, [r0, #-277]	; 0xfffffeeb
    1f14:	21504c0c 	cmpcs	r0, ip, lsl #24
    1f18:	51011520 	tstpl	r1, r0, lsr #10
    1f1c:	17003301 	strne	r3, [r0, -r1, lsl #6]
    1f20:	00008bcc 	andeq	r8, r0, ip, asr #23
    1f24:	00000553 	andeq	r0, r0, r3, asr r5
    1f28:	00000473 	andeq	r0, r0, r3, ror r4
    1f2c:	05500115 	ldrbeq	r0, [r0, #-277]	; 0xfffffeeb
    1f30:	2150500c 	cmpcs	r0, ip
    1f34:	51011520 	tstpl	r1, r0, lsr #10
    1f38:	17003001 	strne	r3, [r0, -r1]
    1f3c:	00008bd8 	ldrdeq	r8, [r0], -r8	; <UNPREDICTABLE>
    1f40:	00000553 	andeq	r0, r0, r3, asr r5
    1f44:	00000490 	muleq	r0, r0, r4
    1f48:	05500115 	ldrbeq	r0, [r0, #-277]	; 0xfffffeeb
    1f4c:	2150480c 	cmpcs	r0, ip, lsl #16
    1f50:	51011520 	tstpl	r1, r0, lsr #10
    1f54:	00c70802 	sbceq	r0, r7, r2, lsl #16
    1f58:	008be417 	addeq	lr, fp, r7, lsl r4
    1f5c:	00055300 	andeq	r5, r5, r0, lsl #6
    1f60:	0004ae00 	andeq	sl, r4, r0, lsl #28
    1f64:	50011500 	andpl	r1, r1, r0, lsl #10
    1f68:	50680c05 	rsbpl	r0, r8, r5, lsl #24
    1f6c:	01152021 	tsteq	r5, r1, lsr #32
    1f70:	0e0a0351 	mcreq	3, 0, r0, cr10, cr1, {2}
    1f74:	f0170001 			; <UNDEFINED> instruction: 0xf0170001
    1f78:	5300008b 	movwpl	r0, #139	; 0x8b
    1f7c:	c7000005 	strgt	r0, [r0, -r5]
    1f80:	15000004 	strne	r0, [r0, #-4]
    1f84:	74025001 	strvc	r5, [r2], #-1
    1f88:	51011500 	tstpl	r1, r0, lsl #10
    1f8c:	12003301 	andne	r3, r0, #67108864	; 0x4000000
    1f90:	00008bf4 	strdeq	r8, [r0], -r4
    1f94:	0000053b 	andeq	r0, r0, fp, lsr r5
    1f98:	06c11a00 	strbeq	r1, [r1], r0, lsl #20
    1f9c:	2e010000 	cdpcs	0, 0, cr0, cr1, cr0, {0}
    1fa0:	008b480d 	addeq	r4, fp, sp, lsl #16
    1fa4:	00002000 	andeq	r2, r0, r0
    1fa8:	349c0100 	ldrcc	r0, [ip], #256	; 0x100
    1fac:	1b000005 	blne	1fc8 <__code_start__-0x6038>
    1fb0:	0000020a 	andeq	r0, r0, sl, lsl #4
    1fb4:	34242e01 	strtcc	r2, [r4], #-3585	; 0xfffff1ff
    1fb8:	ca000005 	bgt	1fd4 <__code_start__-0x602c>
    1fbc:	c600000b 	strgt	r0, [r0], -fp
    1fc0:	1600000b 	strne	r0, [r0], -fp
    1fc4:	006c6176 	rsbeq	r6, ip, r6, ror r1
    1fc8:	2c332e01 	ldccs	14, cr2, [r3], #-4
    1fcc:	ec000000 	stc	0, cr0, [r0], {-0}
    1fd0:	e800000b 	stmda	r0, {r0, r1, r3}
    1fd4:	1700000b 	strne	r0, [r0, -fp]
    1fd8:	00008b58 	andeq	r8, r0, r8, asr fp
    1fdc:	00000547 	andeq	r0, r0, r7, asr #10
    1fe0:	00000523 	andeq	r0, r0, r3, lsr #10
    1fe4:	02500115 	subseq	r0, r0, #1073741829	; 0x40000005
    1fe8:	14000074 	strne	r0, [r0], #-116	; 0xffffff8c
    1fec:	00008b64 	andeq	r8, r0, r4, ror #22
    1ff0:	00000553 	andeq	r0, r0, r3, asr r5
    1ff4:	02500115 	subseq	r0, r0, #1073741829	; 0x40000005
    1ff8:	00000074 	andeq	r0, r0, r4, ror r0
    1ffc:	053a0409 	ldreq	r0, [sl, #-1033]!	; 0xfffffbf7
    2000:	1d1c0000 	ldcne	0, cr0, [ip, #-0]
    2004:	00000543 	andeq	r0, r0, r3, asr #10
    2008:	00000543 	andeq	r0, r0, r3, asr #10
    200c:	1d069002 	stcne	0, cr9, [r6, #-8]
    2010:	000001e3 	andeq	r0, r0, r3, ror #3
    2014:	000001e3 	andeq	r0, r0, r3, ror #3
    2018:	1d0bae02 	stcne	14, cr10, [fp, #-8]
    201c:	000001ee 	andeq	r0, r0, lr, ror #3
    2020:	000001ee 	andeq	r0, r0, lr, ror #3
    2024:	1d06a202 	sfmne	f2, 1, [r6, #-8]
    2028:	000006e6 	andeq	r0, r0, r6, ror #13
    202c:	000006e6 	andeq	r0, r0, r6, ror #13
    2030:	00061904 	andeq	r1, r6, r4, lsl #18
    2034:	000003bb 			; <UNDEFINED> instruction: 0x000003bb
    2038:	0c6b0004 	stcleq	0, cr0, [fp], #-16
    203c:	01040000 	mrseq	r0, (UNDEF: 4)
    2040:	0000010e 	andeq	r0, r0, lr, lsl #2
    2044:	00075a0c 	andeq	r5, r7, ip, lsl #20
    2048:	00030600 	andeq	r0, r3, r0, lsl #12
    204c:	008cf400 	addeq	pc, ip, r0, lsl #8
    2050:	0000e800 	andeq	lr, r0, r0, lsl #16
    2054:	00105200 	andseq	r5, r0, r0, lsl #4
    2058:	05040200 	streq	r0, [r4, #-512]	; 0xfffffe00
    205c:	00746e69 	rsbseq	r6, r4, r9, ror #28
    2060:	dd070403 	cfstrsle	mvf0, [r7, #-12]
    2064:	04000000 	streq	r0, [r0], #-0
    2068:	0000002c 	andeq	r0, r0, ip, lsr #32
    206c:	6e060103 	adfvss	f0, f6, f3
    2070:	03000000 	movweq	r0, #0
    2074:	01040502 	tsteq	r4, r2, lsl #10
    2078:	04030000 	streq	r0, [r3], #-0
    207c:	0000ef05 	andeq	lr, r0, r5, lsl #30
    2080:	05080300 	streq	r0, [r8, #-768]	; 0xfffffd00
    2084:	000000ea 	andeq	r0, r0, sl, ror #1
    2088:	6c080103 	stfvss	f0, [r8], {3}
    208c:	03000000 	movweq	r0, #0
    2090:	00930702 	addseq	r0, r3, r2, lsl #14
    2094:	58050000 	stmdapl	r5, {}	; <UNPREDICTABLE>
    2098:	03000002 	movweq	r0, #2
    209c:	006e1934 	rsbeq	r1, lr, r4, lsr r9
    20a0:	04030000 	streq	r0, [r3], #-0
    20a4:	0000d807 	andeq	sp, r0, r7, lsl #16
    20a8:	07080300 	streq	r0, [r8, -r0, lsl #6]
    20ac:	000000d3 	ldrdeq	r0, [r0], -r3
    20b0:	00002506 	andeq	r2, r0, r6, lsl #10
    20b4:	00008b00 	andeq	r8, r0, r0, lsl #22
    20b8:	00250700 	eoreq	r0, r5, r0, lsl #14
    20bc:	08000000 	stmdaeq	r0, {}	; <UNPREDICTABLE>
    20c0:	000000f8 	strdeq	r0, [r0], -r8
    20c4:	970e1c02 	strls	r1, [lr, -r2, lsl #24]
    20c8:	09000000 	stmdbeq	r0, {}	; <UNPREDICTABLE>
    20cc:	00007c04 	andeq	r7, r0, r4, lsl #24
    20d0:	00250600 	eoreq	r0, r5, r0, lsl #12
    20d4:	00ac0000 	adceq	r0, ip, r0
    20d8:	ac070000 	stcge	0, cr0, [r7], {-0}
    20dc:	00000000 	andeq	r0, r0, r0
    20e0:	00b90409 	adcseq	r0, r9, r9, lsl #8
    20e4:	01030000 	mrseq	r0, (UNDEF: 3)
    20e8:	00007508 	andeq	r7, r0, r8, lsl #10
    20ec:	00b20400 	adcseq	r0, r2, r0, lsl #8
    20f0:	41080000 	mrsmi	r0, (UNDEF: 8)
    20f4:	02000003 	andeq	r0, r0, #3, 0
    20f8:	00ca0e21 	sbceq	r0, sl, r1, lsr #28
    20fc:	04090000 	streq	r0, [r9], #-0
    2100:	0000009d 	muleq	r0, sp, r0
    2104:	5401070a 	strpl	r0, [r1], #-1802	; 0xfffff8f6
    2108:	04000000 	streq	r0, [r0], #-0
    210c:	010f0e0c 	tsteq	pc, ip, lsl #28
    2110:	d60b0000 	strle	r0, [fp], -r0
    2114:	00000006 	andeq	r0, r0, r6
    2118:	0005b90b 	andeq	fp, r5, fp, lsl #18
    211c:	1f0b0100 	svcne	0x000b0100
    2120:	04000006 	streq	r0, [r0], #-6
    2124:	00062e0b 	andeq	r2, r6, fp, lsl #28
    2128:	3d0b0500 	cfstr32cc	mvfx0, [fp, #-0]
    212c:	06000006 	streq	r0, [r0], -r6
    2130:	00064c0b 	andeq	r4, r6, fp, lsl #24
    2134:	b20b0700 	andlt	r0, fp, #0, 14
    2138:	03000006 	movweq	r0, #6
    213c:	00065b0b 	andeq	r5, r6, fp, lsl #22
    2140:	05000200 	streq	r0, [r0, #-512]	; 0xfffffe00
    2144:	00000732 	andeq	r0, r0, r2, lsr r7
    2148:	d0031504 	andle	r1, r3, r4, lsl #10
    214c:	0c000000 	stceq	0, cr0, [r0], {-0}
    2150:	00000750 	andeq	r0, r0, r0, asr r7
    2154:	33170e01 	tstcc	r7, #1, 28
    2158:	00000000 	andeq	r0, r0, r0
    215c:	0c202000 	stceq	0, cr2, [r0], #-0
    2160:	00000708 	andeq	r0, r0, r8, lsl #14
    2164:	33170f01 	tstcc	r7, #1, 30
    2168:	1c000000 	stcne	0, cr0, [r0], {-0}
    216c:	0c202000 	stceq	0, cr2, [r0], #-0
    2170:	000006f8 	strdeq	r0, [r0], -r8
    2174:	33171001 	tstcc	r7, #1, 0
    2178:	28000000 	stmdacs	r0, {}	; <UNPREDICTABLE>
    217c:	0c202000 	stceq	0, cr2, [r0], #-0
    2180:	00000746 	andeq	r0, r0, r6, asr #14
    2184:	33171101 	tstcc	r7, #1073741824	; 0x40000000
    2188:	34000000 	strcc	r0, [r0], #-0
    218c:	0d202000 	stceq	0, cr2, [r0, #-0]
    2190:	0000000b 	andeq	r0, r0, fp
    2194:	25054301 	strcs	r4, [r5, #-769]	; 0xfffffcff
    2198:	bc000000 	stclt	0, cr0, [r0], {-0}
    219c:	2000008d 	andcs	r0, r0, sp, lsl #1
    21a0:	01000000 	mrseq	r0, (UNDEF: 0)
    21a4:	00019d9c 	muleq	r1, ip, sp
    21a8:	69700e00 	ldmdbvs	r0!, {r9, sl, fp}^
    21ac:	4301006e 	movwmi	r0, #4206	; 0x106e
    21b0:	00002c18 	andeq	r2, r0, r8, lsl ip
    21b4:	000c0e00 	andeq	r0, ip, r0, lsl #28
    21b8:	000c0a00 	andeq	r0, ip, r0, lsl #20
    21bc:	8dcc0f00 	stclhi	15, cr0, [ip]
    21c0:	03a60000 			; <UNDEFINED> instruction: 0x03a60000
    21c4:	01100000 	tsteq	r0, r0
    21c8:	340c0550 	strcc	r0, [ip], #-1360	; 0xfffffab0
    21cc:	00202000 	eoreq	r2, r0, r0
    21d0:	00a61100 	adceq	r1, r6, r0, lsl #2
    21d4:	3e010000 	cdpcc	0, 0, cr0, cr1, cr0, {0}
    21d8:	008dac06 	addeq	sl, sp, r6, lsl #24
    21dc:	00001000 	andeq	r1, r0, r0
    21e0:	de9c0100 	fmllee	f0, f4, f0
    21e4:	0e000001 	cdpeq	0, 0, cr0, cr0, cr1, {0}
    21e8:	006e6970 	rsbeq	r6, lr, r0, ror r9
    21ec:	2c1e3e01 	ldccs	14, cr3, [lr], {1}
    21f0:	30000000 	andcc	r0, r0, r0
    21f4:	2c00000c 	stccs	0, cr0, [r0], {12}
    21f8:	0f00000c 	svceq	0x0000000c
    21fc:	00008db8 			; <UNDEFINED> instruction: 0x00008db8
    2200:	00000308 	andeq	r0, r0, r8, lsl #6
    2204:	03500110 	cmpeq	r0, #4
    2208:	105001f3 	ldrshne	r0, [r0], #-19	; 0xffffffed
    220c:	30015101 	andcc	r5, r1, r1, lsl #2
    2210:	1a110000 	bne	442218 <__bss_end__+0x438d50>
    2214:	01000007 	tsteq	r0, r7
    2218:	8d900632 	ldchi	6, cr0, [r0, #200]	; 0xc8
    221c:	001c0000 	andseq	r0, ip, r0
    2220:	9c010000 	stcls	0, cr0, [r1], {-0}
    2224:	00000239 	andeq	r0, r0, r9, lsr r2
    2228:	6e69700e 	cdpvs	0, 6, cr7, cr9, cr14, {0}
    222c:	1a320100 	bne	c82634 <__bss_end__+0xc7916c>
    2230:	0000002c 	andeq	r0, r0, ip, lsr #32
    2234:	00000c59 	andeq	r0, r0, r9, asr ip
    2238:	00000c51 	andeq	r0, r0, r1, asr ip
    223c:	0100760e 	tsteq	r0, lr, lsl #12
    2240:	002c2832 	eoreq	r2, ip, r2, lsr r8
    2244:	0c9b0000 	ldceq	0, cr0, [fp], {0}
    2248:	0c930000 	ldceq	0, cr0, [r3], {0}
    224c:	a0120000 	andsge	r0, r2, r0
    2250:	8000008d 	andhi	r0, r0, sp, lsl #1
    2254:	2f000002 	svccs	0x00000002
    2258:	10000002 	andne	r0, r0, r2
    225c:	f3035001 	vhadd.u8	d5, d3, d1
    2260:	13005001 	movwne	r5, #1
    2264:	00008da8 	andeq	r8, r0, r8, lsr #27
    2268:	00000239 	andeq	r0, r0, r9, lsr r2
    226c:	07251100 	streq	r1, [r5, -r0, lsl #2]!
    2270:	2d010000 	stccs	0, cr0, [r1, #-0]
    2274:	008d7406 	addeq	r7, sp, r6, lsl #8
    2278:	00001c00 	andeq	r1, r0, r0, lsl #24
    227c:	809c0100 	addshi	r0, ip, r0, lsl #2
    2280:	0e000002 	cdpeq	0, 0, cr0, cr0, cr2, {0}
    2284:	006e6970 	rsbeq	r6, lr, r0, ror r9
    2288:	2c1c2d01 	ldccs	13, cr2, [ip], {1}
    228c:	d9000000 	stmdble	r0, {}	; <UNPREDICTABLE>
    2290:	d500000c 	strle	r0, [r0, #-12]
    2294:	0f00000c 	svceq	0x0000000c
    2298:	00008d88 	andeq	r8, r0, r8, lsl #27
    229c:	000003b2 			; <UNDEFINED> instruction: 0x000003b2
    22a0:	05500110 	ldrbeq	r0, [r0, #-272]	; 0xfffffef0
    22a4:	2000280c 	andcs	r2, r0, ip, lsl #16
    22a8:	51011020 	tstpl	r1, r0, lsr #32
    22ac:	01f33105 	mvnseq	r3, r5, lsl #2
    22b0:	00002450 	andeq	r2, r0, r0, asr r4
    22b4:	00076511 	andeq	r6, r7, r1, lsl r5
    22b8:	06280100 	strteq	r0, [r8], -r0, lsl #2
    22bc:	00008d58 	andeq	r8, r0, r8, asr sp
    22c0:	0000001c 	andeq	r0, r0, ip, lsl r0
    22c4:	02c79c01 	sbceq	r9, r7, #256	; 0x100
    22c8:	700e0000 	andvc	r0, lr, r0
    22cc:	01006e69 	tsteq	r0, r9, ror #28
    22d0:	002c1b28 	eoreq	r1, ip, r8, lsr #22
    22d4:	0cfe0000 	ldcleq	0, cr0, [lr]
    22d8:	0cfa0000 	ldcleq	0, cr0, [sl]
    22dc:	6c0f0000 	stcvs	0, cr0, [pc], {-0}
    22e0:	b200008d 	andlt	r0, r0, #141, 0	; 0x8d
    22e4:	10000003 	andne	r0, r0, r3
    22e8:	0c055001 	stceq	0, cr5, [r5], {1}
    22ec:	2020001c 	eorcs	r0, r0, ip, lsl r0
    22f0:	05510110 	ldrbeq	r0, [r1, #-272]	; 0xfffffef0
    22f4:	5001f331 	andpl	pc, r1, r1, lsr r3	; <UNPREDICTABLE>
    22f8:	11000024 	tstne	r0, r4, lsr #32
    22fc:	000000b5 	strheq	r0, [r0], -r5
    2300:	48062301 	stmdami	r6, {r0, r8, r9, sp}
    2304:	1000008d 	andne	r0, r0, sp, lsl #1
    2308:	01000000 	mrseq	r0, (UNDEF: 0)
    230c:	0003089c 	muleq	r3, ip, r8
    2310:	69700e00 	ldmdbvs	r0!, {r9, sl, fp}^
    2314:	2301006e 	movwcs	r0, #4206	; 0x106e
    2318:	00002c1f 	andeq	r2, r0, pc, lsl ip
    231c:	000d2300 	andeq	r2, sp, r0, lsl #6
    2320:	000d1f00 	andeq	r1, sp, r0, lsl #30
    2324:	8d540f00 	ldclhi	15, cr0, [r4, #-0]
    2328:	03080000 	movweq	r0, #32768	; 0x8000
    232c:	01100000 	tsteq	r0, r0
    2330:	01f30350 	mvnseq	r0, r0, asr r3
    2334:	51011050 	qaddpl	r1, r0, r1
    2338:	00003101 	andeq	r3, r0, r1, lsl #2
    233c:	0006e611 	andeq	lr, r6, r1, lsl r6
    2340:	06140100 	ldreq	r0, [r4], -r0, lsl #2
    2344:	00008cf4 	strdeq	r8, [r0], -r4
    2348:	00000054 	andeq	r0, r0, r4, asr r0
    234c:	03a69c01 			; <UNDEFINED> instruction: 0x03a69c01
    2350:	700e0000 	andvc	r0, lr, r0
    2354:	01006e69 	tsteq	r0, r9, ror #28
    2358:	002c2114 	eoreq	r2, ip, r4, lsl r1
    235c:	0d480000 	stcleq	0, cr0, [r8, #-0]
    2360:	0d440000 	stcleq	0, cr0, [r4, #-0]
    2364:	660e0000 	strvs	r0, [lr], -r0
    2368:	14010076 	strne	r0, [r1], #-118	; 0xffffff8a
    236c:	00010f32 	andeq	r0, r1, r2, lsr pc
    2370:	000d6a00 	andeq	r6, sp, r0, lsl #20
    2374:	000d6600 	andeq	r6, sp, r0, lsl #12
    2378:	073e1400 	ldreq	r1, [lr, -r0, lsl #8]!
    237c:	15010000 	strne	r0, [r1, #-0]
    2380:	0000620e 	andeq	r6, r0, lr, lsl #4
    2384:	000d8d00 	andeq	r8, sp, r0, lsl #26
    2388:	000d8b00 	andeq	r8, sp, r0, lsl #22
    238c:	07121400 	ldreq	r1, [r2, -r0, lsl #8]
    2390:	16010000 	strne	r0, [r1], -r0
    2394:	0000620e 	andeq	r6, r0, lr, lsl #4
    2398:	000da200 	andeq	sl, sp, r0, lsl #4
    239c:	000da000 	andeq	sl, sp, r0
    23a0:	07021400 	streq	r1, [r2, -r0, lsl #8]
    23a4:	17010000 	strne	r0, [r1, -r0]
    23a8:	0000620e 	andeq	r6, r0, lr, lsl #4
    23ac:	000db700 	andeq	fp, sp, r0, lsl #14
    23b0:	000db500 	andeq	fp, sp, r0, lsl #10
    23b4:	8d201200 	sfmhi	f1, 4, [r0, #-0]
    23b8:	03a60000 			; <UNDEFINED> instruction: 0x03a60000
    23bc:	03950000 	orrseq	r0, r5, #0, 0
    23c0:	01100000 	tsteq	r0, r0
    23c4:	00770250 	rsbseq	r0, r7, r0, asr r2
    23c8:	8d400f00 	stclhi	15, cr0, [r0, #-0]
    23cc:	03b20000 			; <UNDEFINED> instruction: 0x03b20000
    23d0:	01100000 	tsteq	r0, r0
    23d4:	00770250 	rsbseq	r0, r7, r0, asr r2
    23d8:	d2150000 	andsle	r0, r5, #0, 0
    23dc:	d2000001 	andle	r0, r0, #1, 0
    23e0:	02000001 	andeq	r0, r0, #1, 0
    23e4:	2c150aad 			; <UNDEFINED> instruction: 0x2c150aad
    23e8:	2c000002 	stccs	0, cr0, [r0], {2}
    23ec:	02000002 	andeq	r0, r0, #2, 0
    23f0:	490006a1 	stmdbmi	r0, {r0, r5, r7, r9, sl}
    23f4:	04000001 	streq	r0, [r0], #-1
    23f8:	000daa00 	andeq	sl, sp, r0, lsl #20
    23fc:	0e010400 	cfcpyseq	mvf0, mvf1
    2400:	0c000001 	stceq	0, cr0, [r0], {1}
    2404:	0000078f 	andeq	r0, r0, pc, lsl #15
    2408:	00000306 	andeq	r0, r0, r6, lsl #6
    240c:	00008ddc 	ldrdeq	r8, [r0], -ip
    2410:	0000003c 	andeq	r0, r0, ip, lsr r0
    2414:	000011df 	ldrdeq	r1, [r0], -pc	; <UNPREDICTABLE>
    2418:	69050402 	stmdbvs	r5, {r1, sl}
    241c:	0300746e 	movweq	r7, #1134	; 0x46e
    2420:	00dd0704 	sbcseq	r0, sp, r4, lsl #14
    2424:	01030000 	mrseq	r0, (UNDEF: 3)
    2428:	00006e06 	andeq	r6, r0, r6, lsl #28
    242c:	05020300 	streq	r0, [r2, #-768]	; 0xfffffd00
    2430:	00000104 	andeq	r0, r0, r4, lsl #2
    2434:	ef050403 	svc	0x00050403
    2438:	03000000 	movweq	r0, #0
    243c:	00ea0508 	rsceq	r0, sl, r8, lsl #10
    2440:	01030000 	mrseq	r0, (UNDEF: 3)
    2444:	00006c08 	andeq	r6, r0, r8, lsl #24
    2448:	07020300 	streq	r0, [r2, -r0, lsl #6]
    244c:	00000093 	muleq	r0, r3, r0
    2450:	d8070403 	stmdale	r7, {r0, r1, sl}
    2454:	03000000 	movweq	r0, #0
    2458:	00d30708 	sbcseq	r0, r3, r8, lsl #14
    245c:	25040000 	strcs	r0, [r4, #-0]
    2460:	7a000000 	bvc	2468 <__code_start__-0x5b98>
    2464:	05000000 	streq	r0, [r0, #-0]
    2468:	00000025 	andeq	r0, r0, r5, lsr #32
    246c:	00f80600 	rscseq	r0, r8, r0, lsl #12
    2470:	1c020000 	stcne	0, cr0, [r2], {-0}
    2474:	0000860e 	andeq	r8, r0, lr, lsl #12
    2478:	6b040700 	blvs	104080 <__bss_end__+0xfabb8>
    247c:	04000000 	streq	r0, [r0], #-0
    2480:	00000025 	andeq	r0, r0, r5, lsr #32
    2484:	0000009b 	muleq	r0, fp, r0
    2488:	00009b05 	andeq	r9, r0, r5, lsl #22
    248c:	04070000 	streq	r0, [r7], #-0
    2490:	000000a8 	andeq	r0, r0, r8, lsr #1
    2494:	75080103 	strvc	r0, [r8, #-259]	; 0xfffffefd
    2498:	08000000 	stmdaeq	r0, {}	; <UNPREDICTABLE>
    249c:	000000a1 	andeq	r0, r0, r1, lsr #1
    24a0:	00034106 	andeq	r4, r3, r6, lsl #2
    24a4:	0e210200 	cdpeq	2, 2, cr0, cr1, cr0, {0}
    24a8:	000000b9 	strheq	r0, [r0], -r9
    24ac:	008c0407 	addeq	r0, ip, r7, lsl #8
    24b0:	7a090000 	bvc	2424b8 <__bss_end__+0x238ff0>
    24b4:	01000000 	mrseq	r0, (UNDEF: 0)
    24b8:	03050706 	movweq	r0, #22278	; 0x5706
    24bc:	000090bc 	strheq	r9, [r0], -ip
    24c0:	0007820a 	andeq	r8, r7, sl, lsl #4
    24c4:	060b0100 	streq	r0, [fp], -r0, lsl #2
    24c8:	00008e08 	andeq	r8, r0, r8, lsl #28
    24cc:	00000010 	andeq	r0, r0, r0, lsl r0
    24d0:	00f19c01 	rscseq	r9, r1, r1, lsl #24
    24d4:	660b0000 	strvs	r0, [fp], -r0
    24d8:	0b010070 	bleq	426a0 <__bss_end__+0x391d8>
    24dc:	00008619 	andeq	r8, r0, r9, lsl r6
    24e0:	00500100 	subseq	r0, r0, r0, lsl #2
    24e4:	00079e0c 	andeq	r9, r7, ip, lsl #28
    24e8:	06080100 	streq	r0, [r8], -r0, lsl #2
    24ec:	00008df0 	strdeq	r8, [r0], -r0
    24f0:	00000018 	andeq	r0, r0, r8, lsl r0
    24f4:	710d9c01 	tstvc	sp, r1, lsl #24
    24f8:	01000007 	tsteq	r0, r7
    24fc:	00250c03 	eoreq	r0, r5, r3, lsl #24
    2500:	8ddc0000 	ldclhi	0, cr0, [ip]
    2504:	00140000 	andseq	r0, r4, r0
    2508:	9c010000 	stcls	0, cr0, [r1], {-0}
    250c:	00000140 	andeq	r0, r0, r0, asr #2
    2510:	0100630e 	tsteq	r0, lr, lsl #6
    2514:	00252103 	eoreq	r2, r5, r3, lsl #2
    2518:	0dce0000 	stcleq	0, cr0, [lr]
    251c:	0dca0000 	stcleq	0, cr0, [sl]
    2520:	e80f0000 	stmda	pc, {}	; <UNPREDICTABLE>
    2524:	4000008d 	andmi	r0, r0, sp, lsl #1
    2528:	10000001 	andne	r0, r0, r1
    252c:	74025001 	strvc	r5, [r2], #-1
    2530:	11000000 	mrsne	r0, (UNDEF: 0)
    2534:	0000059c 	muleq	r0, ip, r5
    2538:	0000059c 	muleq	r0, ip, r5
    253c:	00063b02 	andeq	r3, r6, r2, lsl #22
    2540:	00000137 	andeq	r0, r0, r7, lsr r1
    2544:	0eb90004 	cdpeq	0, 11, cr0, cr9, cr4, {0}
    2548:	01040000 	mrseq	r0, (UNDEF: 4)
    254c:	0000010e 	andeq	r0, r0, lr, lsl #2
    2550:	0007ad0c 	andeq	sl, r7, ip, lsl #26
    2554:	00030600 	andeq	r0, r3, r0, lsl #12
    2558:	008e1800 	addeq	r1, lr, r0, lsl #16
    255c:	00003400 	andeq	r3, r0, r0, lsl #8
    2560:	00128900 	andseq	r8, r2, r0, lsl #18
    2564:	05040200 	streq	r0, [r4, #-512]	; 0xfffffe00
    2568:	00746e69 	rsbseq	r6, r4, r9, ror #28
    256c:	dd070403 	cfstrsle	mvf0, [r7, #-12]
    2570:	03000000 	movweq	r0, #0
    2574:	006e0601 	rsbeq	r0, lr, r1, lsl #12
    2578:	02030000 	andeq	r0, r3, #0, 0
    257c:	00010405 	andeq	r0, r1, r5, lsl #8
    2580:	05040300 	streq	r0, [r4, #-768]	; 0xfffffd00
    2584:	000000ef 	andeq	r0, r0, pc, ror #1
    2588:	ea050803 	b	14459c <__bss_end__+0x13b0d4>
    258c:	03000000 	movweq	r0, #0
    2590:	006c0801 	rsbeq	r0, ip, r1, lsl #16
    2594:	02030000 	andeq	r0, r3, #0, 0
    2598:	00009307 	andeq	r9, r0, r7, lsl #6
    259c:	07040300 	streq	r0, [r4, -r0, lsl #6]
    25a0:	000000d8 	ldrdeq	r0, [r0], -r8
    25a4:	d3070803 	movwle	r0, #30723	; 0x7803
    25a8:	04000000 	streq	r0, [r0], #-0
    25ac:	00000025 	andeq	r0, r0, r5, lsr #32
    25b0:	0000007a 	andeq	r0, r0, sl, ror r0
    25b4:	00002505 	andeq	r2, r0, r5, lsl #10
    25b8:	f8060000 			; <UNDEFINED> instruction: 0xf8060000
    25bc:	02000000 	andeq	r0, r0, #0, 0
    25c0:	00860e1c 	addeq	r0, r6, ip, lsl lr
    25c4:	04070000 	streq	r0, [r7], #-0
    25c8:	0000006b 	andeq	r0, r0, fp, rrx
    25cc:	00002504 	andeq	r2, r0, r4, lsl #10
    25d0:	00009b00 	andeq	r9, r0, r0, lsl #22
    25d4:	009b0500 	addseq	r0, fp, r0, lsl #10
    25d8:	07000000 	streq	r0, [r0, -r0]
    25dc:	0000a804 	andeq	sl, r0, r4, lsl #16
    25e0:	08010300 	stmdaeq	r1, {r8, r9}
    25e4:	00000075 	andeq	r0, r0, r5, ror r0
    25e8:	0000a108 	andeq	sl, r0, r8, lsl #2
    25ec:	03410600 	movteq	r0, #5632	; 0x1600
    25f0:	21020000 	mrscs	r0, (UNDEF: 2)
    25f4:	0000b90e 	andeq	fp, r0, lr, lsl #18
    25f8:	8c040700 	stchi	7, cr0, [r4], {-0}
    25fc:	09000000 	stmdbeq	r0, {}	; <UNPREDICTABLE>
    2600:	000003e0 	andeq	r0, r0, r0, ror #7
    2604:	34070401 	strcc	r0, [r7], #-1025	; 0xfffffbff
    2608:	18000001 	stmdane	r0, {r0}
    260c:	3400008e 	strcc	r0, [r0], #-142	; 0xffffff72
    2610:	01000000 	mrseq	r0, (UNDEF: 0)
    2614:	0001349c 	muleq	r1, ip, r4
    2618:	07bb0a00 	ldreq	r0, [fp, r0, lsl #20]!
    261c:	04010000 	streq	r0, [r1], #-0
    2620:	00013415 	andeq	r3, r1, r5, lsl r4
    2624:	0b500100 	bleq	1402a2c <__bss_end__+0x13f9564>
    2628:	00637273 	rsbeq	r7, r3, r3, ror r2
    262c:	9b270401 	blls	9c3638 <__bss_end__+0x9ba170>
    2630:	f0000000 			; <UNDEFINED> instruction: 0xf0000000
    2634:	ec00000d 	stc	0, cr0, [r0], {13}
    2638:	0c00000d 	stceq	0, cr0, [r0], {13}
    263c:	01003173 	tsteq	r0, r3, ror r1
    2640:	01340b05 	teqeq	r4, r5, lsl #22
    2644:	0e1b0000 	cdpeq	0, 1, cr0, cr11, cr0, {0}
    2648:	0e110000 	cdpeq	0, 1, cr0, cr1, cr0, {0}
    264c:	730c0000 	movwvc	r0, #49152	; 0xc000
    2650:	06010032 			; <UNDEFINED> instruction: 0x06010032
    2654:	00009b11 	andeq	r9, r0, r1, lsl fp
    2658:	000e6000 	andeq	r6, lr, r0
    265c:	000e5c00 	andeq	r5, lr, r0, lsl #24
    2660:	00630c00 	rsbeq	r0, r3, r0, lsl #24
    2664:	a10a0701 	tstge	sl, r1, lsl #14
    2668:	84000000 	strhi	r0, [r0], #-0
    266c:	8000000e 	andhi	r0, r0, lr
    2670:	0000000e 	andeq	r0, r0, lr
    2674:	00a10407 	adceq	r0, r1, r7, lsl #8
    2678:	4e000000 	cdpmi	0, 0, cr0, cr0, cr0, {0}
    267c:	04000001 	streq	r0, [r0], #-1
    2680:	000f6f00 	andeq	r6, pc, r0, lsl #30
    2684:	0e010400 	cfcpyseq	mvf0, mvf1
    2688:	0c000001 	stceq	0, cr0, [r0], {1}
    268c:	000007c7 	andeq	r0, r0, r7, asr #15
    2690:	00000306 	andeq	r0, r0, r6, lsl #6
    2694:	00000028 	andeq	r0, r0, r8, lsr #32
    2698:	00000000 	andeq	r0, r0, r0
    269c:	0000137f 	andeq	r1, r0, pc, ror r3
    26a0:	69050402 	stmdbvs	r5, {r1, sl}
    26a4:	0300746e 	movweq	r7, #1134	; 0x46e
    26a8:	000007c0 	andeq	r0, r0, r0, asr #15
    26ac:	3817d103 	ldmdacc	r7, {r0, r1, r8, ip, lr, pc}
    26b0:	04000000 	streq	r0, [r0], #-0
    26b4:	00dd0704 	sbcseq	r0, sp, r4, lsl #14
    26b8:	01040000 	mrseq	r0, (UNDEF: 4)
    26bc:	00006e06 	andeq	r6, r0, r6, lsl #28
    26c0:	05020400 	streq	r0, [r2, #-1024]	; 0xfffffc00
    26c4:	00000104 	andeq	r0, r0, r4, lsl #2
    26c8:	ef050404 	svc	0x00050404
    26cc:	04000000 	streq	r0, [r0], #-0
    26d0:	00ea0508 	rsceq	r0, sl, r8, lsl #10
    26d4:	01040000 	mrseq	r0, (UNDEF: 4)
    26d8:	00006c08 	andeq	r6, r0, r8, lsl #24
    26dc:	005b0500 	subseq	r0, fp, r0, lsl #10
    26e0:	02040000 	andeq	r0, r4, #0, 0
    26e4:	00009307 	andeq	r9, r0, r7, lsl #6
    26e8:	07040400 	streq	r0, [r4, -r0, lsl #8]
    26ec:	000000d8 	ldrdeq	r0, [r0], -r8
    26f0:	d3070804 	movwle	r0, #30724	; 0x7804
    26f4:	06000000 	streq	r0, [r0], -r0
    26f8:	00000025 	andeq	r0, r0, r5, lsr #32
    26fc:	0000008b 	andeq	r0, r0, fp, lsl #1
    2700:	00002507 	andeq	r2, r0, r7, lsl #10
    2704:	f8080000 			; <UNDEFINED> instruction: 0xf8080000
    2708:	02000000 	andeq	r0, r0, #0, 0
    270c:	00970e1c 	addseq	r0, r7, ip, lsl lr
    2710:	04090000 	streq	r0, [r9], #-0
    2714:	0000007c 	andeq	r0, r0, ip, ror r0
    2718:	00002506 	andeq	r2, r0, r6, lsl #10
    271c:	0000ac00 	andeq	sl, r0, r0, lsl #24
    2720:	00ac0700 	adceq	r0, ip, r0, lsl #14
    2724:	09000000 	stmdbeq	r0, {}	; <UNPREDICTABLE>
    2728:	0000b904 	andeq	fp, r0, r4, lsl #18
    272c:	08010400 	stmdaeq	r1, {sl}
    2730:	00000075 	andeq	r0, r0, r5, ror r0
    2734:	0000b205 	andeq	fp, r0, r5, lsl #4
    2738:	03410800 	movteq	r0, #6144	; 0x1800
    273c:	21020000 	mrscs	r0, (UNDEF: 2)
    2740:	0000ca0e 	andeq	ip, r0, lr, lsl #20
    2744:	9d040900 	vstrls.16	s0, [r4, #-0]	; <UNPREDICTABLE>
    2748:	0a000000 	beq	2750 <__code_start__-0x58b0>
    274c:	00000430 	andeq	r0, r0, r0, lsr r4
    2750:	25050401 	strcs	r0, [r5, #-1025]	; 0xfffffbff
    2754:	4c000000 	stcmi	0, cr0, [r0], {-0}
    2758:	2c00008e 	stccs	0, cr0, [r0], {142}	; 0x8e
    275c:	01000000 	mrseq	r0, (UNDEF: 0)
    2760:	00014b9c 	muleq	r1, ip, fp
    2764:	735f0b00 	cmpvc	pc, #0, 22
    2768:	04010031 	streq	r0, [r1], #-49	; 0xffffffcf
    276c:	0000ac19 	andeq	sl, r0, r9, lsl ip
    2770:	000ea600 	andeq	sl, lr, r0, lsl #12
    2774:	000ea200 	andeq	sl, lr, r0, lsl #4
    2778:	735f0b00 	cmpvc	pc, #0, 22
    277c:	04010032 	streq	r0, [r1], #-50	; 0xffffffce
    2780:	0000ac2a 	andeq	sl, r0, sl, lsr #24
    2784:	000ecb00 	andeq	ip, lr, r0, lsl #22
    2788:	000ec700 	andeq	ip, lr, r0, lsl #14
    278c:	006e0b00 	rsbeq	r0, lr, r0, lsl #22
    2790:	2c360401 	cfldrscs	mvf0, [r6], #-4
    2794:	f2000000 	vhadd.s8	d0, d0, d0
    2798:	ec00000e 	stc	0, cr0, [r0], {14}
    279c:	0c00000e 	stceq	0, cr0, [r0], {14}
    27a0:	01003173 	tsteq	r0, r3, ror r1
    27a4:	014b1a05 	cmpeq	fp, r5, lsl #20
    27a8:	0f250000 	svceq	0x00250000
    27ac:	0f1d0000 	svceq	0x001d0000
    27b0:	730c0000 	movwvc	r0, #49152	; 0xc000
    27b4:	05010032 	streq	r0, [r1, #-50]	; 0xffffffce
    27b8:	00014b2c 	andeq	r4, r1, ip, lsr #22
    27bc:	000f6100 	andeq	r6, pc, r0, lsl #2
    27c0:	000f5b00 	andeq	r5, pc, r0, lsl #22
    27c4:	04090000 	streq	r0, [r9], #-0
    27c8:	00000062 	andeq	r0, r0, r2, rrx
	...

Disassembly of section .debug_abbrev:

00000000 <.debug_abbrev>:
       0:	25011101 	strcs	r1, [r1, #-257]	; 0xfffffeff
       4:	030b130e 	movweq	r1, #45838	; 0xb30e
       8:	110e1b0e 	tstne	lr, lr, lsl #22
       c:	10061201 	andne	r1, r6, r1, lsl #4
      10:	02000017 	andeq	r0, r0, #23, 0
      14:	0b0b0024 	bleq	2c00ac <__bss_end__+0x2b6be4>
      18:	08030b3e 	stmdaeq	r3, {r1, r2, r3, r4, r5, r8, r9, fp}
      1c:	24030000 	strcs	r0, [r3], #-0
      20:	3e0b0b00 	vmlacc.f64	d0, d11, d0
      24:	000e030b 	andeq	r0, lr, fp, lsl #6
      28:	01150400 	tsteq	r5, r0, lsl #8
      2c:	13491927 	movtne	r1, #39207	; 0x9927
      30:	00001301 	andeq	r1, r0, r1, lsl #6
      34:	49000505 	stmdbmi	r0, {r0, r2, r8, sl}
      38:	06000013 			; <UNDEFINED> instruction: 0x06000013
      3c:	0e030034 	mcreq	0, 0, r0, cr3, cr4, {1}
      40:	0b3b0b3a 	bleq	ec2d30 <__bss_end__+0xeb9868>
      44:	13490b39 	movtne	r0, #39737	; 0x9b39
      48:	193c193f 	ldmdbne	ip!, {r0, r1, r2, r3, r4, r5, r8, fp, ip}
      4c:	0f070000 	svceq	0x00070000
      50:	490b0b00 	stmdbmi	fp, {r8, r9, fp}
      54:	08000013 	stmdaeq	r0, {r0, r1, r4}
      58:	13490026 	movtne	r0, #36902	; 0x9026
      5c:	2e090000 	cdpcs	0, 0, cr0, cr9, cr0, {0}
      60:	03193f01 	tsteq	r9, #1, 30
      64:	3b0b3a0e 	blcc	2ce8a4 <__bss_end__+0x2c53dc>
      68:	270b390b 	strcs	r3, [fp, -fp, lsl #18]
      6c:	12011119 	andne	r1, r1, #1073741830	; 0x40000006
      70:	97184006 	ldrls	r4, [r8, -r6]
      74:	13011942 	movwne	r1, #6466	; 0x1942
      78:	340a0000 	strcc	r0, [sl], #-0
      7c:	3a080300 	bcc	200c84 <__bss_end__+0x1f77bc>
      80:	390b3b0b 	stmdbcc	fp, {r0, r1, r3, r8, r9, fp, ip, sp}
      84:	0213490b 	andseq	r4, r3, #180224	; 0x2c000
      88:	1742b717 	smlaldne	fp, r2, r7, r7
      8c:	0b0b0000 	bleq	2c0094 <__bss_end__+0x2b6bcc>
      90:	12011101 	andne	r1, r1, #1073741824	; 0x40000000
      94:	00130106 	andseq	r0, r3, r6, lsl #2
      98:	82890c00 	addhi	r0, r9, #0, 24
      9c:	01110101 	tsteq	r1, r1, lsl #2
      a0:	13011331 	movwne	r1, #4913	; 0x1331
      a4:	8a0d0000 	bhi	3400ac <__bss_end__+0x336be4>
      a8:	02000182 	andeq	r0, r0, #-2147483616	; 0x80000020
      ac:	18429118 	stmdane	r2, {r3, r4, r8, ip, pc}^
      b0:	890e0000 	stmdbhi	lr, {}	; <UNPREDICTABLE>
      b4:	11000182 	smlabbne	r0, r2, r1, r0
      b8:	00133101 	andseq	r3, r3, r1, lsl #2
      bc:	82890f00 	addhi	r0, r9, #0, 30
      c0:	01110101 	tsteq	r1, r1, lsl #2
      c4:	00001331 	andeq	r1, r0, r1, lsr r3
      c8:	3f002e10 	svccc	0x00002e10
      cc:	6e193c19 	mrcvs	12, 0, r3, cr9, cr9, {0}
      d0:	3a0e030e 	bcc	380d10 <__bss_end__+0x377848>
      d4:	390b3b0b 	stmdbcc	fp, {r0, r1, r3, r8, r9, fp, ip, sp}
      d8:	0000000b 	andeq	r0, r0, fp
      dc:	25011101 	strcs	r1, [r1, #-257]	; 0xfffffeff
      e0:	030b130e 	movweq	r1, #45838	; 0xb30e
      e4:	110e1b0e 	tstne	lr, lr, lsl #22
      e8:	10061201 	andne	r1, r6, r1, lsl #4
      ec:	02000017 	andeq	r0, r0, #23, 0
      f0:	0b0b0024 	bleq	2c0188 <__bss_end__+0x2b6cc0>
      f4:	08030b3e 	stmdaeq	r3, {r1, r2, r3, r4, r5, r8, r9, fp}
      f8:	24030000 	strcs	r0, [r3], #-0
      fc:	3e0b0b00 	vmlacc.f64	d0, d11, d0
     100:	000e030b 	andeq	r0, lr, fp, lsl #6
     104:	00160400 	andseq	r0, r6, r0, lsl #8
     108:	0b3a0e03 	bleq	e8391c <__bss_end__+0xe7a454>
     10c:	0b390b3b 	bleq	e42e00 <__bss_end__+0xe39938>
     110:	00001349 	andeq	r1, r0, r9, asr #6
     114:	27011505 	strcs	r1, [r1, -r5, lsl #10]
     118:	01134919 	tsteq	r3, r9, lsl r9
     11c:	06000013 			; <UNDEFINED> instruction: 0x06000013
     120:	13490005 	movtne	r0, #36869	; 0x9005
     124:	34070000 	strcc	r0, [r7], #-0
     128:	3a0e0300 	bcc	380d30 <__bss_end__+0x377868>
     12c:	390b3b0b 	stmdbcc	fp, {r0, r1, r3, r8, r9, fp, ip, sp}
     130:	3f13490b 	svccc	0x0013490b
     134:	00193c19 	andseq	r3, r9, r9, lsl ip
     138:	000f0800 	andeq	r0, pc, r0, lsl #16
     13c:	13490b0b 	movtne	r0, #39691	; 0x9b0b
     140:	26090000 	strcs	r0, [r9], -r0
     144:	00134900 	andseq	r4, r3, r0, lsl #18
     148:	00340a00 	eorseq	r0, r4, r0, lsl #20
     14c:	0b3a0e03 	bleq	e83960 <__bss_end__+0xe7a498>
     150:	0b390b3b 	bleq	e42e44 <__bss_end__+0xe3997c>
     154:	193f1349 	ldmdbne	pc!, {r0, r3, r6, r8, r9, ip}	; <UNPREDICTABLE>
     158:	00001802 	andeq	r1, r0, r2, lsl #16
     15c:	3e01040b 	cdpcc	4, 0, cr0, cr1, cr11, {0}
     160:	490b0b0b 	stmdbmi	fp, {r0, r1, r3, r8, r9, fp}
     164:	3b0b3a13 	blcc	2ce9b8 <__bss_end__+0x2c54f0>
     168:	010b390b 	tsteq	fp, fp, lsl #18
     16c:	0c000013 	stceq	0, cr0, [r0], {19}
     170:	0e030028 	cdpeq	0, 0, cr0, cr3, cr8, {1}
     174:	00000b1c 	andeq	r0, r0, ip, lsl fp
     178:	0300340d 	movweq	r3, #1037	; 0x40d
     17c:	3b0b3a0e 	blcc	2ce9bc <__bss_end__+0x2c54f4>
     180:	490b390b 	stmdbmi	fp, {r0, r1, r3, r8, fp, ip, sp}
     184:	00180213 	andseq	r0, r8, r3, lsl r2
     188:	012e0e00 			; <UNDEFINED> instruction: 0x012e0e00
     18c:	0e03193f 			; <UNDEFINED> instruction: 0x0e03193f
     190:	0b3b0b3a 	bleq	ec2e80 <__bss_end__+0xeb99b8>
     194:	19270b39 	stmdbne	r7!, {r0, r3, r4, r5, r8, r9, fp}
     198:	01111349 	tsteq	r1, r9, asr #6
     19c:	18400612 	stmdane	r0, {r1, r4, r9, sl}^
     1a0:	01194297 			; <UNDEFINED> instruction: 0x01194297
     1a4:	0f000013 	svceq	0x00000013
     1a8:	0e030005 	cdpeq	0, 0, cr0, cr3, cr5, {0}
     1ac:	0b3b0b3a 	bleq	ec2e9c <__bss_end__+0xeb99d4>
     1b0:	13490b39 	movtne	r0, #39737	; 0x9b39
     1b4:	42b71702 	adcsmi	r1, r7, #524288	; 0x80000
     1b8:	10000017 	andne	r0, r0, r7, lsl r0
     1bc:	08030034 	stmdaeq	r3, {r2, r4, r5}
     1c0:	0b3b0b3a 	bleq	ec2eb0 <__bss_end__+0xeb99e8>
     1c4:	13490b39 	movtne	r0, #39737	; 0x9b39
     1c8:	42b71702 	adcsmi	r1, r7, #524288	; 0x80000
     1cc:	11000017 	tstne	r0, r7, lsl r0
     1d0:	01018289 	smlabbeq	r1, r9, r2, r8
     1d4:	13310111 	teqne	r1, #1073741828	; 0x40000004
     1d8:	00001301 	andeq	r1, r0, r1, lsl #6
     1dc:	01828a12 	orreq	r8, r2, r2, lsl sl
     1e0:	91180200 	tstls	r8, r0, lsl #4
     1e4:	00001842 	andeq	r1, r0, r2, asr #16
     1e8:	01828913 	orreq	r8, r2, r3, lsl r9
     1ec:	31011101 	tstcc	r1, r1, lsl #2
     1f0:	14000013 	strne	r0, [r0], #-19	; 0xffffffed
     1f4:	193f012e 	ldmdbne	pc!, {r1, r2, r3, r5, r8}	; <UNPREDICTABLE>
     1f8:	0b3a0e03 	bleq	e83a0c <__bss_end__+0xe7a544>
     1fc:	0b390b3b 	bleq	e42ef0 <__bss_end__+0xe39a28>
     200:	01111927 	tsteq	r1, r7, lsr #18
     204:	18400612 	stmdane	r0, {r1, r4, r9, sl}^
     208:	01194297 			; <UNDEFINED> instruction: 0x01194297
     20c:	15000013 	strne	r0, [r0, #-19]	; 0xffffffed
     210:	08030005 	stmdaeq	r3, {r0, r2}
     214:	0b3b0b3a 	bleq	ec2f04 <__bss_end__+0xeb9a3c>
     218:	13490b39 	movtne	r0, #39737	; 0x9b39
     21c:	42b71702 	adcsmi	r1, r7, #524288	; 0x80000
     220:	16000017 			; <UNDEFINED> instruction: 0x16000017
     224:	00018289 	andeq	r8, r1, r9, lsl #5
     228:	13310111 	teqne	r1, #1073741828	; 0x40000004
     22c:	2e170000 	cdpcs	0, 1, cr0, cr7, cr0, {0}
     230:	3a0e0301 	bcc	380e3c <__bss_end__+0x377974>
     234:	390b3b0b 	stmdbcc	fp, {r0, r1, r3, r8, r9, fp, ip, sp}
     238:	1119270b 	tstne	r9, fp, lsl #14
     23c:	40061201 	andmi	r1, r6, r1, lsl #4
     240:	19429718 	stmdbne	r2, {r3, r4, r8, r9, sl, ip, pc}^
     244:	00001301 	andeq	r1, r0, r1, lsl #6
     248:	03003418 	movweq	r3, #1048	; 0x418
     24c:	3413490e 	ldrcc	r4, [r3], #-2318	; 0xfffff6f2
     250:	00180219 	andseq	r0, r8, r9, lsl r2
     254:	01011900 	tsteq	r1, r0, lsl #18
     258:	13011349 	movwne	r1, #4937	; 0x1349
     25c:	211a0000 	tstcs	sl, r0
     260:	2f134900 	svccs	0x00134900
     264:	1b00000b 	blne	298 <__code_start__-0x7d68>
     268:	193f002e 	ldmdbne	pc!, {r1, r2, r3, r5}	; <UNPREDICTABLE>
     26c:	0e6e193c 			; <UNDEFINED> instruction: 0x0e6e193c
     270:	0b3a0e03 	bleq	e83a84 <__bss_end__+0xe7a5bc>
     274:	0b390b3b 	bleq	e42f68 <__bss_end__+0xe39aa0>
     278:	01000000 	mrseq	r0, (UNDEF: 0)
     27c:	0e250111 	mcreq	1, 1, r0, cr5, cr1, {0}
     280:	0e030b13 	vmoveq.32	d3[0], r0
     284:	01110e1b 	tsteq	r1, fp, lsl lr
     288:	17100612 			; <UNDEFINED> instruction: 0x17100612
     28c:	16020000 	strne	r0, [r2], -r0
     290:	3a0e0300 	bcc	380e98 <__bss_end__+0x3779d0>
     294:	390b3b0b 	stmdbcc	fp, {r0, r1, r3, r8, r9, fp, ip, sp}
     298:	0013490b 	andseq	r4, r3, fp, lsl #18
     29c:	01130300 	tsteq	r3, r0, lsl #6
     2a0:	0b0b0e03 	bleq	2c3ab4 <__bss_end__+0x2ba5ec>
     2a4:	0b3b0b3a 	bleq	ec2f94 <__bss_end__+0xeb9acc>
     2a8:	00001301 	andeq	r1, r0, r1, lsl #6
     2ac:	03000d04 	movweq	r0, #3332	; 0xd04
     2b0:	3813490e 	ldmdacc	r3, {r1, r2, r3, r8, fp, lr}
     2b4:	0019340b 	andseq	r3, r9, fp, lsl #8
     2b8:	000f0500 	andeq	r0, pc, r0, lsl #10
     2bc:	00000b0b 	andeq	r0, r0, fp, lsl #22
     2c0:	0b002406 	bleq	92e0 <buf.3918+0x21c>
     2c4:	030b3e0b 	movweq	r3, #48651	; 0xbe0b
     2c8:	07000008 	streq	r0, [r0, -r8]
     2cc:	0b0b0024 	bleq	2c0364 <__bss_end__+0x2b6e9c>
     2d0:	0e030b3e 	vmoveq.16	d3[0], r0
     2d4:	15080000 	strne	r0, [r8, #-0]
     2d8:	49192701 	ldmdbmi	r9, {r0, r8, r9, sl, sp}
     2dc:	00130113 	andseq	r0, r3, r3, lsl r1
     2e0:	00050900 	andeq	r0, r5, r0, lsl #18
     2e4:	00001349 	andeq	r1, r0, r9, asr #6
     2e8:	0300340a 	movweq	r3, #1034	; 0x40a
     2ec:	3b0b3a0e 	blcc	2ceb2c <__bss_end__+0x2c5664>
     2f0:	490b390b 	stmdbmi	fp, {r0, r1, r3, r8, fp, ip, sp}
     2f4:	3c193f13 	ldccc	15, cr3, [r9], {19}
     2f8:	0b000019 	bleq	364 <__code_start__-0x7c9c>
     2fc:	0b0b000f 	bleq	2c0340 <__bss_end__+0x2b6e78>
     300:	00001349 	andeq	r1, r0, r9, asr #6
     304:	4900260c 	stmdbmi	r0, {r2, r3, r9, sl, sp}
     308:	0d000013 	stceq	0, cr0, [r0, #-76]	; 0xffffffb4
     30c:	193f012e 	ldmdbne	pc!, {r1, r2, r3, r5, r8}	; <UNPREDICTABLE>
     310:	0b3a0e03 	bleq	e83b24 <__bss_end__+0xe7a65c>
     314:	0b390b3b 	bleq	e43008 <__bss_end__+0xe39b40>
     318:	13491927 	movtne	r1, #39207	; 0x9927
     31c:	06120111 			; <UNDEFINED> instruction: 0x06120111
     320:	42971840 	addsmi	r1, r7, #64, 16	; 0x400000
     324:	00130119 	andseq	r0, r3, r9, lsl r1
     328:	00050e00 	andeq	r0, r5, r0, lsl #28
     32c:	0b3a0803 	bleq	e82340 <__bss_end__+0xe78e78>
     330:	0b390b3b 	bleq	e43024 <__bss_end__+0xe39b5c>
     334:	18021349 	stmdane	r2, {r0, r3, r6, r8, r9, ip}
     338:	180f0000 	stmdane	pc, {}	; <UNPREDICTABLE>
     33c:	10000000 	andne	r0, r0, r0
     340:	08030034 	stmdaeq	r3, {r2, r4, r5}
     344:	0b3b0b3a 	bleq	ec3034 <__bss_end__+0xeb9b6c>
     348:	13490b39 	movtne	r0, #39737	; 0x9b39
     34c:	00001802 	andeq	r1, r0, r2, lsl #16
     350:	03003411 	movweq	r3, #1041	; 0x411
     354:	3b0b3a0e 	blcc	2ceb94 <__bss_end__+0x2c56cc>
     358:	490b390b 	stmdbmi	fp, {r0, r1, r3, r8, fp, ip, sp}
     35c:	00180213 	andseq	r0, r8, r3, lsl r2
     360:	00341200 	eorseq	r1, r4, r0, lsl #4
     364:	0b3a0803 	bleq	e82378 <__bss_end__+0xe78eb0>
     368:	0b390b3b 	bleq	e4305c <__bss_end__+0xe39b94>
     36c:	17021349 	strne	r1, [r2, -r9, asr #6]
     370:	001742b7 			; <UNDEFINED> instruction: 0x001742b7
     374:	82891300 	addhi	r1, r9, #0, 6
     378:	01110101 	tsteq	r1, r1, lsl #2
     37c:	13011331 	movwne	r1, #4913	; 0x1331
     380:	8a140000 	bhi	500388 <__bss_end__+0x4f6ec0>
     384:	02000182 	andeq	r0, r0, #-2147483616	; 0x80000020
     388:	18429118 	stmdane	r2, {r3, r4, r8, ip, pc}^
     38c:	89150000 	ldmdbhi	r5, {}	; <UNPREDICTABLE>
     390:	11010182 	smlabbne	r1, r2, r1, r0
     394:	16000001 	strne	r0, [r0], -r1
     398:	13490101 	movtne	r0, #37121	; 0x9101
     39c:	00001301 	andeq	r1, r0, r1, lsl #6
     3a0:	49002117 	stmdbmi	r0, {r0, r1, r2, r4, r8, sp}
     3a4:	00052f13 	andeq	r2, r5, r3, lsl pc
     3a8:	002e1800 	eoreq	r1, lr, r0, lsl #16
     3ac:	193c193f 	ldmdbne	ip!, {r0, r1, r2, r3, r4, r5, r8, fp, ip}
     3b0:	0e030e6e 	cdpeq	14, 0, cr0, cr3, cr14, {3}
     3b4:	0b3b0b3a 	bleq	ec30a4 <__bss_end__+0xeb9bdc>
     3b8:	00000b39 	andeq	r0, r0, r9, lsr fp
     3bc:	01110100 	tsteq	r1, r0, lsl #2
     3c0:	0b130e25 	bleq	4c3c5c <__bss_end__+0x4ba794>
     3c4:	0e1b0e03 	cdpeq	14, 1, cr0, cr11, cr3, {0}
     3c8:	06120111 			; <UNDEFINED> instruction: 0x06120111
     3cc:	00001710 	andeq	r1, r0, r0, lsl r7
     3d0:	0b002402 	bleq	93e0 <buf.3918+0x31c>
     3d4:	030b3e0b 	movweq	r3, #48651	; 0xbe0b
     3d8:	03000008 	movweq	r0, #8
     3dc:	0b0b0024 	bleq	2c0474 <__bss_end__+0x2b6fac>
     3e0:	0e030b3e 	vmoveq.16	d3[0], r0
     3e4:	15040000 	strne	r0, [r4, #-0]
     3e8:	49192701 	ldmdbmi	r9, {r0, r8, r9, sl, sp}
     3ec:	00130113 	andseq	r0, r3, r3, lsl r1
     3f0:	00050500 	andeq	r0, r5, r0, lsl #10
     3f4:	00001349 	andeq	r1, r0, r9, asr #6
     3f8:	03003406 	movweq	r3, #1030	; 0x406
     3fc:	3b0b3a0e 	blcc	2cec3c <__bss_end__+0x2c5774>
     400:	490b390b 	stmdbmi	fp, {r0, r1, r3, r8, fp, ip, sp}
     404:	3c193f13 	ldccc	15, cr3, [r9], {19}
     408:	07000019 	smladeq	r0, r9, r0, r0
     40c:	0b0b000f 	bleq	2c0450 <__bss_end__+0x2b6f88>
     410:	00001349 	andeq	r1, r0, r9, asr #6
     414:	49002608 	stmdbmi	r0, {r3, r9, sl, sp}
     418:	09000013 	stmdbeq	r0, {r0, r1, r4}
     41c:	13470034 	movtne	r0, #28724	; 0x7034
     420:	0b3b0b3a 	bleq	ec3110 <__bss_end__+0xeb9c48>
     424:	18020b39 	stmdane	r2, {r0, r3, r4, r5, r8, r9, fp}
     428:	2e0a0000 	cdpcs	0, 0, cr0, cr10, cr0, {0}
     42c:	03193f01 	tsteq	r9, #1, 30
     430:	3b0b3a0e 	blcc	2cec70 <__bss_end__+0x2c57a8>
     434:	270b390b 	strcs	r3, [fp, -fp, lsl #18]
     438:	11134919 	tstne	r3, r9, lsl r9
     43c:	40061201 	andmi	r1, r6, r1, lsl #4
     440:	19429618 	stmdbne	r2, {r3, r4, r9, sl, ip, pc}^
     444:	050b0000 	streq	r0, [fp, #-0]
     448:	3a080300 	bcc	201050 <__bss_end__+0x1f7b88>
     44c:	390b3b0b 	stmdbcc	fp, {r0, r1, r3, r8, r9, fp, ip, sp}
     450:	0213490b 	andseq	r4, r3, #180224	; 0x2c000
     454:	1742b717 	smlaldne	fp, r2, r7, r7
     458:	01000000 	mrseq	r0, (UNDEF: 0)
     45c:	0e250111 	mcreq	1, 1, r0, cr5, cr1, {0}
     460:	0e030b13 	vmoveq.32	d3[0], r0
     464:	01110e1b 	tsteq	r1, fp, lsl lr
     468:	17100612 			; <UNDEFINED> instruction: 0x17100612
     46c:	24020000 	strcs	r0, [r2], #-0
     470:	3e0b0b00 	vmlacc.f64	d0, d11, d0
     474:	0008030b 	andeq	r0, r8, fp, lsl #6
     478:	00240300 	eoreq	r0, r4, r0, lsl #6
     47c:	0b3e0b0b 	bleq	f830b0 <__bss_end__+0xf79be8>
     480:	00000e03 	andeq	r0, r0, r3, lsl #28
     484:	03001604 	movweq	r1, #1540	; 0x604
     488:	3b0b3a0e 	blcc	2cecc8 <__bss_end__+0x2c5800>
     48c:	490b390b 	stmdbmi	fp, {r0, r1, r3, r8, fp, ip, sp}
     490:	05000013 	streq	r0, [r0, #-19]	; 0xffffffed
     494:	19270115 	stmdbne	r7!, {r0, r2, r4, r8}
     498:	13011349 	movwne	r1, #4937	; 0x1349
     49c:	05060000 	streq	r0, [r6, #-0]
     4a0:	00134900 	andseq	r4, r3, r0, lsl #18
     4a4:	00340700 	eorseq	r0, r4, r0, lsl #14
     4a8:	0b3a0e03 	bleq	e83cbc <__bss_end__+0xe7a7f4>
     4ac:	0b390b3b 	bleq	e431a0 <__bss_end__+0xe39cd8>
     4b0:	193f1349 	ldmdbne	pc!, {r0, r3, r6, r8, r9, ip}	; <UNPREDICTABLE>
     4b4:	0000193c 	andeq	r1, r0, ip, lsr r9
     4b8:	0b000f08 	bleq	40e0 <__code_start__-0x3f20>
     4bc:	0013490b 	andseq	r4, r3, fp, lsl #18
     4c0:	00260900 	eoreq	r0, r6, r0, lsl #18
     4c4:	00001349 	andeq	r1, r0, r9, asr #6
     4c8:	0301130a 	movweq	r1, #4874	; 0x130a
     4cc:	3a0b0b0e 	bcc	2c310c <__bss_end__+0x2b9c44>
     4d0:	010b3b0b 	tsteq	fp, fp, lsl #22
     4d4:	0b000013 	bleq	528 <__code_start__-0x7ad8>
     4d8:	0e03000d 	cdpeq	0, 0, cr0, cr3, cr13, {0}
     4dc:	0b381349 	bleq	e05208 <__bss_end__+0xdfbd40>
     4e0:	00001934 	andeq	r1, r0, r4, lsr r9
     4e4:	0b000f0c 	bleq	411c <__code_start__-0x3ee4>
     4e8:	0d00000b 	stceq	0, cr0, [r0, #-44]	; 0xffffffd4
     4ec:	193f012e 	ldmdbne	pc!, {r1, r2, r3, r5, r8}	; <UNPREDICTABLE>
     4f0:	0b3a0e03 	bleq	e83d04 <__bss_end__+0xe7a83c>
     4f4:	0b390b3b 	bleq	e431e8 <__bss_end__+0xe39d20>
     4f8:	13491927 	movtne	r1, #39207	; 0x9927
     4fc:	06120111 			; <UNDEFINED> instruction: 0x06120111
     500:	42971840 	addsmi	r1, r7, #64, 16	; 0x400000
     504:	00130119 	andseq	r0, r3, r9, lsl r1
     508:	00050e00 	andeq	r0, r5, r0, lsl #28
     50c:	0b3a0803 	bleq	e82520 <__bss_end__+0xe79058>
     510:	0b390b3b 	bleq	e43204 <__bss_end__+0xe39d3c>
     514:	17021349 	strne	r1, [r2, -r9, asr #6]
     518:	001742b7 			; <UNDEFINED> instruction: 0x001742b7
     51c:	00050f00 	andeq	r0, r5, r0, lsl #30
     520:	0b3a0e03 	bleq	e83d34 <__bss_end__+0xe7a86c>
     524:	0b390b3b 	bleq	e43218 <__bss_end__+0xe39d50>
     528:	18021349 	stmdane	r2, {r0, r3, r6, r8, r9, ip}
     52c:	34100000 	ldrcc	r0, [r0], #-0
     530:	3a080300 	bcc	201138 <__bss_end__+0x1f7c70>
     534:	390b3b0b 	stmdbcc	fp, {r0, r1, r3, r8, r9, fp, ip, sp}
     538:	0213490b 	andseq	r4, r3, #180224	; 0x2c000
     53c:	1742b717 	smlaldne	fp, r2, r7, r7
     540:	34110000 	ldrcc	r0, [r1], #-0
     544:	3a080300 	bcc	20114c <__bss_end__+0x1f7c84>
     548:	390b3b0b 	stmdbcc	fp, {r0, r1, r3, r8, r9, fp, ip, sp}
     54c:	0013490b 	andseq	r4, r3, fp, lsl #18
     550:	00341200 	eorseq	r1, r4, r0, lsl #4
     554:	0b3a0e03 	bleq	e83d68 <__bss_end__+0xe7a8a0>
     558:	0b390b3b 	bleq	e4324c <__bss_end__+0xe39d84>
     55c:	17021349 	strne	r1, [r2, -r9, asr #6]
     560:	001742b7 			; <UNDEFINED> instruction: 0x001742b7
     564:	00341300 	eorseq	r1, r4, r0, lsl #6
     568:	13490e03 	movtne	r0, #40451	; 0x9e03
     56c:	18021934 	stmdane	r2, {r2, r4, r5, r8, fp, ip}
     570:	0b140000 	bleq	500578 <__bss_end__+0x4f70b0>
     574:	12011101 	andne	r1, r1, #1073741824	; 0x40000000
     578:	15000006 	strne	r0, [r0, #-6]
     57c:	08030034 	stmdaeq	r3, {r2, r4, r5}
     580:	0b3b0b3a 	bleq	ec3270 <__bss_end__+0xeb9da8>
     584:	13490b39 	movtne	r0, #39737	; 0x9b39
     588:	00001802 	andeq	r1, r0, r2, lsl #16
     58c:	03003416 	movweq	r3, #1046	; 0x416
     590:	3b0b3a0e 	blcc	2cedd0 <__bss_end__+0x2c5908>
     594:	490b390b 	stmdbmi	fp, {r0, r1, r3, r8, fp, ip, sp}
     598:	00180213 	andseq	r0, r8, r3, lsl r2
     59c:	010b1700 	tsteq	fp, r0, lsl #14
     5a0:	13011755 	movwne	r1, #5973	; 0x1755
     5a4:	89180000 	ldmdbhi	r8, {}	; <UNPREDICTABLE>
     5a8:	11010182 	smlabbne	r1, r2, r1, r0
     5ac:	01133101 	tsteq	r3, r1, lsl #2
     5b0:	19000013 	stmdbne	r0, {r0, r1, r4}
     5b4:	0001828a 	andeq	r8, r1, sl, lsl #5
     5b8:	42911802 	addsmi	r1, r1, #131072	; 0x20000
     5bc:	1a000018 	bne	624 <__code_start__-0x79dc>
     5c0:	00018289 	andeq	r8, r1, r9, lsl #5
     5c4:	13310111 	teqne	r1, #1073741828	; 0x40000004
     5c8:	891b0000 	ldmdbhi	fp, {}	; <UNPREDICTABLE>
     5cc:	11010182 	smlabbne	r1, r2, r1, r0
     5d0:	00130101 	andseq	r0, r3, r1, lsl #2
     5d4:	01011c00 	tsteq	r1, r0, lsl #24
     5d8:	13011349 	movwne	r1, #4937	; 0x1349
     5dc:	211d0000 	tstcs	sp, r0
     5e0:	2f134900 	svccs	0x00134900
     5e4:	1e00000b 	cdpne	0, 0, cr0, cr0, cr11, {0}
     5e8:	0e03012e 	adfeqsp	f0, f3, #0.5
     5ec:	0b3b0b3a 	bleq	ec32dc <__bss_end__+0xeb9e14>
     5f0:	19270b39 	stmdbne	r7!, {r0, r3, r4, r5, r8, r9, fp}
     5f4:	01111349 	tsteq	r1, r9, asr #6
     5f8:	18400612 	stmdane	r0, {r1, r4, r9, sl}^
     5fc:	01194297 			; <UNDEFINED> instruction: 0x01194297
     600:	1f000013 	svcne	0x00000013
     604:	0e030005 	cdpeq	0, 0, cr0, cr3, cr5, {0}
     608:	0b3b0b3a 	bleq	ec32f8 <__bss_end__+0xeb9e30>
     60c:	13490b39 	movtne	r0, #39737	; 0x9b39
     610:	42b71702 	adcsmi	r1, r7, #524288	; 0x80000
     614:	20000017 	andcs	r0, r0, r7, lsl r0
     618:	0111010b 	tsteq	r1, fp, lsl #2
     61c:	13010612 	movwne	r0, #5650	; 0x1612
     620:	2e210000 	cdpcs	0, 2, cr0, cr1, cr0, {0}
     624:	3a080301 	bcc	201230 <__bss_end__+0x1f7d68>
     628:	390b3b0b 	stmdbcc	fp, {r0, r1, r3, r8, r9, fp, ip, sp}
     62c:	4919270b 	ldmdbmi	r9, {r0, r1, r3, r8, r9, sl, sp}
     630:	12011113 	andne	r1, r1, #-1073741820	; 0xc0000004
     634:	97184006 	ldrls	r4, [r8, -r6]
     638:	13011942 	movwne	r1, #6466	; 0x1942
     63c:	2e220000 	cdpcs	0, 2, cr0, cr2, cr0, {0}
     640:	03193f01 	tsteq	r9, #1, 30
     644:	3b0b3a0e 	blcc	2cee84 <__bss_end__+0x2c59bc>
     648:	270b390b 	strcs	r3, [fp, -fp, lsl #18]
     64c:	12011119 	andne	r1, r1, #1073741830	; 0x40000006
     650:	97184006 	ldrls	r4, [r8, -r6]
     654:	13011942 	movwne	r1, #6466	; 0x1942
     658:	2e230000 	cdpcs	0, 2, cr0, cr3, cr0, {0}
     65c:	3c193f00 	ldccc	15, cr3, [r9], {-0}
     660:	030e6e19 	movweq	r6, #60953	; 0xee19
     664:	3b0b3a0e 	blcc	2ceea4 <__bss_end__+0x2c59dc>
     668:	000b390b 	andeq	r3, fp, fp, lsl #18
     66c:	11010000 	mrsne	r0, (UNDEF: 1)
     670:	130e2501 	movwne	r2, #58625	; 0xe501
     674:	1b0e030b 	blne	3812a8 <__bss_end__+0x377de0>
     678:	1201110e 	andne	r1, r1, #-2147483645	; 0x80000003
     67c:	00171006 	andseq	r1, r7, r6
     680:	00240200 	eoreq	r0, r4, r0, lsl #4
     684:	0b3e0b0b 	bleq	f832b8 <__bss_end__+0xf79df0>
     688:	00000803 	andeq	r0, r0, r3, lsl #16
     68c:	0b002403 	bleq	96a0 <__bss_end__+0x1d8>
     690:	030b3e0b 	movweq	r3, #48651	; 0xbe0b
     694:	0400000e 	streq	r0, [r0], #-14
     698:	19270115 	stmdbne	r7!, {r0, r2, r4, r8}
     69c:	13011349 	movwne	r1, #4937	; 0x1349
     6a0:	05050000 	streq	r0, [r5, #-0]
     6a4:	00134900 	andseq	r4, r3, r0, lsl #18
     6a8:	00340600 	eorseq	r0, r4, r0, lsl #12
     6ac:	0b3a0e03 	bleq	e83ec0 <__bss_end__+0xe7a9f8>
     6b0:	0b390b3b 	bleq	e433a4 <__bss_end__+0xe39edc>
     6b4:	193f1349 	ldmdbne	pc!, {r0, r3, r6, r8, r9, ip}	; <UNPREDICTABLE>
     6b8:	0000193c 	andeq	r1, r0, ip, lsr r9
     6bc:	0b000f07 	bleq	42e0 <__code_start__-0x3d20>
     6c0:	0013490b 	andseq	r4, r3, fp, lsl #18
     6c4:	00260800 	eoreq	r0, r6, r0, lsl #16
     6c8:	00001349 	andeq	r1, r0, r9, asr #6
     6cc:	3f012e09 	svccc	0x00012e09
     6d0:	3a0e0319 	bcc	38133c <__bss_end__+0x377e74>
     6d4:	390b3b0b 	stmdbcc	fp, {r0, r1, r3, r8, r9, fp, ip, sp}
     6d8:	8719270b 	ldrhi	r2, [r9, -fp, lsl #14]
     6dc:	01111901 	tsteq	r1, r1, lsl #18
     6e0:	18400612 	stmdane	r0, {r1, r4, r9, sl}^
     6e4:	01194297 			; <UNDEFINED> instruction: 0x01194297
     6e8:	0a000013 	beq	73c <__code_start__-0x78c4>
     6ec:	01018289 	smlabbeq	r1, r9, r2, r8
     6f0:	13010111 	movwne	r0, #4369	; 0x1111
     6f4:	8a0b0000 	bhi	2c06fc <__bss_end__+0x2b7234>
     6f8:	02000182 	andeq	r0, r0, #-2147483616	; 0x80000020
     6fc:	18429118 	stmdane	r2, {r3, r4, r8, ip, pc}^
     700:	890c0000 	stmdbhi	ip, {}	; <UNPREDICTABLE>
     704:	11000182 	smlabbne	r0, r2, r1, r0
     708:	00133101 	andseq	r3, r3, r1, lsl #2
     70c:	82890d00 	addhi	r0, r9, #0, 26
     710:	01110101 	tsteq	r1, r1, lsl #2
     714:	13011331 	movwne	r1, #4913	; 0x1331
     718:	2e0e0000 	cdpcs	0, 0, cr0, cr14, cr0, {0}
     71c:	3c193f00 	ldccc	15, cr3, [r9], {-0}
     720:	030e6e19 	movweq	r6, #60953	; 0xee19
     724:	3b0b3a0e 	blcc	2cef64 <__bss_end__+0x2c5a9c>
     728:	000b390b 	andeq	r3, fp, fp, lsl #18
     72c:	11010000 	mrsne	r0, (UNDEF: 1)
     730:	130e2501 	movwne	r2, #58625	; 0xe501
     734:	1b0e030b 	blne	381368 <__bss_end__+0x377ea0>
     738:	1201110e 	andne	r1, r1, #-2147483645	; 0x80000003
     73c:	00171006 	andseq	r1, r7, r6
     740:	00240200 	eoreq	r0, r4, r0, lsl #4
     744:	0b3e0b0b 	bleq	f83378 <__bss_end__+0xf79eb0>
     748:	00000803 	andeq	r0, r0, r3, lsl #16
     74c:	0b002403 	bleq	9760 <__bss_end__+0x298>
     750:	030b3e0b 	movweq	r3, #48651	; 0xbe0b
     754:	0400000e 	streq	r0, [r0], #-14
     758:	19270115 	stmdbne	r7!, {r0, r2, r4, r8}
     75c:	13011349 	movwne	r1, #4937	; 0x1349
     760:	05050000 	streq	r0, [r5, #-0]
     764:	00134900 	andseq	r4, r3, r0, lsl #18
     768:	00340600 	eorseq	r0, r4, r0, lsl #12
     76c:	0b3a0e03 	bleq	e83f80 <__bss_end__+0xe7aab8>
     770:	0b390b3b 	bleq	e43464 <__bss_end__+0xe39f9c>
     774:	193f1349 	ldmdbne	pc!, {r0, r3, r6, r8, r9, ip}	; <UNPREDICTABLE>
     778:	0000193c 	andeq	r1, r0, ip, lsr r9
     77c:	0b000f07 	bleq	43a0 <__code_start__-0x3c60>
     780:	0013490b 	andseq	r4, r3, fp, lsl #18
     784:	00260800 	eoreq	r0, r6, r0, lsl #16
     788:	00001349 	andeq	r1, r0, r9, asr #6
     78c:	3f012e09 	svccc	0x00012e09
     790:	3a0e0319 	bcc	3813fc <__bss_end__+0x377f34>
     794:	390b3b0b 	stmdbcc	fp, {r0, r1, r3, r8, r9, fp, ip, sp}
     798:	1201110b 	andne	r1, r1, #-1073741822	; 0xc0000002
     79c:	97184006 	ldrls	r4, [r8, -r6]
     7a0:	13011942 	movwne	r1, #6466	; 0x1942
     7a4:	2e0a0000 	cdpcs	0, 0, cr0, cr10, cr0, {0}
     7a8:	03193f00 	tsteq	r9, #0, 30
     7ac:	3b0b3a0e 	blcc	2cefec <__bss_end__+0x2c5b24>
     7b0:	270b390b 	strcs	r3, [fp, -fp, lsl #18]
     7b4:	00193c19 	andseq	r3, r9, r9, lsl ip
     7b8:	00340b00 	eorseq	r0, r4, r0, lsl #22
     7bc:	0b3a0803 	bleq	e827d0 <__bss_end__+0xe79308>
     7c0:	0b390b3b 	bleq	e434b4 <__bss_end__+0xe39fec>
     7c4:	17021349 	strne	r1, [r2, -r9, asr #6]
     7c8:	001742b7 			; <UNDEFINED> instruction: 0x001742b7
     7cc:	00340c00 	eorseq	r0, r4, r0, lsl #24
     7d0:	0b3a0e03 	bleq	e83fe4 <__bss_end__+0xe7ab1c>
     7d4:	0b390b3b 	bleq	e434c8 <__bss_end__+0xe3a000>
     7d8:	00001349 	andeq	r1, r0, r9, asr #6
     7dc:	0182890d 	orreq	r8, r2, sp, lsl #18
     7e0:	31011100 	mrscc	r1, (UNDEF: 17)
     7e4:	0e000013 	mcreq	0, 0, r0, cr0, cr3, {0}
     7e8:	193f002e 	ldmdbne	pc!, {r1, r2, r3, r5}	; <UNPREDICTABLE>
     7ec:	0e6e193c 			; <UNDEFINED> instruction: 0x0e6e193c
     7f0:	0b3a0e03 	bleq	e84004 <__bss_end__+0xe7ab3c>
     7f4:	0b39053b 	bleq	e41ce8 <__bss_end__+0xe38820>
     7f8:	2e0f0000 	cdpcs	0, 0, cr0, cr15, cr0, {0}
     7fc:	3c193f00 	ldccc	15, cr3, [r9], {-0}
     800:	030e6e19 	movweq	r6, #60953	; 0xee19
     804:	3b0b3a0e 	blcc	2cf044 <__bss_end__+0x2c5b7c>
     808:	000b390b 	andeq	r3, fp, fp, lsl #18
     80c:	11010000 	mrsne	r0, (UNDEF: 1)
     810:	130e2501 	movwne	r2, #58625	; 0xe501
     814:	1b0e030b 	blne	381448 <__bss_end__+0x377f80>
     818:	1201110e 	andne	r1, r1, #-2147483645	; 0x80000003
     81c:	00171006 	andseq	r1, r7, r6
     820:	00240200 	eoreq	r0, r4, r0, lsl #4
     824:	0b3e0b0b 	bleq	f83458 <__bss_end__+0xf79f90>
     828:	00000803 	andeq	r0, r0, r3, lsl #16
     82c:	0b002403 	bleq	9840 <__bss_end__+0x378>
     830:	030b3e0b 	movweq	r3, #48651	; 0xbe0b
     834:	0400000e 	streq	r0, [r0], #-14
     838:	19270115 	stmdbne	r7!, {r0, r2, r4, r8}
     83c:	13011349 	movwne	r1, #4937	; 0x1349
     840:	05050000 	streq	r0, [r5, #-0]
     844:	00134900 	andseq	r4, r3, r0, lsl #18
     848:	00340600 	eorseq	r0, r4, r0, lsl #12
     84c:	0b3a0e03 	bleq	e84060 <__bss_end__+0xe7ab98>
     850:	0b390b3b 	bleq	e43544 <__bss_end__+0xe3a07c>
     854:	193f1349 	ldmdbne	pc!, {r0, r3, r6, r8, r9, ip}	; <UNPREDICTABLE>
     858:	0000193c 	andeq	r1, r0, ip, lsr r9
     85c:	0b000f07 	bleq	4480 <__code_start__-0x3b80>
     860:	0013490b 	andseq	r4, r3, fp, lsl #18
     864:	00260800 	eoreq	r0, r6, r0, lsl #16
     868:	00001349 	andeq	r1, r0, r9, asr #6
     86c:	3f002e09 	svccc	0x00002e09
     870:	3a0e0319 	bcc	3814dc <__bss_end__+0x378014>
     874:	390b3b0b 	stmdbcc	fp, {r0, r1, r3, r8, r9, fp, ip, sp}
     878:	1119270b 	tstne	r9, fp, lsl #14
     87c:	40061201 	andmi	r1, r6, r1, lsl #4
     880:	19429718 	stmdbne	r2, {r3, r4, r8, r9, sl, ip, pc}^
     884:	01000000 	mrseq	r0, (UNDEF: 0)
     888:	0e250111 	mcreq	1, 1, r0, cr5, cr1, {0}
     88c:	0e030b13 	vmoveq.32	d3[0], r0
     890:	17550e1b 	smmlane	r5, fp, lr, r0
     894:	17100111 			; <UNDEFINED> instruction: 0x17100111
     898:	24020000 	strcs	r0, [r2], #-0
     89c:	3e0b0b00 	vmlacc.f64	d0, d11, d0
     8a0:	0008030b 	andeq	r0, r8, fp, lsl #6
     8a4:	00260300 	eoreq	r0, r6, r0, lsl #6
     8a8:	00001349 	andeq	r1, r0, r9, asr #6
     8ac:	0b002404 	bleq	98c4 <__bss_end__+0x3fc>
     8b0:	030b3e0b 	movweq	r3, #48651	; 0xbe0b
     8b4:	0500000e 	streq	r0, [r0, #-14]
     8b8:	19270115 	stmdbne	r7!, {r0, r2, r4, r8}
     8bc:	13011349 	movwne	r1, #4937	; 0x1349
     8c0:	05060000 	streq	r0, [r6, #-0]
     8c4:	00134900 	andseq	r4, r3, r0, lsl #18
     8c8:	00340700 	eorseq	r0, r4, r0, lsl #14
     8cc:	0b3a0e03 	bleq	e840e0 <__bss_end__+0xe7ac18>
     8d0:	0b390b3b 	bleq	e435c4 <__bss_end__+0xe3a0fc>
     8d4:	193f1349 	ldmdbne	pc!, {r0, r3, r6, r8, r9, ip}	; <UNPREDICTABLE>
     8d8:	0000193c 	andeq	r1, r0, ip, lsr r9
     8dc:	0b000f08 	bleq	4504 <__code_start__-0x3afc>
     8e0:	0013490b 	andseq	r4, r3, fp, lsl #18
     8e4:	00340900 	eorseq	r0, r4, r0, lsl #18
     8e8:	0b3a0e03 	bleq	e840fc <__bss_end__+0xe7ac34>
     8ec:	0b390b3b 	bleq	e435e0 <__bss_end__+0xe3a118>
     8f0:	00001349 	andeq	r1, r0, r9, asr #6
     8f4:	3f012e0a 	svccc	0x00012e0a
     8f8:	3a0e0319 	bcc	381564 <__bss_end__+0x37809c>
     8fc:	390b3b0b 	stmdbcc	fp, {r0, r1, r3, r8, r9, fp, ip, sp}
     900:	8719270b 	ldrhi	r2, [r9, -fp, lsl #14]
     904:	01111901 	tsteq	r1, r1, lsl #18
     908:	18400612 	stmdane	r0, {r1, r4, r9, sl}^
     90c:	01194297 			; <UNDEFINED> instruction: 0x01194297
     910:	0b000013 	bleq	964 <__code_start__-0x769c>
     914:	0e030034 	mcreq	0, 0, r0, cr3, cr4, {1}
     918:	0b3b0b3a 	bleq	ec3608 <__bss_end__+0xeba140>
     91c:	13490b39 	movtne	r0, #39737	; 0x9b39
     920:	42b71702 	adcsmi	r1, r7, #524288	; 0x80000
     924:	0c000017 	stceq	0, cr0, [r0], {23}
     928:	00018289 	andeq	r8, r1, r9, lsl #5
     92c:	13310111 	teqne	r1, #1073741828	; 0x40000004
     930:	890d0000 	stmdbhi	sp, {}	; <UNPREDICTABLE>
     934:	11010182 	smlabbne	r1, r2, r1, r0
     938:	01133101 	tsteq	r3, r1, lsl #2
     93c:	0e000013 	mcreq	0, 0, r0, cr0, cr3, {0}
     940:	0001828a 	andeq	r8, r1, sl, lsl #5
     944:	42911802 	addsmi	r1, r1, #131072	; 0x20000
     948:	0f000018 	svceq	0x00000018
     94c:	193f012e 	ldmdbne	pc!, {r1, r2, r3, r5, r8}	; <UNPREDICTABLE>
     950:	0b3a0e03 	bleq	e84164 <__bss_end__+0xe7ac9c>
     954:	0b390b3b 	bleq	e43648 <__bss_end__+0xe3a180>
     958:	01111927 	tsteq	r1, r7, lsr #18
     95c:	18400612 	stmdane	r0, {r1, r4, r9, sl}^
     960:	01194297 			; <UNDEFINED> instruction: 0x01194297
     964:	10000013 	andne	r0, r0, r3, lsl r0
     968:	193f012e 	ldmdbne	pc!, {r1, r2, r3, r5, r8}	; <UNPREDICTABLE>
     96c:	0b3a0e03 	bleq	e84180 <__bss_end__+0xe7acb8>
     970:	0b390b3b 	bleq	e43664 <__bss_end__+0xe3a19c>
     974:	13491927 	movtne	r1, #39207	; 0x9927
     978:	06120111 			; <UNDEFINED> instruction: 0x06120111
     97c:	42971840 	addsmi	r1, r7, #64, 16	; 0x400000
     980:	00130119 	andseq	r0, r3, r9, lsl r1
     984:	002e1100 	eoreq	r1, lr, r0, lsl #2
     988:	193c193f 	ldmdbne	ip!, {r0, r1, r2, r3, r4, r5, r8, fp, ip}
     98c:	0e030e6e 	cdpeq	14, 0, cr0, cr3, cr14, {3}
     990:	0b3b0b3a 	bleq	ec3680 <__bss_end__+0xeba1b8>
     994:	00000b39 	andeq	r0, r0, r9, lsr fp
     998:	01110100 	tsteq	r1, r0, lsl #2
     99c:	0b130e25 	bleq	4c4238 <__bss_end__+0x4bad70>
     9a0:	0e1b0e03 	cdpeq	14, 1, cr0, cr11, cr3, {0}
     9a4:	06120111 			; <UNDEFINED> instruction: 0x06120111
     9a8:	00001710 	andeq	r1, r0, r0, lsl r7
     9ac:	0b002402 	bleq	99bc <__bss_end__+0x4f4>
     9b0:	030b3e0b 	movweq	r3, #48651	; 0xbe0b
     9b4:	03000008 	movweq	r0, #8
     9b8:	0b0b0024 	bleq	2c0a50 <__bss_end__+0x2b7588>
     9bc:	0e030b3e 	vmoveq.16	d3[0], r0
     9c0:	15040000 	strne	r0, [r4, #-0]
     9c4:	49192701 	ldmdbmi	r9, {r0, r8, r9, sl, sp}
     9c8:	00130113 	andseq	r0, r3, r3, lsl r1
     9cc:	00050500 	andeq	r0, r5, r0, lsl #10
     9d0:	00001349 	andeq	r1, r0, r9, asr #6
     9d4:	03003406 	movweq	r3, #1030	; 0x406
     9d8:	3b0b3a0e 	blcc	2cf218 <__bss_end__+0x2c5d50>
     9dc:	490b390b 	stmdbmi	fp, {r0, r1, r3, r8, fp, ip, sp}
     9e0:	3c193f13 	ldccc	15, cr3, [r9], {19}
     9e4:	07000019 	smladeq	r0, r9, r0, r0
     9e8:	0b0b000f 	bleq	2c0a2c <__bss_end__+0x2b7564>
     9ec:	00001349 	andeq	r1, r0, r9, asr #6
     9f0:	49002608 	stmdbmi	r0, {r3, r9, sl, sp}
     9f4:	09000013 	stmdbeq	r0, {r0, r1, r4}
     9f8:	193f012e 	ldmdbne	pc!, {r1, r2, r3, r5, r8}	; <UNPREDICTABLE>
     9fc:	0b3a0e03 	bleq	e84210 <__bss_end__+0xe7ad48>
     a00:	0b390b3b 	bleq	e436f4 <__bss_end__+0xe3a22c>
     a04:	01111927 	tsteq	r1, r7, lsr #18
     a08:	18400612 	stmdane	r0, {r1, r4, r9, sl}^
     a0c:	01194297 			; <UNDEFINED> instruction: 0x01194297
     a10:	0a000013 	beq	a64 <__code_start__-0x759c>
     a14:	08030005 	stmdaeq	r3, {r0, r2}
     a18:	0b3b0b3a 	bleq	ec3708 <__bss_end__+0xeba240>
     a1c:	13490b39 	movtne	r0, #39737	; 0x9b39
     a20:	42b71702 	adcsmi	r1, r7, #524288	; 0x80000
     a24:	0b000017 	bleq	a88 <__code_start__-0x7578>
     a28:	01018289 	smlabbeq	r1, r9, r2, r8
     a2c:	13310111 	teqne	r1, #1073741828	; 0x40000004
     a30:	8a0c0000 	bhi	300a38 <__bss_end__+0x2f7570>
     a34:	02000182 	andeq	r0, r0, #-2147483616	; 0x80000020
     a38:	18429118 	stmdane	r2, {r3, r4, r8, ip, pc}^
     a3c:	340d0000 	strcc	r0, [sp], #-0
     a40:	3a080300 	bcc	201648 <__bss_end__+0x1f8180>
     a44:	390b3b0b 	stmdbcc	fp, {r0, r1, r3, r8, r9, fp, ip, sp}
     a48:	0213490b 	andseq	r4, r3, #180224	; 0x2c000
     a4c:	1742b717 	smlaldne	fp, r2, r7, r7
     a50:	0b0e0000 	bleq	380a58 <__bss_end__+0x377590>
     a54:	12011101 	andne	r1, r1, #1073741824	; 0x40000000
     a58:	00130106 	andseq	r0, r3, r6, lsl #2
     a5c:	82890f00 	addhi	r0, r9, #0, 30
     a60:	01110001 	tsteq	r1, r1
     a64:	00001331 	andeq	r1, r0, r1, lsr r3
     a68:	3f012e10 	svccc	0x00012e10
     a6c:	3a0e0319 	bcc	3816d8 <__bss_end__+0x378210>
     a70:	390b3b0b 	stmdbcc	fp, {r0, r1, r3, r8, r9, fp, ip, sp}
     a74:	4919270b 	ldmdbmi	r9, {r0, r1, r3, r8, r9, sl, sp}
     a78:	12011113 	andne	r1, r1, #-1073741820	; 0xc0000004
     a7c:	97184006 	ldrls	r4, [r8, -r6]
     a80:	13011942 	movwne	r1, #6466	; 0x1942
     a84:	05110000 	ldreq	r0, [r1, #-0]
     a88:	3a0e0300 	bcc	381690 <__bss_end__+0x3781c8>
     a8c:	390b3b0b 	stmdbcc	fp, {r0, r1, r3, r8, r9, fp, ip, sp}
     a90:	0213490b 	andseq	r4, r3, #180224	; 0x2c000
     a94:	1742b717 	smlaldne	fp, r2, r7, r7
     a98:	2e120000 	cdpcs	0, 1, cr0, cr2, cr0, {0}
     a9c:	3c193f00 	ldccc	15, cr3, [r9], {-0}
     aa0:	030e6e19 	movweq	r6, #60953	; 0xee19
     aa4:	3b0b3a0e 	blcc	2cf2e4 <__bss_end__+0x2c5e1c>
     aa8:	000b390b 	andeq	r3, fp, fp, lsl #18
     aac:	11010000 	mrsne	r0, (UNDEF: 1)
     ab0:	130e2501 	movwne	r2, #58625	; 0xe501
     ab4:	1b0e030b 	blne	3816e8 <__bss_end__+0x378220>
     ab8:	1201110e 	andne	r1, r1, #-2147483645	; 0x80000003
     abc:	00171006 	andseq	r1, r7, r6
     ac0:	00240200 	eoreq	r0, r4, r0, lsl #4
     ac4:	0b3e0b0b 	bleq	f836f8 <__bss_end__+0xf7a230>
     ac8:	00000803 	andeq	r0, r0, r3, lsl #16
     acc:	0b002403 	bleq	9ae0 <__bss_end__+0x618>
     ad0:	030b3e0b 	movweq	r3, #48651	; 0xbe0b
     ad4:	0400000e 	streq	r0, [r0], #-14
     ad8:	13490035 	movtne	r0, #36917	; 0x9035
     adc:	16050000 	strne	r0, [r5], -r0
     ae0:	3a0e0300 	bcc	3816e8 <__bss_end__+0x378220>
     ae4:	390b3b0b 	stmdbcc	fp, {r0, r1, r3, r8, r9, fp, ip, sp}
     ae8:	0013490b 	andseq	r4, r3, fp, lsl #18
     aec:	01150600 	tsteq	r5, r0, lsl #12
     af0:	13491927 	movtne	r1, #39207	; 0x9927
     af4:	00001301 	andeq	r1, r0, r1, lsl #6
     af8:	49000507 	stmdbmi	r0, {r0, r1, r2, r8, sl}
     afc:	08000013 	stmdaeq	r0, {r0, r1, r4}
     b00:	0e030034 	mcreq	0, 0, r0, cr3, cr4, {1}
     b04:	0b3b0b3a 	bleq	ec37f4 <__bss_end__+0xeba32c>
     b08:	13490b39 	movtne	r0, #39737	; 0x9b39
     b0c:	193c193f 	ldmdbne	ip!, {r0, r1, r2, r3, r4, r5, r8, fp, ip}
     b10:	0f090000 	svceq	0x00090000
     b14:	490b0b00 	stmdbmi	fp, {r8, r9, fp}
     b18:	0a000013 	beq	b6c <__code_start__-0x7494>
     b1c:	13490026 	movtne	r0, #36902	; 0x9026
     b20:	040b0000 	streq	r0, [fp], #-0
     b24:	0b0b3e01 	bleq	2d0330 <__bss_end__+0x2c6e68>
     b28:	3a13490b 	bcc	4d2f5c <__bss_end__+0x4c9a94>
     b2c:	390b3b0b 	stmdbcc	fp, {r0, r1, r3, r8, r9, fp, ip, sp}
     b30:	0013010b 	andseq	r0, r3, fp, lsl #2
     b34:	00280c00 	eoreq	r0, r8, r0, lsl #24
     b38:	0b1c0e03 	bleq	70434c <__bss_end__+0x6fae84>
     b3c:	130d0000 	movwne	r0, #53248	; 0xd000
     b40:	0b0e0301 	bleq	38174c <__bss_end__+0x378284>
     b44:	3b0b3a0b 	blcc	2cf378 <__bss_end__+0x2c5eb0>
     b48:	010b390b 	tsteq	fp, fp, lsl #18
     b4c:	0e000013 	mcreq	0, 0, r0, cr0, cr3, {0}
     b50:	0803000d 	stmdaeq	r3, {r0, r2, r3}
     b54:	0b3b0b3a 	bleq	ec3844 <__bss_end__+0xeba37c>
     b58:	13490b39 	movtne	r0, #39737	; 0x9b39
     b5c:	00000b38 	andeq	r0, r0, r8, lsr fp
     b60:	03000d0f 	movweq	r0, #3343	; 0xd0f
     b64:	3b0b3a0e 	blcc	2cf3a4 <__bss_end__+0x2c5edc>
     b68:	490b390b 	stmdbmi	fp, {r0, r1, r3, r8, fp, ip, sp}
     b6c:	000b3813 	andeq	r3, fp, r3, lsl r8
     b70:	00341000 	eorseq	r1, r4, r0
     b74:	0b3a0e03 	bleq	e84388 <__bss_end__+0xe7aec0>
     b78:	0b390b3b 	bleq	e4386c <__bss_end__+0xe3a3a4>
     b7c:	061c1349 	ldreq	r1, [ip], -r9, asr #6
     b80:	2e110000 	cdpcs	0, 1, cr0, cr1, cr0, {0}
     b84:	03193f01 	tsteq	r9, #1, 30
     b88:	3b0b3a0e 	blcc	2cf3c8 <__bss_end__+0x2c5f00>
     b8c:	270b390b 	strcs	r3, [fp, -fp, lsl #18]
     b90:	12011119 	andne	r1, r1, #1073741830	; 0x40000006
     b94:	97184006 	ldrls	r4, [r8, -r6]
     b98:	13011942 	movwne	r1, #6466	; 0x1942
     b9c:	89120000 	ldmdbhi	r2, {}	; <UNPREDICTABLE>
     ba0:	11000182 	smlabbne	r0, r2, r1, r0
     ba4:	00133101 	andseq	r3, r3, r1, lsl #2
     ba8:	012e1300 			; <UNDEFINED> instruction: 0x012e1300
     bac:	0e03193f 			; <UNDEFINED> instruction: 0x0e03193f
     bb0:	0b3b0b3a 	bleq	ec38a0 <__bss_end__+0xeba3d8>
     bb4:	19270b39 	stmdbne	r7!, {r0, r3, r4, r5, r8, r9, fp}
     bb8:	01111349 	tsteq	r1, r9, asr #6
     bbc:	18400612 	stmdane	r0, {r1, r4, r9, sl}^
     bc0:	01194297 			; <UNDEFINED> instruction: 0x01194297
     bc4:	14000013 	strne	r0, [r0], #-19	; 0xffffffed
     bc8:	01018289 	smlabbeq	r1, r9, r2, r8
     bcc:	13310111 	teqne	r1, #1073741828	; 0x40000004
     bd0:	8a150000 	bhi	540bd8 <__bss_end__+0x537710>
     bd4:	02000182 	andeq	r0, r0, #-2147483616	; 0x80000020
     bd8:	18429118 	stmdane	r2, {r3, r4, r8, ip, pc}^
     bdc:	05160000 	ldreq	r0, [r6, #-0]
     be0:	3a080300 	bcc	2017e8 <__bss_end__+0x1f8320>
     be4:	390b3b0b 	stmdbcc	fp, {r0, r1, r3, r8, r9, fp, ip, sp}
     be8:	0213490b 	andseq	r4, r3, #180224	; 0x2c000
     bec:	1742b717 	smlaldne	fp, r2, r7, r7
     bf0:	89170000 	ldmdbhi	r7, {}	; <UNPREDICTABLE>
     bf4:	11010182 	smlabbne	r1, r2, r1, r0
     bf8:	01133101 	tsteq	r3, r1, lsl #2
     bfc:	18000013 	stmdane	r0, {r0, r1, r4}
     c00:	08030034 	stmdaeq	r3, {r2, r4, r5}
     c04:	0b3b0b3a 	bleq	ec38f4 <__bss_end__+0xeba42c>
     c08:	13490b39 	movtne	r0, #39737	; 0x9b39
     c0c:	42b71702 	adcsmi	r1, r7, #524288	; 0x80000
     c10:	19000017 	stmdbne	r0, {r0, r1, r2, r4}
     c14:	0e030034 	mcreq	0, 0, r0, cr3, cr4, {1}
     c18:	0b3b0b3a 	bleq	ec3908 <__bss_end__+0xeba440>
     c1c:	13490b39 	movtne	r0, #39737	; 0x9b39
     c20:	0000051c 	andeq	r0, r0, ip, lsl r5
     c24:	03012e1a 	movweq	r2, #7706	; 0x1e1a
     c28:	3b0b3a0e 	blcc	2cf468 <__bss_end__+0x2c5fa0>
     c2c:	270b390b 	strcs	r3, [fp, -fp, lsl #18]
     c30:	12011119 	andne	r1, r1, #1073741830	; 0x40000006
     c34:	97184006 	ldrls	r4, [r8, -r6]
     c38:	13011942 	movwne	r1, #6466	; 0x1942
     c3c:	051b0000 	ldreq	r0, [fp, #-0]
     c40:	3a0e0300 	bcc	381848 <__bss_end__+0x378380>
     c44:	390b3b0b 	stmdbcc	fp, {r0, r1, r3, r8, r9, fp, ip, sp}
     c48:	0213490b 	andseq	r4, r3, #180224	; 0x2c000
     c4c:	1742b717 	smlaldne	fp, r2, r7, r7
     c50:	351c0000 	ldrcc	r0, [ip, #-0]
     c54:	1d000000 	stcne	0, cr0, [r0, #-0]
     c58:	193f002e 	ldmdbne	pc!, {r1, r2, r3, r5}	; <UNPREDICTABLE>
     c5c:	0e6e193c 			; <UNDEFINED> instruction: 0x0e6e193c
     c60:	0b3a0e03 	bleq	e84474 <__bss_end__+0xe7afac>
     c64:	0b390b3b 	bleq	e43958 <__bss_end__+0xe3a490>
     c68:	01000000 	mrseq	r0, (UNDEF: 0)
     c6c:	0e250111 	mcreq	1, 1, r0, cr5, cr1, {0}
     c70:	0e030b13 	vmoveq.32	d3[0], r0
     c74:	01110e1b 	tsteq	r1, fp, lsl lr
     c78:	17100612 			; <UNDEFINED> instruction: 0x17100612
     c7c:	24020000 	strcs	r0, [r2], #-0
     c80:	3e0b0b00 	vmlacc.f64	d0, d11, d0
     c84:	0008030b 	andeq	r0, r8, fp, lsl #6
     c88:	00240300 	eoreq	r0, r4, r0, lsl #6
     c8c:	0b3e0b0b 	bleq	f838c0 <__bss_end__+0xf7a3f8>
     c90:	00000e03 	andeq	r0, r0, r3, lsl #28
     c94:	49002604 	stmdbmi	r0, {r2, r9, sl, sp}
     c98:	05000013 	streq	r0, [r0, #-19]	; 0xffffffed
     c9c:	0e030016 	mcreq	0, 0, r0, cr3, cr6, {0}
     ca0:	0b3b0b3a 	bleq	ec3990 <__bss_end__+0xeba4c8>
     ca4:	13490b39 	movtne	r0, #39737	; 0x9b39
     ca8:	15060000 	strne	r0, [r6, #-0]
     cac:	49192701 	ldmdbmi	r9, {r0, r8, r9, sl, sp}
     cb0:	00130113 	andseq	r0, r3, r3, lsl r1
     cb4:	00050700 	andeq	r0, r5, r0, lsl #14
     cb8:	00001349 	andeq	r1, r0, r9, asr #6
     cbc:	03003408 	movweq	r3, #1032	; 0x408
     cc0:	3b0b3a0e 	blcc	2cf500 <__bss_end__+0x2c6038>
     cc4:	490b390b 	stmdbmi	fp, {r0, r1, r3, r8, fp, ip, sp}
     cc8:	3c193f13 	ldccc	15, cr3, [r9], {19}
     ccc:	09000019 	stmdbeq	r0, {r0, r3, r4}
     cd0:	0b0b000f 	bleq	2c0d14 <__bss_end__+0x2b784c>
     cd4:	00001349 	andeq	r1, r0, r9, asr #6
     cd8:	3e01040a 	cdpcc	4, 0, cr0, cr1, cr10, {0}
     cdc:	490b0b0b 	stmdbmi	fp, {r0, r1, r3, r8, r9, fp}
     ce0:	3b0b3a13 	blcc	2cf534 <__bss_end__+0x2c606c>
     ce4:	010b390b 	tsteq	fp, fp, lsl #18
     ce8:	0b000013 	bleq	d3c <__code_start__-0x72c4>
     cec:	0e030028 	cdpeq	0, 0, cr0, cr3, cr8, {1}
     cf0:	00000b1c 	andeq	r0, r0, ip, lsl fp
     cf4:	0300340c 	movweq	r3, #1036	; 0x40c
     cf8:	3b0b3a0e 	blcc	2cf538 <__bss_end__+0x2c6070>
     cfc:	490b390b 	stmdbmi	fp, {r0, r1, r3, r8, fp, ip, sp}
     d00:	00061c13 	andeq	r1, r6, r3, lsl ip
     d04:	012e0d00 			; <UNDEFINED> instruction: 0x012e0d00
     d08:	0e03193f 			; <UNDEFINED> instruction: 0x0e03193f
     d0c:	0b3b0b3a 	bleq	ec39fc <__bss_end__+0xeba534>
     d10:	19270b39 	stmdbne	r7!, {r0, r3, r4, r5, r8, r9, fp}
     d14:	01111349 	tsteq	r1, r9, asr #6
     d18:	18400612 	stmdane	r0, {r1, r4, r9, sl}^
     d1c:	01194297 			; <UNDEFINED> instruction: 0x01194297
     d20:	0e000013 	mcreq	0, 0, r0, cr0, cr3, {0}
     d24:	08030005 	stmdaeq	r3, {r0, r2}
     d28:	0b3b0b3a 	bleq	ec3a18 <__bss_end__+0xeba550>
     d2c:	13490b39 	movtne	r0, #39737	; 0x9b39
     d30:	42b71702 	adcsmi	r1, r7, #524288	; 0x80000
     d34:	0f000017 	svceq	0x00000017
     d38:	01018289 	smlabbeq	r1, r9, r2, r8
     d3c:	13310111 	teqne	r1, #1073741828	; 0x40000004
     d40:	8a100000 	bhi	400d48 <__bss_end__+0x3f7880>
     d44:	02000182 	andeq	r0, r0, #-2147483616	; 0x80000020
     d48:	18429118 	stmdane	r2, {r3, r4, r8, ip, pc}^
     d4c:	2e110000 	cdpcs	0, 1, cr0, cr1, cr0, {0}
     d50:	03193f01 	tsteq	r9, #1, 30
     d54:	3b0b3a0e 	blcc	2cf594 <__bss_end__+0x2c60cc>
     d58:	270b390b 	strcs	r3, [fp, -fp, lsl #18]
     d5c:	12011119 	andne	r1, r1, #1073741830	; 0x40000006
     d60:	97184006 	ldrls	r4, [r8, -r6]
     d64:	13011942 	movwne	r1, #6466	; 0x1942
     d68:	89120000 	ldmdbhi	r2, {}	; <UNPREDICTABLE>
     d6c:	11010182 	smlabbne	r1, r2, r1, r0
     d70:	01133101 	tsteq	r3, r1, lsl #2
     d74:	13000013 	movwne	r0, #19
     d78:	00018289 	andeq	r8, r1, r9, lsl #5
     d7c:	13310111 	teqne	r1, #1073741828	; 0x40000004
     d80:	34140000 	ldrcc	r0, [r4], #-0
     d84:	3a0e0300 	bcc	38198c <__bss_end__+0x3784c4>
     d88:	390b3b0b 	stmdbcc	fp, {r0, r1, r3, r8, r9, fp, ip, sp}
     d8c:	0213490b 	andseq	r4, r3, #180224	; 0x2c000
     d90:	1742b717 	smlaldne	fp, r2, r7, r7
     d94:	2e150000 	cdpcs	0, 1, cr0, cr5, cr0, {0}
     d98:	3c193f00 	ldccc	15, cr3, [r9], {-0}
     d9c:	030e6e19 	movweq	r6, #60953	; 0xee19
     da0:	3b0b3a0e 	blcc	2cf5e0 <__bss_end__+0x2c6118>
     da4:	000b390b 	andeq	r3, fp, fp, lsl #18
     da8:	11010000 	mrsne	r0, (UNDEF: 1)
     dac:	130e2501 	movwne	r2, #58625	; 0xe501
     db0:	1b0e030b 	blne	3819e4 <__bss_end__+0x37851c>
     db4:	1201110e 	andne	r1, r1, #-2147483645	; 0x80000003
     db8:	00171006 	andseq	r1, r7, r6
     dbc:	00240200 	eoreq	r0, r4, r0, lsl #4
     dc0:	0b3e0b0b 	bleq	f839f4 <__bss_end__+0xf7a52c>
     dc4:	00000803 	andeq	r0, r0, r3, lsl #16
     dc8:	0b002403 	bleq	9ddc <__bss_end__+0x914>
     dcc:	030b3e0b 	movweq	r3, #48651	; 0xbe0b
     dd0:	0400000e 	streq	r0, [r0], #-14
     dd4:	19270115 	stmdbne	r7!, {r0, r2, r4, r8}
     dd8:	13011349 	movwne	r1, #4937	; 0x1349
     ddc:	05050000 	streq	r0, [r5, #-0]
     de0:	00134900 	andseq	r4, r3, r0, lsl #18
     de4:	00340600 	eorseq	r0, r4, r0, lsl #12
     de8:	0b3a0e03 	bleq	e845fc <__bss_end__+0xe7b134>
     dec:	0b390b3b 	bleq	e43ae0 <__bss_end__+0xe3a618>
     df0:	193f1349 	ldmdbne	pc!, {r0, r3, r6, r8, r9, ip}	; <UNPREDICTABLE>
     df4:	0000193c 	andeq	r1, r0, ip, lsr r9
     df8:	0b000f07 	bleq	4a1c <__code_start__-0x35e4>
     dfc:	0013490b 	andseq	r4, r3, fp, lsl #18
     e00:	00260800 	eoreq	r0, r6, r0, lsl #16
     e04:	00001349 	andeq	r1, r0, r9, asr #6
     e08:	47003409 	strmi	r3, [r0, -r9, lsl #8]
     e0c:	3b0b3a13 	blcc	2cf660 <__bss_end__+0x2c6198>
     e10:	020b390b 	andeq	r3, fp, #180224	; 0x2c000
     e14:	0a000018 	beq	e7c <__code_start__-0x7184>
     e18:	193f012e 	ldmdbne	pc!, {r1, r2, r3, r5, r8}	; <UNPREDICTABLE>
     e1c:	0b3a0e03 	bleq	e84630 <__bss_end__+0xe7b168>
     e20:	0b390b3b 	bleq	e43b14 <__bss_end__+0xe3a64c>
     e24:	01111927 	tsteq	r1, r7, lsr #18
     e28:	18400612 	stmdane	r0, {r1, r4, r9, sl}^
     e2c:	01194297 			; <UNDEFINED> instruction: 0x01194297
     e30:	0b000013 	bleq	e84 <__code_start__-0x717c>
     e34:	08030005 	stmdaeq	r3, {r0, r2}
     e38:	0b3b0b3a 	bleq	ec3b28 <__bss_end__+0xeba660>
     e3c:	13490b39 	movtne	r0, #39737	; 0x9b39
     e40:	00001802 	andeq	r1, r0, r2, lsl #16
     e44:	3f002e0c 	svccc	0x00002e0c
     e48:	3a0e0319 	bcc	381ab4 <__bss_end__+0x3785ec>
     e4c:	390b3b0b 	stmdbcc	fp, {r0, r1, r3, r8, r9, fp, ip, sp}
     e50:	1119270b 	tstne	r9, fp, lsl #14
     e54:	40061201 	andmi	r1, r6, r1, lsl #4
     e58:	19429718 	stmdbne	r2, {r3, r4, r8, r9, sl, ip, pc}^
     e5c:	2e0d0000 	cdpcs	0, 0, cr0, cr13, cr0, {0}
     e60:	3a0e0301 	bcc	381a6c <__bss_end__+0x3785a4>
     e64:	390b3b0b 	stmdbcc	fp, {r0, r1, r3, r8, r9, fp, ip, sp}
     e68:	4919270b 	ldmdbmi	r9, {r0, r1, r3, r8, r9, sl, sp}
     e6c:	12011113 	andne	r1, r1, #-1073741820	; 0xc0000004
     e70:	97184006 	ldrls	r4, [r8, -r6]
     e74:	13011942 	movwne	r1, #6466	; 0x1942
     e78:	050e0000 	streq	r0, [lr, #-0]
     e7c:	3a080300 	bcc	201a84 <__bss_end__+0x1f85bc>
     e80:	390b3b0b 	stmdbcc	fp, {r0, r1, r3, r8, r9, fp, ip, sp}
     e84:	0213490b 	andseq	r4, r3, #180224	; 0x2c000
     e88:	1742b717 	smlaldne	fp, r2, r7, r7
     e8c:	890f0000 	stmdbhi	pc, {}	; <UNPREDICTABLE>
     e90:	11010182 	smlabbne	r1, r2, r1, r0
     e94:	00133101 	andseq	r3, r3, r1, lsl #2
     e98:	828a1000 	addhi	r1, sl, #0, 0
     e9c:	18020001 	stmdane	r2, {r0}
     ea0:	00184291 	mulseq	r8, r1, r2
     ea4:	002e1100 	eoreq	r1, lr, r0, lsl #2
     ea8:	193c193f 	ldmdbne	ip!, {r0, r1, r2, r3, r4, r5, r8, fp, ip}
     eac:	0e030e6e 	cdpeq	14, 0, cr0, cr3, cr14, {3}
     eb0:	0b3b0b3a 	bleq	ec3ba0 <__bss_end__+0xeba6d8>
     eb4:	00000b39 	andeq	r0, r0, r9, lsr fp
     eb8:	01110100 	tsteq	r1, r0, lsl #2
     ebc:	0b130e25 	bleq	4c4758 <__bss_end__+0x4bb290>
     ec0:	0e1b0e03 	cdpeq	14, 1, cr0, cr11, cr3, {0}
     ec4:	06120111 			; <UNDEFINED> instruction: 0x06120111
     ec8:	00001710 	andeq	r1, r0, r0, lsl r7
     ecc:	0b002402 	bleq	9edc <__bss_end__+0xa14>
     ed0:	030b3e0b 	movweq	r3, #48651	; 0xbe0b
     ed4:	03000008 	movweq	r0, #8
     ed8:	0b0b0024 	bleq	2c0f70 <__bss_end__+0x2b7aa8>
     edc:	0e030b3e 	vmoveq.16	d3[0], r0
     ee0:	15040000 	strne	r0, [r4, #-0]
     ee4:	49192701 	ldmdbmi	r9, {r0, r8, r9, sl, sp}
     ee8:	00130113 	andseq	r0, r3, r3, lsl r1
     eec:	00050500 	andeq	r0, r5, r0, lsl #10
     ef0:	00001349 	andeq	r1, r0, r9, asr #6
     ef4:	03003406 	movweq	r3, #1030	; 0x406
     ef8:	3b0b3a0e 	blcc	2cf738 <__bss_end__+0x2c6270>
     efc:	490b390b 	stmdbmi	fp, {r0, r1, r3, r8, fp, ip, sp}
     f00:	3c193f13 	ldccc	15, cr3, [r9], {19}
     f04:	07000019 	smladeq	r0, r9, r0, r0
     f08:	0b0b000f 	bleq	2c0f4c <__bss_end__+0x2b7a84>
     f0c:	00001349 	andeq	r1, r0, r9, asr #6
     f10:	49002608 	stmdbmi	r0, {r3, r9, sl, sp}
     f14:	09000013 	stmdbeq	r0, {r0, r1, r4}
     f18:	193f012e 	ldmdbne	pc!, {r1, r2, r3, r5, r8}	; <UNPREDICTABLE>
     f1c:	0b3a0e03 	bleq	e84730 <__bss_end__+0xe7b268>
     f20:	0b390b3b 	bleq	e43c14 <__bss_end__+0xe3a74c>
     f24:	13491927 	movtne	r1, #39207	; 0x9927
     f28:	06120111 			; <UNDEFINED> instruction: 0x06120111
     f2c:	42971840 	addsmi	r1, r7, #64, 16	; 0x400000
     f30:	00130119 	andseq	r0, r3, r9, lsl r1
     f34:	00050a00 	andeq	r0, r5, r0, lsl #20
     f38:	0b3a0e03 	bleq	e8474c <__bss_end__+0xe7b284>
     f3c:	0b390b3b 	bleq	e43c30 <__bss_end__+0xe3a768>
     f40:	18021349 	stmdane	r2, {r0, r3, r6, r8, r9, ip}
     f44:	050b0000 	streq	r0, [fp, #-0]
     f48:	3a080300 	bcc	201b50 <__bss_end__+0x1f8688>
     f4c:	390b3b0b 	stmdbcc	fp, {r0, r1, r3, r8, r9, fp, ip, sp}
     f50:	0213490b 	andseq	r4, r3, #180224	; 0x2c000
     f54:	1742b717 	smlaldne	fp, r2, r7, r7
     f58:	340c0000 	strcc	r0, [ip], #-0
     f5c:	3a080300 	bcc	201b64 <__bss_end__+0x1f869c>
     f60:	390b3b0b 	stmdbcc	fp, {r0, r1, r3, r8, r9, fp, ip, sp}
     f64:	0213490b 	andseq	r4, r3, #180224	; 0x2c000
     f68:	1742b717 	smlaldne	fp, r2, r7, r7
     f6c:	01000000 	mrseq	r0, (UNDEF: 0)
     f70:	0e250111 	mcreq	1, 1, r0, cr5, cr1, {0}
     f74:	0e030b13 	vmoveq.32	d3[0], r0
     f78:	17550e1b 	smmlane	r5, fp, lr, r0
     f7c:	17100111 			; <UNDEFINED> instruction: 0x17100111
     f80:	24020000 	strcs	r0, [r2], #-0
     f84:	3e0b0b00 	vmlacc.f64	d0, d11, d0
     f88:	0008030b 	andeq	r0, r8, fp, lsl #6
     f8c:	00160300 	andseq	r0, r6, r0, lsl #6
     f90:	0b3a0e03 	bleq	e847a4 <__bss_end__+0xe7b2dc>
     f94:	0b390b3b 	bleq	e43c88 <__bss_end__+0xe3a7c0>
     f98:	00001349 	andeq	r1, r0, r9, asr #6
     f9c:	0b002404 	bleq	9fb4 <__bss_end__+0xaec>
     fa0:	030b3e0b 	movweq	r3, #48651	; 0xbe0b
     fa4:	0500000e 	streq	r0, [r0, #-14]
     fa8:	13490026 	movtne	r0, #36902	; 0x9026
     fac:	15060000 	strne	r0, [r6, #-0]
     fb0:	49192701 	ldmdbmi	r9, {r0, r8, r9, sl, sp}
     fb4:	00130113 	andseq	r0, r3, r3, lsl r1
     fb8:	00050700 	andeq	r0, r5, r0, lsl #14
     fbc:	00001349 	andeq	r1, r0, r9, asr #6
     fc0:	03003408 	movweq	r3, #1032	; 0x408
     fc4:	3b0b3a0e 	blcc	2cf804 <__bss_end__+0x2c633c>
     fc8:	490b390b 	stmdbmi	fp, {r0, r1, r3, r8, fp, ip, sp}
     fcc:	3c193f13 	ldccc	15, cr3, [r9], {19}
     fd0:	09000019 	stmdbeq	r0, {r0, r3, r4}
     fd4:	0b0b000f 	bleq	2c1018 <__bss_end__+0x2b7b50>
     fd8:	00001349 	andeq	r1, r0, r9, asr #6
     fdc:	3f012e0a 	svccc	0x00012e0a
     fe0:	3a0e0319 	bcc	381c4c <__bss_end__+0x378784>
     fe4:	390b3b0b 	stmdbcc	fp, {r0, r1, r3, r8, r9, fp, ip, sp}
     fe8:	4919270b 	ldmdbmi	r9, {r0, r1, r3, r8, r9, sl, sp}
     fec:	12011113 	andne	r1, r1, #-1073741820	; 0xc0000004
     ff0:	97184006 	ldrls	r4, [r8, -r6]
     ff4:	13011942 	movwne	r1, #6466	; 0x1942
     ff8:	050b0000 	streq	r0, [fp, #-0]
     ffc:	3a080300 	bcc	201c04 <__bss_end__+0x1f873c>
    1000:	390b3b0b 	stmdbcc	fp, {r0, r1, r3, r8, r9, fp, ip, sp}
    1004:	0213490b 	andseq	r4, r3, #180224	; 0x2c000
    1008:	1742b717 	smlaldne	fp, r2, r7, r7
    100c:	340c0000 	strcc	r0, [ip], #-0
    1010:	3a080300 	bcc	201c18 <__bss_end__+0x1f8750>
    1014:	390b3b0b 	stmdbcc	fp, {r0, r1, r3, r8, r9, fp, ip, sp}
    1018:	0213490b 	andseq	r4, r3, #180224	; 0x2c000
    101c:	1742b717 	smlaldne	fp, r2, r7, r7
    1020:	Address 0x0000000000001020 is out of bounds.


Disassembly of section .debug_loc:

00000000 <.debug_loc>:
   0:	00000000 	andeq	r0, r0, r0
   4:	0000002c 	andeq	r0, r0, ip, lsr #32
   8:	0000002f 	andeq	r0, r0, pc, lsr #32
   c:	2f500001 	svccs	0x00500001
  10:	40000000 	andmi	r0, r0, r0
  14:	01000000 	mrseq	r0, (UNDEF: 0)
  18:	00005400 	andeq	r5, r0, r0, lsl #8
  1c:	00000000 	andeq	r0, r0, r0
  20:	00030000 	andeq	r0, r3, r0
  24:	006c0000 	rsbeq	r0, ip, r0
  28:	00740000 	rsbseq	r0, r4, r0
  2c:	00020000 	andeq	r0, r2, r0
  30:	00749f44 	rsbseq	r9, r4, r4, asr #30
  34:	00b40000 	adcseq	r0, r4, r0
  38:	00010000 	andeq	r0, r1, r0
  3c:	00000054 	andeq	r0, r0, r4, asr r0
  40:	00000000 	andeq	r0, r0, r0
  44:	b8000000 	stmdalt	r0, {}	; <UNPREDICTABLE>
  48:	18000000 	stmdane	r0, {}	; <UNPREDICTABLE>
  4c:	01000001 	tsteq	r0, r1
  50:	00005400 	andeq	r5, r0, r0, lsl #8
	...
  5c:	01500000 	cmpeq	r0, r0
  60:	015b0000 	cmpeq	fp, r0
  64:	00010000 	andeq	r0, r1, r0
  68:	00015b50 	andeq	r5, r1, r0, asr fp
  6c:	0001b400 	andeq	fp, r1, r0, lsl #8
  70:	55000100 	strpl	r0, [r0, #-256]	; 0xffffff00
	...
  84:	00000160 	andeq	r0, r0, r0, ror #2
  88:	00000170 	andeq	r0, r0, r0, ror r1
  8c:	70500001 	subsvc	r0, r0, r1
  90:	78000001 	stmdavc	r0, {r0}
  94:	01000001 	tsteq	r0, r1
  98:	01785400 	cmneq	r8, r0, lsl #8
  9c:	019c0000 	orrseq	r0, ip, r0
  a0:	00010000 	andeq	r0, r1, r0
  a4:	00019c50 	andeq	r9, r1, r0, asr ip
  a8:	0001b400 	andeq	fp, r1, r0, lsl #8
  ac:	54000100 	strpl	r0, [r0], #-256	; 0xffffff00
	...
  c0:	000000f0 	strdeq	r0, [r0], -r0	; <UNPREDICTABLE>
  c4:	0000010c 	andeq	r0, r0, ip, lsl #2
  c8:	0c500001 	mrrceq	0, 0, r0, r0, cr1	; <UNPREDICTABLE>
  cc:	1c000001 	stcne	0, cr0, [r0], {1}
  d0:	01000001 	tsteq	r0, r1
  d4:	011c5400 	tsteq	ip, r0, lsl #8
  d8:	013b0000 	teqeq	fp, r0
  dc:	00010000 	andeq	r0, r1, r0
  e0:	00013b50 	andeq	r3, r1, r0, asr fp
  e4:	00015000 	andeq	r5, r1, r0
  e8:	54000100 	strpl	r0, [r0], #-256	; 0xffffff00
	...
  fc:	000000f0 	strdeq	r0, [r0], -r0	; <UNPREDICTABLE>
 100:	0000010c 	andeq	r0, r0, ip, lsl #2
 104:	0c510001 	mrrceq	0, 0, r0, r1, cr1
 108:	1c000001 	stcne	0, cr0, [r0], {1}
 10c:	01000001 	tsteq	r0, r1
 110:	011c5500 	tsteq	ip, r0, lsl #10
 114:	013b0000 	teqeq	fp, r0
 118:	00010000 	andeq	r0, r1, r0
 11c:	00013b51 	andeq	r3, r1, r1, asr fp
 120:	00015000 	andeq	r5, r1, r0
 124:	55000100 	strpl	r0, [r0, #-256]	; 0xffffff00
	...
 134:	001c0000 	andseq	r0, ip, r0
 138:	002c0000 	eoreq	r0, ip, r0
 13c:	00010000 	andeq	r0, r1, r0
 140:	00002c50 	andeq	r2, r0, r0, asr ip
 144:	00002f00 	andeq	r2, r0, r0, lsl #30
 148:	51000100 	mrspl	r0, (UNDEF: 16)
 14c:	0000002f 	andeq	r0, r0, pc, lsr #32
 150:	00000038 	andeq	r0, r0, r8, lsr r0
 154:	01f30004 	mvnseq	r0, r4
 158:	00009f50 	andeq	r9, r0, r0, asr pc
	...
 168:	0000001c 	andeq	r0, r0, ip, lsl r0
 16c:	00000028 	andeq	r0, r0, r8, lsr #32
 170:	28510001 	ldmdacs	r1, {r0}^
 174:	2f000000 	svccs	0x00000000
 178:	01000000 	mrseq	r0, (UNDEF: 0)
 17c:	002f5200 	eoreq	r5, pc, r0, lsl #4
 180:	00380000 	eorseq	r0, r8, r0
 184:	00040000 	andeq	r0, r4, r0
 188:	9f5101f3 	svcls	0x005101f3
	...
 19c:	00100000 	andseq	r0, r0, r0
 1a0:	00010000 	andeq	r0, r1, r0
 1a4:	00001050 	andeq	r1, r0, r0, asr r0
 1a8:	00001300 	andeq	r1, r0, r0, lsl #6
 1ac:	51000100 	mrspl	r0, (UNDEF: 16)
 1b0:	00000013 	andeq	r0, r0, r3, lsl r0
 1b4:	0000001c 	andeq	r0, r0, ip, lsl r0
 1b8:	01f30004 	mvnseq	r0, r4
 1bc:	00009f50 	andeq	r9, r0, r0, asr pc
	...
 1d0:	0000000c 	andeq	r0, r0, ip
 1d4:	0c510001 	mrrceq	0, 0, r0, r1, cr1
 1d8:	13000000 	movwne	r0, #0
 1dc:	01000000 	mrseq	r0, (UNDEF: 0)
 1e0:	00135200 	andseq	r5, r3, r0, lsl #4
 1e4:	001c0000 	andseq	r0, ip, r0
 1e8:	00040000 	andeq	r0, r4, r0
 1ec:	9f5101f3 	svcls	0x005101f3
	...
 1fc:	00000038 	andeq	r0, r0, r8, lsr r0
 200:	00000078 	andeq	r0, r0, r8, ror r0
 204:	78500001 	ldmdavc	r0, {r0}^
 208:	94000000 	strls	r0, [r0], #-0
 20c:	04000000 	streq	r0, [r0], #-0
 210:	5001f300 	andpl	pc, r1, r0, lsl #6
 214:	0000009f 	muleq	r0, pc, r0	; <UNPREDICTABLE>
	...
 220:	2c000000 	stccs	0, cr0, [r0], {-0}
 224:	38000000 	stmdacc	r0, {}	; <UNPREDICTABLE>
 228:	01000000 	mrseq	r0, (UNDEF: 0)
 22c:	00385000 	eorseq	r5, r8, r0
 230:	00480000 	subeq	r0, r8, r0
 234:	00010000 	andeq	r0, r1, r0
 238:	00004854 	andeq	r4, r0, r4, asr r8
 23c:	00005800 	andeq	r5, r0, r0, lsl #16
 240:	50000100 	andpl	r0, r0, r0, lsl #2
	...
 24c:	00010100 	andeq	r0, r1, r0, lsl #2
 250:	00000000 	andeq	r0, r0, r0
 254:	00000008 	andeq	r0, r0, r8
 258:	08500001 	ldmdaeq	r0, {r0}^
 25c:	34000000 	strcc	r0, [r0], #-0
 260:	01000000 	mrseq	r0, (UNDEF: 0)
 264:	00005400 	andeq	r5, r0, r0, lsl #8
	...
 274:	00000288 	andeq	r0, r0, r8, lsl #5
 278:	000002b8 			; <UNDEFINED> instruction: 0x000002b8
 27c:	b8500001 	ldmdalt	r0, {r0}^
 280:	04000002 	streq	r0, [r0], #-2
 284:	01000006 	tsteq	r0, r6
 288:	06045900 	streq	r5, [r4], -r0, lsl #18
 28c:	062c0000 	strteq	r0, [ip], -r0
 290:	00040000 	andeq	r0, r4, r0
 294:	9f5001f3 	svcls	0x005001f3
	...
 2a4:	02880000 	addeq	r0, r8, #0, 0
 2a8:	02a00000 	adceq	r0, r0, #0, 0
 2ac:	00010000 	andeq	r0, r1, r0
 2b0:	0002a051 	andeq	sl, r2, r1, asr r0
 2b4:	0002b800 	andeq	fp, r2, r0, lsl #16
 2b8:	71000300 	mrsvc	r0, LR_irq
 2bc:	02b89f01 	adcseq	r9, r8, #1, 30
 2c0:	062c0000 	strteq	r0, [ip], -r0
 2c4:	00040000 	andeq	r0, r4, r0
 2c8:	9f5101f3 	svcls	0x005101f3
	...
 2d8:	00000288 	andeq	r0, r0, r8, lsl #5
 2dc:	000002b8 			; <UNDEFINED> instruction: 0x000002b8
 2e0:	b8520001 	ldmdalt	r2, {r0}^
 2e4:	04000002 	streq	r0, [r0], #-2
 2e8:	01000006 	tsteq	r0, r6
 2ec:	00005600 	andeq	r5, r0, r0, lsl #12
 2f0:	00000000 	andeq	r0, r0, r0
 2f4:	00010000 	andeq	r0, r1, r0
 2f8:	00000000 	andeq	r0, r0, r0
 2fc:	00010100 	andeq	r0, r1, r0, lsl #2
 300:	00000000 	andeq	r0, r0, r0
 304:	00020200 	andeq	r0, r2, r0, lsl #4
 308:	029c0000 	addseq	r0, ip, #0, 0
 30c:	02b80000 	adcseq	r0, r8, #0, 0
 310:	00010000 	andeq	r0, r1, r0
 314:	0002b850 	andeq	fp, r2, r0, asr r8
 318:	0002bc00 	andeq	fp, r2, r0, lsl #24
 31c:	54000100 	strpl	r0, [r0], #-256	; 0xffffff00
 320:	000002bc 			; <UNDEFINED> instruction: 0x000002bc
 324:	000002c0 	andeq	r0, r0, r0, asr #5
 328:	01740003 	cmneq	r4, r3
 32c:	0002c09f 	muleq	r2, pc, r0	; <UNPREDICTABLE>
 330:	0002e400 	andeq	lr, r2, r0, lsl #8
 334:	54000100 	strpl	r0, [r0], #-256	; 0xffffff00
 338:	000002e4 	andeq	r0, r0, r4, ror #5
 33c:	000002e8 	andeq	r0, r0, r8, ror #5
 340:	01740003 	cmneq	r4, r3
 344:	0002e89f 	muleq	r2, pc, r8	; <UNPREDICTABLE>
 348:	0005d400 	andeq	sp, r5, r0, lsl #8
 34c:	54000100 	strpl	r0, [r0], #-256	; 0xffffff00
 350:	000005d4 	ldrdeq	r0, [r0], -r4
 354:	000005d8 	ldrdeq	r0, [r0], -r8
 358:	01740003 	cmneq	r4, r3
 35c:	0005d89f 	muleq	r5, pc, r8	; <UNPREDICTABLE>
 360:	0005f000 	andeq	pc, r5, r0
 364:	54000100 	strpl	r0, [r0], #-256	; 0xffffff00
 368:	000005f0 	strdeq	r0, [r0], -r0	; <UNPREDICTABLE>
 36c:	000005f8 	strdeq	r0, [r0], -r8
 370:	01740003 	cmneq	r4, r3
 374:	0005f89f 	muleq	r5, pc, r8	; <UNPREDICTABLE>
 378:	00060400 	andeq	r0, r6, r0, lsl #8
 37c:	54000100 	strpl	r0, [r0], #-256	; 0xffffff00
	...
 38c:	000002a4 	andeq	r0, r0, r4, lsr #5
 390:	00000604 	andeq	r0, r0, r4, lsl #12
 394:	04580001 	ldrbeq	r0, [r8], #-1
 398:	2c000006 	stccs	0, cr0, [r0], {6}
 39c:	0a000006 	beq	3bc <__code_start__-0x7c44>
 3a0:	5101f300 	mrspl	pc, SP_irq	; <UNPREDICTABLE>
 3a4:	225001f3 	subscs	r0, r0, #-1073741764	; 0xc000003c
 3a8:	009f1c31 	addseq	r1, pc, r1, lsr ip	; <UNPREDICTABLE>
 3ac:	00000000 	andeq	r0, r0, r0
 3b0:	01000000 	mrseq	r0, (UNDEF: 0)
 3b4:	0003f000 	andeq	pc, r3, r0
 3b8:	00040b00 	andeq	r0, r4, r0, lsl #22
 3bc:	53000100 	movwpl	r0, #256	; 0x100
	...
 3c8:	00000001 	andeq	r0, r0, r1
 3cc:	000002ac 	andeq	r0, r0, ip, lsr #5
 3d0:	000002b8 			; <UNDEFINED> instruction: 0x000002b8
 3d4:	b8520001 	ldmdalt	r2, {r0}^
 3d8:	2c000002 	stccs	0, cr0, [r0], {2}
 3dc:	03000006 	movweq	r0, #6
 3e0:	7dc89100 	stfvcp	f1, [r8]
	...
 3f0:	00010100 	andeq	r0, r1, r0, lsl #2
	...
 3fc:	04100000 	ldreq	r0, [r0], #-0
 400:	04280000 	strteq	r0, [r8], #-0
 404:	00010000 	andeq	r0, r1, r0
 408:	00042850 	andeq	r2, r4, r0, asr r8
 40c:	00043c00 	andeq	r3, r4, r0, lsl #24
 410:	57000100 	strpl	r0, [r0, -r0, lsl #2]
 414:	000004a4 	andeq	r0, r0, r4, lsr #9
 418:	000004a4 	andeq	r0, r0, r4, lsr #9
 41c:	a4500001 	ldrbge	r0, [r0], #-1
 420:	ac000004 	stcge	0, cr0, [r0], {4}
 424:	01000004 	tsteq	r0, r4
 428:	04dc5700 	ldrbeq	r5, [ip], #1792	; 0x700
 42c:	04e00000 	strbteq	r0, [r0], #0
 430:	00010000 	andeq	r0, r1, r0
 434:	00051050 	andeq	r1, r5, r0, asr r0
 438:	00051400 	andeq	r1, r5, r0, lsl #8
 43c:	50000100 	andpl	r0, r0, r0, lsl #2
 440:	00000544 	andeq	r0, r0, r4, asr #10
 444:	00000548 	andeq	r0, r0, r8, asr #10
 448:	8c500001 	mrrchi	0, 0, r0, r0, cr1	; <UNPREDICTABLE>
 44c:	90000005 	andls	r0, r0, r5
 450:	01000005 	tsteq	r0, r5
 454:	05d05000 	ldrbeq	r5, [r0]
 458:	05f00000 	ldrbeq	r0, [r0, #0]!
 45c:	00010000 	andeq	r0, r1, r0
 460:	00000057 	andeq	r0, r0, r7, asr r0
 464:	00000000 	andeq	r0, r0, r0
 468:	00000200 	andeq	r0, r0, r0, lsl #4
 46c:	f4000000 	vst4.8	{d0-d3}, [r0], r0
 470:	f8000002 			; <UNDEFINED> instruction: 0xf8000002
 474:	02000002 	andeq	r0, r0, #2, 0
 478:	f89f3000 			; <UNDEFINED> instruction: 0xf89f3000
 47c:	14000002 	strne	r0, [r0], #-2
 480:	01000003 	tsteq	r0, r3
 484:	031c5500 	tsteq	ip, #0, 10
 488:	05f00000 	ldrbeq	r0, [r0, #0]!
 48c:	00010000 	andeq	r0, r1, r0
 490:	00000055 	andeq	r0, r0, r5, asr r0
	...
 49c:	70000000 	andvc	r0, r0, r0
 4a0:	94000000 	strls	r0, [r0], #-0
 4a4:	01000000 	mrseq	r0, (UNDEF: 0)
 4a8:	00945000 	addseq	r5, r4, r0
 4ac:	00fc0000 	rscseq	r0, ip, r0
 4b0:	00030000 	andeq	r0, r3, r0
 4b4:	fc9f0270 	ldc2	2, cr0, [pc], {112}	; 0x70
 4b8:	24000000 	strcs	r0, [r0], #-0
 4bc:	04000002 	streq	r0, [r0], #-2
 4c0:	5001f300 	andpl	pc, r1, r0, lsl #6
 4c4:	0000009f 	muleq	r0, pc, r0	; <UNPREDICTABLE>
	...
 4dc:	00007000 	andeq	r7, r0, r0
 4e0:	0000e000 	andeq	lr, r0, r0
 4e4:	51000100 	mrspl	r0, (UNDEF: 16)
 4e8:	000000e0 	andeq	r0, r0, r0, ror #1
 4ec:	00000154 	andeq	r0, r0, r4, asr r1
 4f0:	54550001 	ldrbpl	r0, [r5], #-1
 4f4:	58000001 	stmdapl	r0, {r0}
 4f8:	01000001 	tsteq	r0, r1
 4fc:	01585100 	cmpeq	r8, r0, lsl #2
 500:	01b00000 	movseq	r0, r0
 504:	00010000 	andeq	r0, r1, r0
 508:	0001b055 	andeq	fp, r1, r5, asr r0
 50c:	0001c000 	andeq	ip, r1, r0
 510:	51000100 	mrspl	r0, (UNDEF: 16)
 514:	000001c0 	andeq	r0, r0, r0, asr #3
 518:	000001e4 	andeq	r0, r0, r4, ror #3
 51c:	e4550001 	ldrb	r0, [r5], #-1
 520:	f8000001 			; <UNDEFINED> instruction: 0xf8000001
 524:	01000001 	tsteq	r0, r1
 528:	01f85100 	mvnseq	r5, r0, lsl #2
 52c:	02240000 	eoreq	r0, r4, #0, 0
 530:	00010000 	andeq	r0, r1, r0
 534:	00000055 	andeq	r0, r0, r5, asr r0
	...
 540:	00007000 	andeq	r7, r0, r0
 544:	00008400 	andeq	r8, r0, r0, lsl #8
 548:	52000100 	andpl	r0, r0, #0
 54c:	00000084 	andeq	r0, r0, r4, lsl #1
 550:	00000224 	andeq	r0, r0, r4, lsr #4
 554:	00540001 	subseq	r0, r4, r1
	...
 564:	00000001 	andeq	r0, r0, r1
 568:	70000000 	andvc	r0, r0, r0
 56c:	f4000000 	vst4.8	{d0-d3}, [r0], r0
 570:	01000000 	mrseq	r0, (UNDEF: 0)
 574:	014c5300 	mrseq	r5, SPSR_mon
 578:	01800000 	orreq	r0, r0, r0
 57c:	00010000 	andeq	r0, r1, r0
 580:	00018053 	andeq	r8, r1, r3, asr r0
 584:	00018c00 	andeq	r8, r1, r0, lsl #24
 588:	f3000400 	vshl.u8	d0, d0, d0
 58c:	b09f5301 	addslt	r5, pc, r1, lsl #6
 590:	e8000001 	stmda	r0, {r0}
 594:	01000001 	tsteq	r0, r1
 598:	01e85300 	mvneq	r5, r0, lsl #6
 59c:	01ff0000 	mvnseq	r0, r0
 5a0:	00010000 	andeq	r0, r1, r0
 5a4:	0001ff5c 	andeq	pc, r1, ip, asr pc	; <UNPREDICTABLE>
 5a8:	00022400 	andeq	r2, r2, r0, lsl #8
 5ac:	f3000400 	vshl.u8	d0, d0, d0
 5b0:	009f5301 	addseq	r5, pc, r1, lsl #6
	...
 5c0:	00007000 	andeq	r7, r0, r0
 5c4:	00008c00 	andeq	r8, r0, r0, lsl #24
 5c8:	91000200 	mrsls	r0, R8_usr
 5cc:	00008c00 	andeq	r8, r0, r0, lsl #24
 5d0:	00019300 	andeq	r9, r1, r0, lsl #6
 5d4:	52000100 	andpl	r0, r0, #0
 5d8:	000001b0 			; <UNDEFINED> instruction: 0x000001b0
 5dc:	000001f4 	strdeq	r0, [r0], -r4
 5e0:	00520001 	subseq	r0, r2, r1
 5e4:	00000000 	andeq	r0, r0, r0
 5e8:	01000000 	mrseq	r0, (UNDEF: 0)
 5ec:	01010000 	mrseq	r0, (UNDEF: 1)
	...
 5f8:	01010101 	tsteq	r1, r1, lsl #2
 5fc:	01010000 	mrseq	r0, (UNDEF: 1)
	...
 608:	8c000000 	stchi	0, cr0, [r0], {-0}
 60c:	fc000000 	stc2	0, cr0, [r0], {-0}
 610:	04000000 	streq	r0, [r0], #-0
 614:	7fa09100 	svcvc	0x00a09100
 618:	0000fc9f 	muleq	r0, pc, ip	; <UNPREDICTABLE>
 61c:	00013c00 	andeq	r3, r1, r0, lsl #24
 620:	50000100 	andpl	r0, r0, r0, lsl #2
 624:	0000013c 	andeq	r0, r0, ip, lsr r1
 628:	00000148 	andeq	r0, r0, r8, asr #2
 62c:	02710003 	rsbseq	r0, r1, #3, 0
 630:	0001489f 	muleq	r1, pc, r8	; <UNPREDICTABLE>
 634:	00014c00 	andeq	r4, r1, r0, lsl #24
 638:	50000100 	andpl	r0, r0, r0, lsl #2
 63c:	0000014c 	andeq	r0, r0, ip, asr #2
 640:	00000158 	andeq	r0, r0, r8, asr r1
 644:	a0910004 	addsge	r0, r1, r4
 648:	01589f7f 	cmpeq	r8, pc, ror pc
 64c:	016c0000 	cmneq	ip, r0
 650:	00010000 	andeq	r0, r1, r0
 654:	00016c51 	andeq	r6, r1, r1, asr ip
 658:	00017800 	andeq	r7, r1, r0, lsl #16
 65c:	71000300 	mrsvc	r0, LR_irq
 660:	01789f7f 	cmneq	r8, pc, ror pc
 664:	01840000 	orreq	r0, r4, r0
 668:	00030000 	andeq	r0, r3, r0
 66c:	849f0171 	ldrhi	r0, [pc], #369	; 674 <__code_start__-0x798c>
 670:	93000001 	movwls	r0, #1
 674:	01000001 	tsteq	r0, r1
 678:	01b05000 	movseq	r5, r0
 67c:	01b00000 	movseq	r0, r0
 680:	00040000 	andeq	r0, r4, r0
 684:	9f7fa091 	svcls	0x007fa091
 688:	000001b0 			; <UNDEFINED> instruction: 0x000001b0
 68c:	000001b8 			; <UNDEFINED> instruction: 0x000001b8
 690:	a1910004 	orrsge	r0, r1, r4
 694:	01b89f7f 			; <UNDEFINED> instruction: 0x01b89f7f
 698:	01bc0000 			; <UNDEFINED> instruction: 0x01bc0000
 69c:	00010000 	andeq	r0, r1, r0
 6a0:	0001bc50 	andeq	fp, r1, r0, asr ip
 6a4:	0001c000 	andeq	ip, r1, r0
 6a8:	91000400 	tstls	r0, r0, lsl #8
 6ac:	c09f7fa0 	addsgt	r7, pc, r0, lsr #31
 6b0:	d4000001 	strle	r0, [r0], #-1
 6b4:	01000001 	tsteq	r0, r1
 6b8:	01d45000 	bicseq	r5, r4, r0
 6bc:	01e40000 	mvneq	r0, r0
 6c0:	00030000 	andeq	r0, r3, r0
 6c4:	e49f7f70 	ldr	r7, [pc], #3952	; 6cc <__code_start__-0x7934>
 6c8:	24000001 	strcs	r0, [r0], #-1
 6cc:	04000002 	streq	r0, [r0], #-2
 6d0:	7fa09100 	svcvc	0x00a09100
 6d4:	0000009f 	muleq	r0, pc, r0	; <UNPREDICTABLE>
	...
 6e0:	00000101 	andeq	r0, r0, r1, lsl #2
	...
 6f0:	00009000 	andeq	r9, r0, r0
 6f4:	0000dc00 	andeq	sp, r0, r0, lsl #24
 6f8:	5c000100 	stfpls	f0, [r0], {-0}
 6fc:	000000dc 	ldrdeq	r0, [r0], -ip
 700:	000000f4 	strdeq	r0, [r0], -r4
 704:	f4530001 			; <UNDEFINED> instruction: 0xf4530001
 708:	4c000000 	stcmi	0, cr0, [r0], {-0}
 70c:	01000001 	tsteq	r0, r1
 710:	014c5c00 	cmpeq	ip, r0, lsl #24
 714:	01580000 	cmpeq	r8, r0
 718:	00010000 	andeq	r0, r1, r0
 71c:	00015853 	andeq	r5, r1, r3, asr r8
 720:	00017400 	andeq	r7, r1, r0, lsl #8
 724:	5c000100 	stfpls	f0, [r0], {-0}
 728:	000001b0 			; <UNDEFINED> instruction: 0x000001b0
 72c:	000001c0 	andeq	r0, r0, r0, asr #3
 730:	c0530001 	subsgt	r0, r3, r1
 734:	dc000001 	stcle	0, cr0, [r0], {1}
 738:	01000001 	tsteq	r0, r1
 73c:	01e45c00 	mvneq	r5, r0, lsl #24
 740:	01e80000 	mvneq	r0, r0
 744:	00010000 	andeq	r0, r1, r0
 748:	0001e853 	andeq	lr, r1, r3, asr r8
 74c:	0001ff00 	andeq	pc, r1, r0, lsl #30
 750:	5c000100 	stfpls	f0, [r0], {-0}
 754:	000001ff 	strdeq	r0, [r0], -pc	; <UNPREDICTABLE>
 758:	00000224 	andeq	r0, r0, r4, lsr #4
 75c:	01f30004 	mvnseq	r0, r4
 760:	00009f53 	andeq	r9, r0, r3, asr pc
 764:	00000000 	andeq	r0, r0, r0
 768:	01010000 	mrseq	r0, (UNDEF: 1)
 76c:	00000001 	andeq	r0, r0, r1
 770:	00dc0000 	sbcseq	r0, ip, r0
 774:	00f00000 	rscseq	r0, r0, r0
 778:	00020000 	andeq	r0, r2, r0
 77c:	00f09f30 	rscseq	r9, r0, r0, lsr pc
 780:	00f80000 	rscseq	r0, r8, r0
 784:	00020000 	andeq	r0, r2, r0
 788:	00fc9f31 	rscseq	r9, ip, r1, lsr pc
 78c:	014c0000 	mrseq	r0, (UNDEF: 76)
 790:	00010000 	andeq	r0, r1, r0
 794:	00014c56 	andeq	r4, r1, r6, asr ip
 798:	00015400 	andeq	r5, r1, r0, lsl #8
 79c:	30000200 	andcc	r0, r0, r0, lsl #4
 7a0:	0000009f 	muleq	r0, pc, r0	; <UNPREDICTABLE>
	...
 7ac:	00000101 	andeq	r0, r0, r1, lsl #2
 7b0:	38000101 	stmdacc	r0, {r0, r8}
 7b4:	54000000 	strpl	r0, [r0], #-0
 7b8:	01000000 	mrseq	r0, (UNDEF: 0)
 7bc:	00545000 	subseq	r5, r4, r0
 7c0:	00580000 	subseq	r0, r8, r0
 7c4:	00010000 	andeq	r0, r1, r0
 7c8:	00005852 	andeq	r5, r0, r2, asr r8
 7cc:	00006000 	andeq	r6, r0, r0
 7d0:	72000300 	andvc	r0, r0, #0, 6
 7d4:	00609f01 	rsbeq	r9, r0, r1, lsl #30
 7d8:	00640000 	rsbeq	r0, r4, r0
 7dc:	00010000 	andeq	r0, r1, r0
 7e0:	00006452 	andeq	r6, r0, r2, asr r4
 7e4:	00007000 	andeq	r7, r0, r0
 7e8:	72000300 	andvc	r0, r0, #0, 6
 7ec:	00009f01 	andeq	r9, r0, r1, lsl #30
	...
 7f8:	00380000 	eorseq	r0, r8, r0
 7fc:	00500000 	subseq	r0, r0, r0
 800:	00010000 	andeq	r0, r1, r0
 804:	00005051 	andeq	r5, r0, r1, asr r0
 808:	00007000 	andeq	r7, r0, r0
 80c:	f3000400 	vshl.u8	d0, d0, d0
 810:	009f5101 	addseq	r5, pc, r1, lsl #2
	...
 820:	38000101 	stmdacc	r0, {r0, r8}
 824:	50000000 	andpl	r0, r0, r0
 828:	01000000 	mrseq	r0, (UNDEF: 0)
 82c:	00505200 	subseq	r5, r0, r0, lsl #4
 830:	005c0000 	subseq	r0, ip, r0
 834:	00010000 	andeq	r0, r1, r0
 838:	00005c51 	andeq	r5, r0, r1, asr ip
 83c:	00006000 	andeq	r6, r0, r0
 840:	71000300 	mrsvc	r0, LR_irq
 844:	00609f01 	rsbeq	r9, r0, r1, lsl #30
 848:	00700000 	rsbseq	r0, r0, r0
 84c:	00010000 	andeq	r0, r1, r0
 850:	00000051 	andeq	r0, r0, r1, asr r0
	...
 85c:	00003800 	andeq	r3, r0, r0, lsl #16
 860:	00004c00 	andeq	r4, r0, r0, lsl #24
 864:	53000100 	movwpl	r0, #256	; 0x100
 868:	0000004c 	andeq	r0, r0, ip, asr #32
 86c:	00000068 	andeq	r0, r0, r8, rrx
 870:	00530001 	subseq	r0, r3, r1
	...
 880:	40000000 	andmi	r0, r0, r0
 884:	48000000 	stmdami	r0, {}	; <UNPREDICTABLE>
 888:	01000000 	mrseq	r0, (UNDEF: 0)
 88c:	00485c00 	subeq	r5, r8, r0, lsl #24
 890:	004c0000 	subeq	r0, ip, r0
 894:	00080000 	andeq	r0, r8, r0
 898:	00730072 	rsbseq	r0, r3, r2, ror r0
 89c:	9f01231c 	svcls	0x0001231c
 8a0:	0000004c 	andeq	r0, r0, ip, asr #32
 8a4:	00000054 	andeq	r0, r0, r4, asr r0
 8a8:	00720009 	rsbseq	r0, r2, r9
 8ac:	1c5301f3 	ldfnee	f0, [r3], {243}	; 0xf3
 8b0:	549f0123 	ldrpl	r0, [pc], #291	; 8b8 <__code_start__-0x7748>
 8b4:	70000000 	andvc	r0, r0, r0
 8b8:	0a000000 	beq	8c0 <__code_start__-0x7740>
 8bc:	5201f300 	andpl	pc, r1, #0, 6
 8c0:	1c5301f3 	ldfnee	f0, [r3], {243}	; 0xf3
 8c4:	009f0123 	addseq	r0, pc, r3, lsr #2
 8c8:	00000000 	andeq	r0, r0, r0
 8cc:	01000000 	mrseq	r0, (UNDEF: 0)
 8d0:	00004c00 	andeq	r4, r0, r0, lsl #24
 8d4:	00007000 	andeq	r7, r0, r0
 8d8:	50000100 	andpl	r0, r0, r0, lsl #2
	...
 8e4:	00010100 	andeq	r0, r1, r0, lsl #2
 8e8:	00140000 	andseq	r0, r4, r0
 8ec:	001c0000 	andseq	r0, ip, r0
 8f0:	00010000 	andeq	r0, r1, r0
 8f4:	00001c50 	andeq	r1, r0, r0, asr ip
 8f8:	00002400 	andeq	r2, r0, r0, lsl #8
 8fc:	70000300 	andvc	r0, r0, r0, lsl #6
 900:	00249f01 	eoreq	r9, r4, r1, lsl #30
 904:	00380000 	eorseq	r0, r8, r0
 908:	00010000 	andeq	r0, r1, r0
 90c:	00000050 	andeq	r0, r0, r0, asr r0
	...
 918:	00001400 	andeq	r1, r0, r0, lsl #8
 91c:	00001800 	andeq	r1, r0, r0, lsl #16
 920:	51000100 	mrspl	r0, (UNDEF: 16)
 924:	00000018 	andeq	r0, r0, r8, lsl r0
 928:	00000038 	andeq	r0, r0, r8, lsr r0
 92c:	01f30004 	mvnseq	r0, r4
 930:	00009f51 	andeq	r9, r0, r1, asr pc
	...
 93c:	00000018 	andeq	r0, r0, r8, lsl r0
 940:	00000038 	andeq	r0, r0, r8, lsr r0
 944:	00510001 	subseq	r0, r1, r1
	...
 958:	00000400 	andeq	r0, r0, r0, lsl #8
 95c:	50000100 	andpl	r0, r0, r0, lsl #2
 960:	00000004 	andeq	r0, r0, r4
 964:	0000000c 	andeq	r0, r0, ip
 968:	30700003 	rsbscc	r0, r0, r3
 96c:	00000c9f 	muleq	r0, pc, ip	; <UNPREDICTABLE>
 970:	00001400 	andeq	r1, r0, r0, lsl #8
 974:	f3000400 	vshl.u8	d0, d0, d0
 978:	009f5001 	addseq	r5, pc, r1
	...
 984:	24000000 	strcs	r0, [r0], #-0
 988:	68000002 	stmdavs	r0, {r1}
 98c:	01000002 	tsteq	r0, r2
 990:	02685000 	rsbeq	r5, r8, #0, 0
 994:	02880000 	addeq	r0, r8, #0, 0
 998:	00040000 	andeq	r0, r4, r0
 99c:	9f5001f3 	svcls	0x005001f3
	...
 9ac:	00000224 	andeq	r0, r0, r4, lsr #4
 9b0:	00000264 	andeq	r0, r0, r4, ror #4
 9b4:	64510001 	ldrbvs	r0, [r1], #-1
 9b8:	88000002 	stmdahi	r0, {r1}
 9bc:	04000002 	streq	r0, [r0], #-2
 9c0:	5101f300 	mrspl	pc, SP_irq	; <UNPREDICTABLE>
 9c4:	0000009f 	muleq	r0, pc, r0	; <UNPREDICTABLE>
 9c8:	00000000 	andeq	r0, r0, r0
 9cc:	01010000 	mrseq	r0, (UNDEF: 1)
 9d0:	0c000000 	stceq	0, cr0, [r0], {-0}
 9d4:	14000000 	strne	r0, [r0], #-0
 9d8:	01000000 	mrseq	r0, (UNDEF: 0)
 9dc:	00145300 	andseq	r5, r4, r0, lsl #6
 9e0:	001c0000 	andseq	r0, ip, r0
 9e4:	00030000 	andeq	r0, r3, r0
 9e8:	1c9f0473 	cfldrsne	mvf0, [pc], {115}	; 0x73
 9ec:	23000000 	movwcs	r0, #0
 9f0:	01000000 	mrseq	r0, (UNDEF: 0)
 9f4:	00005300 	andeq	r5, r0, r0, lsl #6
 9f8:	00000000 	andeq	r0, r0, r0
 9fc:	00010000 	andeq	r0, r1, r0
 a00:	00008a60 	andeq	r8, r0, r0, ror #20
 a04:	00008a7c 	andeq	r8, r0, ip, ror sl
 a08:	1c0c0006 	stcne	0, cr0, [ip], {6}
 a0c:	9f201000 	svcls	0x00201000
	...
 a18:	8a600002 	bhi	1800a28 <__bss_end__+0x17f7560>
 a1c:	8a7c0000 	bhi	1f00a24 <__bss_end__+0x1ef755c>
 a20:	00060000 	andeq	r0, r6, r0
 a24:	1000240c 	andne	r2, r0, ip, lsl #8
 a28:	00009f20 	andeq	r9, r0, r0, lsr #30
 a2c:	00000000 	andeq	r0, r0, r0
 a30:	00030000 	andeq	r0, r3, r0
 a34:	00008a60 	andeq	r8, r0, r0, ror #20
 a38:	00008a7c 	andeq	r8, r0, ip, ror sl
 a3c:	b4080005 	strlt	r0, [r8], #-5
 a40:	009f2447 	addseq	r2, pc, r7, asr #8
 a44:	00000000 	andeq	r0, r0, r0
 a48:	04000000 	streq	r0, [r0], #-0
 a4c:	008a6000 	addeq	r6, sl, r0
 a50:	008a7c00 	addeq	r7, sl, r0, lsl #24
 a54:	08000300 	stmdaeq	r0, {r8, r9}
 a58:	00009f20 	andeq	r9, r0, r0, lsr #30
 a5c:	00000000 	andeq	r0, r0, r0
 a60:	00020000 	andeq	r0, r2, r0
 a64:	00000000 	andeq	r0, r0, r0
 a68:	00008a30 	andeq	r8, r0, r0, lsr sl
 a6c:	00008a34 	andeq	r8, r0, r4, lsr sl
 a70:	9f300002 	svcls	0x00300002
 a74:	00008a34 	andeq	r8, r0, r4, lsr sl
 a78:	00008a38 	andeq	r8, r0, r8, lsr sl
 a7c:	3c530001 	mrrccc	0, 0, r0, r3, cr1
 a80:	4400008a 	strmi	r0, [r0], #-138	; 0xffffff76
 a84:	0100008a 	smlabbeq	r0, sl, r0, r0
 a88:	00005300 	andeq	r5, r0, r0, lsl #6
 a8c:	00000000 	andeq	r0, r0, r0
 a90:	00020000 	andeq	r0, r2, r0
 a94:	8a180000 	bhi	600a9c <__bss_end__+0x5f75d4>
 a98:	8a1c0000 	bhi	700aa0 <__bss_end__+0x6f75d8>
 a9c:	00020000 	andeq	r0, r2, r0
 aa0:	8a1c9f30 	bhi	728768 <__bss_end__+0x71f2a0>
 aa4:	8a200000 	bhi	800aac <__bss_end__+0x7f75e4>
 aa8:	00010000 	andeq	r0, r1, r0
 aac:	00000050 	andeq	r0, r0, r0, asr r0
	...
 ab8:	00008400 	andeq	r8, r0, r0, lsl #8
 abc:	00009000 	andeq	r9, r0, r0
 ac0:	50000100 	andpl	r0, r0, r0, lsl #2
 ac4:	00000090 	muleq	r0, r0, r0
 ac8:	0000009c 	muleq	r0, ip, r0
 acc:	01f30004 	mvnseq	r0, r4
 ad0:	00009f50 	andeq	r9, r0, r0, asr pc
	...
 adc:	006c0000 	rsbeq	r0, ip, r0
 ae0:	00780000 	rsbseq	r0, r8, r0
 ae4:	00010000 	andeq	r0, r1, r0
 ae8:	00007850 	andeq	r7, r0, r0, asr r8
 aec:	00008400 	andeq	r8, r0, r0, lsl #8
 af0:	f3000400 	vshl.u8	d0, d0, d0
 af4:	009f5001 	addseq	r5, pc, r1
	...
 b00:	48000000 	stmdami	r0, {}	; <UNPREDICTABLE>
 b04:	53000000 	movwpl	r0, #0
 b08:	01000000 	mrseq	r0, (UNDEF: 0)
 b0c:	00535000 	subseq	r5, r3, r0
 b10:	006c0000 	rsbeq	r0, ip, r0
 b14:	00010000 	andeq	r0, r1, r0
 b18:	00000055 	andeq	r0, r0, r5, asr r0
 b1c:	00000000 	andeq	r0, r0, r0
 b20:	58000000 	stmdapl	r0, {}	; <UNPREDICTABLE>
 b24:	6c000000 	stcvs	0, cr0, [r0], {-0}
 b28:	01000000 	mrseq	r0, (UNDEF: 0)
 b2c:	00005400 	andeq	r5, r0, r0, lsl #8
	...
 b38:	0000005c 	andeq	r0, r0, ip, asr r0
 b3c:	00000060 	andeq	r0, r0, r0, rrx
 b40:	00500001 	subseq	r0, r0, r1
	...
 b4c:	3c000000 	stccc	0, cr0, [r0], {-0}
 b50:	3f000000 	svccc	0x00000000
 b54:	01000000 	mrseq	r0, (UNDEF: 0)
 b58:	003f5000 	eorseq	r5, pc, r0
 b5c:	00480000 	subeq	r0, r8, r0
 b60:	00010000 	andeq	r0, r1, r0
 b64:	00000054 	andeq	r0, r0, r4, asr r0
	...
 b74:	00000400 	andeq	r0, r0, r0, lsl #8
 b78:	50000100 	andpl	r0, r0, r0, lsl #2
 b7c:	00000004 	andeq	r0, r0, r4
 b80:	00000018 	andeq	r0, r0, r8, lsl r0
 b84:	00530001 	subseq	r0, r3, r1
	...
 b90:	38000000 	stmdacc	r0, {}	; <UNPREDICTABLE>
 b94:	43000001 	movwmi	r0, #1
 b98:	01000001 	tsteq	r0, r1
 b9c:	01435000 	mrseq	r5, (UNDEF: 67)
 ba0:	01680000 	cmneq	r8, r0
 ba4:	00010000 	andeq	r0, r1, r0
 ba8:	00000054 	andeq	r0, r0, r4, asr r0
 bac:	00000000 	andeq	r0, r0, r0
 bb0:	28000000 	stmdacs	r0, {}	; <UNPREDICTABLE>
 bb4:	38000001 	stmdacc	r0, {r0}
 bb8:	01000001 	tsteq	r0, r1
 bbc:	00005400 	andeq	r5, r0, r0, lsl #8
	...
 bcc:	000f0000 	andeq	r0, pc, r0
 bd0:	00010000 	andeq	r0, r1, r0
 bd4:	00000f50 	andeq	r0, r0, r0, asr pc
 bd8:	00002000 	andeq	r2, r0, r0
 bdc:	54000100 	strpl	r0, [r0], #-256	; 0xffffff00
	...
 bf0:	0000000f 	andeq	r0, r0, pc
 bf4:	0f510001 	svceq	0x00510001
 bf8:	20000000 	andcs	r0, r0, r0
 bfc:	01000000 	mrseq	r0, (UNDEF: 0)
 c00:	00005500 	andeq	r5, r0, r0, lsl #10
	...
 c0c:	00c80000 	sbceq	r0, r8, r0
 c10:	00d40000 	sbcseq	r0, r4, r0
 c14:	00010000 	andeq	r0, r1, r0
 c18:	0000d450 	andeq	sp, r0, r0, asr r4
 c1c:	0000e800 	andeq	lr, r0, r0, lsl #16
 c20:	54000100 	strpl	r0, [r0], #-256	; 0xffffff00
	...
 c30:	000000b8 	strheq	r0, [r0], -r8
 c34:	000000c3 	andeq	r0, r0, r3, asr #1
 c38:	c3500001 	cmpgt	r0, #1, 0
 c3c:	c8000000 	stmdagt	r0, {}	; <UNPREDICTABLE>
 c40:	04000000 	streq	r0, [r0], #-0
 c44:	5001f300 	andpl	pc, r1, r0, lsl #6
 c48:	0000009f 	muleq	r0, pc, r0	; <UNPREDICTABLE>
	...
 c58:	00009c00 	andeq	r9, r0, r0, lsl #24
 c5c:	0000ab00 	andeq	sl, r0, r0, lsl #22
 c60:	50000100 	andpl	r0, r0, r0, lsl #2
 c64:	000000ab 	andeq	r0, r0, fp, lsr #1
 c68:	000000b0 	strheq	r0, [r0], -r0	; <UNPREDICTABLE>
 c6c:	01f30004 	mvnseq	r0, r4
 c70:	00b09f50 	adcseq	r9, r0, r0, asr pc
 c74:	00b30000 	adcseq	r0, r3, r0
 c78:	00010000 	andeq	r0, r1, r0
 c7c:	0000b350 	andeq	fp, r0, r0, asr r3
 c80:	0000b800 	andeq	fp, r0, r0, lsl #16
 c84:	f3000400 	vshl.u8	d0, d0, d0
 c88:	009f5001 	addseq	r5, pc, r1
	...
 c98:	9c000000 	stcls	0, cr0, [r0], {-0}
 c9c:	ab000000 	blge	ca4 <__code_start__-0x735c>
 ca0:	01000000 	mrseq	r0, (UNDEF: 0)
 ca4:	00ab5100 	adceq	r5, fp, r0, lsl #2
 ca8:	00b00000 	adcseq	r0, r0, r0
 cac:	00040000 	andeq	r0, r4, r0
 cb0:	9f5101f3 	svcls	0x005101f3
 cb4:	000000b0 	strheq	r0, [r0], -r0	; <UNPREDICTABLE>
 cb8:	000000b3 	strheq	r0, [r0], -r3
 cbc:	b3510001 	cmplt	r1, #1, 0
 cc0:	b8000000 	stmdalt	r0, {}	; <UNPREDICTABLE>
 cc4:	04000000 	streq	r0, [r0], #-0
 cc8:	5101f300 	mrspl	pc, SP_irq	; <UNPREDICTABLE>
 ccc:	0000009f 	muleq	r0, pc, r0	; <UNPREDICTABLE>
	...
 cd8:	00008000 	andeq	r8, r0, r0
 cdc:	00009000 	andeq	r9, r0, r0
 ce0:	50000100 	andpl	r0, r0, r0, lsl #2
 ce4:	00000090 	muleq	r0, r0, r0
 ce8:	0000009c 	muleq	r0, ip, r0
 cec:	01f30004 	mvnseq	r0, r4
 cf0:	00009f50 	andeq	r9, r0, r0, asr pc
	...
 cfc:	00640000 	rsbeq	r0, r4, r0
 d00:	00740000 	rsbseq	r0, r4, r0
 d04:	00010000 	andeq	r0, r1, r0
 d08:	00007450 	andeq	r7, r0, r0, asr r4
 d0c:	00008000 	andeq	r8, r0, r0
 d10:	f3000400 	vshl.u8	d0, d0, d0
 d14:	009f5001 	addseq	r5, pc, r1
	...
 d20:	54000000 	strpl	r0, [r0], #-0
 d24:	5f000000 	svcpl	0x00000000
 d28:	01000000 	mrseq	r0, (UNDEF: 0)
 d2c:	005f5000 	subseq	r5, pc, r0
 d30:	00640000 	rsbeq	r0, r4, r0
 d34:	00040000 	andeq	r0, r4, r0
 d38:	9f5001f3 	svcls	0x005001f3
	...
 d4c:	00000028 	andeq	r0, r0, r8, lsr #32
 d50:	28500001 	ldmdacs	r0, {r0}^
 d54:	54000000 	strpl	r0, [r0], #-0
 d58:	01000000 	mrseq	r0, (UNDEF: 0)
 d5c:	00005400 	andeq	r5, r0, r0, lsl #8
	...
 d6c:	002b0000 	eoreq	r0, fp, r0
 d70:	00010000 	andeq	r0, r1, r0
 d74:	00002b51 	andeq	r2, r0, r1, asr fp
 d78:	00005400 	andeq	r5, r0, r0, lsl #8
 d7c:	f3000400 	vshl.u8	d0, d0, d0
 d80:	009f5101 	addseq	r5, pc, r1, lsl #2
	...
 d8c:	00002400 	andeq	r2, r0, r0, lsl #8
 d90:	00005400 	andeq	r5, r0, r0, lsl #8
 d94:	57000100 	strpl	r0, [r0, -r0, lsl #2]
	...
 da0:	002c0000 	eoreq	r0, ip, r0
 da4:	00480000 	subeq	r0, r8, r0
 da8:	00010000 	andeq	r0, r1, r0
 dac:	00000050 	andeq	r0, r0, r0, asr r0
 db0:	00000000 	andeq	r0, r0, r0
 db4:	38000000 	stmdacc	r0, {}	; <UNPREDICTABLE>
 db8:	54000000 	strpl	r0, [r0], #-0
 dbc:	01000000 	mrseq	r0, (UNDEF: 0)
 dc0:	00005500 	andeq	r5, r0, r0, lsl #10
	...
 dd0:	000b0000 	andeq	r0, fp, r0
 dd4:	00010000 	andeq	r0, r1, r0
 dd8:	00000b50 	andeq	r0, r0, r0, asr fp
 ddc:	00001400 	andeq	r1, r0, r0, lsl #8
 de0:	54000100 	strpl	r0, [r0], #-256	; 0xffffff00
	...
 df4:	0000001c 	andeq	r0, r0, ip, lsl r0
 df8:	1c510001 	mrrcne	0, 0, r0, r1, cr1
 dfc:	34000000 	strcc	r0, [r0], #-0
 e00:	04000000 	streq	r0, [r0], #-0
 e04:	5101f300 	mrspl	pc, SP_irq	; <UNPREDICTABLE>
 e08:	0000009f 	muleq	r0, pc, r0	; <UNPREDICTABLE>
 e0c:	00000000 	andeq	r0, r0, r0
 e10:	00000200 	andeq	r0, r0, r0, lsl #4
 e14:	01010000 	mrseq	r0, (UNDEF: 1)
 e18:	00000000 	andeq	r0, r0, r0
 e1c:	04000000 	streq	r0, [r0], #-0
 e20:	01000000 	mrseq	r0, (UNDEF: 0)
 e24:	00045000 	andeq	r5, r4, r0
 e28:	001c0000 	andseq	r0, ip, r0
 e2c:	00010000 	andeq	r0, r1, r0
 e30:	00001c52 	andeq	r1, r0, r2, asr ip
 e34:	00002400 	andeq	r2, r0, r0, lsl #8
 e38:	53000100 	movwpl	r0, #256	; 0x100
 e3c:	00000024 	andeq	r0, r0, r4, lsr #32
 e40:	00000028 	andeq	r0, r0, r8, lsr #32
 e44:	01730003 	cmneq	r3, r3
 e48:	0000289f 	muleq	r0, pc, r8	; <UNPREDICTABLE>
 e4c:	00003400 	andeq	r3, r0, r0, lsl #8
 e50:	53000100 	movwpl	r0, #256	; 0x100
	...
 e5c:	00000003 	andeq	r0, r0, r3
 e60:	00000000 	andeq	r0, r0, r0
 e64:	00000024 	andeq	r0, r0, r4, lsr #32
 e68:	24510001 	ldrbcs	r0, [r1], #-1
 e6c:	34000000 	strcc	r0, [r0], #-0
 e70:	03000000 	movweq	r0, #0
 e74:	9f7f7100 	svcls	0x007f7100
	...
 e84:	00000010 	andeq	r0, r0, r0, lsl r0
 e88:	0000001c 	andeq	r0, r0, ip, lsl r0
 e8c:	245c0001 	ldrbcs	r0, [ip], #-1
 e90:	34000000 	strcc	r0, [r0], #-0
 e94:	01000000 	mrseq	r0, (UNDEF: 0)
 e98:	00005200 	andeq	r5, r0, r0, lsl #4
 e9c:	00000000 	andeq	r0, r0, r0
 ea0:	03000000 	movweq	r0, #0
 ea4:	8e4c0003 	cdphi	0, 4, cr0, cr12, cr3, {0}
 ea8:	8e4c0000 	cdphi	0, 4, cr0, cr12, cr0, {0}
 eac:	00010000 	andeq	r0, r1, r0
 eb0:	008e4c50 	addeq	r4, lr, r0, asr ip
 eb4:	008e7800 	addeq	r7, lr, r0, lsl #16
 eb8:	f3000400 	vshl.u8	d0, d0, d0
 ebc:	009f5001 	addseq	r5, pc, r1
	...
 ec8:	4c000303 	stcmi	3, cr0, [r0], {3}
 ecc:	4c00008e 	stcmi	0, cr0, [r0], {142}	; 0x8e
 ed0:	0100008e 	smlabbeq	r0, lr, r0, r0
 ed4:	8e4c5100 	dvfhie	f5, f4, f0
 ed8:	8e780000 	cdphi	0, 7, cr0, cr8, cr0, {0}
 edc:	00040000 	andeq	r0, r4, r0
 ee0:	9f5101f3 	svcls	0x005101f3
	...
 eec:	00030300 	andeq	r0, r3, r0, lsl #6
 ef0:	8e4c0000 	cdphi	0, 4, cr0, cr12, cr0, {0}
 ef4:	8e4c0000 	cdphi	0, 4, cr0, cr12, cr0, {0}
 ef8:	00010000 	andeq	r0, r1, r0
 efc:	008e4c52 	addeq	r4, lr, r2, asr ip
 f00:	008e5400 	addeq	r5, lr, r0, lsl #8
 f04:	52000100 	andpl	r0, r0, #0
 f08:	00008e54 	andeq	r8, r0, r4, asr lr
 f0c:	00008e78 	andeq	r8, r0, r8, ror lr
 f10:	01720003 	cmneq	r2, r3
 f14:	0000009f 	muleq	r0, pc, r0	; <UNPREDICTABLE>
 f18:	00000000 	andeq	r0, r0, r0
 f1c:	01010200 	mrseq	r0, R9_usr
 f20:	00000000 	andeq	r0, r0, r0
 f24:	008e4c00 	addeq	r4, lr, r0, lsl #24
 f28:	008e5800 	addeq	r5, lr, r0, lsl #16
 f2c:	50000100 	andpl	r0, r0, r0, lsl #2
 f30:	00008e58 	andeq	r8, r0, r8, asr lr
 f34:	00008e5c 	andeq	r8, r0, ip, asr lr
 f38:	01700003 	cmneq	r0, r3
 f3c:	008e5c9f 	umulleq	r5, lr, pc, ip	; <UNPREDICTABLE>
 f40:	008e6c00 	addeq	r6, lr, r0, lsl #24
 f44:	50000100 	andpl	r0, r0, r0, lsl #2
 f48:	00008e70 	andeq	r8, r0, r0, ror lr
 f4c:	00008e74 	andeq	r8, r0, r4, ror lr
 f50:	00500001 	subseq	r0, r0, r1
 f54:	00000000 	andeq	r0, r0, r0
 f58:	02000000 	andeq	r0, r0, #0, 0
 f5c:	00000000 	andeq	r0, r0, r0
 f60:	008e4c00 	addeq	r4, lr, r0, lsl #24
 f64:	008e5c00 	addeq	r5, lr, r0, lsl #24
 f68:	51000100 	mrspl	r0, (UNDEF: 16)
 f6c:	00008e5c 	andeq	r8, r0, ip, asr lr
 f70:	00008e60 	andeq	r8, r0, r0, ror #28
 f74:	01710003 	cmneq	r1, r3
 f78:	008e609f 	umulleq	r6, lr, pc, r0	; <UNPREDICTABLE>
 f7c:	008e7800 	addeq	r7, lr, r0, lsl #16
 f80:	51000100 	mrspl	r0, (UNDEF: 16)
	...

Disassembly of section .debug_aranges:

00000000 <.debug_aranges>:
   0:	0000001c 	andeq	r0, r0, ip, lsl r0
   4:	00000002 	andeq	r0, r0, r2
   8:	00040000 	andeq	r0, r4, r0
   c:	00000000 	andeq	r0, r0, r0
  10:	00008034 	andeq	r8, r0, r4, lsr r0
  14:	00000118 	andeq	r0, r0, r8, lsl r1
	...
  20:	0000001c 	andeq	r0, r0, ip, lsl r0
  24:	034a0002 	movteq	r0, #40962	; 0xa002
  28:	00040000 	andeq	r0, r4, r0
  2c:	00000000 	andeq	r0, r0, r0
  30:	0000814c 	andeq	r8, r0, ip, asr #2
  34:	000001b4 			; <UNDEFINED> instruction: 0x000001b4
	...
  40:	0000001c 	andeq	r0, r0, ip, lsl r0
  44:	07260002 	streq	r0, [r6, -r2]!
  48:	00040000 	andeq	r0, r4, r0
  4c:	00000000 	andeq	r0, r0, r0
  50:	00008300 	andeq	r8, r0, r0, lsl #6
  54:	00000058 	andeq	r0, r0, r8, asr r0
	...
  60:	0000001c 	andeq	r0, r0, ip, lsl r0
  64:	08c70002 	stmiaeq	r7, {r1}^
  68:	00040000 	andeq	r0, r4, r0
  6c:	00000000 	andeq	r0, r0, r0
  70:	00008358 	andeq	r8, r0, r8, asr r3
  74:	00000034 	andeq	r0, r0, r4, lsr r0
	...
  80:	0000001c 	andeq	r0, r0, ip, lsl r0
  84:	09be0002 	ldmibeq	lr!, {r1}
  88:	00040000 	andeq	r0, r4, r0
  8c:	00000000 	andeq	r0, r0, r0
  90:	0000838c 	andeq	r8, r0, ip, lsl #7
  94:	0000062c 	andeq	r0, r0, ip, lsr #12
	...
  a0:	0000001c 	andeq	r0, r0, ip, lsl r0
  a4:	12c60002 	sbcne	r0, r6, #2, 0
  a8:	00040000 	andeq	r0, r4, r0
  ac:	00000000 	andeq	r0, r0, r0
  b0:	000089b8 			; <UNDEFINED> instruction: 0x000089b8
  b4:	0000002c 	andeq	r0, r0, ip, lsr #32
	...
  c0:	0000001c 	andeq	r0, r0, ip, lsl r0
  c4:	13f90002 	mvnsne	r0, #2, 0
  c8:	00040000 	andeq	r0, r4, r0
  cc:	00000000 	andeq	r0, r0, r0
  d0:	000089e4 	andeq	r8, r0, r4, ror #19
  d4:	00000030 	andeq	r0, r0, r0, lsr r0
	...
  e0:	0000001c 	andeq	r0, r0, ip, lsl r0
  e4:	15560002 	ldrbne	r0, [r6, #-2]
  e8:	00040000 	andeq	r0, r4, r0
  ec:	00000000 	andeq	r0, r0, r0
  f0:	00008a14 	andeq	r8, r0, r4, lsl sl
  f4:	00000004 	andeq	r0, r0, r4
	...
 100:	0000001c 	andeq	r0, r0, ip, lsl r0
 104:	16280002 	strtne	r0, [r8], -r2
 108:	00040000 	andeq	r0, r4, r0
 10c:	00000000 	andeq	r0, r0, r0
 110:	00008a18 	andeq	r8, r0, r8, lsl sl
 114:	0000007c 	andeq	r0, r0, ip, ror r0
	...
 120:	0000001c 	andeq	r0, r0, ip, lsl r0
 124:	184c0002 	stmdane	ip, {r1}^
 128:	00040000 	andeq	r0, r4, r0
 12c:	00000000 	andeq	r0, r0, r0
 130:	00008a94 	muleq	r0, r4, sl
 134:	0000009c 	muleq	r0, ip, r0
	...
 140:	0000001c 	andeq	r0, r0, ip, lsl r0
 144:	1ac80002 	bne	ff200154 <__bss_end__+0xff1f6c8c>
 148:	00040000 	andeq	r0, r4, r0
 14c:	00000000 	andeq	r0, r0, r0
 150:	00008b48 	andeq	r8, r0, r8, asr #22
 154:	000001ac 	andeq	r0, r0, ip, lsr #3
	...
 160:	0000001c 	andeq	r0, r0, ip, lsl r0
 164:	20340002 	eorscs	r0, r4, r2
 168:	00040000 	andeq	r0, r4, r0
 16c:	00000000 	andeq	r0, r0, r0
 170:	00008cf4 	strdeq	r8, [r0], -r4
 174:	000000e8 	andeq	r0, r0, r8, ror #1
	...
 180:	0000001c 	andeq	r0, r0, ip, lsl r0
 184:	23f30002 	mvnscs	r0, #2, 0
 188:	00040000 	andeq	r0, r4, r0
 18c:	00000000 	andeq	r0, r0, r0
 190:	00008ddc 	ldrdeq	r8, [r0], -ip
 194:	0000003c 	andeq	r0, r0, ip, lsr r0
	...
 1a0:	0000001c 	andeq	r0, r0, ip, lsl r0
 1a4:	25400002 	strbcs	r0, [r0, #-2]
 1a8:	00040000 	andeq	r0, r4, r0
 1ac:	00000000 	andeq	r0, r0, r0
 1b0:	00008e18 	andeq	r8, r0, r8, lsl lr
 1b4:	00000034 	andeq	r0, r0, r4, lsr r0
	...
 1c0:	0000001c 	andeq	r0, r0, ip, lsl r0
 1c4:	267b0002 	ldrbtcs	r0, [fp], -r2
 1c8:	00040000 	andeq	r0, r4, r0
 1cc:	00000000 	andeq	r0, r0, r0
 1d0:	00008e4c 	andeq	r8, r0, ip, asr #28
 1d4:	0000002c 	andeq	r0, r0, ip, lsr #32
	...

Disassembly of section .debug_line:

00000000 <.debug_line>:
       0:	0000014b 	andeq	r0, r0, fp, asr #2
       4:	007f0003 	rsbseq	r0, pc, r3
       8:	01020000 	mrseq	r0, (UNDEF: 2)
       c:	000d0efb 	strdeq	r0, [sp], -fp
      10:	01010101 	tsteq	r1, r1, lsl #2
      14:	01000000 	mrseq	r0, (UNDEF: 0)
      18:	2f010000 	svccs	0x00010000
      1c:	72657355 	rsbvc	r7, r5, #1409286145	; 0x54000001
      20:	64612f73 	strbtvs	r2, [r1], #-3955	; 0xfffff08d
      24:	6e616972 			; <UNDEFINED> instruction: 0x6e616972
      28:	7472616d 	ldrbtvc	r6, [r2], #-365	; 0xfffffe93
      2c:	7a656e69 	bvc	195b9d8 <__bss_end__+0x1952510>
      30:	6f72702f 	svcvs	0x0072702f
      34:	7463656a 	strbtvc	r6, [r3], #-1386	; 0xfffffa96
      38:	73632f73 	cmnvc	r3, #460	; 0x1cc
      3c:	65303431 	ldrvs	r3, [r0, #-1073]!	; 0xfffffbcf
      40:	7331322d 	teqvc	r1, #-805306366	; 0xd0000002
      44:	6c2f7270 	sfmvs	f7, 4, [pc], #-448	; fffffe8c <__bss_end__+0xffff69c4>
      48:	69706269 	ldmdbvs	r0!, {r0, r3, r5, r6, r9, sp, lr}^
      4c:	636e692f 	cmnvs	lr, #770048	; 0xbc000
      50:	6564756c 	strbvs	r7, [r4, #-1388]!	; 0xfffffa94
      54:	002e2e00 	eoreq	r2, lr, r0, lsl #28
      58:	732d3200 			; <UNDEFINED> instruction: 0x732d3200
      5c:	732d7465 			; <UNDEFINED> instruction: 0x732d7465
      60:	66667574 			; <UNDEFINED> instruction: 0x66667574
      64:	0000632e 	andeq	r6, r0, lr, lsr #6
      68:	70720000 	rsbsvc	r0, r2, r0
      6c:	00682e69 	rsbeq	r2, r8, r9, ror #28
      70:	74000001 	strvc	r0, [r0], #-1
      74:	65636172 	strbvs	r6, [r3, #-370]!	; 0xfffffe8e
      78:	0200682e 	andeq	r6, r0, #3014656	; 0x2e0000
      7c:	70670000 	rsbvc	r0, r7, r0
      80:	682e6f69 	stmdavs	lr!, {r0, r3, r5, r6, r8, r9, sl, fp, sp, lr}
      84:	00000100 	andeq	r0, r0, r0, lsl #2
      88:	00140500 	andseq	r0, r4, r0, lsl #10
      8c:	80340205 	eorshi	r0, r4, r5, lsl #4
      90:	05170000 	ldreq	r0, [r7, #-0]
      94:	4b2f2f05 	blmi	bcbcb0 <__bss_end__+0xbc27e8>
      98:	0d054b4b 	vstreq	d4, [r5, #-300]	; 0xfffffed4
      9c:	05050106 	streq	r0, [r5, #-262]	; 0xfffffefa
      a0:	032f6706 			; <UNDEFINED> instruction: 0x032f6706
      a4:	06016619 			; <UNDEFINED> instruction: 0x06016619
      a8:	4a66062e 	bmi	1981968 <__bss_end__+0x19784a0>
      ac:	13662e4a 	cmnne	r6, #1184	; 0x4a0
      b0:	05010905 	streq	r0, [r1, #-2309]	; 0xfffff6fb
      b4:	0501060d 	streq	r0, [r1, #-1549]	; 0xfffff9f3
      b8:	09052e05 	stmdbeq	r5, {r0, r2, r9, sl, fp, sp}
      bc:	03040200 	movweq	r0, #16896	; 0x4200
      c0:	02002f06 	andeq	r2, r0, #6, 30
      c4:	00010304 	andeq	r0, r1, r4, lsl #6
      c8:	82030402 	andhi	r0, r3, #33554432	; 0x2000000
      cc:	03040200 	movweq	r0, #16896	; 0x4200
      d0:	0402004a 	streq	r0, [r2], #-74	; 0xffffffb6
      d4:	02004a03 	andeq	r4, r0, #12288	; 0x3000
      d8:	002e0304 	eoreq	r0, lr, r4, lsl #6
      dc:	66030402 	strvs	r0, [r3], -r2, lsl #8
      e0:	02001d05 	andeq	r1, r0, #320	; 0x140
      e4:	05110304 	ldreq	r0, [r1, #-772]	; 0xfffffcfc
      e8:	0402001e 	streq	r0, [r2], #-30	; 0xffffffe2
      ec:	05010603 	streq	r0, [r1, #-1539]	; 0xfffff9fd
      f0:	04020015 	streq	r0, [r2], #-21	; 0xffffffeb
      f4:	052e0601 	streq	r0, [lr, #-1537]!	; 0xfffff9ff
      f8:	04020005 	streq	r0, [r2], #-5
      fc:	05010601 	streq	r0, [r1, #-1537]	; 0xfffff9ff
     100:	052e4c0d 	streq	r4, [lr, #-3085]!	; 0xfffff3f3
     104:	04020009 	streq	r0, [r2], #-9
     108:	002f0603 	eoreq	r0, pc, r3, lsl #12
     10c:	01030402 	tsteq	r3, r2, lsl #8
     110:	03040200 	movweq	r0, #16896	; 0x4200
     114:	04020082 	streq	r0, [r2], #-130	; 0xffffff7e
     118:	02004a03 	andeq	r4, r0, #12288	; 0x3000
     11c:	004a0304 	subeq	r0, sl, r4, lsl #6
     120:	2e030402 	cdpcs	4, 0, cr0, cr3, cr2, {0}
     124:	03040200 	movweq	r0, #16896	; 0x4200
     128:	001d0566 	andseq	r0, sp, r6, ror #10
     12c:	11030402 	tstne	r3, r2, lsl #8
     130:	02001e05 	andeq	r1, r0, #80	; 0x50
     134:	01060304 	tsteq	r6, r4, lsl #6
     138:	02001505 	andeq	r1, r0, #20971520	; 0x1400000
     13c:	2e060104 	adfcss	f0, f6, f4
     140:	02000505 	andeq	r0, r0, #20971520	; 0x1400000
     144:	01060104 	tsteq	r6, r4, lsl #2
     148:	12024f06 	andne	r4, r2, #6, 30
     14c:	00010100 	andeq	r0, r1, r0, lsl #2
     150:	03000002 	movweq	r0, #2
     154:	0000d100 	andeq	sp, r0, r0, lsl #2
     158:	fb010200 	blx	40962 <__bss_end__+0x3749a>
     15c:	01000d0e 	tsteq	r0, lr, lsl #26
     160:	00010101 	andeq	r0, r1, r1, lsl #2
     164:	00010000 	andeq	r0, r1, r0
     168:	552f0100 	strpl	r0, [pc, #-256]!	; 70 <__code_start__-0x7f90>
     16c:	73726573 	cmnvc	r2, #482344960	; 0x1cc00000
     170:	7264612f 	rsbvc	r6, r4, #-1073741813	; 0xc000000b
     174:	6d6e6169 	stfvse	f6, [lr, #-420]!	; 0xfffffe5c
     178:	69747261 	ldmdbvs	r4!, {r0, r5, r6, r9, ip, sp, lr}^
     17c:	2f7a656e 	svccs	0x007a656e
     180:	6a6f7270 	bvs	1bdcb48 <__bss_end__+0x1bd3680>
     184:	73746365 	cmnvc	r4, #-1811939327	; 0x94000001
     188:	3173632f 	cmncc	r3, pc, lsr #6
     18c:	2d653034 	stclcs	0, cr3, [r5, #-208]!	; 0xffffff30
     190:	70733132 	rsbsvc	r3, r3, r2, lsr r1
     194:	696c2f72 	stmdbvs	ip!, {r1, r4, r5, r6, r8, r9, sl, fp, sp}^
     198:	2f697062 	svccs	0x00697062
     19c:	6c636e69 	stclvs	14, cr6, [r3], #-420	; 0xfffffe5c
     1a0:	00656475 	rsbeq	r6, r5, r5, ror r4
     1a4:	7273752f 	rsbsvc	r7, r3, #197132288	; 0xbc00000
     1a8:	636f6c2f 	cmnvs	pc, #12032	; 0x2f00
     1ac:	432f6c61 			; <UNDEFINED> instruction: 0x432f6c61
     1b0:	616c6c65 	cmnvs	ip, r5, ror #24
     1b4:	72612f72 	rsbvc	r2, r1, #456	; 0x1c8
     1b8:	6f6e2d6d 	svcvs	0x006e2d6d
     1bc:	652d656e 	strvs	r6, [sp, #-1390]!	; 0xfffffa92
     1c0:	2d696261 	sfmcs	f6, 2, [r9, #-388]!	; 0xfffffe7c
     1c4:	74736574 	ldrbtvc	r6, [r3], #-1396	; 0xfffffa8c
     1c8:	322d392f 	eorcc	r3, sp, #770048	; 0xbc000
     1cc:	71393130 	teqvc	r9, r0, lsr r1
     1d0:	73632d34 	cmnvc	r3, #52, 26	; 0xd00
     1d4:	65373031 	ldrvs	r3, [r7, #-49]!	; 0xffffffcf
     1d8:	62696c2f 	rsbvs	r6, r9, #12032	; 0x2f00
     1dc:	6363672f 	cmnvs	r3, #12320768	; 0xbc0000
     1e0:	6d72612f 	ldfvse	f6, [r2, #-188]!	; 0xffffff44
     1e4:	6e6f6e2d 	cdpvs	14, 6, cr6, cr15, cr13, {1}
     1e8:	61652d65 	cmnvs	r5, r5, ror #26
     1ec:	392f6962 	stmdbcc	pc!, {r1, r5, r6, r8, fp, sp, lr}	; <UNPREDICTABLE>
     1f0:	312e322e 			; <UNDEFINED> instruction: 0x312e322e
     1f4:	636e692f 	cmnvs	lr, #770048	; 0xbc000
     1f8:	6564756c 	strbvs	r7, [r4, #-1388]!	; 0xfffffa94
     1fc:	72740000 	rsbsvc	r0, r4, #0, 0
     200:	2d656361 	stclcs	3, cr6, [r5, #-388]!	; 0xfffffe7c
     204:	706d6973 	rsbvc	r6, sp, r3, ror r9
     208:	632e656c 			; <UNDEFINED> instruction: 0x632e656c
     20c:	00000000 	andeq	r0, r0, r0
     210:	2e697072 	mcrcs	0, 3, r7, cr9, cr2, {3}
     214:	00010068 	andeq	r0, r1, r8, rrx
     218:	64747300 	ldrbtvs	r7, [r4], #-768	; 0xfffffd00
     21c:	2d746e69 	ldclcs	14, cr6, [r4, #-420]!	; 0xfffffe5c
     220:	2e636367 	cdpcs	3, 6, cr6, cr3, cr7, {3}
     224:	00020068 	andeq	r0, r2, r8, rrx
     228:	35050000 	strcc	r0, [r5, #-0]
     22c:	4c020500 	cfstr32mi	mvfx0, [r2], {-0}
     230:	03000081 	movweq	r0, #129	; 0x81
     234:	0106013b 	tsteq	r6, fp, lsr r1
     238:	4b060505 	blmi	181654 <__bss_end__+0x17818c>
     23c:	052e2e06 	streq	r2, [lr, #-3590]!	; 0xfffff1fa
     240:	35052f01 	strcc	r2, [r5, #-3841]	; 0xfffff0ff
     244:	01064b06 	tsteq	r6, r6, lsl #22
     248:	4b060505 	blmi	181664 <__bss_end__+0x17819c>
     24c:	052e2e06 	streq	r2, [lr, #-3590]!	; 0xfffff1fa
     250:	20052f01 	andcs	r2, r5, r1, lsl #30
     254:	4a6d0306 	bmi	1b40e74 <__bss_end__+0x1b379ac>
     258:	01130505 	tsteq	r3, r5, lsl #10
     25c:	02040200 	andeq	r0, r4, #0, 4
     260:	04020082 	streq	r0, [r2], #-130	; 0xffffff7e
     264:	02000102 	andeq	r0, r0, #-2147483648	; 0x80000000
     268:	05130204 	ldreq	r0, [r3, #-516]	; 0xfffffdfc
     26c:	0402000b 	streq	r0, [r2], #-11
     270:	05010602 	streq	r0, [r1, #-1538]	; 0xfffff9fe
     274:	04020020 	streq	r0, [r2], #-32	; 0xffffffe0
     278:	05058001 	streq	r8, [r5, #-1]
     27c:	01040200 	mrseq	r0, R12_usr
     280:	02004b06 	andeq	r4, r0, #6144	; 0x1800
     284:	00010104 	andeq	r0, r1, r4, lsl #2
     288:	06010402 	streq	r0, [r1], -r2, lsl #8
     28c:	040200ba 	streq	r0, [r2], #-186	; 0xffffff46
     290:	052e0601 	streq	r0, [lr, #-1537]!	; 0xfffff9ff
     294:	0505c017 	streq	ip, [r5, #-23]	; 0xffffffe9
     298:	02000113 	andeq	r0, r0, #-1073741820	; 0xc0000004
     29c:	00820204 	addeq	r0, r2, r4, lsl #4
     2a0:	01020402 	tsteq	r2, r2, lsl #8
     2a4:	02040200 	andeq	r0, r4, #0, 4
     2a8:	000b0513 	andeq	r0, fp, r3, lsl r5
     2ac:	06020402 	streq	r0, [r2], -r2, lsl #8
     2b0:	00170501 	andseq	r0, r7, r1, lsl #10
     2b4:	80010402 	andhi	r0, r1, r2, lsl #8
     2b8:	02000505 	andeq	r0, r0, #20971520	; 0x1400000
     2bc:	4b060104 	blmi	1806d4 <__bss_end__+0x17720c>
     2c0:	01040200 	mrseq	r0, R12_usr
     2c4:	04020001 	streq	r0, [r2], #-1
     2c8:	3005d601 	andcc	sp, r5, r1, lsl #12
     2cc:	06ba0e03 	ldrteq	r0, [sl], r3, lsl #28
     2d0:	06050501 	streq	r0, [r5], -r1, lsl #10
     2d4:	060f0567 	streq	r0, [pc], -r7, ror #10
     2d8:	4a080501 	bmi	2016e4 <__bss_end__+0x1f821c>
     2dc:	4f060505 	svcmi	0x00060505
     2e0:	67060105 	strvs	r0, [r6, -r5, lsl #2]
     2e4:	02001e05 	andeq	r1, r0, #80	; 0x50
     2e8:	7a030104 	bvc	c0700 <__bss_end__+0xb7238>
     2ec:	001b052e 	andseq	r0, fp, lr, lsr #10
     2f0:	4a010402 	bmi	41300 <__bss_end__+0x37e38>
     2f4:	4b060905 	blmi	182710 <__bss_end__+0x179248>
     2f8:	01062105 	tsteq	r6, r5, lsl #2
     2fc:	67060905 	strvs	r0, [r6, -r5, lsl #18]
     300:	0621052f 	strteq	r0, [r1], -pc, lsr #10
     304:	06260501 	strteq	r0, [r6], -r1, lsl #10
     308:	050106a4 	streq	r0, [r1, #-1700]	; 0xfffff95c
     30c:	054b0605 	strbeq	r0, [fp, #-1541]	; 0xfffff9fb
     310:	2e010612 	mcrcs	6, 0, r0, cr1, cr2, {0}
     314:	2f060505 	svccs	0x00060505
     318:	01060f05 	tsteq	r6, r5, lsl #30
     31c:	054a0805 	strbeq	r0, [sl, #-2053]	; 0xfffff7fb
     320:	1e055001 	cdpne	0, 0, cr5, cr5, cr1, {0}
     324:	01040200 	mrseq	r0, R12_usr
     328:	054a7a03 	strbeq	r7, [sl, #-2563]	; 0xfffff5fd
     32c:	0402001b 	streq	r0, [r2], #-27	; 0xffffffe5
     330:	09054a01 	stmdbeq	r5, {r0, r9, fp, lr}
     334:	21054b06 	tstcs	r5, r6, lsl #22
     338:	09050106 	stmdbeq	r5, {r1, r2, r8}
     33c:	4a066706 	bmi	199f5c <__bss_end__+0x190a94>
     340:	21052f06 	tstcs	r5, r6, lsl #30
     344:	05050106 	streq	r0, [r5, #-262]	; 0xfffffefa
     348:	0c054c06 	stceq	12, cr4, [r5], {6}
     34c:	06020106 	streq	r0, [r2], -r6, lsl #2
     350:	1b010100 	blne	40758 <__bss_end__+0x37290>
     354:	03000001 	movweq	r0, #1
     358:	0000e900 	andeq	lr, r0, r0, lsl #18
     35c:	fb010200 	blx	40b66 <__bss_end__+0x3769e>
     360:	01000d0e 	tsteq	r0, lr, lsl #26
     364:	00010101 	andeq	r0, r1, r1, lsl #2
     368:	00010000 	andeq	r0, r1, r0
     36c:	696c0100 	stmdbvs	ip!, {r8}^
     370:	2f006362 	svccs	0x00006362
     374:	2f727375 	svccs	0x00727375
     378:	61636f6c 	cmnvs	r3, ip, ror #30
     37c:	65432f6c 	strbvs	r2, [r3, #-3948]	; 0xfffff094
     380:	72616c6c 	rsbvc	r6, r1, #108, 24	; 0x6c00
     384:	6d72612f 	ldfvse	f6, [r2, #-188]!	; 0xffffff44
     388:	6e6f6e2d 	cdpvs	14, 6, cr6, cr15, cr13, {1}
     38c:	61652d65 	cmnvs	r5, r5, ror #26
     390:	742d6962 	strtvc	r6, [sp], #-2402	; 0xfffff69e
     394:	2f747365 	svccs	0x00747365
     398:	30322d39 	eorscc	r2, r2, r9, lsr sp
     39c:	34713931 	ldrbtcc	r3, [r1], #-2353	; 0xfffff6cf
     3a0:	3173632d 	cmncc	r3, sp, lsr #6
     3a4:	2f653730 	svccs	0x00653730
     3a8:	2f62696c 	svccs	0x0062696c
     3ac:	2f636367 	svccs	0x00636367
     3b0:	2d6d7261 	sfmcs	f7, 2, [sp, #-388]!	; 0xfffffe7c
     3b4:	656e6f6e 	strbvs	r6, [lr, #-3950]!	; 0xfffff092
     3b8:	6261652d 	rsbvs	r6, r1, #188743680	; 0xb400000
     3bc:	2e392f69 	cdpcs	15, 3, cr2, cr9, cr9, {3}
     3c0:	2f312e32 	svccs	0x00312e32
     3c4:	6c636e69 	stclvs	14, cr6, [r3], #-420	; 0xfffffe5c
     3c8:	00656475 	rsbeq	r6, r5, r5, ror r4
     3cc:	6573552f 	ldrbvs	r5, [r3, #-1327]!	; 0xfffffad1
     3d0:	612f7372 			; <UNDEFINED> instruction: 0x612f7372
     3d4:	61697264 	cmnvs	r9, r4, ror #4
     3d8:	72616d6e 	rsbvc	r6, r1, #7040	; 0x1b80
     3dc:	656e6974 	strbvs	r6, [lr, #-2420]!	; 0xfffff68c
     3e0:	72702f7a 	rsbsvc	r2, r0, #488	; 0x1e8
     3e4:	63656a6f 	cmnvs	r5, #454656	; 0x6f000
     3e8:	632f7374 			; <UNDEFINED> instruction: 0x632f7374
     3ec:	30343173 	eorscc	r3, r4, r3, ror r1
     3f0:	31322d65 	teqcc	r2, r5, ror #26
     3f4:	2f727073 	svccs	0x00727073
     3f8:	7062696c 	rsbvc	r6, r2, ip, ror #18
     3fc:	6e692f69 	cdpvs	15, 6, cr2, cr9, cr9, {3}
     400:	64756c63 	ldrbtvs	r6, [r5], #-3171	; 0xfffff39d
     404:	70000065 	andvc	r0, r0, r5, rrx
     408:	746e6972 	strbtvc	r6, [lr], #-2418	; 0xfffff68e
     40c:	00632e6b 	rsbeq	r2, r3, fp, ror #28
     410:	73000001 	movwvc	r0, #1
     414:	72616474 	rsbvc	r6, r1, #116, 8	; 0x74000000
     418:	00682e67 	rsbeq	r2, r8, r7, ror #28
     41c:	72000002 	andvc	r0, r0, #2, 0
     420:	682e6970 	stmdavs	lr!, {r4, r5, r6, r8, fp, sp, lr}
     424:	00000300 	andeq	r0, r0, r0, lsl #6
     428:	6975623c 	ldmdbvs	r5!, {r2, r3, r4, r5, r9, sp, lr}^
     42c:	692d746c 	pushvs	{r2, r3, r5, r6, sl, ip, sp, lr}
     430:	00003e6e 	andeq	r3, r0, lr, ror #28
     434:	61760000 	cmnvs	r6, r0
     438:	6972702d 	ldmdbvs	r2!, {r0, r2, r3, r5, ip, sp, lr}^
     43c:	2e6b746e 	cdpcs	4, 6, cr7, cr11, cr14, {3}
     440:	00010068 	andeq	r0, r1, r8, rrx
     444:	22050000 	andcs	r0, r5, #0, 0
     448:	00020500 	andeq	r0, r2, r0, lsl #10
     44c:	17000083 	strne	r0, [r0, -r3, lsl #1]
     450:	05050106 	streq	r0, [r5, #-262]	; 0xfffffefa
     454:	14136806 	ldrne	r6, [r3], #-2054	; 0xfffff7fa
     458:	054b0905 	strbeq	r0, [fp, #-2309]	; 0xfffff6fb
     45c:	05010612 	streq	r0, [r1, #-1554]	; 0xfffff9ee
     460:	16bb0605 	ldrtne	r0, [fp], r5, lsl #12
     464:	34066606 	strcc	r6, [r6], #-1542	; 0xfffff9fa
     468:	13060105 	movwne	r0, #24837	; 0x6105
     46c:	00080266 	andeq	r0, r8, r6, ror #4
     470:	00b30101 	adcseq	r0, r3, r1, lsl #2
     474:	00030000 	andeq	r0, r3, r0
     478:	00000065 	andeq	r0, r0, r5, rrx
     47c:	0efb0102 	cdpeq	1, 15, cr0, cr11, cr2, {0}
     480:	0101000d 	tsteq	r1, sp
     484:	00000101 	andeq	r0, r0, r1, lsl #2
     488:	00000100 	andeq	r0, r0, r0, lsl #2
     48c:	62696c01 	rsbvs	r6, r9, #256	; 0x100
     490:	552f0063 	strpl	r0, [pc, #-99]!	; 435 <__code_start__-0x7bcb>
     494:	73726573 	cmnvc	r2, #482344960	; 0x1cc00000
     498:	7264612f 	rsbvc	r6, r4, #-1073741813	; 0xc000000b
     49c:	6d6e6169 	stfvse	f6, [lr, #-420]!	; 0xfffffe5c
     4a0:	69747261 	ldmdbvs	r4!, {r0, r5, r6, r9, ip, sp, lr}^
     4a4:	2f7a656e 	svccs	0x007a656e
     4a8:	6a6f7270 	bvs	1bdce70 <__bss_end__+0x1bd39a8>
     4ac:	73746365 	cmnvc	r4, #-1811939327	; 0x94000001
     4b0:	3173632f 	cmncc	r3, pc, lsr #6
     4b4:	2d653034 	stclcs	0, cr3, [r5, #-208]!	; 0xffffff30
     4b8:	70733132 	rsbsvc	r3, r3, r2, lsr r1
     4bc:	696c2f72 	stmdbvs	ip!, {r1, r4, r5, r6, r8, r9, sl, fp, sp}^
     4c0:	2f697062 	svccs	0x00697062
     4c4:	6c636e69 	stclvs	14, cr6, [r3], #-420	; 0xfffffe5c
     4c8:	00656475 	rsbeq	r6, r5, r5, ror r4
     4cc:	74757000 	ldrbtvc	r7, [r5], #-0
     4d0:	00632e6b 	rsbeq	r2, r3, fp, ror #28
     4d4:	72000001 	andvc	r0, r0, #1, 0
     4d8:	682e6970 	stmdavs	lr!, {r4, r5, r6, r8, fp, sp, lr}
     4dc:	00000200 	andeq	r0, r0, r0, lsl #4
     4e0:	00220500 	eoreq	r0, r2, r0, lsl #10
     4e4:	83580205 	cmphi	r8, #1342177280	; 0x50000000
     4e8:	06150000 	ldreq	r0, [r5], -r0
     4ec:	06050501 	streq	r0, [r5], -r1, lsl #10
     4f0:	000b054b 	andeq	r0, fp, fp, asr #10
     4f4:	01010402 	tsteq	r1, r2, lsl #8
     4f8:	02000505 	andeq	r0, r0, #20971520	; 0x1400000
     4fc:	2e060104 	adfcss	f0, f6, f4
     500:	02000905 	andeq	r0, r0, #81920	; 0x14000
     504:	4b060204 	blmi	180d1c <__bss_end__+0x177854>
     508:	02000f05 	andeq	r0, r0, #5, 30
     50c:	05650204 	strbeq	r0, [r5, #-516]!	; 0xfffffdfc
     510:	04020010 	streq	r0, [r2], #-16
     514:	00010602 	andeq	r0, r1, r2, lsl #12
     518:	2e020402 	cdpcs	4, 0, cr0, cr2, cr2, {0}
     51c:	32060505 	andcc	r0, r6, #20971520	; 0x1400000
     520:	13060105 	movwne	r0, #24837	; 0x6105
     524:	01000602 	tsteq	r0, r2, lsl #12
     528:	0005c501 	andeq	ip, r5, r1, lsl #10
     52c:	ff000300 			; <UNDEFINED> instruction: 0xff000300
     530:	02000000 	andeq	r0, r0, #0, 0
     534:	0d0efb01 	vstreq	d15, [lr, #-4]
     538:	01010100 	mrseq	r0, (UNDEF: 17)
     53c:	00000001 	andeq	r0, r0, r1
     540:	01000001 	tsteq	r0, r1
     544:	6362696c 	cmnvs	r2, #108, 18	; 0x1b0000
     548:	73752f00 	cmnvc	r5, #0, 30
     54c:	6f6c2f72 	svcvs	0x006c2f72
     550:	2f6c6163 	svccs	0x006c6163
     554:	6c6c6543 	cfstr64vs	mvdx6, [ip], #-268	; 0xfffffef4
     558:	612f7261 			; <UNDEFINED> instruction: 0x612f7261
     55c:	6e2d6d72 	mcrvs	13, 1, r6, cr13, cr2, {3}
     560:	2d656e6f 	stclcs	14, cr6, [r5, #-444]!	; 0xfffffe44
     564:	69626165 	stmdbvs	r2!, {r0, r2, r5, r6, r8, sp, lr}^
     568:	7365742d 	cmnvc	r5, #754974720	; 0x2d000000
     56c:	2d392f74 	ldccs	15, cr2, [r9, #-464]!	; 0xfffffe30
     570:	39313032 	ldmdbcc	r1!, {r1, r4, r5, ip, sp}
     574:	632d3471 			; <UNDEFINED> instruction: 0x632d3471
     578:	37303173 			; <UNDEFINED> instruction: 0x37303173
     57c:	696c2f65 	stmdbvs	ip!, {r0, r2, r5, r6, r8, r9, sl, fp, sp}^
     580:	63672f62 	cmnvs	r7, #392	; 0x188
     584:	72612f63 	rsbvc	r2, r1, #396	; 0x18c
     588:	6f6e2d6d 	svcvs	0x006e2d6d
     58c:	652d656e 	strvs	r6, [sp, #-1390]!	; 0xfffffa92
     590:	2f696261 	svccs	0x00696261
     594:	2e322e39 	mrccs	14, 1, r2, cr2, cr9, {1}
     598:	6e692f31 	mcrvs	15, 3, r2, cr9, cr1, {1}
     59c:	64756c63 	ldrbtvs	r6, [r5], #-3171	; 0xfffff39d
     5a0:	552f0065 	strpl	r0, [pc, #-101]!	; 543 <__code_start__-0x7abd>
     5a4:	73726573 	cmnvc	r2, #482344960	; 0x1cc00000
     5a8:	7264612f 	rsbvc	r6, r4, #-1073741813	; 0xc000000b
     5ac:	6d6e6169 	stfvse	f6, [lr, #-420]!	; 0xfffffe5c
     5b0:	69747261 	ldmdbvs	r4!, {r0, r5, r6, r9, ip, sp, lr}^
     5b4:	2f7a656e 	svccs	0x007a656e
     5b8:	6a6f7270 	bvs	1bdcf80 <__bss_end__+0x1bd3ab8>
     5bc:	73746365 	cmnvc	r4, #-1811939327	; 0x94000001
     5c0:	3173632f 	cmncc	r3, pc, lsr #6
     5c4:	2d653034 	stclcs	0, cr3, [r5, #-208]!	; 0xffffff30
     5c8:	70733132 	rsbsvc	r3, r3, r2, lsr r1
     5cc:	696c2f72 	stmdbvs	ip!, {r1, r4, r5, r6, r8, r9, sl, fp, sp}^
     5d0:	2f697062 	svccs	0x00697062
     5d4:	6c636e69 	stclvs	14, cr6, [r3], #-420	; 0xfffffe5c
     5d8:	00656475 	rsbeq	r6, r5, r5, ror r4
     5dc:	2d617600 	stclcs	6, cr7, [r1, #-0]
     5e0:	6e697270 	mcrvs	2, 3, r7, cr9, cr0, {3}
     5e4:	632e6b74 			; <UNDEFINED> instruction: 0x632e6b74
     5e8:	00000100 	andeq	r0, r0, r0, lsl #2
     5ec:	69647473 	stmdbvs	r4!, {r0, r1, r4, r5, r6, sl, ip, sp, lr}^
     5f0:	672d746e 	strvs	r7, [sp, -lr, ror #8]!
     5f4:	682e6363 	stmdavs	lr!, {r0, r1, r5, r6, r8, r9, sp, lr}
     5f8:	00000200 	andeq	r0, r0, r0, lsl #4
     5fc:	2e697072 	mcrcs	0, 3, r7, cr9, cr2, {3}
     600:	00030068 	andeq	r0, r3, r8, rrx
     604:	69707200 	ldmdbvs	r0!, {r9, ip, sp, lr}^
     608:	746e692d 	strbtvc	r6, [lr], #-2349	; 0xfffff6d3
     60c:	616e7265 	cmnvs	lr, r5, ror #4
     610:	00682e6c 	rsbeq	r2, r8, ip, ror #28
     614:	73000003 	movwvc	r0, #3
     618:	72616474 	rsbvc	r6, r1, #116, 8	; 0x74000000
     61c:	00682e67 	rsbeq	r2, r8, r7, ror #28
     620:	3c000002 	stccc	0, cr0, [r0], {2}
     624:	6c697562 	cfstr64vs	mvdx7, [r9], #-392	; 0xfffffe78
     628:	6e692d74 	mcrvs	13, 3, r2, cr9, cr4, {3}
     62c:	0000003e 	andeq	r0, r0, lr, lsr r0
     630:	1b050000 	blne	140638 <__bss_end__+0x137170>
     634:	8c020500 	cfstr32hi	mvfx0, [r2], {-0}
     638:	03000083 	movweq	r0, #131	; 0x83
     63c:	1d050126 	stfnes	f0, [r5, #-152]	; 0xffffff68
     640:	062d0501 	strteq	r0, [sp], -r1, lsl #10
     644:	2e010501 	cfsh32cs	mvfx0, mvfx1, #1
     648:	0633054a 	ldrteq	r0, [r3], -sl, asr #10
     64c:	13020551 	movwne	r0, #9553	; 0x2551
     650:	01060605 	tsteq	r6, r5, lsl #12
     654:	30060205 	andcc	r0, r6, r5, lsl #4
     658:	02000805 	andeq	r0, r0, #327680	; 0x50000
     65c:	05010104 	streq	r0, [r1, #-260]	; 0xfffffefc
     660:	04020002 	streq	r0, [r2], #-2
     664:	05010601 	streq	r0, [r1, #-1537]	; 0xfffff9ff
     668:	04020003 	streq	r0, [r2], #-3
     66c:	052f0602 	streq	r0, [pc, #-1538]!	; 72 <__code_start__-0x7f8e>
     670:	04020008 	streq	r0, [r2], #-8
     674:	05010602 	streq	r0, [r1, #-1538]	; 0xfffff9fe
     678:	04020015 	streq	r0, [r2], #-21	; 0xffffffeb
     67c:	05490602 	strbeq	r0, [r9, #-1538]	; 0xfffff9fe
     680:	04020018 	streq	r0, [r2], #-24	; 0xffffffe8
     684:	00010602 	andeq	r0, r1, r2, lsl #12
     688:	2e020402 	cdpcs	4, 0, cr0, cr2, cr2, {0}
     68c:	30060205 	andcc	r0, r6, r5, lsl #4
     690:	01060505 	tsteq	r6, r5, lsl #10
     694:	4b060205 	blmi	180eb0 <__bss_end__+0x1779e8>
     698:	13060105 	movwne	r0, #24837	; 0x6105
     69c:	31063e05 	tstcc	r6, r5, lsl #28
     6a0:	05140205 	ldreq	r0, [r4, #-517]	; 0xfffffdfb
     6a4:	0501060e 	streq	r0, [r1, #-1550]	; 0xfffff9f2
     6a8:	02052e06 	andeq	r2, r5, #96	; 0x60
     6ac:	04052f06 	streq	r2, [r5], #-3846	; 0xfffff0fa
     6b0:	03050106 	movweq	r0, #20742	; 0x5106
     6b4:	11052f06 	tstne	r5, r6, lsl #30
     6b8:	09050106 	stmdbeq	r5, {r1, r2, r8}
     6bc:	0602052e 	streq	r0, [r2], -lr, lsr #10
     6c0:	07051530 	smladxeq	r5, r0, r5, r1
     6c4:	02050106 	andeq	r0, r5, #-2147483647	; 0x80000001
     6c8:	000b052e 	andeq	r0, fp, lr, lsr #10
     6cc:	06010402 	streq	r0, [r1], -r2, lsl #8
     6d0:	0002052e 	andeq	r0, r2, lr, lsr #10
     6d4:	06010402 	streq	r0, [r1], -r2, lsl #8
     6d8:	00030501 	andeq	r0, r3, r1, lsl #10
     6dc:	06030402 	streq	r0, [r3], -r2, lsl #8
     6e0:	000c052f 	andeq	r0, ip, pc, lsr #10
     6e4:	06030402 	streq	r0, [r3], -r2, lsl #8
     6e8:	000a0501 	andeq	r0, sl, r1, lsl #10
     6ec:	2e030402 	cdpcs	4, 0, cr0, cr3, cr2, {0}
     6f0:	02001705 	andeq	r1, r0, #1310720	; 0x140000
     6f4:	2d060304 	stccs	3, cr0, [r6, #-16]
     6f8:	03040200 	movweq	r0, #16896	; 0x4200
     6fc:	02050106 	andeq	r0, r5, #-2147483647	; 0x80000001
     700:	09053006 	stmdbeq	r5, {r1, r2, ip, sp}
     704:	052e0106 	streq	r0, [lr, #-262]!	; 0xfffffefa
     708:	05300602 	ldreq	r0, [r0, #-1538]!	; 0xfffff9fe
     70c:	05130601 	ldreq	r0, [r3, #-1537]	; 0xfffff9ff
     710:	06310649 	ldrteq	r0, [r1], -r9, asr #12
     714:	06020501 	streq	r0, [r2], -r1, lsl #10
     718:	060405a0 	streq	r0, [r4], -r0, lsr #11
     71c:	06030501 	streq	r0, [r3], -r1, lsl #10
     720:	0609052f 	streq	r0, [r9], -pc, lsr #10
     724:	06020501 	streq	r0, [r2], -r1, lsl #10
     728:	0b051330 	bleq	1453f0 <__bss_end__+0x13bf28>
     72c:	02050106 	andeq	r0, r5, #-2147483647	; 0x80000001
     730:	2e063006 	cdpcs	0, 0, cr3, cr6, cr6, {0}
     734:	02060405 	andeq	r0, r6, #83886080	; 0x5000000
     738:	05131524 	ldreq	r1, [r3, #-1316]	; 0xfffffadc
     73c:	2e01060f 	cfmadd32cs	mvax0, mvfx0, mvfx1, mvfx15
     740:	054a0605 	strbeq	r0, [sl, #-1541]	; 0xfffff9fb
     744:	134b0605 	movtne	r0, #46597	; 0xb605
     748:	01060905 	tsteq	r6, r5, lsl #18
     74c:	2f060505 	svccs	0x00060505
     750:	10060b05 	andne	r0, r6, r5, lsl #22
     754:	02000d05 	andeq	r0, r0, #320	; 0x140
     758:	052c0104 	streq	r0, [ip, #-260]!	; 0xfffffefc
     75c:	04020004 	streq	r0, [r2], #-4
     760:	05340601 	ldreq	r0, [r4, #-1537]!	; 0xfffff9ff
     764:	04020005 	streq	r0, [r2], #-5
     768:	1b051301 	blne	145374 <__bss_end__+0x13beac>
     76c:	01040200 	mrseq	r0, R12_usr
     770:	07050106 	streq	r0, [r5, -r6, lsl #2]
     774:	01040200 	mrseq	r0, R12_usr
     778:	001805d6 			; <UNDEFINED> instruction: 0x001805d6
     77c:	2e010402 	cdpcs	4, 0, cr0, cr1, cr2, {0}
     780:	02000a05 	andeq	r0, r0, #20480	; 0x5000
     784:	054a0104 	strbeq	r0, [sl, #-260]	; 0xfffffefc
     788:	0402000b 	streq	r0, [r2], #-11
     78c:	052f0601 	streq	r0, [pc, #-1537]!	; 193 <__code_start__-0x7e6d>
     790:	0402000e 	streq	r0, [r2], #-14
     794:	052e0601 	streq	r0, [lr, #-1537]!	; 0xfffff9ff
     798:	04020004 	streq	r0, [r2], #-4
     79c:	4b062e01 	blmi	18bfa8 <__bss_end__+0x182ae0>
     7a0:	01060605 	tsteq	r6, r5, lsl #12
     7a4:	2f060505 	svccs	0x00060505
     7a8:	01060a05 	tsteq	r6, r5, lsl #20
     7ac:	2e4a0705 	cdpcs	7, 4, cr0, cr10, cr5, {0}
     7b0:	76030d05 	strvc	r0, [r3], -r5, lsl #26
     7b4:	0b054a2e 	bleq	153074 <__bss_end__+0x149bac>
     7b8:	000d050d 	andeq	r0, sp, sp, lsl #10
     7bc:	06010402 	streq	r0, [r1], -r2, lsl #8
     7c0:	052e1403 	streq	r1, [lr, #-1027]!	; 0xfffffbfd
     7c4:	04020011 	streq	r0, [r2], #-17	; 0xffffffef
     7c8:	2d051301 	stccs	3, cr1, [r5, #-4]
     7cc:	01040200 	mrseq	r0, R12_usr
     7d0:	2a050106 	bcs	140bf0 <__bss_end__+0x137728>
     7d4:	01040200 	mrseq	r0, R12_usr
     7d8:	0016052e 	andseq	r0, r6, lr, lsr #10
     7dc:	4a010402 	bmi	417ec <__bss_end__+0x38324>
     7e0:	02001405 	andeq	r1, r0, #83886080	; 0x5000000
     7e4:	4b060104 	blmi	180bfc <__bss_end__+0x177734>
     7e8:	02000d05 	andeq	r0, r0, #320	; 0x140
     7ec:	01060104 	tsteq	r6, r4, lsl #2
     7f0:	01040200 	mrseq	r0, R12_usr
     7f4:	052f064a 	streq	r0, [pc, #-1610]!	; 1b2 <__code_start__-0x7e4e>
     7f8:	4a010612 	bmi	42048 <__bss_end__+0x38b80>
     7fc:	2f060d05 	svccs	0x00060d05
     800:	01061205 	tsteq	r6, r5, lsl #4
     804:	4b061905 	blmi	186c20 <__bss_end__+0x17d758>
     808:	02000405 	andeq	r0, r0, #83886080	; 0x5000000
     80c:	11030204 	tstne	r3, r4, lsl #4
     810:	04020001 	streq	r0, [r2], #-1
     814:	02050102 	andeq	r0, r5, #-2147483648	; 0x80000000
     818:	02040200 	andeq	r0, r4, #0, 4
     81c:	00090515 	andeq	r0, r9, r5, lsl r5
     820:	06020402 	streq	r0, [r2], -r2, lsl #8
     824:	04020001 	streq	r0, [r2], #-1
     828:	01054a02 	tsteq	r5, r2, lsl #20
     82c:	02040200 	andeq	r0, r4, #0, 4
     830:	0604059f 			; <UNDEFINED> instruction: 0x0604059f
     834:	054a6e03 	strbeq	r6, [sl, #-3587]	; 0xfffff1fd
     838:	05010609 	streq	r0, [r1, #-1545]	; 0xfffff9f7
     83c:	052f0604 	streq	r0, [pc, #-1540]!	; 240 <__code_start__-0x7dc0>
     840:	05110606 	ldreq	r0, [r1, #-1542]	; 0xfffff9fa
     844:	0b052f04 	bleq	14c45c <__bss_end__+0x142f94>
     848:	052e6303 	streq	r6, [lr, #-771]!	; 0xfffffcfd
     84c:	04020019 	streq	r0, [r2], #-25	; 0xffffffe7
     850:	24030601 	strcs	r0, [r3], #-1537	; 0xfffff9ff
     854:	001a052e 	andseq	r0, sl, lr, lsr #10
     858:	13010402 	movwne	r0, #5122	; 0x1402
     85c:	02002805 	andeq	r2, r0, #327680	; 0x50000
     860:	01060104 	tsteq	r6, r4, lsl #2
     864:	02002505 	andeq	r2, r0, #20971520	; 0x1400000
     868:	052e0104 	streq	r0, [lr, #-260]!	; 0xfffffefc
     86c:	0402001f 	streq	r0, [r2], #-31	; 0xffffffe1
     870:	0b054a01 	bleq	15307c <__bss_end__+0x149bb4>
     874:	01040200 	mrseq	r0, R12_usr
     878:	04054b06 	streq	r4, [r5], #-2822	; 0xfffff4fa
     87c:	01040200 	mrseq	r0, R12_usr
     880:	02000106 	andeq	r0, r0, #-2147483647	; 0x80000001
     884:	004a0104 	subeq	r0, sl, r4, lsl #2
     888:	06010402 	streq	r0, [r1], -r2, lsl #8
     88c:	0402004e 	streq	r0, [r2], #-78	; 0xffffffb2
     890:	02000101 	andeq	r0, r0, #1073741824	; 0x40000000
     894:	00010104 	andeq	r0, r1, r4, lsl #2
     898:	01010402 	tsteq	r1, r2, lsl #8
     89c:	01040200 	mrseq	r0, R12_usr
     8a0:	02002e06 	andeq	r2, r0, #96	; 0x60
     8a4:	00660104 	rsbeq	r0, r6, r4, lsl #2
     8a8:	2e010402 	cdpcs	4, 0, cr0, cr1, cr2, {0}
     8ac:	01040200 	mrseq	r0, R12_usr
     8b0:	48054a06 	stmdami	r5, {r1, r2, r9, fp, lr}
     8b4:	087fa603 	ldmdaeq	pc!, {r0, r1, r9, sl, sp, pc}^	; <UNPREDICTABLE>
     8b8:	13050520 	movwne	r0, #21792	; 0x5520
     8bc:	002e0601 	eoreq	r0, lr, r1, lsl #12
     8c0:	06020402 	streq	r0, [r2], -r2, lsl #8
     8c4:	0402002e 	streq	r0, [r2], #-46	; 0xffffffd2
     8c8:	02000102 	andeq	r0, r0, #-2147483648	; 0x80000000
     8cc:	05130204 	ldreq	r0, [r3, #-516]	; 0xfffffdfc
     8d0:	04020011 	streq	r0, [r2], #-17	; 0xffffffef
     8d4:	05010602 	streq	r0, [r1, #-1538]	; 0xfffff9fe
     8d8:	04020005 	streq	r0, [r2], #-5
     8dc:	054b0602 	strbeq	r0, [fp, #-1538]	; 0xfffff9fe
     8e0:	04020007 	streq	r0, [r2], #-7
     8e4:	05010602 	streq	r0, [r1, #-1538]	; 0xfffff9fe
     8e8:	054b0609 	strbeq	r0, [fp, #-1545]	; 0xfffff9f7
     8ec:	0501060e 	streq	r0, [r1, #-1550]	; 0xfffff9f2
     8f0:	04020048 	streq	r0, [r2], #-72	; 0xffffffb8
     8f4:	05056201 	streq	r6, [r5, #-513]	; 0xfffffdff
     8f8:	01040200 	mrseq	r0, R12_usr
     8fc:	02004b06 	andeq	r4, r0, #6144	; 0x1800
     900:	00010104 	andeq	r0, r1, r4, lsl #2
     904:	06010402 	streq	r0, [r1], -r2, lsl #8
     908:	0402009e 	streq	r0, [r2], #-158	; 0xffffff62
     90c:	02002e01 	andeq	r2, r0, #1, 28
     910:	2e060104 	adfcss	f0, f6, f4
     914:	e1034005 	tst	r3, r5
     918:	0106d600 	tsteq	r6, r0, lsl #12
     91c:	9f060205 	svcls	0x00060205
     920:	01061e05 	tsteq	r6, r5, lsl #28
     924:	052e1205 	streq	r1, [lr, #-517]!	; 0xfffffdfb
     928:	052f0605 	streq	r0, [pc, #-1541]!	; 32b <__code_start__-0x7cd5>
     92c:	09051402 	stmdbeq	r5, {r1, sl, ip}
     930:	05050106 	streq	r0, [r5, #-262]	; 0xfffffefa
     934:	02054b06 	andeq	r4, r5, #6144	; 0x1800
     938:	06080513 			; <UNDEFINED> instruction: 0x06080513
     93c:	3302050d 	movwcc	r0, #9485	; 0x250d
     940:	4c060405 	cfstrsmi	mvf0, [r6], {5}
     944:	01060f05 	tsteq	r6, r5, lsl #30
     948:	052e0905 	streq	r0, [lr, #-2309]!	; 0xfffff6fb
     94c:	052c0608 	streq	r0, [ip, #-1544]!	; 0xfffff9f8
     950:	052e0602 	streq	r0, [lr, #-1538]!	; 0xfffff9fe
     954:	0402000d 	streq	r0, [r2], #-13
     958:	03054a01 	movweq	r4, #23041	; 0x5a01
     95c:	05054b06 	streq	r4, [r5, #-2822]	; 0xfffff4fa
     960:	08050106 	stmdaeq	r5, {r1, r2, r8}
     964:	0e054d06 	cdpeq	13, 0, cr4, cr5, cr6, {0}
     968:	0a050106 	beq	140d88 <__bss_end__+0x1378c0>
     96c:	0604052e 	streq	r0, [r4], -lr, lsr #10
     970:	0609052f 	streq	r0, [r9], -pc, lsr #10
     974:	06040501 	streq	r0, [r4], -r1, lsl #10
     978:	0607052f 	streq	r0, [r7], -pc, lsr #10
     97c:	04052e01 	streq	r2, [r5], #-3585	; 0xfffff1ff
     980:	07053006 	streq	r3, [r5, -r6]
     984:	04050106 	streq	r0, [r5], #-262	; 0xfffffefa
     988:	14133006 	ldrne	r3, [r3], #-6
     98c:	10060d05 	andne	r0, r6, r5, lsl #26
     990:	30060905 	andcc	r0, r6, r5, lsl #18
     994:	01061205 	tsteq	r6, r5, lsl #4
     998:	052e0a05 	streq	r0, [lr, #-2565]!	; 0xfffff5fb
     99c:	05056609 	streq	r6, [r5, #-1545]	; 0xfffff9f7
     9a0:	12054b06 	andne	r4, r5, #6144	; 0x1800
     9a4:	16050106 	strne	r0, [r5], -r6, lsl #2
     9a8:	2e0b052e 	cfsh32cs	mvfx0, mvfx11, #30
     9ac:	2f060505 	svccs	0x00060505
     9b0:	01060805 	tsteq	r6, r5, lsl #16
     9b4:	0604052e 	streq	r0, [r4], -lr, lsr #10
     9b8:	014a0130 	cmpeq	sl, r0, lsr r1
     9bc:	04020015 	streq	r0, [r2], #-21	; 0xffffffeb
     9c0:	0f360201 	svceq	0x00360201
     9c4:	01040200 	mrseq	r0, R12_usr
     9c8:	04020001 	streq	r0, [r2], #-1
     9cc:	1105d601 	tstne	r5, r1, lsl #12
     9d0:	02000133 	andeq	r0, r0, #-1073741812	; 0xc000000c
     9d4:	00ba0204 	adcseq	r0, sl, r4, lsl #4
     9d8:	01020402 	tsteq	r2, r2, lsl #8
     9dc:	02040200 	andeq	r0, r4, #0, 4
     9e0:	00150513 	andseq	r0, r5, r3, lsl r5
     9e4:	06020402 	streq	r0, [r2], -r2, lsl #8
     9e8:	00110501 	andseq	r0, r1, r1, lsl #10
     9ec:	06020402 	streq	r0, [r2], -r2, lsl #8
     9f0:	001a052f 	andseq	r0, sl, pc, lsr #10
     9f4:	06020402 	streq	r0, [r2], -r2, lsl #8
     9f8:	00110501 	andseq	r0, r1, r1, lsl #10
     9fc:	06020402 	streq	r0, [r2], -r2, lsl #8
     a00:	040200d7 	streq	r0, [r2], #-215	; 0xffffff29
     a04:	05051302 	streq	r1, [r5, #-770]	; 0xfffffcfe
     a08:	02040200 	andeq	r0, r4, #0, 4
     a0c:	00090517 	andeq	r0, r9, r7, lsl r5
     a10:	06020402 	streq	r0, [r2], -r2, lsl #8
     a14:	04020001 	streq	r0, [r2], #-1
     a18:	0505d602 	streq	sp, [r5, #-1538]	; 0xfffff9fe
     a1c:	02040200 	andeq	r0, r4, #0, 4
     a20:	02003006 	andeq	r3, r0, #6, 0
     a24:	ba060204 	blt	18123c <__bss_end__+0x177d74>
     a28:	02001105 	andeq	r1, r0, #1073741825	; 0x40000001
     a2c:	2f060204 	svccs	0x00060204
     a30:	02040200 	andeq	r0, r4, #0, 4
     a34:	04020067 	streq	r0, [r2], #-103	; 0xffffff99
     a38:	2e730301 	cdpcs	3, 7, cr0, cr3, cr1, {0}
     a3c:	01040200 	mrseq	r0, R12_usr
     a40:	04020001 	streq	r0, [r2], #-1
     a44:	0505d601 	streq	sp, [r5, #-1537]	; 0xfffff9ff
     a48:	012e1203 			; <UNDEFINED> instruction: 0x012e1203
     a4c:	0e032e9e 	mcreq	14, 0, r2, cr3, cr14, {4}
     a50:	06090501 	streq	r0, [r9], -r1, lsl #10
     a54:	06050501 	streq	r0, [r5], -r1, lsl #10
     a58:	01067508 	tsteq	r6, r8, lsl #10
     a5c:	03060405 	movweq	r0, #25605	; 0x6405
     a60:	07050118 	smladeq	r5, r8, r1, r0
     a64:	04050106 	streq	r0, [r5], #-262	; 0xfffffefa
     a68:	05053106 	streq	r3, [r5, #-262]	; 0xfffffefa
     a6c:	052e6703 	streq	r6, [lr, #-1795]!	; 0xfffff8fd
     a70:	0501061c 	streq	r0, [r1, #-1564]	; 0xfffff9e4
     a74:	05058209 	streq	r8, [r5, #-521]	; 0xfffffdf7
     a78:	0531f306 	ldreq	pc, [r1, #-774]!	; 0xfffffcfa
     a7c:	0501061c 	streq	r0, [r1, #-1564]	; 0xfffff9e4
     a80:	05058209 	streq	r8, [r5, #-521]	; 0xfffffdf7
     a84:	0530f306 	ldreq	pc, [r0, #-774]!	; 0xfffffcfa
     a88:	0501061b 	streq	r0, [r1, #-1563]	; 0xfffff9e5
     a8c:	05058209 	streq	r8, [r5, #-521]	; 0xfffffdf7
     a90:	0530f306 	ldreq	pc, [r0, #-774]!	; 0xfffffcfa
     a94:	05010607 	streq	r0, [r1, #-1543]	; 0xfffff9f9
     a98:	30830605 	addcc	r0, r3, r5, lsl #12
     a9c:	01060905 	tsteq	r6, r5, lsl #18
     aa0:	08060505 	stmdaeq	r6, {r0, r2, r8, sl}
     aa4:	30110575 	andscc	r0, r1, r5, ror r5
     aa8:	01062205 	tsteq	r6, r5, lsl #4
     aac:	4b060505 	blmi	181ec8 <__bss_end__+0x178a00>
     ab0:	05831105 	streq	r1, [r3, #261]	; 0x105
     ab4:	9e018305 	cdpls	3, 0, cr8, cr1, cr5, {0}
     ab8:	19062e06 	stmdbne	r6, {r1, r2, r9, sl, fp, sp}
     abc:	01060e05 	tsteq	r6, r5, lsl #28
     ac0:	062e0a05 	strteq	r0, [lr], -r5, lsl #20
     ac4:	0604052d 	streq	r0, [r4], -sp, lsr #10
     ac8:	00130501 	andseq	r0, r3, r1, lsl #10
     acc:	4a010402 	bmi	41adc <__bss_end__+0x38614>
     ad0:	02001005 	andeq	r1, r0, #5, 0
     ad4:	002e0104 	eoreq	r0, lr, r4, lsl #2
     ad8:	66010402 	strvs	r0, [r1], -r2, lsl #8
     adc:	16060205 	strne	r0, [r6], -r5, lsl #4
     ae0:	01060705 	tsteq	r6, r5, lsl #14
     ae4:	4b060205 	blmi	181300 <__bss_end__+0x177e38>
     ae8:	13060105 	movwne	r0, #24837	; 0x6105
     aec:	00140266 	andseq	r0, r4, r6, ror #4
     af0:	008d0101 	addeq	r0, sp, r1, lsl #2
     af4:	00030000 	andeq	r0, r3, r0
     af8:	00000072 	andeq	r0, r0, r2, ror r0
     afc:	0efb0102 	cdpeq	1, 15, cr0, cr11, cr2, {0}
     b00:	0101000d 	tsteq	r1, sp
     b04:	00000101 	andeq	r0, r0, r1, lsl #2
     b08:	00000100 	andeq	r0, r0, r0, lsl #2
     b0c:	61747301 	cmnvs	r4, r1, lsl #6
     b10:	732d6666 			; <UNDEFINED> instruction: 0x732d6666
     b14:	2f006372 	svccs	0x00006372
     b18:	72657355 	rsbvc	r7, r5, #1409286145	; 0x54000001
     b1c:	64612f73 	strbtvs	r2, [r1], #-3955	; 0xfffff08d
     b20:	6e616972 			; <UNDEFINED> instruction: 0x6e616972
     b24:	7472616d 	ldrbtvc	r6, [r2], #-365	; 0xfffffe93
     b28:	7a656e69 	bvc	195c4d4 <__bss_end__+0x195300c>
     b2c:	6f72702f 	svcvs	0x0072702f
     b30:	7463656a 	strbtvc	r6, [r3], #-1386	; 0xfffffa96
     b34:	73632f73 	cmnvc	r3, #460	; 0x1cc
     b38:	65303431 	ldrvs	r3, [r0, #-1073]!	; 0xfffffbcf
     b3c:	7331322d 	teqvc	r1, #-805306366	; 0xd0000002
     b40:	6c2f7270 	sfmvs	f7, 4, [pc], #-448	; 988 <__code_start__-0x7678>
     b44:	69706269 	ldmdbvs	r0!, {r0, r3, r5, r6, r9, sp, lr}^
     b48:	636e692f 	cmnvs	lr, #770048	; 0xbc000
     b4c:	6564756c 	strbvs	r7, [r4, #-1388]!	; 0xfffffa94
     b50:	6c630000 	stclvs	0, cr0, [r3], #-0
     b54:	2d6e6165 	stfcse	f6, [lr, #-404]!	; 0xfffffe6c
     b58:	6f626572 	svcvs	0x00626572
     b5c:	632e746f 			; <UNDEFINED> instruction: 0x632e746f
     b60:	00000100 	andeq	r0, r0, r0, lsl #2
     b64:	2e697072 	mcrcs	0, 3, r7, cr9, cr2, {3}
     b68:	00020068 	andeq	r0, r2, r8, rrx
     b6c:	19050000 	stmdbne	r5, {}	; <UNPREDICTABLE>
     b70:	b8020500 	stmdalt	r2, {r8, sl}
     b74:	15000089 	strne	r0, [r0, #-137]	; 0xffffff77
     b78:	832f0505 			; <UNDEFINED> instruction: 0x832f0505
     b7c:	06024b2f 	streq	r4, [r2], -pc, lsr #22
     b80:	a2010100 	andge	r0, r1, #0
     b84:	03000000 	movweq	r0, #0
     b88:	00006c00 	andeq	r6, r0, r0, lsl #24
     b8c:	fb010200 	blx	41396 <__bss_end__+0x37ece>
     b90:	01000d0e 	tsteq	r0, lr, lsl #26
     b94:	00010101 	andeq	r0, r1, r1, lsl #2
     b98:	00010000 	andeq	r0, r1, r0
     b9c:	74730100 	ldrbtvc	r0, [r3], #-256	; 0xffffff00
     ba0:	2d666661 	stclcs	6, cr6, [r6, #-388]!	; 0xfffffe7c
     ba4:	00637273 	rsbeq	r7, r3, r3, ror r2
     ba8:	6573552f 	ldrbvs	r5, [r3, #-1327]!	; 0xfffffad1
     bac:	612f7372 			; <UNDEFINED> instruction: 0x612f7372
     bb0:	61697264 	cmnvs	r9, r4, ror #4
     bb4:	72616d6e 	rsbvc	r6, r1, #7040	; 0x1b80
     bb8:	656e6974 	strbvs	r6, [lr, #-2420]!	; 0xfffff68c
     bbc:	72702f7a 	rsbsvc	r2, r0, #488	; 0x1e8
     bc0:	63656a6f 	cmnvs	r5, #454656	; 0x6f000
     bc4:	632f7374 			; <UNDEFINED> instruction: 0x632f7374
     bc8:	30343173 	eorscc	r3, r4, r3, ror r1
     bcc:	31322d65 	teqcc	r2, r5, ror #26
     bd0:	2f727073 	svccs	0x00727073
     bd4:	7062696c 	rsbvc	r6, r2, ip, ror #18
     bd8:	6e692f69 	cdpvs	15, 6, cr2, cr9, cr9, {3}
     bdc:	64756c63 	ldrbtvs	r6, [r5], #-3171	; 0xfffff39d
     be0:	63000065 	movwvs	r0, #101	; 0x65
     be4:	72617473 	rsbvc	r7, r1, #1929379840	; 0x73000000
     be8:	00632e74 	rsbeq	r2, r3, r4, ror lr
     bec:	72000001 	andvc	r0, r0, #1, 0
     bf0:	682e6970 	stmdavs	lr!, {r4, r5, r6, r8, fp, sp, lr}
     bf4:	00000200 	andeq	r0, r0, r0, lsl #4
     bf8:	00100500 	andseq	r0, r0, r0, lsl #10
     bfc:	89e40205 	stmibhi	r4!, {r0, r2, r9}^
     c00:	05140000 	ldreq	r0, [r4, #-0]
     c04:	02052f05 	andeq	r2, r5, #5, 30
     c08:	14050513 	strne	r0, [r5], #-1299	; 0xfffffaed
     c0c:	05141330 	ldreq	r1, [r4, #-816]	; 0xfffffcd0
     c10:	060f060a 	streq	r0, [pc], -sl, lsl #12
     c14:	4b090531 	blmi	2420e0 <__bss_end__+0x238c18>
     c18:	01061005 	tsteq	r6, r5
     c1c:	0605054a 	streq	r0, [r5], -sl, asr #10
     c20:	2f020530 	svccs	0x00020530
     c24:	01000602 	tsteq	r0, r2, lsl #12
     c28:	00008b01 	andeq	r8, r0, r1, lsl #22
     c2c:	73000300 	movwvc	r0, #768	; 0x300
     c30:	02000000 	andeq	r0, r0, #0, 0
     c34:	0d0efb01 	vstreq	d15, [lr, #-4]
     c38:	01010100 	mrseq	r0, (UNDEF: 17)
     c3c:	00000001 	andeq	r0, r0, r1
     c40:	01000001 	tsteq	r0, r1
     c44:	66617473 			; <UNDEFINED> instruction: 0x66617473
     c48:	72732d66 	rsbsvc	r2, r3, #6528	; 0x1980
     c4c:	552f0063 	strpl	r0, [pc, #-99]!	; bf1 <__code_start__-0x740f>
     c50:	73726573 	cmnvc	r2, #482344960	; 0x1cc00000
     c54:	7264612f 	rsbvc	r6, r4, #-1073741813	; 0xc000000b
     c58:	6d6e6169 	stfvse	f6, [lr, #-420]!	; 0xfffffe5c
     c5c:	69747261 	ldmdbvs	r4!, {r0, r5, r6, r9, ip, sp, lr}^
     c60:	2f7a656e 	svccs	0x007a656e
     c64:	6a6f7270 	bvs	1bdd62c <__bss_end__+0x1bd4164>
     c68:	73746365 	cmnvc	r4, #-1811939327	; 0x94000001
     c6c:	3173632f 	cmncc	r3, pc, lsr #6
     c70:	2d653034 	stclcs	0, cr3, [r5, #-208]!	; 0xffffff30
     c74:	70733132 	rsbsvc	r3, r3, r2, lsr r1
     c78:	696c2f72 	stmdbvs	ip!, {r1, r4, r5, r6, r8, r9, sl, fp, sp}^
     c7c:	2f697062 	svccs	0x00697062
     c80:	6c636e69 	stclvs	14, cr6, [r3], #-420	; 0xfffffe5c
     c84:	00656475 	rsbeq	r6, r5, r5, ror r4
     c88:	73756300 	cmnvc	r5, #0, 6
     c8c:	2d6d6f74 	stclcs	15, cr6, [sp, #-464]!	; 0xfffffe30
     c90:	64616f6c 	strbtvs	r6, [r1], #-3948	; 0xfffff094
     c94:	632e7265 			; <UNDEFINED> instruction: 0x632e7265
     c98:	00000100 	andeq	r0, r0, r0, lsl #2
     c9c:	2e697072 	mcrcs	0, 3, r7, cr9, cr2, {3}
     ca0:	00020068 	andeq	r0, r2, r8, rrx
     ca4:	1a050000 	bne	140cac <__bss_end__+0x1377e4>
     ca8:	14020500 	strne	r0, [r2], #-1280	; 0xfffffb00
     cac:	1500008a 	strne	r0, [r0, #-138]	; 0xffffff76
     cb0:	02140105 	andseq	r0, r4, #1073741825	; 0x40000001
     cb4:	01010002 	tsteq	r1, r2
     cb8:	000000dc 	ldrdeq	r0, [r0], -ip
     cbc:	006c0003 	rsbeq	r0, ip, r3
     cc0:	01020000 	mrseq	r0, (UNDEF: 2)
     cc4:	000d0efb 	strdeq	r0, [sp], -fp
     cc8:	01010101 	tsteq	r1, r1, lsl #2
     ccc:	01000000 	mrseq	r0, (UNDEF: 0)
     cd0:	73010000 	movwvc	r0, #4096	; 0x1000
     cd4:	66666174 			; <UNDEFINED> instruction: 0x66666174
     cd8:	6372732d 	cmnvs	r2, #-1275068416	; 0xb4000000
     cdc:	73552f00 	cmpvc	r5, #0, 30
     ce0:	2f737265 	svccs	0x00737265
     ce4:	69726461 	ldmdbvs	r2!, {r0, r5, r6, sl, sp, lr}^
     ce8:	616d6e61 	cmnvs	sp, r1, ror #28
     cec:	6e697472 	mcrvs	4, 3, r7, cr9, cr2, {3}
     cf0:	702f7a65 	eorvc	r7, pc, r5, ror #20
     cf4:	656a6f72 	strbvs	r6, [sl, #-3954]!	; 0xfffff08e
     cf8:	2f737463 	svccs	0x00737463
     cfc:	34317363 	ldrtcc	r7, [r1], #-867	; 0xfffffc9d
     d00:	322d6530 	eorcc	r6, sp, #48, 10	; 0xc000000
     d04:	72707331 	rsbsvc	r7, r0, #-1006632960	; 0xc4000000
     d08:	62696c2f 	rsbvs	r6, r9, #12032	; 0x2f00
     d0c:	692f6970 	stmdbvs	pc!, {r4, r5, r6, r8, fp, sp, lr}	; <UNPREDICTABLE>
     d10:	756c636e 	strbvc	r6, [ip, #-878]!	; 0xfffffc92
     d14:	00006564 	andeq	r6, r0, r4, ror #10
     d18:	6f626572 	svcvs	0x00626572
     d1c:	632e746f 			; <UNDEFINED> instruction: 0x632e746f
     d20:	00000100 	andeq	r0, r0, r0, lsl #2
     d24:	2e697072 	mcrcs	0, 3, r7, cr9, cr2, {3}
     d28:	00020068 	andeq	r0, r2, r8, rrx
     d2c:	19050000 	stmdbne	r5, {}	; <UNPREDICTABLE>
     d30:	18020500 	stmdane	r2, {r8, sl}
     d34:	0300008a 	movweq	r0, #138	; 0x8a
     d38:	0505010d 	streq	r0, [r5, #-269]	; 0xfffffef3
     d3c:	05311313 	ldreq	r1, [r1, #-787]!	; 0xfffffced
     d40:	05010613 	streq	r0, [r1, #-1555]	; 0xfffff9ed
     d44:	1b052f01 	blne	14c950 <__bss_end__+0x143488>
     d48:	05058506 	streq	r8, [r5, #-1286]	; 0xfffffafa
     d4c:	09051413 	stmdbeq	r5, {r0, r1, r4, sl, ip}
     d50:	0616052f 	ldreq	r0, [r6], -pc, lsr #10
     d54:	2e0e0501 	cfsh32cs	mvfx0, mvfx14, #1
     d58:	2f060505 	svccs	0x00060505
     d5c:	2f060105 	svccs	0x00060105
     d60:	30061705 	andcc	r1, r6, r5, lsl #14
     d64:	052f0505 	streq	r0, [pc, #-1285]!	; 867 <__code_start__-0x7799>
     d68:	05010608 	streq	r0, [r1, #-1544]	; 0xfffff9f8
     d6c:	05052e07 	streq	r2, [r5, #-3591]	; 0xfffff1f9
     d70:	4a0b0306 	bmi	2c1990 <__bss_end__+0x2b84c8>
     d74:	13134d2f 	tstne	r3, #3008	; 0xbc0
     d78:	00671513 	rsbeq	r1, r7, r3, lsl r5
     d7c:	67010402 	strvs	r0, [r1, -r2, lsl #8]
     d80:	02000d05 	andeq	r0, r0, #320	; 0x140
     d84:	05010104 	streq	r0, [r1, #-260]	; 0xfffffefc
     d88:	0402000a 	streq	r0, [r2], #-10
     d8c:	09050101 	stmdbeq	r5, {r0, r8}
     d90:	022e6a03 	eoreq	r6, lr, #12288	; 0x3000
     d94:	0101000c 	tsteq	r1, ip
     d98:	000000fd 	strdeq	r0, [r0], -sp
     d9c:	006b0003 	rsbeq	r0, fp, r3
     da0:	01020000 	mrseq	r0, (UNDEF: 2)
     da4:	000d0efb 	strdeq	r0, [sp], -fp
     da8:	01010101 	tsteq	r1, r1, lsl #2
     dac:	01000000 	mrseq	r0, (UNDEF: 0)
     db0:	73010000 	movwvc	r0, #4096	; 0x1000
     db4:	66666174 			; <UNDEFINED> instruction: 0x66666174
     db8:	6372732d 	cmnvs	r2, #-1275068416	; 0xb4000000
     dbc:	73552f00 	cmpvc	r5, #0, 30
     dc0:	2f737265 	svccs	0x00737265
     dc4:	69726461 	ldmdbvs	r2!, {r0, r5, r6, sl, sp, lr}^
     dc8:	616d6e61 	cmnvs	sp, r1, ror #28
     dcc:	6e697472 	mcrvs	4, 3, r7, cr9, cr2, {3}
     dd0:	702f7a65 	eorvc	r7, pc, r5, ror #20
     dd4:	656a6f72 	strbvs	r6, [sl, #-3954]!	; 0xfffff08e
     dd8:	2f737463 	svccs	0x00737463
     ddc:	34317363 	ldrtcc	r7, [r1], #-867	; 0xfffffc9d
     de0:	322d6530 	eorcc	r6, sp, #48, 10	; 0xc000000
     de4:	72707331 	rsbsvc	r7, r0, #-1006632960	; 0xc4000000
     de8:	62696c2f 	rsbvs	r6, r9, #12032	; 0x2f00
     dec:	692f6970 	stmdbvs	pc!, {r4, r5, r6, r8, fp, sp, lr}	; <UNPREDICTABLE>
     df0:	756c636e 	strbvc	r6, [ip, #-878]!	; 0xfffffc92
     df4:	00006564 	andeq	r6, r0, r4, ror #10
     df8:	656d6974 	strbvs	r6, [sp, #-2420]!	; 0xfffff68c
     dfc:	00632e72 	rsbeq	r2, r3, r2, ror lr
     e00:	72000001 	andvc	r0, r0, #1, 0
     e04:	682e6970 	stmdavs	lr!, {r4, r5, r6, r8, fp, sp, lr}
     e08:	00000200 	andeq	r0, r0, r0, lsl #4
     e0c:	00230500 	eoreq	r0, r3, r0, lsl #10
     e10:	8a940205 	bhi	fe50162c <__bss_end__+0xfe4f8164>
     e14:	05160000 	ldreq	r0, [r6, #-0]
     e18:	0a051405 	beq	145e34 <__bss_end__+0x13c96c>
     e1c:	06100501 	ldreq	r0, [r0], -r1, lsl #10
     e20:	2e0a0501 	cfsh32cs	mvfx0, mvfx10, #1
     e24:	4b060905 	blmi	183240 <__bss_end__+0x179d78>
     e28:	2d061005 	stccs	0, cr1, [r6, #-20]	; 0xffffffec
     e2c:	03062305 	movweq	r2, #25349	; 0x6305
     e30:	05054a0a 	streq	r4, [r5, #-2570]	; 0xfffff5f6
     e34:	060c052f 	streq	r0, [ip], -pc, lsr #10
     e38:	4b010501 	blmi	42244 <__bss_end__+0x38d7c>
     e3c:	4d061f05 	stcmi	15, cr1, [r6, #-20]	; 0xffffffec
     e40:	2f310505 	svccs	0x00310505
     e44:	01061205 	tsteq	r6, r5, lsl #4
     e48:	4b060505 	blmi	182264 <__bss_end__+0x178d9c>
     e4c:	0601052f 	streq	r0, [r1], -pc, lsr #10
     e50:	061c0513 			; <UNDEFINED> instruction: 0x061c0513
     e54:	0501064c 	streq	r0, [r1, #-1612]	; 0xfffff9b4
     e58:	054b0605 	strbeq	r0, [fp, #-1541]	; 0xfffff9fb
     e5c:	2e010613 	mcrcs	6, 0, r0, cr1, cr3, {0}
     e60:	2f060505 	svccs	0x00060505
     e64:	05130905 	ldreq	r0, [r3, #-2309]	; 0xfffff6fb
     e68:	05010617 	streq	r0, [r1, #-1559]	; 0xfffff9e9
     e6c:	052f0609 	streq	r0, [pc, #-1545]!	; 86b <__code_start__-0x7795>
     e70:	05010611 	streq	r0, [r1, #-1553]	; 0xfffff9ef
     e74:	1c052e0c 	stcne	14, cr2, [r5], {12}
     e78:	01066b06 	tsteq	r6, r6, lsl #22
     e7c:	2f060505 	svccs	0x00060505
     e80:	01054a06 	tsteq	r5, r6, lsl #20
     e84:	061e054b 	ldreq	r0, [lr], -fp, asr #10
     e88:	0501062f 	streq	r0, [r1, #-1583]	; 0xfffff9d1
     e8c:	062f0605 	strteq	r0, [pc], -r5, lsl #12
     e90:	4b01054a 	blmi	423c0 <__bss_end__+0x38ef8>
     e94:	01000202 	tsteq	r0, r2, lsl #4
     e98:	0001b501 	andeq	fp, r1, r1, lsl #10
     e9c:	9e000300 	cdpls	3, 0, cr0, cr0, cr0, {0}
     ea0:	02000000 	andeq	r0, r0, #0, 0
     ea4:	0d0efb01 	vstreq	d15, [lr, #-4]
     ea8:	01010100 	mrseq	r0, (UNDEF: 17)
     eac:	00000001 	andeq	r0, r0, r1
     eb0:	01000001 	tsteq	r0, r1
     eb4:	6d6f682f 	stclvs	8, cr6, [pc, #-188]!	; e00 <__code_start__-0x7200>
     eb8:	6e652f65 	cdpvs	15, 6, cr2, cr5, cr5, {3}
     ebc:	72656c67 	rsbvc	r6, r5, #26368	; 0x6700
     ec0:	616c632f 	cmnvs	ip, pc, lsr #6
     ec4:	632f7373 			; <UNDEFINED> instruction: 0x632f7373
     ec8:	30343173 	eorscc	r3, r4, r3, ror r1
     ecc:	31322d65 	teqcc	r2, r5, ror #26
     ed0:	2f727073 	svccs	0x00727073
     ed4:	62696c2f 	rsbvs	r6, r9, #12032	; 0x2f00
     ed8:	692f6970 	stmdbvs	pc!, {r4, r5, r6, r8, fp, sp, lr}	; <UNPREDICTABLE>
     edc:	756c636e 	strbvc	r6, [ip, #-878]!	; 0xfffffc92
     ee0:	2f006564 	svccs	0x00006564
     ee4:	2f727375 	svccs	0x00727375
     ee8:	2f62696c 	svccs	0x0062696c
     eec:	2f636367 	svccs	0x00636367
     ef0:	2d6d7261 	sfmcs	f7, 2, [sp, #-388]!	; 0xfffffe7c
     ef4:	656e6f6e 	strbvs	r6, [lr, #-3950]!	; 0xfffff092
     ef8:	6261652d 	rsbvs	r6, r1, #188743680	; 0xb400000
     efc:	2e392f69 	cdpcs	15, 3, cr2, cr9, cr9, {3}
     f00:	2f312e32 	svccs	0x00312e32
     f04:	6c636e69 	stclvs	14, cr6, [r3], #-420	; 0xfffffe5c
     f08:	00656475 	rsbeq	r6, r5, r5, ror r4
     f0c:	72617500 	rsbvc	r7, r1, #0, 10
     f10:	00632e74 	rsbeq	r2, r3, r4, ror lr
     f14:	72000000 	andvc	r0, r0, #0, 0
     f18:	682e6970 	stmdavs	lr!, {r4, r5, r6, r8, fp, sp, lr}
     f1c:	00000100 	andeq	r0, r0, r0, lsl #2
     f20:	74726175 	ldrbtvc	r6, [r2], #-373	; 0xfffffe8b
     f24:	0100682e 	tsteq	r0, lr, lsr #16
     f28:	70670000 	rsbvc	r0, r7, r0
     f2c:	682e6f69 	stmdavs	lr!, {r0, r3, r5, r6, r8, r9, sl, fp, sp, lr}
     f30:	00000100 	andeq	r0, r0, r0, lsl #2
     f34:	69647473 	stmdbvs	r4!, {r0, r1, r4, r5, r6, sl, ip, sp, lr}^
     f38:	682e746e 	stmdavs	lr!, {r1, r2, r3, r5, r6, sl, ip, sp, lr}
     f3c:	00000200 	andeq	r0, r0, r0, lsl #4
     f40:	00380500 	eorseq	r0, r8, r0, lsl #10
     f44:	8b480205 	blhi	1201760 <__bss_end__+0x11f8298>
     f48:	2d030000 	stccs	0, cr0, [r3, #-0]
     f4c:	05010601 	streq	r0, [r1, #-1537]	; 0xfffff9ff
     f50:	05670605 	strbeq	r0, [r7, #-1541]!	; 0xfffff9fb
     f54:	05010611 	streq	r0, [r1, #-1553]	; 0xfffff9ef
     f58:	01052e05 	tsteq	r5, r5, lsl #28
     f5c:	06160567 	ldreq	r0, [r6], -r7, ror #10
     f60:	052e0b03 	streq	r0, [lr, #-2819]!	; 0xfffff4fd
     f64:	68673505 	stmdavs	r7!, {r0, r2, r8, sl, ip, sp}^
     f68:	0c036835 	stceq	8, cr6, [r3], {53}	; 0x35
     f6c:	696b852e 	stmdbvs	fp!, {r1, r2, r3, r5, r8, sl, pc}^
     f70:	660c0369 	strvs	r0, [ip], -r9, ror #6
     f74:	05676b13 	strbeq	r6, [r7, #-2835]!	; 0xfffff4ed
     f78:	052f0601 	streq	r0, [pc, #-1537]!	; 97f <__code_start__-0x7681>
     f7c:	25080619 	strcs	r0, [r8, #-1561]	; 0xfffff9e7
     f80:	05340505 	ldreq	r0, [r4, #-1285]!	; 0xfffffafb
     f84:	0501060d 	streq	r0, [r1, #-1549]	; 0xfffff9f3
     f88:	19054c01 	stmdbne	r5, {r0, sl, fp, lr}
     f8c:	05056706 	streq	r6, [r5, #-1798]	; 0xfffff8fa
     f90:	060d0536 			; <UNDEFINED> instruction: 0x060d0536
     f94:	4a280501 	bmi	a023a0 <__bss_end__+0x9f8ed8>
     f98:	05300105 	ldreq	r0, [r0, #-261]!	; 0xfffffefb
     f9c:	05870615 	streq	r0, [r7, #1557]	; 0x615
     fa0:	052f2f05 	streq	r2, [pc, #-3845]!	; a3 <__code_start__-0x7f5d>
     fa4:	04020009 	streq	r0, [r2], #-9
     fa8:	0a051301 	beq	145bb4 <__bss_end__+0x13c6ec>
     fac:	01040200 	mrseq	r0, R12_usr
     fb0:	000c0511 	andeq	r0, ip, r1, lsl r5
     fb4:	06010402 	streq	r0, [r1], -r2, lsl #8
     fb8:	000a0501 	andeq	r0, sl, r1, lsl #10
     fbc:	2e010402 	cdpcs	4, 0, cr0, cr1, cr2, {0}
     fc0:	4c060505 	cfstr32mi	mvfx0, [r6], {5}
     fc4:	01060e05 	tsteq	r6, r5, lsl #28
     fc8:	054a0905 	strbeq	r0, [sl, #-2309]	; 0xfffff6fb
     fcc:	2f2f0605 	svccs	0x002f0605
     fd0:	13060105 	movwne	r0, #24837	; 0x6105
     fd4:	67061c05 	strvs	r1, [r6, -r5, lsl #24]
     fd8:	05050106 	streq	r0, [r5, #-262]	; 0xfffffefa
     fdc:	052f4b06 	streq	r4, [pc, #-2822]!	; 4de <__code_start__-0x7b22>
     fe0:	04020009 	streq	r0, [r2], #-9
     fe4:	0a051301 	beq	145bf0 <__bss_end__+0x13c728>
     fe8:	01040200 	mrseq	r0, R12_usr
     fec:	000c0511 	andeq	r0, ip, r1, lsl r5
     ff0:	06010402 	streq	r0, [r1], -r2, lsl #8
     ff4:	000a0501 	andeq	r0, sl, r1, lsl #10
     ff8:	2e010402 	cdpcs	4, 0, cr0, cr1, cr2, {0}
     ffc:	4c060505 	cfstr32mi	mvfx0, [r6], {5}
    1000:	06010567 	streq	r0, [r1], -r7, ror #10
    1004:	0619052f 	ldreq	r0, [r9], -pc, lsr #10
    1008:	2e1b054c 	cfmac32cs	mvfx0, mvfx11, mvfx12
    100c:	052e2a05 	streq	r2, [lr, #-2565]!	; 0xfffff5fb
    1010:	05010631 	streq	r0, [r1, #-1585]	; 0xfffff9cf
    1014:	1c052e01 	stcne	14, cr2, [r5], {1}
    1018:	05053106 	streq	r3, [r5, #-262]	; 0xfffffefa
    101c:	2e09032f 	cdpcs	3, 0, cr0, cr9, cr15, {1}
    1020:	01060e05 	tsteq	r6, r5, lsl #28
    1024:	054a2105 	strbeq	r2, [sl, #-261]	; 0xfffffefb
    1028:	2e0a0301 	cdpcs	3, 0, cr0, cr10, cr1, {0}
    102c:	68061a05 	stmdavs	r6, {r0, r2, r9, fp, ip}
    1030:	02000905 	andeq	r0, r0, #81920	; 0x14000
    1034:	05300104 	ldreq	r0, [r0, #-260]!	; 0xfffffefc
    1038:	0402000a 	streq	r0, [r2], #-10
    103c:	0c051101 	stfeqs	f1, [r5], {1}
    1040:	01040200 	mrseq	r0, R12_usr
    1044:	0a050106 	beq	141464 <__bss_end__+0x137f9c>
    1048:	01040200 	mrseq	r0, R12_usr
    104c:	0006022e 	andeq	r0, r6, lr, lsr #4
    1050:	01890101 	orreq	r0, r9, r1, lsl #2
    1054:	00030000 	andeq	r0, r3, r0
    1058:	000000d7 	ldrdeq	r0, [r0], -r7
    105c:	0efb0102 	cdpeq	1, 15, cr0, cr11, cr2, {0}
    1060:	0101000d 	tsteq	r1, sp
    1064:	00000101 	andeq	r0, r0, r1, lsl #2
    1068:	00000100 	andeq	r0, r0, r0, lsl #2
    106c:	63727301 	cmnvs	r2, #67108864	; 0x4000000
    1070:	73552f00 	cmpvc	r5, #0, 30
    1074:	2f737265 	svccs	0x00737265
    1078:	69726461 	ldmdbvs	r2!, {r0, r5, r6, sl, sp, lr}^
    107c:	616d6e61 	cmnvs	sp, r1, ror #28
    1080:	6e697472 	mcrvs	4, 3, r7, cr9, cr2, {3}
    1084:	702f7a65 	eorvc	r7, pc, r5, ror #20
    1088:	656a6f72 	strbvs	r6, [sl, #-3954]!	; 0xfffff08e
    108c:	2f737463 	svccs	0x00737463
    1090:	34317363 	ldrtcc	r7, [r1], #-867	; 0xfffffc9d
    1094:	322d6530 	eorcc	r6, sp, #48, 10	; 0xc000000
    1098:	72707331 	rsbsvc	r7, r0, #-1006632960	; 0xc4000000
    109c:	62696c2f 	rsbvs	r6, r9, #12032	; 0x2f00
    10a0:	692f6970 	stmdbvs	pc!, {r4, r5, r6, r8, fp, sp, lr}	; <UNPREDICTABLE>
    10a4:	756c636e 	strbvc	r6, [ip, #-878]!	; 0xfffffc92
    10a8:	2f006564 	svccs	0x00006564
    10ac:	2f727375 	svccs	0x00727375
    10b0:	61636f6c 	cmnvs	r3, ip, ror #30
    10b4:	65432f6c 	strbvs	r2, [r3, #-3948]	; 0xfffff094
    10b8:	72616c6c 	rsbvc	r6, r1, #108, 24	; 0x6c00
    10bc:	6d72612f 	ldfvse	f6, [r2, #-188]!	; 0xffffff44
    10c0:	6e6f6e2d 	cdpvs	14, 6, cr6, cr15, cr13, {1}
    10c4:	61652d65 	cmnvs	r5, r5, ror #26
    10c8:	742d6962 	strtvc	r6, [sp], #-2402	; 0xfffff69e
    10cc:	2f747365 	svccs	0x00747365
    10d0:	30322d39 	eorscc	r2, r2, r9, lsr sp
    10d4:	34713931 	ldrbtcc	r3, [r1], #-2353	; 0xfffff6cf
    10d8:	3173632d 	cmncc	r3, sp, lsr #6
    10dc:	2f653730 	svccs	0x00653730
    10e0:	2f62696c 	svccs	0x0062696c
    10e4:	2f636367 	svccs	0x00636367
    10e8:	2d6d7261 	sfmcs	f7, 2, [sp, #-388]!	; 0xfffffe7c
    10ec:	656e6f6e 	strbvs	r6, [lr, #-3950]!	; 0xfffff092
    10f0:	6261652d 	rsbvs	r6, r1, #188743680	; 0xb400000
    10f4:	2e392f69 	cdpcs	15, 3, cr2, cr9, cr9, {3}
    10f8:	2f312e32 	svccs	0x00312e32
    10fc:	6c636e69 	stclvs	14, cr6, [r3], #-420	; 0xfffffe5c
    1100:	00656475 	rsbeq	r6, r5, r5, ror r4
    1104:	69706700 	ldmdbvs	r0!, {r8, r9, sl, sp, lr}^
    1108:	00632e6f 	rsbeq	r2, r3, pc, ror #28
    110c:	72000001 	andvc	r0, r0, #1, 0
    1110:	682e6970 	stmdavs	lr!, {r4, r5, r6, r8, fp, sp, lr}
    1114:	00000200 	andeq	r0, r0, r0, lsl #4
    1118:	69647473 	stmdbvs	r4!, {r0, r1, r4, r5, r6, sl, ip, sp, lr}^
    111c:	672d746e 	strvs	r7, [sp, -lr, ror #8]!
    1120:	682e6363 	stmdavs	lr!, {r0, r1, r5, r6, r8, r9, sp, lr}
    1124:	00000300 	andeq	r0, r0, r0, lsl #6
    1128:	6f697067 	svcvs	0x00697067
    112c:	0200682e 	andeq	r6, r0, #3014656	; 0x2e0000
    1130:	05000000 	streq	r0, [r0, #-0]
    1134:	02050036 	andeq	r0, r5, #54, 0	; 0x36
    1138:	00008cf4 	strdeq	r8, [r0], -r4
    113c:	06011303 	streq	r1, [r1], -r3, lsl #6
    1140:	06050501 	streq	r0, [r5], -r1, lsl #10
    1144:	06280567 	strteq	r0, [r8], -r7, ror #10
    1148:	66220501 	strtvs	r0, [r2], -r1, lsl #10
    114c:	054a0e05 	strbeq	r0, [sl, #-3589]	; 0xfffff1fb
    1150:	052f0605 	streq	r0, [pc, #-1541]!	; b53 <__code_start__-0x74ad>
    1154:	2e010618 	mcrcs	6, 0, r0, cr1, cr8, {0}
    1158:	2f060505 	svccs	0x00060505
    115c:	01061f05 	tsteq	r6, r5, lsl #30
    1160:	054a0e05 	strbeq	r0, [sl, #-3589]	; 0xfffff1fb
    1164:	052f0605 	streq	r0, [pc, #-1541]!	; b67 <__code_start__-0x7499>
    1168:	0501061d 	streq	r0, [r1, #-1565]	; 0xfffff9e3
    116c:	054a4a05 	strbeq	r4, [sl, #-2565]	; 0xfffff5fb
    1170:	24052f01 	strcs	r2, [r5], #-3841	; 0xfffff0ff
    1174:	4a0a0306 	bmi	281d94 <__bss_end__+0x2788cc>
    1178:	05050106 	streq	r0, [r5, #-262]	; 0xfffffefa
    117c:	01052f06 	tsteq	r5, r6, lsl #30
    1180:	20054b06 	andcs	r4, r5, r6, lsl #22
    1184:	01063106 	tsteq	r6, r6, lsl #2
    1188:	2f060505 	svccs	0x00060505
    118c:	01056606 	tsteq	r5, r6, lsl #12
    1190:	0621052f 	strteq	r0, [r1], -pc, lsr #10
    1194:	0501064d 	streq	r0, [r1, #-1613]	; 0xfffff9b3
    1198:	062f0605 	strteq	r0, [pc], -r5, lsl #12
    119c:	2f010566 	svccs	0x00010566
    11a0:	4d062b05 	vstrmi	d2, [r6, #-20]	; 0xffffffec
    11a4:	05050106 	streq	r0, [r5, #-262]	; 0xfffffefa
    11a8:	07052f06 	streq	r2, [r5, -r6, lsl #30]
    11ac:	08050106 	stmdaeq	r5, {r1, r2, r8}
    11b0:	2e064b06 	vmlacs.f64	d4, d6, d6
    11b4:	01053006 	tsteq	r5, r6
    11b8:	23052f06 	movwcs	r2, #24326	; 0x5f06
    11bc:	01063506 	tsteq	r6, r6, lsl #10
    11c0:	2f060505 	svccs	0x00060505
    11c4:	4b060105 	blmi	1815e0 <__bss_end__+0x178118>
    11c8:	31061d05 	tstcc	r6, r5, lsl #26
    11cc:	05050106 	streq	r0, [r5, #-262]	; 0xfffffefa
    11d0:	0c054d06 	stceq	13, cr4, [r5], {6}
    11d4:	052e0106 	streq	r0, [lr, #-262]!	; 0xfffffefa
    11d8:	08022f01 	stmdaeq	r2, {r0, r8, r9, sl, fp, sp}
    11dc:	a6010100 	strge	r0, [r1], -r0, lsl #2
    11e0:	03000000 	movweq	r0, #0
    11e4:	00006800 	andeq	r6, r0, r0, lsl #16
    11e8:	fb010200 	blx	419f2 <__bss_end__+0x3852a>
    11ec:	01000d0e 	tsteq	r0, lr, lsl #26
    11f0:	00010101 	andeq	r0, r1, r1, lsl #2
    11f4:	00010000 	andeq	r0, r1, r0
    11f8:	696c0100 	stmdbvs	ip!, {r8}^
    11fc:	2f006362 	svccs	0x00006362
    1200:	72657355 	rsbvc	r7, r5, #1409286145	; 0x54000001
    1204:	64612f73 	strbtvs	r2, [r1], #-3955	; 0xfffff08d
    1208:	6e616972 			; <UNDEFINED> instruction: 0x6e616972
    120c:	7472616d 	ldrbtvc	r6, [r2], #-365	; 0xfffffe93
    1210:	7a656e69 	bvc	195cbbc <__bss_end__+0x19536f4>
    1214:	6f72702f 	svcvs	0x0072702f
    1218:	7463656a 	strbtvc	r6, [r3], #-1386	; 0xfffffa96
    121c:	73632f73 	cmnvc	r3, #460	; 0x1cc
    1220:	65303431 	ldrvs	r3, [r0, #-1073]!	; 0xfffffbcf
    1224:	7331322d 	teqvc	r1, #-805306366	; 0xd0000002
    1228:	6c2f7270 	sfmvs	f7, 4, [pc], #-448	; 1070 <__code_start__-0x6f90>
    122c:	69706269 	ldmdbvs	r0!, {r0, r3, r5, r6, r9, sp, lr}^
    1230:	636e692f 	cmnvs	lr, #770048	; 0xbc000
    1234:	6564756c 	strbvs	r7, [r4, #-1388]!	; 0xfffffa94
    1238:	75700000 	ldrbvc	r0, [r0, #-0]!
    123c:	61686374 	smcvs	34356	; 0x8634
    1240:	00632e72 	rsbeq	r2, r3, r2, ror lr
    1244:	72000001 	andvc	r0, r0, #1, 0
    1248:	682e6970 	stmdavs	lr!, {r4, r5, r6, r8, fp, sp, lr}
    124c:	00000200 	andeq	r0, r0, r0, lsl #4
    1250:	00240500 	eoreq	r0, r4, r0, lsl #10
    1254:	8ddc0205 	lfmhi	f0, 2, [ip, #20]
    1258:	06140000 	ldreq	r0, [r4], -r0
    125c:	06260501 	strteq	r0, [r6], -r1, lsl #10
    1260:	2e34054a 	cdpcs	5, 3, cr0, cr4, cr10, {2}
    1264:	01060105 	tsteq	r6, r5, lsl #2
    1268:	4f061b05 	svcmi	0x00061b05
    126c:	05130505 	ldreq	r0, [r3, #-1285]	; 0xfffffafb
    1270:	05010611 	streq	r0, [r1, #-1553]	; 0xfffff9ef
    1274:	23056701 	movwcs	r6, #22273	; 0x5701
    1278:	05056706 	streq	r6, [r5, #-1798]	; 0xfffff8fa
    127c:	06110513 			; <UNDEFINED> instruction: 0x06110513
    1280:	4b010501 	blmi	4268c <__bss_end__+0x391c4>
    1284:	01000402 	tsteq	r0, r2, lsl #8
    1288:	0000f201 	andeq	pc, r0, r1, lsl #4
    128c:	67000300 	strvs	r0, [r0, -r0, lsl #6]
    1290:	02000000 	andeq	r0, r0, #0, 0
    1294:	0d0efb01 	vstreq	d15, [lr, #-4]
    1298:	01010100 	mrseq	r0, (UNDEF: 17)
    129c:	00000001 	andeq	r0, r0, r1
    12a0:	01000001 	tsteq	r0, r1
    12a4:	6362696c 	cmnvs	r2, #108, 18	; 0x1b0000
    12a8:	73552f00 	cmpvc	r5, #0, 30
    12ac:	2f737265 	svccs	0x00737265
    12b0:	69726461 	ldmdbvs	r2!, {r0, r5, r6, sl, sp, lr}^
    12b4:	616d6e61 	cmnvs	sp, r1, ror #28
    12b8:	6e697472 	mcrvs	4, 3, r7, cr9, cr2, {3}
    12bc:	702f7a65 	eorvc	r7, pc, r5, ror #20
    12c0:	656a6f72 	strbvs	r6, [sl, #-3954]!	; 0xfffff08e
    12c4:	2f737463 	svccs	0x00737463
    12c8:	34317363 	ldrtcc	r7, [r1], #-867	; 0xfffffc9d
    12cc:	322d6530 	eorcc	r6, sp, #48, 10	; 0xc000000
    12d0:	72707331 	rsbsvc	r7, r0, #-1006632960	; 0xc4000000
    12d4:	62696c2f 	rsbvs	r6, r9, #12032	; 0x2f00
    12d8:	692f6970 	stmdbvs	pc!, {r4, r5, r6, r8, fp, sp, lr}	; <UNPREDICTABLE>
    12dc:	756c636e 	strbvc	r6, [ip, #-878]!	; 0xfffffc92
    12e0:	00006564 	andeq	r6, r0, r4, ror #10
    12e4:	63727473 	cmnvs	r2, #1929379840	; 0x73000000
    12e8:	632e7461 			; <UNDEFINED> instruction: 0x632e7461
    12ec:	00000100 	andeq	r0, r0, r0, lsl #2
    12f0:	2e697072 	mcrcs	0, 3, r7, cr9, cr2, {3}
    12f4:	00020068 	andeq	r0, r2, r8, rrx
    12f8:	2c050000 	stccs	0, cr0, [r5], {-0}
    12fc:	18020500 	stmdane	r2, {r8, sl}
    1300:	1500008e 	strne	r0, [r0, #-142]	; 0xffffff72
    1304:	13130505 	tstne	r3, #20971520	; 0x1400000
    1308:	11060b05 	tstne	r6, r5, lsl #22
    130c:	02000505 	andeq	r0, r0, #20971520	; 0x1400000
    1310:	30060104 	andcc	r0, r6, r4, lsl #2
    1314:	01040200 	mrseq	r0, R12_usr
    1318:	00090515 	andeq	r0, r9, r5, lsl r5
    131c:	13010402 	movwne	r0, #5122	; 0x1402
    1320:	02001005 	andeq	r1, r0, #5, 0
    1324:	2e060104 	adfcss	f0, f6, f4
    1328:	02000b05 	andeq	r0, r0, #5120	; 0x1400
    132c:	002e0104 	eoreq	r0, lr, r4, lsl #2
    1330:	06010402 	streq	r0, [r1], -r2, lsl #8
    1334:	0005052f 	andeq	r0, r5, pc, lsr #10
    1338:	06010402 	streq	r0, [r1], -r2, lsl #8
    133c:	054e0601 	strbeq	r0, [lr, #-1537]	; 0xfffff9ff
    1340:	05010608 	streq	r0, [r1, #-1544]	; 0xfffff9f8
    1344:	04020005 	streq	r0, [r2], #-5
    1348:	052f0601 	streq	r0, [pc, #-1537]!	; d4f <__code_start__-0x72b1>
    134c:	04020009 	streq	r0, [r2], #-9
    1350:	0b051301 	bleq	145f5c <__bss_end__+0x13ca94>
    1354:	01040200 	mrseq	r0, R12_usr
    1358:	09050106 	stmdbeq	r5, {r1, r2, r8}
    135c:	01040200 	mrseq	r0, R12_usr
    1360:	0f054b06 	svceq	0x00054b06
    1364:	01040200 	mrseq	r0, R12_usr
    1368:	0d050106 	stfeqs	f0, [r5, #-24]	; 0xffffffe8
    136c:	01040200 	mrseq	r0, R12_usr
    1370:	05052f06 	streq	r2, [r5, #-3846]	; 0xfffff0fa
    1374:	01040200 	mrseq	r0, R12_usr
    1378:	06020106 	streq	r0, [r2], -r6, lsl #2
    137c:	09010100 	stmdbeq	r1, {r8}
    1380:	03000001 	movweq	r0, #1
    1384:	0000cd00 	andeq	ip, r0, r0, lsl #26
    1388:	fb010200 	blx	41b92 <__bss_end__+0x386ca>
    138c:	01000d0e 	tsteq	r0, lr, lsl #26
    1390:	00010101 	andeq	r0, r1, r1, lsl #2
    1394:	00010000 	andeq	r0, r1, r0
    1398:	696c0100 	stmdbvs	ip!, {r8}^
    139c:	2f006362 	svccs	0x00006362
    13a0:	72657355 	rsbvc	r7, r5, #1409286145	; 0x54000001
    13a4:	64612f73 	strbtvs	r2, [r1], #-3955	; 0xfffff08d
    13a8:	6e616972 			; <UNDEFINED> instruction: 0x6e616972
    13ac:	7472616d 	ldrbtvc	r6, [r2], #-365	; 0xfffffe93
    13b0:	7a656e69 	bvc	195cd5c <__bss_end__+0x1953894>
    13b4:	6f72702f 	svcvs	0x0072702f
    13b8:	7463656a 	strbtvc	r6, [r3], #-1386	; 0xfffffa96
    13bc:	73632f73 	cmnvc	r3, #460	; 0x1cc
    13c0:	65303431 	ldrvs	r3, [r0, #-1073]!	; 0xfffffbcf
    13c4:	7331322d 	teqvc	r1, #-805306366	; 0xd0000002
    13c8:	6c2f7270 	sfmvs	f7, 4, [pc], #-448	; 1210 <__code_start__-0x6df0>
    13cc:	69706269 	ldmdbvs	r0!, {r0, r3, r5, r6, r9, sp, lr}^
    13d0:	636e692f 	cmnvs	lr, #770048	; 0xbc000
    13d4:	6564756c 	strbvs	r7, [r4, #-1388]!	; 0xfffffa94
    13d8:	73752f00 	cmnvc	r5, #0, 30
    13dc:	6f6c2f72 	svcvs	0x006c2f72
    13e0:	2f6c6163 	svccs	0x006c6163
    13e4:	6c6c6543 	cfstr64vs	mvdx6, [ip], #-268	; 0xfffffef4
    13e8:	612f7261 			; <UNDEFINED> instruction: 0x612f7261
    13ec:	6e2d6d72 	mcrvs	13, 1, r6, cr13, cr2, {3}
    13f0:	2d656e6f 	stclcs	14, cr6, [r5, #-444]!	; 0xfffffe44
    13f4:	69626165 	stmdbvs	r2!, {r0, r2, r5, r6, r8, sp, lr}^
    13f8:	7365742d 	cmnvc	r5, #754974720	; 0x2d000000
    13fc:	2d392f74 	ldccs	15, cr2, [r9, #-464]!	; 0xfffffe30
    1400:	39313032 	ldmdbcc	r1!, {r1, r4, r5, ip, sp}
    1404:	632d3471 			; <UNDEFINED> instruction: 0x632d3471
    1408:	37303173 			; <UNDEFINED> instruction: 0x37303173
    140c:	696c2f65 	stmdbvs	ip!, {r0, r2, r5, r6, r8, r9, sl, fp, sp}^
    1410:	63672f62 	cmnvs	r7, #392	; 0x188
    1414:	72612f63 	rsbvc	r2, r1, #396	; 0x18c
    1418:	6f6e2d6d 	svcvs	0x006e2d6d
    141c:	652d656e 	strvs	r6, [sp, #-1390]!	; 0xfffffa92
    1420:	2f696261 	svccs	0x00696261
    1424:	2e322e39 	mrccs	14, 1, r2, cr2, cr9, {1}
    1428:	6e692f31 	mcrvs	15, 3, r2, cr9, cr1, {1}
    142c:	64756c63 	ldrbtvs	r6, [r5], #-3171	; 0xfffff39d
    1430:	73000065 	movwvc	r0, #101	; 0x65
    1434:	636e7274 	cmnvs	lr, #116, 4	; 0x40000007
    1438:	632e706d 			; <UNDEFINED> instruction: 0x632e706d
    143c:	00000100 	andeq	r0, r0, r0, lsl #2
    1440:	2e697072 	mcrcs	0, 3, r7, cr9, cr2, {3}
    1444:	00020068 	andeq	r0, r2, r8, rrx
    1448:	64747300 	ldrbtvs	r7, [r4], #-768	; 0xfffffd00
    144c:	2e666564 	cdpcs	5, 6, cr6, cr6, cr4, {3}
    1450:	00030068 	andeq	r0, r3, r8, rrx
    1454:	39050000 	stmdbcc	r5, {}	; <UNPREDICTABLE>
    1458:	4c020500 	cfstr32mi	mvfx0, [r2], {-0}
    145c:	1500008e 	strne	r0, [r0, #-142]	; 0xffffff72
    1460:	13130505 	tstne	r3, #20971520	; 0x1400000
    1464:	06010a05 	streq	r0, [r1], -r5, lsl #20
    1468:	09054a01 	stmdbeq	r5, {r0, r9, fp, lr}
    146c:	0c052f06 	stceq	15, cr2, [r5], {6}
    1470:	13050106 	movwne	r0, #20742	; 0x5106
    1474:	2e0b052e 	cfsh32cs	mvfx0, mvfx11, #30
    1478:	4b060d05 	blmi	184894 <__bss_end__+0x17b3cc>
    147c:	01061b05 	tsteq	r6, r5, lsl #22
    1480:	300c052e 	andcc	r0, ip, lr, lsr #10
    1484:	022f0105 	eoreq	r0, pc, #1073741825	; 0x40000001
    1488:	01010002 	tsteq	r1, r2

Disassembly of section .debug_str:

00000000 <.debug_str>:
   0:	63617274 	cmnvs	r1, #116, 4	; 0x40000007
   4:	74735f65 	ldrbtvc	r5, [r3], #-3941	; 0xfffff09b
   8:	6700706f 	strvs	r7, [r0, -pc, rrx]
   c:	5f6f6970 	svcpl	0x006f6970
  10:	64616572 	strbtvs	r6, [r1], #-1394	; 0xfffffa8e
  14:	73552f00 	cmpvc	r5, #0, 30
  18:	2f737265 	svccs	0x00737265
  1c:	69726461 	ldmdbvs	r2!, {r0, r5, r6, sl, sp, lr}^
  20:	616d6e61 	cmnvs	sp, r1, ror #28
  24:	6e697472 	mcrvs	4, 3, r7, cr9, cr2, {3}
  28:	702f7a65 	eorvc	r7, pc, r5, ror #20
  2c:	656a6f72 	strbvs	r6, [sl, #-3954]!	; 0xfffff08e
  30:	2f737463 	svccs	0x00737463
  34:	34317363 	ldrtcc	r7, [r1], #-867	; 0xfffffc9d
  38:	322d6530 	eorcc	r6, sp, #48, 10	; 0xc000000
  3c:	72707331 	rsbsvc	r7, r0, #-1006632960	; 0xc4000000
  40:	62616c2f 	rsbvs	r6, r1, #12032	; 0x2f00
  44:	2d322f73 	ldccs	15, cr2, [r2, #-460]!	; 0xfffffe34
  48:	736f7263 	cmnvc	pc, #805306374	; 0x30000006
  4c:	68632d73 	stmdavs	r3!, {r0, r1, r4, r5, r6, r8, sl, fp, sp}^
  50:	2f6b6365 	svccs	0x006b6365
  54:	72742d32 	rsbsvc	r2, r4, #3200	; 0xc80
  58:	2f656361 	svccs	0x00656361
  5c:	74736574 	ldrbtvc	r6, [r3], #-1396	; 0xfffffa8c
  60:	61750073 	cmnvs	r5, r3, ror r0
  64:	695f7472 	ldmdbvs	pc, {r1, r4, r5, r6, sl, ip, sp, lr}^	; <UNPREDICTABLE>
  68:	0074696e 	rsbseq	r6, r4, lr, ror #18
  6c:	69736e75 	ldmdbvs	r3!, {r0, r2, r4, r5, r6, r9, sl, fp, sp, lr}^
  70:	64656e67 	strbtvs	r6, [r5], #-3687	; 0xfffff199
  74:	61686320 	cmnvs	r8, r0, lsr #6
  78:	6c630072 	stclvs	0, cr0, [r3], #-456	; 0xfffffe38
  7c:	5f6e6165 	svcpl	0x006e6165
  80:	6f626572 	svcvs	0x00626572
  84:	7400746f 	strvc	r7, [r0], #-1135	; 0xfffffb91
  88:	65636172 	strbvs	r6, [r3, #-370]!	; 0xfffffe8e
  8c:	6174735f 	cmnvs	r4, pc, asr r3
  90:	73007472 	movwvc	r7, #1138	; 0x472
  94:	74726f68 	ldrbtvc	r6, [r2], #-3944	; 0xfffff098
  98:	736e7520 	cmnvc	lr, #32, 10	; 0x8000000
  9c:	656e6769 	strbvs	r6, [lr, #-1897]!	; 0xfffff897
  a0:	6e692064 	cdpvs	0, 6, cr2, cr9, cr4, {3}
  a4:	70670074 	rsbvc	r0, r7, r4, ror r0
  a8:	735f6f69 	cmpvc	pc, #420	; 0x1a4
  ac:	695f7465 	ldmdbvs	pc, {r0, r2, r5, r6, sl, ip, sp, lr}^	; <UNPREDICTABLE>
  b0:	7475706e 	ldrbtvc	r7, [r5], #-110	; 0xffffff92
  b4:	69706700 	ldmdbvs	r0!, {r8, r9, sl, sp, lr}^
  b8:	65735f6f 	ldrbvs	r5, [r3, #-3951]!	; 0xfffff091
  bc:	756f5f74 	strbvc	r5, [pc, #-3956]!	; fffff150 <__bss_end__+0xffff5c88>
  c0:	74757074 	ldrbtvc	r7, [r5], #-116	; 0xffffff8c
  c4:	732d3200 			; <UNDEFINED> instruction: 0x732d3200
  c8:	732d7465 			; <UNDEFINED> instruction: 0x732d7465
  cc:	66667574 			; <UNDEFINED> instruction: 0x66667574
  d0:	6c00632e 	stcvs	3, cr6, [r0], {46}	; 0x2e
  d4:	20676e6f 	rsbcs	r6, r7, pc, ror #28
  d8:	676e6f6c 	strbvs	r6, [lr, -ip, ror #30]!
  dc:	736e7520 	cmnvc	lr, #32, 10	; 0x8000000
  e0:	656e6769 	strbvs	r6, [lr, #-1897]!	; 0xfffff897
  e4:	6e692064 	cdpvs	0, 6, cr2, cr9, cr4, {3}
  e8:	6f6c0074 	svcvs	0x006c0074
  ec:	6c20676e 	stcvs	7, cr6, [r0], #-440	; 0xfffffe48
  f0:	20676e6f 	rsbcs	r6, r7, pc, ror #28
  f4:	00746e69 	rsbseq	r6, r4, r9, ror #28
  f8:	5f697072 	svcpl	0x00697072
  fc:	63747570 	cmnvs	r4, #112, 10	; 0x1c000000
 100:	00726168 	rsbseq	r6, r2, r8, ror #2
 104:	726f6873 	rsbvc	r6, pc, #7536640	; 0x730000
 108:	6e692074 	mcrvs	0, 3, r2, cr9, cr4, {3}
 10c:	4e470074 	mcrmi	0, 2, r0, cr7, cr4, {3}
 110:	39432055 	stmdbcc	r3, {r0, r2, r4, r6, sp}^
 114:	2e392039 	mrccs	0, 1, r2, cr9, cr9, {1}
 118:	20312e32 	eorscs	r2, r1, r2, lsr lr
 11c:	39313032 	ldmdbcc	r1!, {r1, r4, r5, ip, sp}
 120:	35323031 	ldrcc	r3, [r2, #-49]!	; 0xffffffcf
 124:	65722820 	ldrbvs	r2, [r2, #-2080]!	; 0xfffff7e0
 128:	7361656c 	cmnvc	r1, #108, 10	; 0x1b000000
 12c:	5b202965 	blpl	80a6c8 <__bss_end__+0x801200>
 130:	2f4d5241 	svccs	0x004d5241
 134:	2d6d7261 	sfmcs	f7, 2, [sp, #-388]!	; 0xfffffe7c
 138:	72622d39 	rsbvc	r2, r2, #3648	; 0xe40
 13c:	68636e61 	stmdavs	r3!, {r0, r5, r6, r9, sl, fp, sp, lr}^
 140:	76657220 	strbtvc	r7, [r5], -r0, lsr #4
 144:	6f697369 	svcvs	0x00697369
 148:	3732206e 	ldrcc	r2, [r2, -lr, rrx]!
 14c:	39393537 	ldmdbcc	r9!, {r0, r1, r2, r4, r5, r8, sl, ip, sp}
 150:	6d2d205d 	stcvs	0, cr2, [sp, #-372]!	; 0xfffffe8c
 154:	3d757063 	ldclcc	0, cr7, [r5, #-396]!	; 0xfffffe74
 158:	316d7261 	cmncc	sp, r1, ror #4
 15c:	6a363731 	bvs	d8de28 <__bss_end__+0xd84960>
 160:	732d667a 			; <UNDEFINED> instruction: 0x732d667a
 164:	746d2d20 	strbtvc	r2, [sp], #-3360	; 0xfffff2e0
 168:	3d656e75 	stclcc	14, cr6, [r5, #-468]!	; 0xfffffe2c
 16c:	316d7261 	cmncc	sp, r1, ror #4
 170:	6a363731 	bvs	d8de3c <__bss_end__+0xd84974>
 174:	732d667a 			; <UNDEFINED> instruction: 0x732d667a
 178:	666d2d20 	strbtvs	r2, [sp], -r0, lsr #26
 17c:	74616f6c 	strbtvc	r6, [r1], #-3948	; 0xfffff094
 180:	6962612d 	stmdbvs	r2!, {r0, r2, r3, r5, r8, sp, lr}^
 184:	666f733d 			; <UNDEFINED> instruction: 0x666f733d
 188:	6d2d2074 	stcvs	0, cr2, [sp, #-464]!	; 0xfffffe30
 18c:	206d7261 	rsbcs	r7, sp, r1, ror #4
 190:	72616d2d 	rsbvc	r6, r1, #2880	; 0xb40
 194:	613d6863 	teqvs	sp, r3, ror #16
 198:	36766d72 			; <UNDEFINED> instruction: 0x36766d72
 19c:	2d207a6b 	vstmdbcs	r0!, {s14-s120}
 1a0:	62646767 	rsbvs	r6, r4, #27000832	; 0x19c0000
 1a4:	674f2d20 	strbvs	r2, [pc, -r0, lsr #26]
 1a8:	74732d20 	ldrbtvc	r2, [r3], #-3360	; 0xfffff2e0
 1ac:	6e673d64 	cdpvs	13, 6, cr3, cr7, cr4, {3}
 1b0:	20393975 	eorscs	r3, r9, r5, ror r9
 1b4:	7266662d 	rsbvc	r6, r6, #47185920	; 0x2d00000
 1b8:	74736565 	ldrbtvc	r6, [r3], #-1381	; 0xfffffa9b
 1bc:	69646e61 	stmdbvs	r4!, {r0, r5, r6, r9, sl, fp, sp, lr}^
 1c0:	6e00676e 	cdpvs	7, 0, cr6, cr0, cr14, {3}
 1c4:	616d746f 	cmnvs	sp, pc, ror #8
 1c8:	5f006e69 	svcpl	0x00006e69
 1cc:	6165725f 	cmnvs	r5, pc, asr r2
 1d0:	45475f6c 	strbmi	r5, [r7, #-3948]	; 0xfffff094
 1d4:	00323354 	eorseq	r3, r2, r4, asr r3
 1d8:	74617473 	strbtvc	r7, [r1], #-1139	; 0xfffffb8d
 1dc:	6d650065 	stclvs	0, cr0, [r5, #-404]!	; 0xfffffe6c
 1e0:	675f7469 	ldrbvs	r7, [pc, -r9, ror #8]
 1e4:	32337465 	eorscc	r7, r3, #1694498816	; 0x65000000
 1e8:	696d6500 	stmdbvs	sp!, {r8, sl, sp, lr}^
 1ec:	75705f74 	ldrbvc	r5, [r0, #-3956]!	; 0xfffff08c
 1f0:	00323374 	eorseq	r3, r2, r4, ror r3
 1f4:	72775f5f 	rsbsvc	r5, r7, #380	; 0x17c
 1f8:	505f7061 	subspl	r7, pc, r1, rrx
 1fc:	32335455 	eorscc	r5, r3, #1426063360	; 0x55000000
 200:	41525400 	cmpmi	r2, r0, lsl #8
 204:	4f5f4543 	svcmi	0x005f4543
 208:	6461004e 	strbtvs	r0, [r1], #-78	; 0xffffffb2
 20c:	62007264 	andvs	r7, r0, #100, 4	; 0x40000006
 210:	65666675 	strbvs	r6, [r6, #-1653]!	; 0xfffff98b
 214:	00705f72 	rsbseq	r5, r0, r2, ror pc
 218:	55465f5f 	strbpl	r5, [r6, #-3935]	; 0xfffff0a1
 21c:	4954434e 	ldmdbmi	r4, {r1, r2, r3, r6, r8, r9, lr}^
 220:	5f5f4e4f 	svcpl	0x005f4e4f
 224:	725f5f00 	subsvc	r5, pc, #0, 30
 228:	5f6c6165 	svcpl	0x006c6165
 22c:	33545550 	cmpcc	r4, #80, 10	; 0x14000000
 230:	5f5f0032 	svcpl	0x005f0032
 234:	70617277 	rsbvc	r7, r1, r7, ror r2
 238:	5445475f 	strbpl	r4, [r5], #-1887	; 0xfffff8a1
 23c:	74003233 	strvc	r3, [r0], #-563	; 0xfffffdcd
 240:	65636172 	strbvs	r6, [r3, #-370]!	; 0xfffffe8e
 244:	6d69732d 	stclvs	3, cr7, [r9, #-180]!	; 0xffffff4c
 248:	2e656c70 	mcrcs	12, 3, r6, cr5, cr0, {3}
 24c:	52540063 	subspl	r0, r4, #99, 0	; 0x63
 250:	5f454341 	svcpl	0x00454341
 254:	0046464f 	subeq	r4, r6, pc, asr #12
 258:	746e6975 	strbtvc	r6, [lr], #-2421	; 0xfffff68b
 25c:	745f3233 	ldrbvc	r3, [pc], #-563	; 264 <__code_start__-0x7d9c>
 260:	74697700 	strbtvc	r7, [r9], #-1792	; 0xfffff900
 264:	5f6e6968 	svcpl	0x006e6968
 268:	6e697270 	mcrvs	2, 3, r7, cr9, cr0, {3}
 26c:	6f5f6b74 	svcvs	0x005f6b74
 270:	61726570 	cmnvs	r2, r0, ror r5
 274:	6e6f6974 			; <UNDEFINED> instruction: 0x6e6f6974
 278:	73552f00 	cmpvc	r5, #0, 30
 27c:	2f737265 	svccs	0x00737265
 280:	69726461 	ldmdbvs	r2!, {r0, r5, r6, sl, sp, lr}^
 284:	616d6e61 	cmnvs	sp, r1, ror #28
 288:	6e697472 	mcrvs	4, 3, r7, cr9, cr2, {3}
 28c:	702f7a65 	eorvc	r7, pc, r5, ror #20
 290:	656a6f72 	strbvs	r6, [sl, #-3954]!	; 0xfffff08e
 294:	2f737463 	svccs	0x00737463
 298:	34317363 	ldrtcc	r7, [r1], #-867	; 0xfffffc9d
 29c:	322d6530 	eorcc	r6, sp, #48, 10	; 0xc000000
 2a0:	72707331 	rsbsvc	r7, r0, #-1006632960	; 0xc4000000
 2a4:	62616c2f 	rsbvs	r6, r1, #12032	; 0x2f00
 2a8:	2d322f73 	ldccs	15, cr2, [r2, #-460]!	; 0xfffffe34
 2ac:	736f7263 	cmnvc	pc, #805306374	; 0x30000006
 2b0:	68632d73 	stmdavs	r3!, {r0, r1, r4, r5, r6, r8, sl, fp, sp}^
 2b4:	2f6b6365 	svccs	0x006b6365
 2b8:	72742d32 	rsbsvc	r2, r4, #3200	; 0xc80
 2bc:	00656361 	rsbeq	r6, r5, r1, ror #6
 2c0:	43415254 	movtmi	r5, #4692	; 0x1254
 2c4:	4b535f45 	blmi	14d7fe0 <__bss_end__+0x14ceb18>
 2c8:	61005049 	tstvs	r0, r9, asr #32
 2cc:	00736772 	rsbseq	r6, r3, r2, ror r7
 2d0:	705f6176 	subsvc	r6, pc, r6, ror r1	; <UNPREDICTABLE>
 2d4:	746e6972 	strbtvc	r6, [lr], #-2418	; 0xfffff68e
 2d8:	5f5f006b 	svcpl	0x005f006b
 2dc:	63756e67 	cmnvs	r5, #1648	; 0x670
 2e0:	5f61765f 	svcpl	0x0061765f
 2e4:	7473696c 	ldrbtvc	r6, [r3], #-2412	; 0xfffff694
 2e8:	62696c00 	rsbvs	r6, r9, #0, 24
 2ec:	72702f63 	rsbsvc	r2, r0, #396	; 0x18c
 2f0:	6b746e69 	blvs	1d1bc9c <__bss_end__+0x1d127d4>
 2f4:	5f00632e 	svcpl	0x0000632e
 2f8:	0070615f 	rsbseq	r6, r0, pc, asr r1
 2fc:	61765f5f 	cmnvs	r6, pc, asr pc
 300:	73696c5f 	cmnvc	r9, #24320	; 0x5f00
 304:	552f0074 	strpl	r0, [pc, #-116]!	; 298 <__code_start__-0x7d68>
 308:	73726573 	cmnvc	r2, #482344960	; 0x1cc00000
 30c:	7264612f 	rsbvc	r6, r4, #-1073741813	; 0xc000000b
 310:	6d6e6169 	stfvse	f6, [lr, #-420]!	; 0xfffffe5c
 314:	69747261 	ldmdbvs	r4!, {r0, r5, r6, r9, ip, sp, lr}^
 318:	2f7a656e 	svccs	0x007a656e
 31c:	6a6f7270 	bvs	1bdcce4 <__bss_end__+0x1bd381c>
 320:	73746365 	cmnvc	r4, #-1811939327	; 0x94000001
 324:	3173632f 	cmncc	r3, pc, lsr #6
 328:	2d653034 	stclcs	0, cr3, [r5, #-208]!	; 0xffffff30
 32c:	70733132 	rsbsvc	r3, r3, r2, lsr r1
 330:	696c2f72 	stmdbvs	ip!, {r1, r4, r5, r6, r8, r9, sl, fp, sp}^
 334:	00697062 	rsbeq	r7, r9, r2, rrx
 338:	65746e69 	ldrbvs	r6, [r4, #-3689]!	; 0xfffff197
 33c:	6c616e72 	stclvs	14, cr6, [r1], #-456	; 0xfffffe38
 340:	7475705f 	ldrbtvc	r7, [r5], #-95	; 0xffffffa1
 344:	696c006b 	stmdbvs	ip!, {r0, r1, r3, r5, r6}^
 348:	702f6362 	eorvc	r6, pc, r2, ror #6
 34c:	2e6b7475 	mcrcs	4, 3, r7, cr11, cr5, {3}
 350:	73690063 	cmnvc	r9, #99, 0	; 0x63
 354:	69676964 	stmdbvs	r7!, {r2, r5, r6, r8, fp, sp, lr}^
 358:	69750074 	ldmdbvs	r5!, {r2, r4, r5, r6}^
 35c:	3436746e 	ldrtcc	r7, [r6], #-1134	; 0xfffffb92
 360:	5f00745f 	svcpl	0x0000745f
 364:	646f635f 	strbtvs	r6, [pc], #-863	; 36c <__code_start__-0x7c94>
 368:	74735f65 	ldrbtvc	r5, [r3], #-3941	; 0xfffff09b
 36c:	5f747261 	svcpl	0x00747261
 370:	5f5f005f 	svcpl	0x005f005f
 374:	5f737362 	svcpl	0x00737362
 378:	72617473 	rsbvc	r7, r1, #1929379840	; 0x73000000
 37c:	005f5f74 	subseq	r5, pc, r4, ror pc	; <UNPREDICTABLE>
 380:	74646977 	strbtvc	r6, [r4], #-2423	; 0xfffff689
 384:	5f5f0068 	svcpl	0x005f0068
 388:	61746164 	cmnvs	r4, r4, ror #2
 38c:	646e655f 	strbtvs	r6, [lr], #-1375	; 0xfffffaa1
 390:	70005f5f 	andvc	r5, r0, pc, asr pc
 394:	5f637475 	svcpl	0x00637475
 398:	5f007066 	svcpl	0x00007066
 39c:	7373625f 	cmnvc	r3, #-268435451	; 0xf0000005
 3a0:	646e655f 	strbtvs	r6, [lr], #-1375	; 0xfffffaa1
 3a4:	5f005f5f 	svcpl	0x00005f5f
 3a8:	6165685f 	cmnvs	r5, pc, asr r8
 3ac:	74735f70 	ldrbtvc	r5, [r3], #-3952	; 0xfffff090
 3b0:	5f747261 	svcpl	0x00747261
 3b4:	7072005f 	rsbsvc	r0, r2, pc, asr r0
 3b8:	65735f69 	ldrbvs	r5, [r3, #-3945]!	; 0xfffff097
 3bc:	756f5f74 	strbvc	r5, [pc, #-3956]!	; fffff450 <__bss_end__+0xffff5f88>
 3c0:	74757074 	ldrbtvc	r7, [r5], #-116	; 0xffffff8c
 3c4:	746d6600 	strbtvc	r6, [sp], #-1536	; 0xfffffa00
 3c8:	6174735f 	cmnvs	r4, pc, asr r3
 3cc:	6c007472 	cfstrsvs	mvf7, [r0], {114}	; 0x72
 3d0:	2f636269 	svccs	0x00636269
 3d4:	702d6176 	eorvc	r6, sp, r6, ror r1
 3d8:	746e6972 	strbtvc	r6, [lr], #-2418	; 0xfffff68e
 3dc:	00632e6b 	rsbeq	r2, r3, fp, ror #28
 3e0:	63727473 	cmnvs	r2, #1929379840	; 0x73000000
 3e4:	6e007461 	cdpvs	4, 0, cr7, cr0, cr1, {3}
 3e8:	705f6765 	subsvc	r6, pc, r5, ror #14
 3ec:	635f5f00 	cmpvs	pc, #0, 30
 3f0:	5f65646f 	svcpl	0x0065646f
 3f4:	5f646e65 	svcpl	0x00646e65
 3f8:	6d65005f 	stclvs	0, cr0, [r5, #-380]!	; 0xfffffe84
 3fc:	70007469 	andvc	r7, r0, r9, ror #8
 400:	5f737475 	svcpl	0x00737475
 404:	72007066 	andvc	r7, r0, #102, 0	; 0x66
 408:	72657665 	rsbvc	r7, r5, #105906176	; 0x6500000
 40c:	5f006573 	svcpl	0x00006573
 410:	7461645f 	strbtvc	r6, [r1], #-1119	; 0xfffffba1
 414:	74735f61 	ldrbtvc	r5, [r3], #-3937	; 0xfffff09f
 418:	5f747261 	svcpl	0x00747261
 41c:	5f5f005f 	svcpl	0x005f005f
 420:	676f7270 			; <UNDEFINED> instruction: 0x676f7270
 424:	646e655f 	strbtvs	r6, [lr], #-1375	; 0xfffffaa1
 428:	6e005f5f 	mcrvs	15, 0, r5, cr0, cr15, {2}
 42c:	00316d75 	eorseq	r6, r1, r5, ror sp
 430:	6e727473 	mrcvs	4, 3, r7, cr2, cr3, {3}
 434:	00706d63 	rsbseq	r6, r0, r3, ror #26
 438:	65736162 	ldrbvs	r6, [r3, #-354]!	; 0xfffffe9e
 43c:	67697300 	strbvs	r7, [r9, -r0, lsl #6]!
 440:	5f64656e 	svcpl	0x0064656e
 444:	70720070 	rsbsvc	r0, r2, r0, ror r0
 448:	65725f69 	ldrbvs	r5, [r2, #-3945]!	; 0xfffff097
 44c:	746f6f62 	strbtvc	r6, [pc], #-3938	; 454 <__code_start__-0x7bac>
 450:	6c656400 	cfstrdvs	mvd6, [r5], #-0
 454:	6d5f7961 	vldrvs.16	s15, [pc, #-194]	; 39a <__code_start__-0x7c66>	; <UNPREDICTABLE>
 458:	74730073 	ldrbtvc	r0, [r3], #-115	; 0xffffff8d
 45c:	2d666661 	stclcs	6, cr6, [r6, #-388]!	; 0xfffffe7c
 460:	2f637273 	svccs	0x00637273
 464:	61656c63 	cmnvs	r5, r3, ror #24
 468:	65722d6e 	ldrbvs	r2, [r2, #-3438]!	; 0xfffff292
 46c:	746f6f62 	strbtvc	r6, [pc], #-3938	; 474 <__code_start__-0x7b8c>
 470:	7500632e 	strvc	r6, [r0, #-814]	; 0xfffffcd2
 474:	5f747261 	svcpl	0x00747261
 478:	73756c66 	cmnvc	r5, #26112	; 0x6600
 47c:	78745f68 	ldmdavc	r4!, {r3, r5, r6, r8, r9, sl, fp, ip, lr}^
 480:	73635f00 	cmnvc	r3, #0, 30
 484:	74726174 	ldrbtvc	r6, [r2], #-372	; 0xfffffe8c
 488:	73736200 	cmnvc	r3, #0, 4
 48c:	646e655f 	strbtvs	r6, [lr], #-1375	; 0xfffffaa1
 490:	73756300 	cmnvc	r5, #0, 6
 494:	5f6d6f74 	svcpl	0x006d6f74
 498:	64616f6c 	strbtvs	r6, [r1], #-3948	; 0xfffff094
 49c:	73007265 	movwvc	r7, #613	; 0x265
 4a0:	66666174 			; <UNDEFINED> instruction: 0x66666174
 4a4:	6372732d 	cmnvs	r2, #-1275068416	; 0xb4000000
 4a8:	7473632f 	ldrbtvc	r6, [r3], #-815	; 0xfffffcd1
 4ac:	2e747261 	cdpcs	2, 7, cr7, cr4, cr1, {3}
 4b0:	74730063 	ldrbtvc	r0, [r3], #-99	; 0xffffff9d
 4b4:	2d666661 	stclcs	6, cr6, [r6, #-388]!	; 0xfffffe7c
 4b8:	2f637273 	svccs	0x00637273
 4bc:	74737563 	ldrbtvc	r7, [r3], #-1379	; 0xfffffa9d
 4c0:	6c2d6d6f 	stcvs	13, cr6, [sp], #-444	; 0xfffffe44
 4c4:	6564616f 	strbvs	r6, [r4, #-367]!	; 0xfffffe91
 4c8:	00632e72 	rsbeq	r2, r3, r2, ror lr
 4cc:	575f4d50 			; <UNDEFINED> instruction: 0x575f4d50
 4d0:	00474f44 	subeq	r4, r7, r4, asr #30
 4d4:	5f746573 	svcpl	0x00746573
 4d8:	72657375 	rsbvc	r7, r5, #-738197503	; 0xd4000001
 4dc:	76656c5f 			; <UNDEFINED> instruction: 0x76656c5f
 4e0:	50006c65 	andpl	r6, r0, r5, ror #24
 4e4:	41505f4d 	cmpmi	r0, sp, asr #30
 4e8:	4f575353 	svcmi	0x00575353
 4ec:	61004452 	tstvs	r0, r2, asr r4
 4f0:	73755f74 	cmnvc	r5, #116, 30	; 0x1d0
 4f4:	6c5f7265 	lfmvs	f7, 2, [pc], {101}	; 0x65
 4f8:	6c657665 	stclvs	6, cr7, [r5], #-404	; 0xfffffe6c
 4fc:	61747300 	cmnvs	r4, r0, lsl #6
 500:	732d6666 			; <UNDEFINED> instruction: 0x732d6666
 504:	722f6372 	eorvc	r6, pc, #-939524095	; 0xc8000001
 508:	6f6f6265 	svcvs	0x006f6265
 50c:	00632e74 	rsbeq	r2, r3, r4, ror lr
 510:	525f4d50 	subspl	r4, pc, #80, 26	; 0x1400
 514:	00435453 	subeq	r5, r3, r3, asr r4
 518:	72737063 	rsbsvc	r7, r3, #99, 0	; 0x63
 51c:	5f4d5000 	svcpl	0x004d5000
 520:	43545352 	cmpmi	r4, #1207959553	; 0x48000001
 524:	4352575f 	cmpmi	r2, #24903680	; 0x17c0000
 528:	465f4746 	ldrbmi	r4, [pc], -r6, asr #14
 52c:	5f4c4c55 	svcpl	0x004c4c55
 530:	45534552 	ldrbmi	r4, [r3, #-1362]	; 0xfffffaae
 534:	65640054 	strbvs	r0, [r4, #-84]!	; 0xffffffac
 538:	5f79616c 	svcpl	0x0079616c
 53c:	6c637963 			; <UNDEFINED> instruction: 0x6c637963
 540:	64007365 	strvs	r7, [r0], #-869	; 0xfffffc9b
 544:	625f7665 	subsvs	r7, pc, #105906176	; 0x6500000
 548:	69727261 	ldmdbvs	r2!, {r0, r5, r6, r9, ip, sp, lr}^
 54c:	74007265 	strvc	r7, [r0], #-613	; 0xfffffd9b
 550:	736b6369 	cmnvc	fp, #-1543503871	; 0xa4000001
 554:	6c656400 	cfstrdvs	mvd6, [r5], #-0
 558:	735f7961 	cmpvc	pc, #1589248	; 0x184000
 55c:	74006365 	strvc	r6, [r0], #-869	; 0xfffffc9b
 560:	72656d69 	rsbvc	r6, r5, #6720	; 0x1a40
 564:	7465675f 	strbtvc	r6, [r5], #-1887	; 0xfffff8a1
 568:	6573755f 	ldrbvs	r7, [r3, #-1375]!	; 0xfffffaa1
 56c:	65640063 	strbvs	r0, [r4, #-99]!	; 0xffffff9d
 570:	5f79616c 	svcpl	0x0079616c
 574:	74007375 	strvc	r7, [r0], #-885	; 0xfffffc8b
 578:	72656d69 	rsbvc	r6, r5, #6720	; 0x1a40
 57c:	7465675f 	strbtvc	r6, [r5], #-1887	; 0xfffff8a1
 580:	6573755f 	ldrbvs	r7, [r3, #-1375]!	; 0xfffffaa1
 584:	61725f63 	cmnvs	r2, r3, ror #30
 588:	74730077 	ldrbtvc	r0, [r3], #-119	; 0xffffff89
 58c:	2d666661 	stclcs	6, cr6, [r6, #-388]!	; 0xfffffe7c
 590:	2f637273 	svccs	0x00637273
 594:	656d6974 	strbvs	r6, [sp, #-2420]!	; 0xfffff68c
 598:	00632e72 	rsbeq	r2, r3, r2, ror lr
 59c:	74726175 	ldrbtvc	r6, [r2], #-373	; 0xfffffe8b
 5a0:	7475705f 	ldrbtvc	r7, [r5], #-95	; 0xffffffa1
 5a4:	74730063 	ldrbtvc	r0, [r3], #-99	; 0xffffff9d
 5a8:	75007461 	strvc	r7, [r0, #-1121]	; 0xfffffb9f
 5ac:	5f747261 	svcpl	0x00747261
 5b0:	5f6e6163 	svcpl	0x006e6163
 5b4:	63746567 	cmnvs	r4, #432013312	; 0x19c00000
 5b8:	49504700 	ldmdbmi	r0, {r8, r9, sl, lr}^
 5bc:	55465f4f 	strbpl	r5, [r6, #-3919]	; 0xfffff0b1
 5c0:	4f5f434e 	svcmi	0x005f434e
 5c4:	55505455 	ldrbpl	r5, [r0, #-1109]	; 0xfffffbab
 5c8:	75610054 	strbvc	r0, [r1, #-84]!	; 0xffffffac
 5cc:	65705f78 	ldrbvs	r5, [r0, #-3960]!	; 0xfffff088
 5d0:	68706972 	ldmdavs	r0!, {r1, r4, r5, r6, r8, fp, sp, lr}^
 5d4:	61750073 	cmnvs	r5, r3, ror r0
 5d8:	632e7472 			; <UNDEFINED> instruction: 0x632e7472
 5dc:	72617500 	rsbvc	r7, r1, #0, 10
 5e0:	61635f74 	smcvs	13812	; 0x35f4
 5e4:	75705f6e 	ldrbvc	r5, [r0, #-3950]!	; 0xfffff092
 5e8:	2f006374 	svccs	0x00006374
 5ec:	656d6f68 	strbvs	r6, [sp, #-3944]!	; 0xfffff098
 5f0:	676e652f 	strbvs	r6, [lr, -pc, lsr #10]!
 5f4:	2f72656c 	svccs	0x0072656c
 5f8:	73616c63 	cmnvc	r1, #25344	; 0x6300
 5fc:	73632f73 	cmnvc	r3, #460	; 0x1cc
 600:	65303431 	ldrvs	r3, [r0, #-1073]!	; 0xfffffbcf
 604:	7331322d 	teqvc	r1, #-805306366	; 0xd0000002
 608:	6c2f7270 	sfmvs	f7, 4, [pc], #-448	; 450 <__code_start__-0x7bb0>
 60c:	69706269 	ldmdbvs	r0!, {r0, r3, r5, r6, r9, sp, lr}^
 610:	6174732f 	cmnvs	r4, pc, lsr #6
 614:	702d6666 	eorvc	r6, sp, r6, ror #12
 618:	61766972 	cmnvs	r6, r2, ror r9
 61c:	47006574 	smlsdxmi	r0, r4, r5, r6
 620:	5f4f4950 	svcpl	0x004f4950
 624:	434e5546 	movtmi	r5, #58694	; 0xe546
 628:	544c415f 	strbpl	r4, [ip], #-351	; 0xfffffea1
 62c:	50470030 	subpl	r0, r7, r0, lsr r0
 630:	465f4f49 	ldrbmi	r4, [pc], -r9, asr #30
 634:	5f434e55 	svcpl	0x00434e55
 638:	31544c41 	cmpcc	r4, r1, asr #24
 63c:	49504700 	ldmdbmi	r0, {r8, r9, sl, lr}^
 640:	55465f4f 	strbpl	r5, [r6, #-3919]	; 0xfffff0b1
 644:	415f434e 	cmpmi	pc, lr, asr #6
 648:	0032544c 	eorseq	r5, r2, ip, asr #8
 64c:	4f495047 	svcmi	0x00495047
 650:	4e55465f 	mrcmi	6, 2, r4, cr5, cr15, {2}
 654:	4c415f43 	mcrrmi	15, 4, r5, r1, cr3
 658:	47003354 	smlsdmi	r0, r4, r3, r3
 65c:	5f4f4950 	svcpl	0x004f4950
 660:	434e5546 	movtmi	r5, #58694	; 0xe546
 664:	544c415f 	strbpl	r4, [ip], #-351	; 0xfffffea1
 668:	61620035 	cmnvs	r2, r5, lsr r0
 66c:	61006475 	tstvs	r0, r5, ror r4
 670:	655f7875 	ldrbvs	r7, [pc, #-2165]	; fffffe03 <__bss_end__+0xffff693b>
 674:	6c62616e 	stfvse	f6, [r2], #-440	; 0xfffffe48
 678:	75007365 	strvc	r7, [r0, #-869]	; 0xfffffc9b
 67c:	5f747261 	svcpl	0x00747261
 680:	63746567 	cmnvs	r4, #432013312	; 0x19c00000
 684:	72617500 	rsbvc	r7, r1, #0, 10
 688:	78745f74 	ldmdavc	r4!, {r2, r4, r5, r6, r8, r9, sl, fp, ip, lr}^
 68c:	5f73695f 	svcpl	0x0073695f
 690:	74706d65 	ldrbtvc	r6, [r0], #-3429	; 0xfffff29b
 694:	61620079 	smcvs	8201	; 0x2009
 698:	765f6475 			; <UNDEFINED> instruction: 0x765f6475
 69c:	63006c61 	movwvs	r6, #3169	; 0xc61
 6a0:	006c746e 	rsbeq	r7, ip, lr, ror #8
 6a4:	74726175 	ldrbtvc	r6, [r2], #-373	; 0xfffffe8b
 6a8:	7361685f 	cmnvc	r1, #6225920	; 0x5f0000
 6ac:	7461645f 	strbtvc	r6, [r1], #-1119	; 0xfffffba1
 6b0:	50470061 	subpl	r0, r7, r1, rrx
 6b4:	465f4f49 	ldrbmi	r4, [pc], -r9, asr #30
 6b8:	5f434e55 	svcpl	0x00434e55
 6bc:	34544c41 	ldrbcc	r4, [r4], #-3137	; 0xfffff3bf
 6c0:	5f726f00 	svcpl	0x00726f00
 6c4:	32336e69 	eorscc	r6, r3, #1680	; 0x690
 6c8:	72637300 	rsbvc	r7, r3, #0, 6
 6cc:	68637461 	stmdavs	r3!, {r0, r5, r6, sl, ip, sp, lr}^
 6d0:	72617500 	rsbvc	r7, r1, #0, 10
 6d4:	50470074 	subpl	r0, r7, r4, ror r0
 6d8:	465f4f49 	ldrbmi	r4, [pc], -r9, asr #30
 6dc:	5f434e55 	svcpl	0x00434e55
 6e0:	55504e49 	ldrbpl	r4, [r0, #-3657]	; 0xfffff1b7
 6e4:	70670054 	rsbvc	r0, r7, r4, asr r0
 6e8:	735f6f69 	cmpvc	pc, #420	; 0x1a4
 6ec:	665f7465 	ldrbvs	r7, [pc], -r5, ror #8
 6f0:	74636e75 	strbtvc	r6, [r3], #-3701	; 0xfffff18b
 6f4:	006e6f69 	rsbeq	r6, lr, r9, ror #30
 6f8:	6f697067 	svcvs	0x00697067
 6fc:	726c635f 	rsbvc	r6, ip, #2080374785	; 0x7c000001
 700:	68730030 	ldmdavs	r3!, {r4, r5}^
 704:	00746669 	rsbseq	r6, r4, r9, ror #12
 708:	6f697067 	svcvs	0x00697067
 70c:	7465735f 	strbtvc	r7, [r5], #-863	; 0xfffffca1
 710:	75630030 	strbvc	r0, [r3, #-48]!	; 0xffffffd0
 714:	6e657272 	mcrvs	2, 3, r7, cr5, cr2, {3}
 718:	70670074 	rsbvc	r0, r7, r4, ror r0
 71c:	775f6f69 	ldrbvc	r6, [pc, -r9, ror #30]
 720:	65746972 	ldrbvs	r6, [r4, #-2418]!	; 0xfffff68e
 724:	69706700 	ldmdbvs	r0!, {r8, r9, sl, sp, lr}^
 728:	65735f6f 	ldrbvs	r5, [r3, #-3951]!	; 0xfffff091
 72c:	666f5f74 	uqsub16vs	r5, pc, r4	; <UNPREDICTABLE>
 730:	70670066 	rsbvc	r0, r7, r6, rrx
 734:	665f6f69 	ldrbvs	r6, [pc], -r9, ror #30
 738:	5f636e75 	svcpl	0x00636e75
 73c:	64610074 	strbtvs	r0, [r1], #-116	; 0xffffff8c
 740:	73657264 	cmnvc	r5, #100, 4	; 0x40000006
 744:	70670073 	rsbvc	r0, r7, r3, ror r0
 748:	6c5f6f69 	mrrcvs	15, 6, r6, pc, cr9	; <UNPREDICTABLE>
 74c:	00307665 	eorseq	r7, r0, r5, ror #12
 750:	6f697067 	svcvs	0x00697067
 754:	6c65735f 	stclvs	3, cr7, [r5], #-380	; 0xfffffe84
 758:	72730030 	rsbsvc	r0, r3, #48, 0	; 0x30
 75c:	70672f63 	rsbvc	r2, r7, r3, ror #30
 760:	632e6f69 			; <UNDEFINED> instruction: 0x632e6f69
 764:	69706700 	ldmdbvs	r0!, {r8, r9, sl, sp, lr}^
 768:	65735f6f 	ldrbvs	r5, [r3, #-3951]!	; 0xfffff091
 76c:	6e6f5f74 	mcrvs	15, 3, r5, cr15, cr4, {3}
 770:	746e6900 	strbtvc	r6, [lr], #-2304	; 0xfffff700
 774:	616e7265 	cmnvs	lr, r5, ror #4
 778:	75705f6c 	ldrbvc	r5, [r0, #-3948]!	; 0xfffff094
 77c:	61686374 	smcvs	34356	; 0x8634
 780:	70720072 	rsbsvc	r0, r2, r2, ror r0
 784:	65735f69 	ldrbvs	r5, [r3, #-3945]!	; 0xfffff097
 788:	75705f74 	ldrbvc	r5, [r0, #-3956]!	; 0xfffff08c
 78c:	6c006374 	stcvs	3, cr6, [r0], {116}	; 0x74
 790:	2f636269 	svccs	0x00636269
 794:	63747570 	cmnvs	r4, #112, 10	; 0x1c000000
 798:	2e726168 	rpwcssz	f6, f2, #0.0
 79c:	70720063 	rsbsvc	r0, r2, r3, rrx
 7a0:	65725f69 	ldrbvs	r5, [r2, #-3945]!	; 0xfffff097
 7a4:	5f746573 	svcpl	0x00746573
 7a8:	63747570 	cmnvs	r4, #112, 10	; 0x1c000000
 7ac:	62696c00 	rsbvs	r6, r9, #0, 24
 7b0:	74732f63 	ldrbtvc	r2, [r3], #-3939	; 0xfffff09d
 7b4:	74616372 	strbtvc	r6, [r1], #-882	; 0xfffffc8e
 7b8:	6400632e 	strvs	r6, [r0], #-814	; 0xfffffcd2
 7bc:	00747365 	rsbseq	r7, r4, r5, ror #6
 7c0:	657a6973 	ldrbvs	r6, [sl, #-2419]!	; 0xfffff68d
 7c4:	6c00745f 	cfstrsvs	mvf7, [r0], {95}	; 0x5f
 7c8:	2f636269 	svccs	0x00636269
 7cc:	6e727473 	mrcvs	4, 3, r7, cr2, cr3, {3}
 7d0:	2e706d63 	cdpcs	13, 7, cr6, cr0, cr3, {3}
 7d4:	Address 0x00000000000007d4 is out of bounds.


Disassembly of section .debug_frame:

00000000 <.debug_frame>:
   0:	0000000c 	andeq	r0, r0, ip
   4:	ffffffff 			; <UNDEFINED> instruction: 0xffffffff
   8:	7c020001 	stcvc	0, cr0, [r2], {1}
   c:	000d0c0e 	andeq	r0, sp, lr, lsl #24
  10:	00000018 	andeq	r0, r0, r8, lsl r0
  14:	00000000 	andeq	r0, r0, r0
  18:	00008034 	andeq	r8, r0, r4, lsr r0
  1c:	00000118 	andeq	r0, r0, r8, lsl r1
  20:	84100e42 	ldrhi	r0, [r0], #-3650	; 0xfffff1be
  24:	86038504 	strhi	r8, [r3], -r4, lsl #10
  28:	00018e02 	andeq	r8, r1, r2, lsl #28
  2c:	0000000c 	andeq	r0, r0, ip
  30:	ffffffff 			; <UNDEFINED> instruction: 0xffffffff
  34:	7c020001 	stcvc	0, cr0, [r2], {1}
  38:	000d0c0e 	andeq	r0, sp, lr, lsl #24
  3c:	00000014 	andeq	r0, r0, r4, lsl r0
  40:	0000002c 	andeq	r0, r0, ip, lsr #32
  44:	0000814c 	andeq	r8, r0, ip, asr #2
  48:	0000001c 	andeq	r0, r0, ip, lsl r0
  4c:	84080e42 	strhi	r0, [r8], #-3650	; 0xfffff1be
  50:	00018e02 	andeq	r8, r1, r2, lsl #28
  54:	00000014 	andeq	r0, r0, r4, lsl r0
  58:	0000002c 	andeq	r0, r0, ip, lsr #32
  5c:	00008168 	andeq	r8, r0, r8, ror #2
  60:	0000001c 	andeq	r0, r0, ip, lsl r0
  64:	84080e42 	strhi	r0, [r8], #-3650	; 0xfffff1be
  68:	00018e02 	andeq	r8, r1, r2, lsl #28
  6c:	00000014 	andeq	r0, r0, r4, lsl r0
  70:	0000002c 	andeq	r0, r0, ip, lsr #32
  74:	00008184 	andeq	r8, r0, r4, lsl #3
  78:	0000005c 	andeq	r0, r0, ip, asr r0
  7c:	8e040e52 	mcrhi	14, 0, r0, cr4, cr2, {2}
  80:	100e4201 	andne	r4, lr, r1, lsl #4
  84:	00000014 	andeq	r0, r0, r4, lsl r0
  88:	0000002c 	andeq	r0, r0, ip, lsr #32
  8c:	000081e0 	andeq	r8, r0, r0, ror #3
  90:	0000005c 	andeq	r0, r0, ip, asr r0
  94:	8e040e52 	mcrhi	14, 0, r0, cr4, cr2, {2}
  98:	100e4201 	andne	r4, lr, r1, lsl #4
  9c:	00000018 	andeq	r0, r0, r8, lsl r0
  a0:	0000002c 	andeq	r0, r0, ip, lsr #32
  a4:	0000823c 	andeq	r8, r0, ip, lsr r2
  a8:	00000060 	andeq	r0, r0, r0, rrx
  ac:	84100e42 	ldrhi	r0, [r0], #-3650	; 0xfffff1be
  b0:	86038504 	strhi	r8, [r3], -r4, lsl #10
  b4:	00018e02 	andeq	r8, r1, r2, lsl #28
  b8:	00000018 	andeq	r0, r0, r8, lsl r0
  bc:	0000002c 	andeq	r0, r0, ip, lsr #32
  c0:	0000829c 	muleq	r0, ip, r2
  c4:	00000064 	andeq	r0, r0, r4, rrx
  c8:	84100e42 	ldrhi	r0, [r0], #-3650	; 0xfffff1be
  cc:	86038504 	strhi	r8, [r3], -r4, lsl #10
  d0:	00018e02 	andeq	r8, r1, r2, lsl #28
  d4:	0000000c 	andeq	r0, r0, ip
  d8:	ffffffff 			; <UNDEFINED> instruction: 0xffffffff
  dc:	7c020001 	stcvc	0, cr0, [r2], {1}
  e0:	000d0c0e 	andeq	r0, sp, lr, lsl #24
  e4:	00000034 	andeq	r0, r0, r4, lsr r0
  e8:	000000d4 	ldrdeq	r0, [r0], -r4
  ec:	00008300 	andeq	r8, r0, r0, lsl #6
  f0:	00000058 	andeq	r0, r0, r8, asr r0
  f4:	80100e42 	andshi	r0, r0, r2, asr #28
  f8:	82038104 	andhi	r8, r3, #1
  fc:	42018302 	andmi	r8, r1, #134217728	; 0x8000000
 100:	07841c0e 	streq	r1, [r4, lr, lsl #24]
 104:	058e0685 	streq	r0, [lr, #1669]	; 0x685
 108:	5c280e42 	stcpl	14, cr0, [r8], #-264	; 0xfffffef8
 10c:	ce421c0e 	cdpgt	12, 4, cr1, cr2, cr14, {0}
 110:	100ec4c5 	andne	ip, lr, r5, asr #9
 114:	c1c2c342 	bicgt	ip, r2, r2, asr #6
 118:	00000ec0 	andeq	r0, r0, r0, asr #29
 11c:	0000000c 	andeq	r0, r0, ip
 120:	ffffffff 			; <UNDEFINED> instruction: 0xffffffff
 124:	7c020001 	stcvc	0, cr0, [r2], {1}
 128:	000d0c0e 	andeq	r0, sp, lr, lsl #24
 12c:	00000014 	andeq	r0, r0, r4, lsl r0
 130:	0000011c 	andeq	r0, r0, ip, lsl r1
 134:	00008358 	andeq	r8, r0, r8, asr r3
 138:	00000034 	andeq	r0, r0, r4, lsr r0
 13c:	84080e42 	strhi	r0, [r8], #-3650	; 0xfffff1be
 140:	00018e02 	andeq	r8, r1, r2, lsl #28
 144:	0000000c 	andeq	r0, r0, ip
 148:	ffffffff 			; <UNDEFINED> instruction: 0xffffffff
 14c:	7c020001 	stcvc	0, cr0, [r2], {1}
 150:	000d0c0e 	andeq	r0, sp, lr, lsl #24
 154:	0000000c 	andeq	r0, r0, ip
 158:	00000144 	andeq	r0, r0, r4, asr #2
 15c:	0000838c 	andeq	r8, r0, ip, lsl #7
 160:	00000014 	andeq	r0, r0, r4, lsl r0
 164:	0000000c 	andeq	r0, r0, ip
 168:	00000144 	andeq	r0, r0, r4, asr #2
 16c:	000083a0 	andeq	r8, r0, r0, lsr #7
 170:	00000024 	andeq	r0, r0, r4, lsr #32
 174:	0000000c 	andeq	r0, r0, ip
 178:	00000144 	andeq	r0, r0, r4, asr #2
 17c:	000083c4 	andeq	r8, r0, r4, asr #7
 180:	00000038 	andeq	r0, r0, r8, lsr r0
 184:	00000024 	andeq	r0, r0, r4, lsr #32
 188:	00000144 	andeq	r0, r0, r4, asr #2
 18c:	000083fc 	strdeq	r8, [r0], -ip
 190:	000001b4 			; <UNDEFINED> instruction: 0x000001b4
 194:	84140e42 	ldrhi	r0, [r4], #-3650	; 0xfffff1be
 198:	86048505 	strhi	r8, [r4], -r5, lsl #10
 19c:	8e028703 	cdphi	7, 0, cr8, cr2, cr3, {0}
 1a0:	600e4201 	andvs	r4, lr, r1, lsl #4
 1a4:	0e0a9a02 	vmlaeq.f32	s18, s20, s4
 1a8:	000b4214 	andeq	r4, fp, r4, lsl r2
 1ac:	00000014 	andeq	r0, r0, r4, lsl r0
 1b0:	00000144 	andeq	r0, r0, r4, asr #2
 1b4:	000085b0 			; <UNDEFINED> instruction: 0x000085b0
 1b8:	00000064 	andeq	r0, r0, r4, rrx
 1bc:	8e040e54 	mcrhi	14, 0, r0, cr4, cr4, {2}
 1c0:	100e4201 	andne	r4, lr, r1, lsl #4
 1c4:	0000002c 	andeq	r0, r0, ip, lsr #32
 1c8:	00000144 	andeq	r0, r0, r4, asr #2
 1cc:	00008614 	andeq	r8, r0, r4, lsl r6
 1d0:	000003a4 	andeq	r0, r0, r4, lsr #7
 1d4:	84240e42 	strthi	r0, [r4], #-3650	; 0xfffff1be
 1d8:	86088509 	strhi	r8, [r8], -r9, lsl #10
 1dc:	88068707 	stmdahi	r6, {r0, r1, r2, r8, r9, sl, pc}
 1e0:	8a048905 	bhi	1225fc <__bss_end__+0x119134>
 1e4:	8e028b03 	vmlahi.f64	d8, d2, d3
 1e8:	b80e4201 	stmdalt	lr, {r0, r9, lr}
 1ec:	01b80302 			; <UNDEFINED> instruction: 0x01b80302
 1f0:	0000240e 	andeq	r2, r0, lr, lsl #8
 1f4:	0000000c 	andeq	r0, r0, ip
 1f8:	ffffffff 			; <UNDEFINED> instruction: 0xffffffff
 1fc:	7c020001 	stcvc	0, cr0, [r2], {1}
 200:	000d0c0e 	andeq	r0, sp, lr, lsl #24
 204:	00000014 	andeq	r0, r0, r4, lsl r0
 208:	000001f4 	strdeq	r0, [r0], -r4
 20c:	000089b8 			; <UNDEFINED> instruction: 0x000089b8
 210:	0000002c 	andeq	r0, r0, ip, lsr #32
 214:	84080e42 	strhi	r0, [r8], #-3650	; 0xfffff1be
 218:	00018e02 	andeq	r8, r1, r2, lsl #28
 21c:	0000000c 	andeq	r0, r0, ip
 220:	ffffffff 			; <UNDEFINED> instruction: 0xffffffff
 224:	7c020001 	stcvc	0, cr0, [r2], {1}
 228:	000d0c0e 	andeq	r0, sp, lr, lsl #24
 22c:	00000014 	andeq	r0, r0, r4, lsl r0
 230:	0000021c 	andeq	r0, r0, ip, lsl r2
 234:	000089e4 	andeq	r8, r0, r4, ror #19
 238:	00000030 	andeq	r0, r0, r0, lsr r0
 23c:	84080e42 	strhi	r0, [r8], #-3650	; 0xfffff1be
 240:	00018e02 	andeq	r8, r1, r2, lsl #28
 244:	0000000c 	andeq	r0, r0, ip
 248:	ffffffff 			; <UNDEFINED> instruction: 0xffffffff
 24c:	7c020001 	stcvc	0, cr0, [r2], {1}
 250:	000d0c0e 	andeq	r0, sp, lr, lsl #24
 254:	0000000c 	andeq	r0, r0, ip
 258:	00000244 	andeq	r0, r0, r4, asr #4
 25c:	00008a14 	andeq	r8, r0, r4, lsl sl
 260:	00000004 	andeq	r0, r0, r4
 264:	0000000c 	andeq	r0, r0, ip
 268:	ffffffff 			; <UNDEFINED> instruction: 0xffffffff
 26c:	7c020001 	stcvc	0, cr0, [r2], {1}
 270:	000d0c0e 	andeq	r0, sp, lr, lsl #24
 274:	0000000c 	andeq	r0, r0, ip
 278:	00000264 	andeq	r0, r0, r4, ror #4
 27c:	00008a18 	andeq	r8, r0, r8, lsl sl
 280:	00000018 	andeq	r0, r0, r8, lsl r0
 284:	0000000c 	andeq	r0, r0, ip
 288:	00000264 	andeq	r0, r0, r4, ror #4
 28c:	00008a30 	andeq	r8, r0, r0, lsr sl
 290:	00000014 	andeq	r0, r0, r4, lsl r0
 294:	00000014 	andeq	r0, r0, r4, lsl r0
 298:	00000264 	andeq	r0, r0, r4, ror #4
 29c:	00008a44 	andeq	r8, r0, r4, asr #20
 2a0:	00000050 	andeq	r0, r0, r0, asr r0
 2a4:	84080e42 	strhi	r0, [r8], #-3650	; 0xfffff1be
 2a8:	00018e02 	andeq	r8, r1, r2, lsl #28
 2ac:	0000000c 	andeq	r0, r0, ip
 2b0:	ffffffff 			; <UNDEFINED> instruction: 0xffffffff
 2b4:	7c020001 	stcvc	0, cr0, [r2], {1}
 2b8:	000d0c0e 	andeq	r0, sp, lr, lsl #24
 2bc:	0000000c 	andeq	r0, r0, ip
 2c0:	000002ac 	andeq	r0, r0, ip, lsr #5
 2c4:	00008a94 	muleq	r0, r4, sl
 2c8:	00000018 	andeq	r0, r0, r8, lsl r0
 2cc:	00000014 	andeq	r0, r0, r4, lsl r0
 2d0:	000002ac 	andeq	r0, r0, ip, lsr #5
 2d4:	00008aac 	andeq	r8, r0, ip, lsr #21
 2d8:	00000014 	andeq	r0, r0, r4, lsl r0
 2dc:	84080e42 	strhi	r0, [r8], #-3650	; 0xfffff1be
 2e0:	00018e02 	andeq	r8, r1, r2, lsl #28
 2e4:	00000014 	andeq	r0, r0, r4, lsl r0
 2e8:	000002ac 	andeq	r0, r0, ip, lsr #5
 2ec:	00008ac0 	andeq	r8, r0, r0, asr #21
 2f0:	0000001c 	andeq	r0, r0, ip, lsl r0
 2f4:	84080e42 	strhi	r0, [r8], #-3650	; 0xfffff1be
 2f8:	00018e02 	andeq	r8, r1, r2, lsl #28
 2fc:	00000018 	andeq	r0, r0, r8, lsl r0
 300:	000002ac 	andeq	r0, r0, ip, lsr #5
 304:	00008adc 	ldrdeq	r8, [r0], -ip
 308:	00000024 	andeq	r0, r0, r4, lsr #32
 30c:	84100e42 	ldrhi	r0, [r0], #-3650	; 0xfffff1be
 310:	86038504 	strhi	r8, [r3], -r4, lsl #10
 314:	00018e02 	andeq	r8, r1, r2, lsl #28
 318:	00000014 	andeq	r0, r0, r4, lsl r0
 31c:	000002ac 	andeq	r0, r0, ip, lsr #5
 320:	00008b00 	andeq	r8, r0, r0, lsl #22
 324:	00000018 	andeq	r0, r0, r8, lsl r0
 328:	84080e42 	strhi	r0, [r8], #-3650	; 0xfffff1be
 32c:	00018e02 	andeq	r8, r1, r2, lsl #28
 330:	00000014 	andeq	r0, r0, r4, lsl r0
 334:	000002ac 	andeq	r0, r0, ip, lsr #5
 338:	00008b18 	andeq	r8, r0, r8, lsl fp
 33c:	00000018 	andeq	r0, r0, r8, lsl r0
 340:	84080e42 	strhi	r0, [r8], #-3650	; 0xfffff1be
 344:	00018e02 	andeq	r8, r1, r2, lsl #28
 348:	0000000c 	andeq	r0, r0, ip
 34c:	ffffffff 			; <UNDEFINED> instruction: 0xffffffff
 350:	7c020001 	stcvc	0, cr0, [r2], {1}
 354:	000d0c0e 	andeq	r0, sp, lr, lsl #24
 358:	00000018 	andeq	r0, r0, r8, lsl r0
 35c:	00000348 	andeq	r0, r0, r8, asr #6
 360:	00008b48 	andeq	r8, r0, r8, asr #22
 364:	00000020 	andeq	r0, r0, r0, lsr #32
 368:	84100e42 	ldrhi	r0, [r0], #-3650	; 0xfffff1be
 36c:	86038504 	strhi	r8, [r3], -r4, lsl #10
 370:	00018e02 	andeq	r8, r1, r2, lsl #28
 374:	00000014 	andeq	r0, r0, r4, lsl r0
 378:	00000348 	andeq	r0, r0, r8, asr #6
 37c:	00008b68 	andeq	r8, r0, r8, ror #22
 380:	000000b0 	strheq	r0, [r0], -r0	; <UNPREDICTABLE>
 384:	84080e42 	strhi	r0, [r8], #-3650	; 0xfffff1be
 388:	00018e02 	andeq	r8, r1, r2, lsl #28
 38c:	00000014 	andeq	r0, r0, r4, lsl r0
 390:	00000348 	andeq	r0, r0, r8, asr #6
 394:	00008c18 	andeq	r8, r0, r8, lsl ip
 398:	00000018 	andeq	r0, r0, r8, lsl r0
 39c:	84080e42 	strhi	r0, [r8], #-3650	; 0xfffff1be
 3a0:	00018e02 	andeq	r8, r1, r2, lsl #28
 3a4:	00000014 	andeq	r0, r0, r4, lsl r0
 3a8:	00000348 	andeq	r0, r0, r8, asr #6
 3ac:	00008c30 	andeq	r8, r0, r0, lsr ip
 3b0:	00000020 	andeq	r0, r0, r0, lsr #32
 3b4:	84080e42 	strhi	r0, [r8], #-3650	; 0xfffff1be
 3b8:	00018e02 	andeq	r8, r1, r2, lsl #28
 3bc:	00000014 	andeq	r0, r0, r4, lsl r0
 3c0:	00000348 	andeq	r0, r0, r8, asr #6
 3c4:	00008c50 	andeq	r8, r0, r0, asr ip
 3c8:	00000030 	andeq	r0, r0, r0, lsr r0
 3cc:	84080e42 	strhi	r0, [r8], #-3650	; 0xfffff1be
 3d0:	00018e02 	andeq	r8, r1, r2, lsl #28
 3d4:	00000014 	andeq	r0, r0, r4, lsl r0
 3d8:	00000348 	andeq	r0, r0, r8, asr #6
 3dc:	00008c80 	andeq	r8, r0, r0, lsl #25
 3e0:	00000030 	andeq	r0, r0, r0, lsr r0
 3e4:	84080e42 	strhi	r0, [r8], #-3650	; 0xfffff1be
 3e8:	00018e02 	andeq	r8, r1, r2, lsl #28
 3ec:	00000014 	andeq	r0, r0, r4, lsl r0
 3f0:	00000348 	andeq	r0, r0, r8, asr #6
 3f4:	00008cb0 			; <UNDEFINED> instruction: 0x00008cb0
 3f8:	00000010 	andeq	r0, r0, r0, lsl r0
 3fc:	84080e42 	strhi	r0, [r8], #-3650	; 0xfffff1be
 400:	00018e02 	andeq	r8, r1, r2, lsl #28
 404:	00000014 	andeq	r0, r0, r4, lsl r0
 408:	00000348 	andeq	r0, r0, r8, asr #6
 40c:	00008cc0 	andeq	r8, r0, r0, asr #25
 410:	00000020 	andeq	r0, r0, r0, lsr #32
 414:	84080e42 	strhi	r0, [r8], #-3650	; 0xfffff1be
 418:	00018e02 	andeq	r8, r1, r2, lsl #28
 41c:	00000014 	andeq	r0, r0, r4, lsl r0
 420:	00000348 	andeq	r0, r0, r8, asr #6
 424:	00008ce0 	andeq	r8, r0, r0, ror #25
 428:	00000014 	andeq	r0, r0, r4, lsl r0
 42c:	84080e42 	strhi	r0, [r8], #-3650	; 0xfffff1be
 430:	00018e02 	andeq	r8, r1, r2, lsl #28
 434:	0000000c 	andeq	r0, r0, ip
 438:	ffffffff 			; <UNDEFINED> instruction: 0xffffffff
 43c:	7c020001 	stcvc	0, cr0, [r2], {1}
 440:	000d0c0e 	andeq	r0, sp, lr, lsl #24
 444:	0000001c 	andeq	r0, r0, ip, lsl r0
 448:	00000434 	andeq	r0, r0, r4, lsr r4
 44c:	00008cf4 	strdeq	r8, [r0], -r4
 450:	00000054 	andeq	r0, r0, r4, asr r0
 454:	84180e42 	ldrhi	r0, [r8], #-3650	; 0xfffff1be
 458:	86058506 	strhi	r8, [r5], -r6, lsl #10
 45c:	88038704 	stmdahi	r3, {r2, r8, r9, sl, pc}
 460:	00018e02 	andeq	r8, r1, r2, lsl #28
 464:	00000014 	andeq	r0, r0, r4, lsl r0
 468:	00000434 	andeq	r0, r0, r4, lsr r4
 46c:	00008d48 	andeq	r8, r0, r8, asr #26
 470:	00000010 	andeq	r0, r0, r0, lsl r0
 474:	84080e42 	strhi	r0, [r8], #-3650	; 0xfffff1be
 478:	00018e02 	andeq	r8, r1, r2, lsl #28
 47c:	00000014 	andeq	r0, r0, r4, lsl r0
 480:	00000434 	andeq	r0, r0, r4, lsr r4
 484:	00008d58 	andeq	r8, r0, r8, asr sp
 488:	0000001c 	andeq	r0, r0, ip, lsl r0
 48c:	84080e42 	strhi	r0, [r8], #-3650	; 0xfffff1be
 490:	00018e02 	andeq	r8, r1, r2, lsl #28
 494:	00000014 	andeq	r0, r0, r4, lsl r0
 498:	00000434 	andeq	r0, r0, r4, lsr r4
 49c:	00008d74 	andeq	r8, r0, r4, ror sp
 4a0:	0000001c 	andeq	r0, r0, ip, lsl r0
 4a4:	84080e42 	strhi	r0, [r8], #-3650	; 0xfffff1be
 4a8:	00018e02 	andeq	r8, r1, r2, lsl #28
 4ac:	00000014 	andeq	r0, r0, r4, lsl r0
 4b0:	00000434 	andeq	r0, r0, r4, lsr r4
 4b4:	00008d90 	muleq	r0, r0, sp
 4b8:	0000001c 	andeq	r0, r0, ip, lsl r0
 4bc:	84080e42 	strhi	r0, [r8], #-3650	; 0xfffff1be
 4c0:	00018e02 	andeq	r8, r1, r2, lsl #28
 4c4:	00000014 	andeq	r0, r0, r4, lsl r0
 4c8:	00000434 	andeq	r0, r0, r4, lsr r4
 4cc:	00008dac 	andeq	r8, r0, ip, lsr #27
 4d0:	00000010 	andeq	r0, r0, r0, lsl r0
 4d4:	84080e42 	strhi	r0, [r8], #-3650	; 0xfffff1be
 4d8:	00018e02 	andeq	r8, r1, r2, lsl #28
 4dc:	00000014 	andeq	r0, r0, r4, lsl r0
 4e0:	00000434 	andeq	r0, r0, r4, lsr r4
 4e4:	00008dbc 			; <UNDEFINED> instruction: 0x00008dbc
 4e8:	00000020 	andeq	r0, r0, r0, lsr #32
 4ec:	84080e42 	strhi	r0, [r8], #-3650	; 0xfffff1be
 4f0:	00018e02 	andeq	r8, r1, r2, lsl #28
 4f4:	0000000c 	andeq	r0, r0, ip
 4f8:	ffffffff 			; <UNDEFINED> instruction: 0xffffffff
 4fc:	7c020001 	stcvc	0, cr0, [r2], {1}
 500:	000d0c0e 	andeq	r0, sp, lr, lsl #24
 504:	00000014 	andeq	r0, r0, r4, lsl r0
 508:	000004f4 	strdeq	r0, [r0], -r4
 50c:	00008ddc 	ldrdeq	r8, [r0], -ip
 510:	00000014 	andeq	r0, r0, r4, lsl r0
 514:	84080e42 	strhi	r0, [r8], #-3650	; 0xfffff1be
 518:	00018e02 	andeq	r8, r1, r2, lsl #28
 51c:	0000000c 	andeq	r0, r0, ip
 520:	000004f4 	strdeq	r0, [r0], -r4
 524:	00008df0 	strdeq	r8, [r0], -r0
 528:	00000018 	andeq	r0, r0, r8, lsl r0
 52c:	0000000c 	andeq	r0, r0, ip
 530:	000004f4 	strdeq	r0, [r0], -r4
 534:	00008e08 	andeq	r8, r0, r8, lsl #28
 538:	00000010 	andeq	r0, r0, r0, lsl r0
 53c:	0000000c 	andeq	r0, r0, ip
 540:	ffffffff 			; <UNDEFINED> instruction: 0xffffffff
 544:	7c020001 	stcvc	0, cr0, [r2], {1}
 548:	000d0c0e 	andeq	r0, sp, lr, lsl #24
 54c:	0000000c 	andeq	r0, r0, ip
 550:	0000053c 	andeq	r0, r0, ip, lsr r5
 554:	00008e18 	andeq	r8, r0, r8, lsl lr
 558:	00000034 	andeq	r0, r0, r4, lsr r0
 55c:	0000000c 	andeq	r0, r0, ip
 560:	ffffffff 			; <UNDEFINED> instruction: 0xffffffff
 564:	7c020001 	stcvc	0, cr0, [r2], {1}
 568:	000d0c0e 	andeq	r0, sp, lr, lsl #24
 56c:	0000000c 	andeq	r0, r0, ip
 570:	0000055c 	andeq	r0, r0, ip, asr r5
 574:	00008e4c 	andeq	r8, r0, ip, asr #28
 578:	0000002c 	andeq	r0, r0, ip, lsr #32

Disassembly of section .debug_ranges:

00000000 <.debug_ranges>:
   0:	000003b8 			; <UNDEFINED> instruction: 0x000003b8
   4:	000004a4 	andeq	r0, r0, r4, lsr #9
   8:	000004ac 	andeq	r0, r0, ip, lsr #9
   c:	000005d0 	ldrdeq	r0, [r0], -r0	; <UNPREDICTABLE>
	...
  18:	00008a18 	andeq	r8, r0, r8, lsl sl
  1c:	00008a94 	muleq	r0, r4, sl
	...
  28:	00008e4c 	andeq	r8, r0, ip, asr #28
  2c:	00008e78 	andeq	r8, r0, r8, ror lr
	...
