
prog-2-blink.elf:     file format elf32-littlearm


Disassembly of section .text:

00008000 <__code_start__>:
    8000:	e3a00013 	mov	r0, #19, 0
    8004:	e3800080 	orr	r0, r0, #128, 0	; 0x80
    8008:	e129f000 	msr	CPSR_fc, r0
    800c:	e3a01000 	mov	r1, #0, 0
    8010:	ee071f95 	mcr	15, 0, r1, cr7, cr5, {4}
    8014:	e3a0d302 	mov	sp, #134217728	; 0x8000000
    8018:	e3a0b000 	mov	fp, #0, 0
    801c:	eb000247 	bl	8940 <_cstart>
    8020:	eb00025e 	bl	89a0 <rpi_reboot>

00008024 <PUT32>:
    8024:	e5801000 	str	r1, [r0]
    8028:	e12fff1e 	bx	lr

0000802c <GET32>:
    802c:	e5900000 	ldr	r0, [r0]
    8030:	e12fff1e 	bx	lr

00008034 <notmain>:
    8034:	e92d4070 	push	{r4, r5, r6, lr}
    8038:	eb0002a1 	bl	8ac4 <uart_init>
    803c:	e3a00000 	mov	r0, #0, 0
    8040:	eb000026 	bl	80e0 <trace_start>
    8044:	e3a00014 	mov	r0, #20, 0
    8048:	eb000315 	bl	8ca4 <gpio_set_output>
    804c:	e3a00015 	mov	r0, #21, 0
    8050:	eb000313 	bl	8ca4 <gpio_set_output>
    8054:	e3a04000 	mov	r4, #0, 0
    8058:	e3540009 	cmp	r4, #9, 0
    805c:	ca00000e 	bgt	809c <notmain+0x68>
    8060:	e3a00014 	mov	r0, #20, 0
    8064:	eb000312 	bl	8cb4 <gpio_set_on>
    8068:	e3a00015 	mov	r0, #21, 0
    806c:	eb000317 	bl	8cd0 <gpio_set_off>
    8070:	e59f502c 	ldr	r5, [pc, #44]	; 80a4 <notmain+0x70>
    8074:	e1a00005 	mov	r0, r5
    8078:	eb00025c 	bl	89f0 <delay_cycles>
    807c:	e3a00014 	mov	r0, #20, 0
    8080:	eb000312 	bl	8cd0 <gpio_set_off>
    8084:	e3a00015 	mov	r0, #21, 0
    8088:	eb000309 	bl	8cb4 <gpio_set_on>
    808c:	e1a00005 	mov	r0, r5
    8090:	eb000256 	bl	89f0 <delay_cycles>
    8094:	e2844001 	add	r4, r4, #1, 0
    8098:	eaffffee 	b	8058 <notmain+0x24>
    809c:	eb000026 	bl	813c <trace_stop>
    80a0:	eb00021b 	bl	8914 <clean_reboot>
    80a4:	000f4240 	andeq	r4, pc, r0, asr #4

000080a8 <emit_put32>:
    80a8:	e92d4010 	push	{r4, lr}
    80ac:	e1a02001 	mov	r2, r1
    80b0:	e1a01000 	mov	r1, r0
    80b4:	e59f0004 	ldr	r0, [pc, #4]	; 80c0 <emit_put32+0x18>
    80b8:	eb000067 	bl	825c <printk>
    80bc:	e8bd8010 	pop	{r4, pc}
    80c0:	00008dd8 	ldrdeq	r8, [r0], -r8	; <UNPREDICTABLE>

000080c4 <emit_get32>:
    80c4:	e92d4010 	push	{r4, lr}
    80c8:	e1a02001 	mov	r2, r1
    80cc:	e1a01000 	mov	r1, r0
    80d0:	e59f0004 	ldr	r0, [pc, #4]	; 80dc <emit_get32+0x18>
    80d4:	eb000060 	bl	825c <printk>
    80d8:	e8bd8010 	pop	{r4, pc}
    80dc:	00008dec 	andeq	r8, r0, ip, ror #27

000080e0 <trace_start>:
    80e0:	e59f3040 	ldr	r3, [pc, #64]	; 8128 <trace_start+0x48>
    80e4:	e5933000 	ldr	r3, [r3]
    80e8:	e3530000 	cmp	r3, #0, 0
    80ec:	1a000003 	bne	8100 <trace_start+0x20>
    80f0:	e59f3030 	ldr	r3, [pc, #48]	; 8128 <trace_start+0x48>
    80f4:	e3a02001 	mov	r2, #1, 0
    80f8:	e5832000 	str	r2, [r3]
    80fc:	e12fff1e 	bx	lr
    8100:	e52de004 	push	{lr}		; (str lr, [sp, #-4]!)
    8104:	e24dd00c 	sub	sp, sp, #12, 0
    8108:	e59f301c 	ldr	r3, [pc, #28]	; 812c <trace_start+0x4c>
    810c:	e58d3000 	str	r3, [sp]
    8110:	e3a0302f 	mov	r3, #47, 0	; 0x2f
    8114:	e59f2014 	ldr	r2, [pc, #20]	; 8130 <trace_start+0x50>
    8118:	e59f1014 	ldr	r1, [pc, #20]	; 8134 <trace_start+0x54>
    811c:	e59f0014 	ldr	r0, [pc, #20]	; 8138 <trace_start+0x58>
    8120:	eb00004d 	bl	825c <printk>
    8124:	eb0001fa 	bl	8914 <clean_reboot>
    8128:	00008f84 	andeq	r8, r0, r4, lsl #31
    812c:	00008e24 	andeq	r8, r0, r4, lsr #28
    8130:	00008e4c 	andeq	r8, r0, ip, asr #28
    8134:	00008e00 	andeq	r8, r0, r0, lsl #28
    8138:	00008e10 	andeq	r8, r0, r0, lsl lr

0000813c <trace_stop>:
    813c:	e59f3040 	ldr	r3, [pc, #64]	; 8184 <trace_stop+0x48>
    8140:	e5933000 	ldr	r3, [r3]
    8144:	e3530001 	cmp	r3, #1, 0
    8148:	1a000003 	bne	815c <trace_stop+0x20>
    814c:	e59f3030 	ldr	r3, [pc, #48]	; 8184 <trace_stop+0x48>
    8150:	e3a02000 	mov	r2, #0, 0
    8154:	e5832000 	str	r2, [r3]
    8158:	e12fff1e 	bx	lr
    815c:	e52de004 	push	{lr}		; (str lr, [sp, #-4]!)
    8160:	e24dd00c 	sub	sp, sp, #12, 0
    8164:	e59f301c 	ldr	r3, [pc, #28]	; 8188 <trace_stop+0x4c>
    8168:	e58d3000 	str	r3, [sp]
    816c:	e3a03036 	mov	r3, #54, 0	; 0x36
    8170:	e59f2014 	ldr	r2, [pc, #20]	; 818c <trace_stop+0x50>
    8174:	e59f1014 	ldr	r1, [pc, #20]	; 8190 <trace_stop+0x54>
    8178:	e59f0014 	ldr	r0, [pc, #20]	; 8194 <trace_stop+0x58>
    817c:	eb000036 	bl	825c <printk>
    8180:	eb0001e3 	bl	8914 <clean_reboot>
    8184:	00008f84 	andeq	r8, r0, r4, lsl #31
    8188:	00008e38 	andeq	r8, r0, r8, lsr lr
    818c:	00008e58 	andeq	r8, r0, r8, asr lr
    8190:	00008e00 	andeq	r8, r0, r0, lsl #28
    8194:	00008e10 	andeq	r8, r0, r0, lsl lr

00008198 <__wrap_PUT32>:
    8198:	e92d4070 	push	{r4, r5, r6, lr}
    819c:	e1a04000 	mov	r4, r0
    81a0:	e1a05001 	mov	r5, r1
    81a4:	e59f3044 	ldr	r3, [pc, #68]	; 81f0 <__wrap_PUT32+0x58>
    81a8:	e5933000 	ldr	r3, [r3]
    81ac:	e3530001 	cmp	r3, #1, 0
    81b0:	0a000003 	beq	81c4 <__wrap_PUT32+0x2c>
    81b4:	e1a01005 	mov	r1, r5
    81b8:	e1a00004 	mov	r0, r4
    81bc:	ebffff98 	bl	8024 <PUT32>
    81c0:	e8bd8070 	pop	{r4, r5, r6, pc}
    81c4:	e59f3028 	ldr	r3, [pc, #40]	; 81f4 <__wrap_PUT32+0x5c>
    81c8:	e5933000 	ldr	r3, [r3]
    81cc:	e3530000 	cmp	r3, #0, 0
    81d0:	1afffff7 	bne	81b4 <__wrap_PUT32+0x1c>
    81d4:	e59f6018 	ldr	r6, [pc, #24]	; 81f4 <__wrap_PUT32+0x5c>
    81d8:	e3a03001 	mov	r3, #1, 0
    81dc:	e5863000 	str	r3, [r6]
    81e0:	ebffffb0 	bl	80a8 <emit_put32>
    81e4:	e3a03000 	mov	r3, #0, 0
    81e8:	e5863000 	str	r3, [r6]
    81ec:	eafffff0 	b	81b4 <__wrap_PUT32+0x1c>
    81f0:	00008f84 	andeq	r8, r0, r4, lsl #31
    81f4:	00009388 	andeq	r9, r0, r8, lsl #7

000081f8 <__wrap_GET32>:
    81f8:	e92d4070 	push	{r4, r5, r6, lr}
    81fc:	e1a05000 	mov	r5, r0
    8200:	ebffff89 	bl	802c <GET32>
    8204:	e1a04000 	mov	r4, r0
    8208:	e59f3044 	ldr	r3, [pc, #68]	; 8254 <__wrap_GET32+0x5c>
    820c:	e5933000 	ldr	r3, [r3]
    8210:	e3530001 	cmp	r3, #1, 0
    8214:	0a000001 	beq	8220 <__wrap_GET32+0x28>
    8218:	e1a00004 	mov	r0, r4
    821c:	e8bd8070 	pop	{r4, r5, r6, pc}
    8220:	e59f3030 	ldr	r3, [pc, #48]	; 8258 <__wrap_GET32+0x60>
    8224:	e5933000 	ldr	r3, [r3]
    8228:	e3530000 	cmp	r3, #0, 0
    822c:	1afffff9 	bne	8218 <__wrap_GET32+0x20>
    8230:	e59f6020 	ldr	r6, [pc, #32]	; 8258 <__wrap_GET32+0x60>
    8234:	e3a03001 	mov	r3, #1, 0
    8238:	e5863000 	str	r3, [r6]
    823c:	e1a01000 	mov	r1, r0
    8240:	e1a00005 	mov	r0, r5
    8244:	ebffff9e 	bl	80c4 <emit_get32>
    8248:	e3a03000 	mov	r3, #0, 0
    824c:	e5863000 	str	r3, [r6]
    8250:	eafffff0 	b	8218 <__wrap_GET32+0x20>
    8254:	00008f84 	andeq	r8, r0, r4, lsl #31
    8258:	00009388 	andeq	r9, r0, r8, lsl #7

0000825c <printk>:
    825c:	e92d000f 	push	{r0, r1, r2, r3}
    8260:	e92d4030 	push	{r4, r5, lr}
    8264:	e24dd00c 	sub	sp, sp, #12, 0
    8268:	e28d301c 	add	r3, sp, #28, 0
    826c:	e58d3004 	str	r3, [sp, #4]
    8270:	e59f5034 	ldr	r5, [pc, #52]	; 82ac <printk+0x50>
    8274:	e59d2018 	ldr	r2, [sp, #24]
    8278:	e3a01b01 	mov	r1, #1024	; 0x400
    827c:	e1a00005 	mov	r0, r5
    8280:	eb0000ba 	bl	8570 <va_printk>
    8284:	e1a04000 	mov	r4, r0
    8288:	e59f3020 	ldr	r3, [pc, #32]	; 82b0 <printk+0x54>
    828c:	e5933000 	ldr	r3, [r3]
    8290:	e1a00005 	mov	r0, r5
    8294:	e12fff33 	blx	r3
    8298:	e1a00004 	mov	r0, r4
    829c:	e28dd00c 	add	sp, sp, #12, 0
    82a0:	e8bd4030 	pop	{r4, r5, lr}
    82a4:	e28dd010 	add	sp, sp, #16, 0
    82a8:	e12fff1e 	bx	lr
    82ac:	00008f88 	andeq	r8, r0, r8, lsl #31
    82b0:	00008f7c 	andeq	r8, r0, ip, ror pc

000082b4 <internal_putk>:
    82b4:	e92d4010 	push	{r4, lr}
    82b8:	e1a04000 	mov	r4, r0
    82bc:	e5d40000 	ldrb	r0, [r4]
    82c0:	e3500000 	cmp	r0, #0, 0
    82c4:	0a000004 	beq	82dc <internal_putk+0x28>
    82c8:	e59f3014 	ldr	r3, [pc, #20]	; 82e4 <internal_putk+0x30>
    82cc:	e5933000 	ldr	r3, [r3]
    82d0:	e12fff33 	blx	r3
    82d4:	e2844001 	add	r4, r4, #1, 0
    82d8:	eafffff7 	b	82bc <internal_putk+0x8>
    82dc:	e3a00001 	mov	r0, #1, 0
    82e0:	e8bd8010 	pop	{r4, pc}
    82e4:	00008f80 	andeq	r8, r0, r0, lsl #31

000082e8 <isdigit>:
    82e8:	e2400030 	sub	r0, r0, #48, 0	; 0x30
    82ec:	e3500009 	cmp	r0, #9, 0
    82f0:	83a00000 	movhi	r0, #0, 0
    82f4:	93a00001 	movls	r0, #1, 0
    82f8:	e12fff1e 	bx	lr

000082fc <pad>:
    82fc:	e0401001 	sub	r1, r0, r1
    8300:	e1510002 	cmp	r1, r2
    8304:	b3a03020 	movlt	r3, #32, 0
    8308:	b4c03001 	strblt	r3, [r0], #1
    830c:	b2811001 	addlt	r1, r1, #1, 0
    8310:	bafffffa 	blt	8300 <pad+0x4>
    8314:	e3a03000 	mov	r3, #0, 0
    8318:	e5c03000 	strb	r3, [r0]
    831c:	e12fff1e 	bx	lr

00008320 <reverse>:
    8320:	e042c003 	sub	ip, r2, r3
    8324:	e28cc001 	add	ip, ip, #1, 0
    8328:	e15c0001 	cmp	ip, r1
    832c:	c04cc001 	subgt	ip, ip, r1
    8330:	c083300c 	addgt	r3, r3, ip
    8334:	e2421001 	sub	r1, r2, #1, 0
    8338:	e1a02000 	mov	r2, r0
    833c:	e1510003 	cmp	r1, r3
    8340:	2451c001 	ldrbcs	ip, [r1], #-1
    8344:	24c2c001 	strbcs	ip, [r2], #1
    8348:	2afffffb 	bcs	833c <reverse+0x1c>
    834c:	e3a03000 	mov	r3, #0, 0
    8350:	e5c23000 	strb	r3, [r2]
    8354:	e12fff1e 	bx	lr

00008358 <emit>:
    8358:	e92d40f0 	push	{r4, r5, r6, r7, lr}
    835c:	e24dd04c 	sub	sp, sp, #76, 0	; 0x4c
    8360:	e1a05001 	mov	r5, r1
    8364:	e1a04002 	mov	r4, r2
    8368:	e59d2060 	ldr	r2, [sp, #96]	; 0x60
    836c:	e1520004 	cmp	r2, r4
    8370:	c2442001 	subgt	r2, r4, #1, 0
    8374:	e1a0c003 	mov	ip, r3
    8378:	e2400002 	sub	r0, r0, #2, 0
    837c:	e350000e 	cmp	r0, #14, 0
    8380:	979ff100 	ldrls	pc, [pc, r0, lsl #2]
    8384:	ea000050 	b	84cc <emit+0x174>
    8388:	000084a4 	andeq	r8, r0, r4, lsr #9
    838c:	000084cc 	andeq	r8, r0, ip, asr #9
    8390:	000084cc 	andeq	r8, r0, ip, asr #9
    8394:	000084cc 	andeq	r8, r0, ip, asr #9
    8398:	000084cc 	andeq	r8, r0, ip, asr #9
    839c:	000084cc 	andeq	r8, r0, ip, asr #9
    83a0:	00008498 	muleq	r0, r8, r4
    83a4:	000084cc 	andeq	r8, r0, ip, asr #9
    83a8:	000083c4 	andeq	r8, r0, r4, asr #7
    83ac:	000084cc 	andeq	r8, r0, ip, asr #9
    83b0:	000084cc 	andeq	r8, r0, ip, asr #9
    83b4:	000084cc 	andeq	r8, r0, ip, asr #9
    83b8:	000084cc 	andeq	r8, r0, ip, asr #9
    83bc:	000084cc 	andeq	r8, r0, ip, asr #9
    83c0:	0000843c 	andeq	r8, r0, ip, lsr r4
    83c4:	e59d1064 	ldr	r1, [sp, #100]	; 0x64
    83c8:	e2511000 	subs	r1, r1, #0, 0
    83cc:	13a01001 	movne	r1, #1, 0
    83d0:	e0111fa3 	ands	r1, r1, r3, lsr #31
    83d4:	0a000016 	beq	8434 <emit+0xdc>
    83d8:	e263c000 	rsb	ip, r3, #0, 0
    83dc:	e3a06001 	mov	r6, #1, 0
    83e0:	e28d0008 	add	r0, sp, #8, 0
    83e4:	e59f3100 	ldr	r3, [pc, #256]	; 84ec <emit+0x194>
    83e8:	e0831c93 	umull	r1, r3, r3, ip
    83ec:	e1a031a3 	lsr	r3, r3, #3
    83f0:	e1a0e003 	mov	lr, r3
    83f4:	e0833103 	add	r3, r3, r3, lsl #2
    83f8:	e04c3083 	sub	r3, ip, r3, lsl #1
    83fc:	e1a01000 	mov	r1, r0
    8400:	e2800001 	add	r0, r0, #1, 0
    8404:	e59f70e4 	ldr	r7, [pc, #228]	; 84f0 <emit+0x198>
    8408:	e7d73003 	ldrb	r3, [r7, r3]
    840c:	e5c13000 	strb	r3, [r1]
    8410:	e1a0300c 	mov	r3, ip
    8414:	e1a0c00e 	mov	ip, lr
    8418:	e3530009 	cmp	r3, #9, 0
    841c:	8afffff0 	bhi	83e4 <emit+0x8c>
    8420:	e3560000 	cmp	r6, #0, 0
    8424:	13a0302d 	movne	r3, #45, 0	; 0x2d
    8428:	15c03000 	strbne	r3, [r0]
    842c:	12810002 	addne	r0, r1, #2, 0
    8430:	ea00000f 	b	8474 <emit+0x11c>
    8434:	e3a06000 	mov	r6, #0, 0
    8438:	eaffffe8 	b	83e0 <emit+0x88>
    843c:	e28d1008 	add	r1, sp, #8, 0
    8440:	e20c000f 	and	r0, ip, #15, 0
    8444:	e59fe0a8 	ldr	lr, [pc, #168]	; 84f4 <emit+0x19c>
    8448:	e7de0000 	ldrb	r0, [lr, r0]
    844c:	e5c10000 	strb	r0, [r1]
    8450:	e2811001 	add	r1, r1, #1, 0
    8454:	e35c000f 	cmp	ip, #15, 0
    8458:	e1a0c22c 	lsr	ip, ip, #4
    845c:	8afffff7 	bhi	8440 <emit+0xe8>
    8460:	e1a00001 	mov	r0, r1
    8464:	e3a03078 	mov	r3, #120, 0	; 0x78
    8468:	e4c03002 	strb	r3, [r0], #2
    846c:	e3a03030 	mov	r3, #48, 0	; 0x30
    8470:	e5c13001 	strb	r3, [r1, #1]
    8474:	e28d1008 	add	r1, sp, #8, 0
    8478:	ebffff9f 	bl	82fc <pad>
    847c:	e1a02000 	mov	r2, r0
    8480:	e28d3008 	add	r3, sp, #8, 0
    8484:	e1a01004 	mov	r1, r4
    8488:	e1a00005 	mov	r0, r5
    848c:	ebffffa3 	bl	8320 <reverse>
    8490:	e28dd04c 	add	sp, sp, #76, 0	; 0x4c
    8494:	e8bd80f0 	pop	{r4, r5, r6, r7, pc}
    8498:	e5cd3008 	strb	r3, [sp, #8]
    849c:	e28d0009 	add	r0, sp, #9, 0
    84a0:	eafffff3 	b	8474 <emit+0x11c>
    84a4:	e28d0008 	add	r0, sp, #8, 0
    84a8:	e20c1001 	and	r1, ip, #1, 0
    84ac:	e59fe044 	ldr	lr, [pc, #68]	; 84f8 <emit+0x1a0>
    84b0:	e7de1001 	ldrb	r1, [lr, r1]
    84b4:	e5c01000 	strb	r1, [r0]
    84b8:	e2800001 	add	r0, r0, #1, 0
    84bc:	e35c0001 	cmp	ip, #1, 0
    84c0:	e1a0c0ac 	lsr	ip, ip, #1
    84c4:	8afffff7 	bhi	84a8 <emit+0x150>
    84c8:	eaffffe9 	b	8474 <emit+0x11c>
    84cc:	e59f3028 	ldr	r3, [pc, #40]	; 84fc <emit+0x1a4>
    84d0:	e58d3000 	str	r3, [sp]
    84d4:	e3a03079 	mov	r3, #121, 0	; 0x79
    84d8:	e59f2020 	ldr	r2, [pc, #32]	; 8500 <emit+0x1a8>
    84dc:	e59f1020 	ldr	r1, [pc, #32]	; 8504 <emit+0x1ac>
    84e0:	e59f0020 	ldr	r0, [pc, #32]	; 8508 <emit+0x1b0>
    84e4:	ebffff5c 	bl	825c <printk>
    84e8:	eb000109 	bl	8914 <clean_reboot>
    84ec:	cccccccd 	stclgt	12, cr12, [ip], {205}	; 0xcd
    84f0:	00008e7c 	andeq	r8, r0, ip, ror lr
    84f4:	00008e88 	andeq	r8, r0, r8, lsl #29
    84f8:	00008e9c 	muleq	r0, ip, lr
    84fc:	00008e78 	andeq	r8, r0, r8, ror lr
    8500:	00008f4c 	andeq	r8, r0, ip, asr #30
    8504:	00008e64 	andeq	r8, r0, r4, ror #28
    8508:	00008e10 	andeq	r8, r0, r0, lsl lr

0000850c <rpi_set_output>:
    850c:	e3500000 	cmp	r0, #0, 0
    8510:	0a000006 	beq	8530 <rpi_set_output+0x24>
    8514:	e59f303c 	ldr	r3, [pc, #60]	; 8558 <rpi_set_output+0x4c>
    8518:	e5830000 	str	r0, [r3]
    851c:	e3510000 	cmp	r1, #0, 0
    8520:	012fff1e 	bxeq	lr
    8524:	e59f3030 	ldr	r3, [pc, #48]	; 855c <rpi_set_output+0x50>
    8528:	e5831000 	str	r1, [r3]
    852c:	e12fff1e 	bx	lr
    8530:	e52de004 	push	{lr}		; (str lr, [sp, #-4]!)
    8534:	e24dd00c 	sub	sp, sp, #12, 0
    8538:	e59f3020 	ldr	r3, [pc, #32]	; 8560 <rpi_set_output+0x54>
    853c:	e58d3000 	str	r3, [sp]
    8540:	e3a03020 	mov	r3, #32, 0
    8544:	e59f2018 	ldr	r2, [pc, #24]	; 8564 <rpi_set_output+0x58>
    8548:	e59f1018 	ldr	r1, [pc, #24]	; 8568 <rpi_set_output+0x5c>
    854c:	e59f0018 	ldr	r0, [pc, #24]	; 856c <rpi_set_output+0x60>
    8550:	ebffff41 	bl	825c <printk>
    8554:	eb0000ee 	bl	8914 <clean_reboot>
    8558:	00008f80 	andeq	r8, r0, r0, lsl #31
    855c:	00008f7c 	andeq	r8, r0, ip, ror pc
    8560:	00008ea0 	andeq	r8, r0, r0, lsr #29
    8564:	00008f54 	andeq	r8, r0, r4, asr pc
    8568:	00008e64 	andeq	r8, r0, r4, ror #28
    856c:	00008e10 	andeq	r8, r0, r0, lsl lr

00008570 <va_printk>:
    8570:	e92d4ff0 	push	{r4, r5, r6, r7, r8, r9, sl, fp, lr}
    8574:	e24ddf45 	sub	sp, sp, #276	; 0x114
    8578:	e1a09000 	mov	r9, r0
    857c:	e58d2008 	str	r2, [sp, #8]
    8580:	e58d300c 	str	r3, [sp, #12]
    8584:	e2411001 	sub	r1, r1, #1, 0
    8588:	e0808001 	add	r8, r0, r1
    858c:	e3a03000 	mov	r3, #0, 0
    8590:	e5c03000 	strb	r3, [r0]
    8594:	e1a04000 	mov	r4, r0
    8598:	e1a06002 	mov	r6, r2
    859c:	ea000001 	b	85a8 <va_printk+0x38>
    85a0:	e2866001 	add	r6, r6, #1, 0
    85a4:	e4c43001 	strb	r3, [r4], #1
    85a8:	e5d63000 	ldrb	r3, [r6]
    85ac:	e3530000 	cmp	r3, #0, 0
    85b0:	0a0000c8 	beq	88d8 <va_printk+0x368>
    85b4:	e1540008 	cmp	r4, r8
    85b8:	2a0000c6 	bcs	88d8 <va_printk+0x368>
    85bc:	e3530025 	cmp	r3, #37, 0	; 0x25
    85c0:	1afffff6 	bne	85a0 <va_printk+0x30>
    85c4:	e5d62001 	ldrb	r2, [r6, #1]
    85c8:	e3520025 	cmp	r2, #37, 0	; 0x25
    85cc:	04c43001 	strbeq	r3, [r4], #1
    85d0:	02866002 	addeq	r6, r6, #2, 0
    85d4:	0afffff3 	beq	85a8 <va_printk+0x38>
    85d8:	e2866001 	add	r6, r6, #1, 0
    85dc:	e3a05000 	mov	r5, #0, 0
    85e0:	e5d67000 	ldrb	r7, [r6]
    85e4:	e1a0a007 	mov	sl, r7
    85e8:	e1a00007 	mov	r0, r7
    85ec:	ebffff3d 	bl	82e8 <isdigit>
    85f0:	e3500000 	cmp	r0, #0, 0
    85f4:	0a000004 	beq	860c <va_printk+0x9c>
    85f8:	e0855105 	add	r5, r5, r5, lsl #2
    85fc:	e0875085 	add	r5, r7, r5, lsl #1
    8600:	e2455030 	sub	r5, r5, #48, 0	; 0x30
    8604:	e2866001 	add	r6, r6, #1, 0
    8608:	eafffff4 	b	85e0 <va_printk+0x70>
    860c:	e355001f 	cmp	r5, #31, 0
    8610:	8a00001a 	bhi	8680 <va_printk+0x110>
    8614:	e2477062 	sub	r7, r7, #98, 0	; 0x62
    8618:	e3570016 	cmp	r7, #22, 0
    861c:	979ff107 	ldrls	pc, [pc, r7, lsl #2]
    8620:	ea000094 	b	8878 <va_printk+0x308>
    8624:	000087fc 	strdeq	r8, [r0], -ip
    8628:	00008844 	andeq	r8, r0, r4, asr #16
    862c:	0000875c 	andeq	r8, r0, ip, asr r7
    8630:	00008878 	andeq	r8, r0, r8, ror r8
    8634:	00008744 	andeq	r8, r0, r4, asr #14
    8638:	00008878 	andeq	r8, r0, r8, ror r8
    863c:	00008878 	andeq	r8, r0, r8, ror r8
    8640:	00008878 	andeq	r8, r0, r8, ror r8
    8644:	00008878 	andeq	r8, r0, r8, ror r8
    8648:	00008878 	andeq	r8, r0, r8, ror r8
    864c:	000086a0 	andeq	r8, r0, r0, lsr #13
    8650:	00008878 	andeq	r8, r0, r8, ror r8
    8654:	00008878 	andeq	r8, r0, r8, ror r8
    8658:	00008878 	andeq	r8, r0, r8, ror r8
    865c:	000087c8 	andeq	r8, r0, r8, asr #15
    8660:	00008878 	andeq	r8, r0, r8, ror r8
    8664:	00008878 	andeq	r8, r0, r8, ror r8
    8668:	00008830 	andeq	r8, r0, r0, lsr r8
    866c:	00008878 	andeq	r8, r0, r8, ror r8
    8670:	00008794 	muleq	r0, r4, r7
    8674:	00008878 	andeq	r8, r0, r8, ror r8
    8678:	00008878 	andeq	r8, r0, r8, ror r8
    867c:	000087c8 	andeq	r8, r0, r8, asr #15
    8680:	e59f3264 	ldr	r3, [pc, #612]	; 88ec <va_printk+0x37c>
    8684:	e58d3000 	str	r3, [sp]
    8688:	e3a03098 	mov	r3, #152, 0	; 0x98
    868c:	e59f225c 	ldr	r2, [pc, #604]	; 88f0 <va_printk+0x380>
    8690:	e59f125c 	ldr	r1, [pc, #604]	; 88f4 <va_printk+0x384>
    8694:	e59f025c 	ldr	r0, [pc, #604]	; 88f8 <va_printk+0x388>
    8698:	ebfffeef 	bl	825c <printk>
    869c:	eb00009c 	bl	8914 <clean_reboot>
    86a0:	e3a02003 	mov	r2, #3, 0
    86a4:	e59f1250 	ldr	r1, [pc, #592]	; 88fc <va_printk+0x38c>
    86a8:	e1a00006 	mov	r0, r6
    86ac:	eb0001bd 	bl	8da8 <strncmp>
    86b0:	e3500000 	cmp	r0, #0, 0
    86b4:	1a00001a 	bne	8724 <va_printk+0x1b4>
    86b8:	e2866002 	add	r6, r6, #2, 0
    86bc:	e59d300c 	ldr	r3, [sp, #12]
    86c0:	e2833007 	add	r3, r3, #7, 0
    86c4:	e3c33007 	bic	r3, r3, #7, 0
    86c8:	e2832008 	add	r2, r3, #8, 0
    86cc:	e58d200c 	str	r2, [sp, #12]
    86d0:	e593b000 	ldr	fp, [r3]
    86d4:	e5933004 	ldr	r3, [r3, #4]
    86d8:	e3a0a000 	mov	sl, #0, 0
    86dc:	e58da004 	str	sl, [sp, #4]
    86e0:	e58d5000 	str	r5, [sp]
    86e4:	e3a02080 	mov	r2, #128, 0	; 0x80
    86e8:	e28d1010 	add	r1, sp, #16, 0
    86ec:	e3a00010 	mov	r0, #16, 0
    86f0:	ebffff18 	bl	8358 <emit>
    86f4:	e1a07000 	mov	r7, r0
    86f8:	e58da004 	str	sl, [sp, #4]
    86fc:	e58d5000 	str	r5, [sp]
    8700:	e1a0300b 	mov	r3, fp
    8704:	e3a02080 	mov	r2, #128, 0	; 0x80
    8708:	e28d1090 	add	r1, sp, #144, 0	; 0x90
    870c:	e3a00010 	mov	r0, #16, 0
    8710:	ebffff10 	bl	8358 <emit>
    8714:	e28d1092 	add	r1, sp, #146, 0	; 0x92
    8718:	e28d0010 	add	r0, sp, #16, 0
    871c:	eb000194 	bl	8d74 <strcat>
    8720:	ea000019 	b	878c <va_printk+0x21c>
    8724:	e59f31d4 	ldr	r3, [pc, #468]	; 8900 <va_printk+0x390>
    8728:	e58d3000 	str	r3, [sp]
    872c:	e3a0309d 	mov	r3, #157, 0	; 0x9d
    8730:	e59f21b8 	ldr	r2, [pc, #440]	; 88f0 <va_printk+0x380>
    8734:	e59f11b8 	ldr	r1, [pc, #440]	; 88f4 <va_printk+0x384>
    8738:	e59f01b8 	ldr	r0, [pc, #440]	; 88f8 <va_printk+0x388>
    873c:	ebfffec6 	bl	825c <printk>
    8740:	eb000073 	bl	8914 <clean_reboot>
    8744:	e3a030af 	mov	r3, #175, 0	; 0xaf
    8748:	e59f21a0 	ldr	r2, [pc, #416]	; 88f0 <va_printk+0x380>
    874c:	e59f11a0 	ldr	r1, [pc, #416]	; 88f4 <va_printk+0x384>
    8750:	e59f01ac 	ldr	r0, [pc, #428]	; 8904 <va_printk+0x394>
    8754:	ebfffec0 	bl	825c <printk>
    8758:	eb00006d 	bl	8914 <clean_reboot>
    875c:	e59d300c 	ldr	r3, [sp, #12]
    8760:	e2832004 	add	r2, r3, #4, 0
    8764:	e58d200c 	str	r2, [sp, #12]
    8768:	e5933000 	ldr	r3, [r3]
    876c:	e3a02001 	mov	r2, #1, 0
    8770:	e58d2004 	str	r2, [sp, #4]
    8774:	e58d5000 	str	r5, [sp]
    8778:	e3a02080 	mov	r2, #128, 0	; 0x80
    877c:	e28d1010 	add	r1, sp, #16, 0
    8780:	e3a0000a 	mov	r0, #10, 0
    8784:	ebfffef3 	bl	8358 <emit>
    8788:	e1a07000 	mov	r7, r0
    878c:	e2866001 	add	r6, r6, #1, 0
    8790:	ea00004a 	b	88c0 <va_printk+0x350>
    8794:	e59d300c 	ldr	r3, [sp, #12]
    8798:	e2832004 	add	r2, r3, #4, 0
    879c:	e58d200c 	str	r2, [sp, #12]
    87a0:	e5933000 	ldr	r3, [r3]
    87a4:	e3a02000 	mov	r2, #0, 0
    87a8:	e58d2004 	str	r2, [sp, #4]
    87ac:	e58d5000 	str	r5, [sp]
    87b0:	e3a02080 	mov	r2, #128, 0	; 0x80
    87b4:	e28d1010 	add	r1, sp, #16, 0
    87b8:	e3a0000a 	mov	r0, #10, 0
    87bc:	ebfffee5 	bl	8358 <emit>
    87c0:	e1a07000 	mov	r7, r0
    87c4:	eafffff0 	b	878c <va_printk+0x21c>
    87c8:	e59d300c 	ldr	r3, [sp, #12]
    87cc:	e2832004 	add	r2, r3, #4, 0
    87d0:	e58d200c 	str	r2, [sp, #12]
    87d4:	e5933000 	ldr	r3, [r3]
    87d8:	e3a02000 	mov	r2, #0, 0
    87dc:	e58d2004 	str	r2, [sp, #4]
    87e0:	e58d5000 	str	r5, [sp]
    87e4:	e3a02080 	mov	r2, #128, 0	; 0x80
    87e8:	e28d1010 	add	r1, sp, #16, 0
    87ec:	e3a00010 	mov	r0, #16, 0
    87f0:	ebfffed8 	bl	8358 <emit>
    87f4:	e1a07000 	mov	r7, r0
    87f8:	eaffffe3 	b	878c <va_printk+0x21c>
    87fc:	e59d300c 	ldr	r3, [sp, #12]
    8800:	e2832004 	add	r2, r3, #4, 0
    8804:	e58d200c 	str	r2, [sp, #12]
    8808:	e5933000 	ldr	r3, [r3]
    880c:	e3a02000 	mov	r2, #0, 0
    8810:	e58d2004 	str	r2, [sp, #4]
    8814:	e58d5000 	str	r5, [sp]
    8818:	e3a02080 	mov	r2, #128, 0	; 0x80
    881c:	e28d1010 	add	r1, sp, #16, 0
    8820:	e3a00002 	mov	r0, #2, 0
    8824:	ebfffecb 	bl	8358 <emit>
    8828:	e1a07000 	mov	r7, r0
    882c:	eaffffd6 	b	878c <va_printk+0x21c>
    8830:	e59d300c 	ldr	r3, [sp, #12]
    8834:	e2832004 	add	r2, r3, #4, 0
    8838:	e58d200c 	str	r2, [sp, #12]
    883c:	e5937000 	ldr	r7, [r3]
    8840:	eaffffd1 	b	878c <va_printk+0x21c>
    8844:	e59d300c 	ldr	r3, [sp, #12]
    8848:	e2832004 	add	r2, r3, #4, 0
    884c:	e58d200c 	str	r2, [sp, #12]
    8850:	e5933000 	ldr	r3, [r3]
    8854:	e3a02000 	mov	r2, #0, 0
    8858:	e58d2004 	str	r2, [sp, #4]
    885c:	e58d5000 	str	r5, [sp]
    8860:	e3a02080 	mov	r2, #128, 0	; 0x80
    8864:	e28d1010 	add	r1, sp, #16, 0
    8868:	e3a00008 	mov	r0, #8, 0
    886c:	ebfffeb9 	bl	8358 <emit>
    8870:	e1a07000 	mov	r7, r0
    8874:	eaffffc4 	b	878c <va_printk+0x21c>
    8878:	e3a03000 	mov	r3, #0, 0
    887c:	e5c63001 	strb	r3, [r6, #1]
    8880:	e1a0200a 	mov	r2, sl
    8884:	e1a0100a 	mov	r1, sl
    8888:	e59f0078 	ldr	r0, [pc, #120]	; 8908 <va_printk+0x398>
    888c:	ebfffe72 	bl	825c <printk>
    8890:	e59f3074 	ldr	r3, [pc, #116]	; 890c <va_printk+0x39c>
    8894:	e5933000 	ldr	r3, [r3]
    8898:	e59d0008 	ldr	r0, [sp, #8]
    889c:	e12fff33 	blx	r3
    88a0:	e3a030d3 	mov	r3, #211, 0	; 0xd3
    88a4:	e59f2044 	ldr	r2, [pc, #68]	; 88f0 <va_printk+0x380>
    88a8:	e59f1044 	ldr	r1, [pc, #68]	; 88f4 <va_printk+0x384>
    88ac:	e59f005c 	ldr	r0, [pc, #92]	; 8910 <va_printk+0x3a0>
    88b0:	ebfffe69 	bl	825c <printk>
    88b4:	eb000016 	bl	8914 <clean_reboot>
    88b8:	e2877001 	add	r7, r7, #1, 0
    88bc:	e4c43001 	strb	r3, [r4], #1
    88c0:	e1540008 	cmp	r4, r8
    88c4:	2affff37 	bcs	85a8 <va_printk+0x38>
    88c8:	e5d73000 	ldrb	r3, [r7]
    88cc:	e3530000 	cmp	r3, #0, 0
    88d0:	1afffff8 	bne	88b8 <va_printk+0x348>
    88d4:	eaffff33 	b	85a8 <va_printk+0x38>
    88d8:	e3a03000 	mov	r3, #0, 0
    88dc:	e4c43001 	strb	r3, [r4], #1
    88e0:	e0440009 	sub	r0, r4, r9
    88e4:	e28ddf45 	add	sp, sp, #276	; 0x114
    88e8:	e8bd8ff0 	pop	{r4, r5, r6, r7, r8, r9, sl, fp, pc}
    88ec:	00008ea8 	andeq	r8, r0, r8, lsr #29
    88f0:	00008f64 	andeq	r8, r0, r4, ror #30
    88f4:	00008e64 	andeq	r8, r0, r4, ror #28
    88f8:	00008e10 	andeq	r8, r0, r0, lsl lr
    88fc:	00008eb4 			; <UNDEFINED> instruction: 0x00008eb4
    8900:	00008eb8 			; <UNDEFINED> instruction: 0x00008eb8
    8904:	00008ed4 	ldrdeq	r8, [r0], -r4
    8908:	00008efc 	strdeq	r8, [r0], -ip
    890c:	00008f7c 	andeq	r8, r0, ip, ror pc
    8910:	00008f2c 	andeq	r8, r0, ip, lsr #30

00008914 <clean_reboot>:
    8914:	e92d4010 	push	{r4, lr}
    8918:	e59f3018 	ldr	r3, [pc, #24]	; 8938 <clean_reboot+0x24>
    891c:	e5933000 	ldr	r3, [r3]
    8920:	e59f0014 	ldr	r0, [pc, #20]	; 893c <clean_reboot+0x28>
    8924:	e12fff33 	blx	r3
    8928:	eb0000c3 	bl	8c3c <uart_flush_tx>
    892c:	e3a0000a 	mov	r0, #10, 0
    8930:	eb000049 	bl	8a5c <delay_ms>
    8934:	eb000019 	bl	89a0 <rpi_reboot>
    8938:	00008f7c 	andeq	r8, r0, ip, ror pc
    893c:	00008f70 	andeq	r8, r0, r0, ror pc

00008940 <_cstart>:
    8940:	e92d4010 	push	{r4, lr}
    8944:	eb000009 	bl	8970 <custom_loader>
    8948:	e59f3018 	ldr	r3, [pc, #24]	; 8968 <_cstart+0x28>
    894c:	e59f2018 	ldr	r2, [pc, #24]	; 896c <_cstart+0x2c>
    8950:	e1530002 	cmp	r3, r2
    8954:	33a02000 	movcc	r2, #0, 0
    8958:	34832004 	strcc	r2, [r3], #4
    895c:	3afffffa 	bcc	894c <_cstart+0xc>
    8960:	ebfffdb3 	bl	8034 <notmain>
    8964:	ebffffea 	bl	8914 <clean_reboot>
    8968:	00008f84 	andeq	r8, r0, r4, lsl #31
    896c:	00009390 	muleq	r0, r0, r3

00008970 <custom_loader>:
    8970:	e12fff1e 	bx	lr

00008974 <at_user_level>:
    8974:	e10f0000 	mrs	r0, CPSR
    8978:	e200001f 	and	r0, r0, #31, 0
    897c:	e3500010 	cmp	r0, #16, 0
    8980:	13a00000 	movne	r0, #0, 0
    8984:	03a00001 	moveq	r0, #1, 0
    8988:	e12fff1e 	bx	lr

0000898c <set_user_level>:
    898c:	e10f3000 	mrs	r3, CPSR
    8990:	e3c3301f 	bic	r3, r3, #31, 0
    8994:	e3833010 	orr	r3, r3, #16, 0
    8998:	e129f003 	msr	CPSR_fc, r3
    899c:	e12fff1e 	bx	lr

000089a0 <rpi_reboot>:
    89a0:	e92d4010 	push	{r4, lr}
    89a4:	ebfffff2 	bl	8974 <at_user_level>
    89a8:	e3500000 	cmp	r0, #0, 0
    89ac:	1a000009 	bne	89d8 <rpi_reboot+0x38>
    89b0:	eb0000a1 	bl	8c3c <uart_flush_tx>
    89b4:	e3a0000a 	mov	r0, #10, 0
    89b8:	eb000027 	bl	8a5c <delay_ms>
    89bc:	e59f101c 	ldr	r1, [pc, #28]	; 89e0 <rpi_reboot+0x40>
    89c0:	e59f001c 	ldr	r0, [pc, #28]	; 89e4 <rpi_reboot+0x44>
    89c4:	ebfffdf3 	bl	8198 <__wrap_PUT32>
    89c8:	e59f1018 	ldr	r1, [pc, #24]	; 89e8 <rpi_reboot+0x48>
    89cc:	e59f0018 	ldr	r0, [pc, #24]	; 89ec <rpi_reboot+0x4c>
    89d0:	ebfffdf0 	bl	8198 <__wrap_PUT32>
    89d4:	eafffffe 	b	89d4 <rpi_reboot+0x34>
    89d8:	ebffffeb 	bl	898c <set_user_level>
    89dc:	eafffff3 	b	89b0 <rpi_reboot+0x10>
    89e0:	5a000001 	bpl	89ec <rpi_reboot+0x4c>
    89e4:	20100024 	andscs	r0, r0, r4, lsr #32
    89e8:	5a000020 	bpl	8a70 <delay_ms+0x14>
    89ec:	2010001c 	andscs	r0, r0, ip, lsl r0

000089f0 <delay_cycles>:
    89f0:	e2403001 	sub	r3, r0, #1, 0
    89f4:	e3500000 	cmp	r0, #0, 0
    89f8:	012fff1e 	bxeq	lr
    89fc:	e2811000 	add	r1, r1, #0, 0
    8a00:	e1a00003 	mov	r0, r3
    8a04:	eafffff9 	b	89f0 <delay_cycles>

00008a08 <timer_get_usec_raw>:
    8a08:	e92d4010 	push	{r4, lr}
    8a0c:	e59f0004 	ldr	r0, [pc, #4]	; 8a18 <timer_get_usec_raw+0x10>
    8a10:	ebfffdf8 	bl	81f8 <__wrap_GET32>
    8a14:	e8bd8010 	pop	{r4, pc}
    8a18:	20003004 	andcs	r3, r0, r4

00008a1c <timer_get_usec>:
    8a1c:	e92d4010 	push	{r4, lr}
    8a20:	eb000019 	bl	8a8c <dev_barrier>
    8a24:	ebfffff7 	bl	8a08 <timer_get_usec_raw>
    8a28:	e1a04000 	mov	r4, r0
    8a2c:	eb000016 	bl	8a8c <dev_barrier>
    8a30:	e1a00004 	mov	r0, r4
    8a34:	e8bd8010 	pop	{r4, pc}

00008a38 <delay_us>:
    8a38:	e92d4070 	push	{r4, r5, r6, lr}
    8a3c:	e1a05000 	mov	r5, r0
    8a40:	ebfffff5 	bl	8a1c <timer_get_usec>
    8a44:	e1a04000 	mov	r4, r0
    8a48:	ebfffff3 	bl	8a1c <timer_get_usec>
    8a4c:	e0400004 	sub	r0, r0, r4
    8a50:	e1500005 	cmp	r0, r5
    8a54:	3afffffb 	bcc	8a48 <delay_us+0x10>
    8a58:	e8bd8070 	pop	{r4, r5, r6, pc}

00008a5c <delay_ms>:
    8a5c:	e92d4010 	push	{r4, lr}
    8a60:	e0603280 	rsb	r3, r0, r0, lsl #5
    8a64:	e0800103 	add	r0, r0, r3, lsl #2
    8a68:	e1a00180 	lsl	r0, r0, #3
    8a6c:	ebfffff1 	bl	8a38 <delay_us>
    8a70:	e8bd8010 	pop	{r4, pc}

00008a74 <delay_sec>:
    8a74:	e92d4010 	push	{r4, lr}
    8a78:	e0603280 	rsb	r3, r0, r0, lsl #5
    8a7c:	e0800103 	add	r0, r0, r3, lsl #2
    8a80:	e1a00180 	lsl	r0, r0, #3
    8a84:	ebfffff4 	bl	8a5c <delay_ms>
    8a88:	e8bd8010 	pop	{r4, pc}

00008a8c <dev_barrier>:
    8a8c:	ea000002 	b	8a9c <dsb>

00008a90 <dmb>:
    8a90:	e3a00000 	mov	r0, #0, 0
    8a94:	ee070fba 	mcr	15, 0, r0, cr7, cr10, {5}
    8a98:	e12fff1e 	bx	lr

00008a9c <dsb>:
    8a9c:	ee070f9a 	mcr	15, 0, r0, cr7, cr10, {4}
    8aa0:	e12fff1e 	bx	lr

00008aa4 <or_in32>:
    8aa4:	e92d4070 	push	{r4, r5, r6, lr}
    8aa8:	e1a04000 	mov	r4, r0
    8aac:	e1a05001 	mov	r5, r1
    8ab0:	ebfffd5d 	bl	802c <GET32>
    8ab4:	e1801005 	orr	r1, r0, r5
    8ab8:	e1a00004 	mov	r0, r4
    8abc:	ebfffd58 	bl	8024 <PUT32>
    8ac0:	e8bd8070 	pop	{r4, r5, r6, pc}

00008ac4 <uart_init>:
    8ac4:	e92d4010 	push	{r4, lr}
    8ac8:	e3a01002 	mov	r1, #2, 0
    8acc:	e3a0000e 	mov	r0, #14, 0
    8ad0:	eb00005e 	bl	8c50 <gpio_set_function>
    8ad4:	e3a01002 	mov	r1, #2, 0
    8ad8:	e3a0000f 	mov	r0, #15, 0
    8adc:	eb00005b 	bl	8c50 <gpio_set_function>
    8ae0:	ebffffe9 	bl	8a8c <dev_barrier>
    8ae4:	e3a01001 	mov	r1, #1, 0
    8ae8:	e59f0064 	ldr	r0, [pc, #100]	; 8b54 <uart_init+0x90>
    8aec:	ebffffec 	bl	8aa4 <or_in32>
    8af0:	ebffffe5 	bl	8a8c <dev_barrier>
    8af4:	e59f405c 	ldr	r4, [pc, #92]	; 8b58 <uart_init+0x94>
    8af8:	e3a01000 	mov	r1, #0, 0
    8afc:	e1a00004 	mov	r0, r4
    8b00:	ebfffd47 	bl	8024 <PUT32>
    8b04:	e3a01000 	mov	r1, #0, 0
    8b08:	e59f004c 	ldr	r0, [pc, #76]	; 8b5c <uart_init+0x98>
    8b0c:	ebfffd44 	bl	8024 <PUT32>
    8b10:	e3a01003 	mov	r1, #3, 0
    8b14:	e59f0044 	ldr	r0, [pc, #68]	; 8b60 <uart_init+0x9c>
    8b18:	ebfffd41 	bl	8024 <PUT32>
    8b1c:	e3a01000 	mov	r1, #0, 0
    8b20:	e59f003c 	ldr	r0, [pc, #60]	; 8b64 <uart_init+0xa0>
    8b24:	ebfffd3e 	bl	8024 <PUT32>
    8b28:	e3a010c7 	mov	r1, #199, 0	; 0xc7
    8b2c:	e59f0034 	ldr	r0, [pc, #52]	; 8b68 <uart_init+0xa4>
    8b30:	ebfffd3b 	bl	8024 <PUT32>
    8b34:	e59f1030 	ldr	r1, [pc, #48]	; 8b6c <uart_init+0xa8>
    8b38:	e59f0030 	ldr	r0, [pc, #48]	; 8b70 <uart_init+0xac>
    8b3c:	ebfffd38 	bl	8024 <PUT32>
    8b40:	e3a01003 	mov	r1, #3, 0
    8b44:	e1a00004 	mov	r0, r4
    8b48:	ebfffd35 	bl	8024 <PUT32>
    8b4c:	ebffffce 	bl	8a8c <dev_barrier>
    8b50:	e8bd8010 	pop	{r4, pc}
    8b54:	20215004 	eorcs	r5, r1, r4
    8b58:	20215060 	eorcs	r5, r1, r0, rrx
    8b5c:	20215044 	eorcs	r5, r1, r4, asr #32
    8b60:	2021504c 	eorcs	r5, r1, ip, asr #32
    8b64:	20215050 	eorcs	r5, r1, r0, asr r0
    8b68:	20215048 	eorcs	r5, r1, r8, asr #32
    8b6c:	0000010e 	andeq	r0, r0, lr, lsl #2
    8b70:	20215068 	eorcs	r5, r1, r8, rrx

00008b74 <uart_can_getc>:
    8b74:	e92d4010 	push	{r4, lr}
    8b78:	e59f0008 	ldr	r0, [pc, #8]	; 8b88 <uart_can_getc+0x14>
    8b7c:	ebfffd2a 	bl	802c <GET32>
    8b80:	e2000001 	and	r0, r0, #1, 0
    8b84:	e8bd8010 	pop	{r4, pc}
    8b88:	20215064 	eorcs	r5, r1, r4, rrx

00008b8c <uart_can_putc>:
    8b8c:	e92d4010 	push	{r4, lr}
    8b90:	e59f0010 	ldr	r0, [pc, #16]	; 8ba8 <uart_can_putc+0x1c>
    8b94:	ebfffd24 	bl	802c <GET32>
    8b98:	e3100002 	tst	r0, #2, 0
    8b9c:	13a00001 	movne	r0, #1, 0
    8ba0:	03a00000 	moveq	r0, #0, 0
    8ba4:	e8bd8010 	pop	{r4, pc}
    8ba8:	20215064 	eorcs	r5, r1, r4, rrx

00008bac <uart_getc>:
    8bac:	e92d4010 	push	{r4, lr}
    8bb0:	ebffffb5 	bl	8a8c <dev_barrier>
    8bb4:	ebffffee 	bl	8b74 <uart_can_getc>
    8bb8:	e3500000 	cmp	r0, #0, 0
    8bbc:	0afffffc 	beq	8bb4 <uart_getc+0x8>
    8bc0:	e59f0010 	ldr	r0, [pc, #16]	; 8bd8 <uart_getc+0x2c>
    8bc4:	ebfffd18 	bl	802c <GET32>
    8bc8:	e6ef4070 	uxtb	r4, r0
    8bcc:	ebffffae 	bl	8a8c <dev_barrier>
    8bd0:	e1a00004 	mov	r0, r4
    8bd4:	e8bd8010 	pop	{r4, pc}
    8bd8:	20215040 	eorcs	r5, r1, r0, asr #32

00008bdc <uart_putc>:
    8bdc:	e92d4010 	push	{r4, lr}
    8be0:	e1a04000 	mov	r4, r0
    8be4:	ebffffa8 	bl	8a8c <dev_barrier>
    8be8:	ebffffe7 	bl	8b8c <uart_can_putc>
    8bec:	e3500000 	cmp	r0, #0, 0
    8bf0:	0afffffc 	beq	8be8 <uart_putc+0xc>
    8bf4:	e6ef1074 	uxtb	r1, r4
    8bf8:	e59f0008 	ldr	r0, [pc, #8]	; 8c08 <uart_putc+0x2c>
    8bfc:	ebfffd08 	bl	8024 <PUT32>
    8c00:	ebffffa1 	bl	8a8c <dev_barrier>
    8c04:	e8bd8010 	pop	{r4, pc}
    8c08:	20215040 	eorcs	r5, r1, r0, asr #32

00008c0c <uart_has_data>:
    8c0c:	e92d4010 	push	{r4, lr}
    8c10:	ebffff9d 	bl	8a8c <dev_barrier>
    8c14:	ebffffd6 	bl	8b74 <uart_can_getc>
    8c18:	e8bd8010 	pop	{r4, pc}

00008c1c <uart_tx_is_empty>:
    8c1c:	e92d4010 	push	{r4, lr}
    8c20:	ebffff99 	bl	8a8c <dev_barrier>
    8c24:	e59f000c 	ldr	r0, [pc, #12]	; 8c38 <uart_tx_is_empty+0x1c>
    8c28:	ebfffcff 	bl	802c <GET32>
    8c2c:	e1a004a0 	lsr	r0, r0, #9
    8c30:	e2000001 	and	r0, r0, #1, 0
    8c34:	e8bd8010 	pop	{r4, pc}
    8c38:	20215064 	eorcs	r5, r1, r4, rrx

00008c3c <uart_flush_tx>:
    8c3c:	e92d4010 	push	{r4, lr}
    8c40:	ebfffff5 	bl	8c1c <uart_tx_is_empty>
    8c44:	e3500000 	cmp	r0, #0, 0
    8c48:	0afffffc 	beq	8c40 <uart_flush_tx+0x4>
    8c4c:	e8bd8010 	pop	{r4, pc}

00008c50 <gpio_set_function>:
    8c50:	e92d41f0 	push	{r4, r5, r6, r7, r8, lr}
    8c54:	e1a04000 	mov	r4, r0
    8c58:	e1a06001 	mov	r6, r1
    8c5c:	e59f503c 	ldr	r5, [pc, #60]	; 8ca0 <gpio_set_function+0x50>
    8c60:	e0853095 	umull	r3, r5, r5, r0
    8c64:	e1a051a5 	lsr	r5, r5, #3
    8c68:	e2857302 	add	r7, r5, #134217728	; 0x8000000
    8c6c:	e2877702 	add	r7, r7, #524288	; 0x80000
    8c70:	e1a07107 	lsl	r7, r7, #2
    8c74:	e1a00007 	mov	r0, r7
    8c78:	ebfffd5e 	bl	81f8 <__wrap_GET32>
    8c7c:	e0855105 	add	r5, r5, r5, lsl #2
    8c80:	e0445085 	sub	r5, r4, r5, lsl #1
    8c84:	e0855085 	add	r5, r5, r5, lsl #1
    8c88:	e3a01007 	mov	r1, #7, 0
    8c8c:	e1c01511 	bic	r1, r0, r1, lsl r5
    8c90:	e1811516 	orr	r1, r1, r6, lsl r5
    8c94:	e1a00007 	mov	r0, r7
    8c98:	ebfffd3e 	bl	8198 <__wrap_PUT32>
    8c9c:	e8bd81f0 	pop	{r4, r5, r6, r7, r8, pc}
    8ca0:	cccccccd 	stclgt	12, cr12, [ip], {205}	; 0xcd

00008ca4 <gpio_set_output>:
    8ca4:	e92d4010 	push	{r4, lr}
    8ca8:	e3a01001 	mov	r1, #1, 0
    8cac:	ebffffe7 	bl	8c50 <gpio_set_function>
    8cb0:	e8bd8010 	pop	{r4, pc}

00008cb4 <gpio_set_on>:
    8cb4:	e92d4010 	push	{r4, lr}
    8cb8:	e3a01001 	mov	r1, #1, 0
    8cbc:	e1a01011 	lsl	r1, r1, r0
    8cc0:	e59f0004 	ldr	r0, [pc, #4]	; 8ccc <gpio_set_on+0x18>
    8cc4:	ebfffd33 	bl	8198 <__wrap_PUT32>
    8cc8:	e8bd8010 	pop	{r4, pc}
    8ccc:	2020001c 	eorcs	r0, r0, ip, lsl r0

00008cd0 <gpio_set_off>:
    8cd0:	e92d4010 	push	{r4, lr}
    8cd4:	e3a01001 	mov	r1, #1, 0
    8cd8:	e1a01011 	lsl	r1, r1, r0
    8cdc:	e59f0004 	ldr	r0, [pc, #4]	; 8ce8 <gpio_set_off+0x18>
    8ce0:	ebfffd2c 	bl	8198 <__wrap_PUT32>
    8ce4:	e8bd8010 	pop	{r4, pc}
    8ce8:	20200028 	eorcs	r0, r0, r8, lsr #32

00008cec <gpio_write>:
    8cec:	e92d4010 	push	{r4, lr}
    8cf0:	e3510000 	cmp	r1, #0, 0
    8cf4:	0a000001 	beq	8d00 <gpio_write+0x14>
    8cf8:	ebffffed 	bl	8cb4 <gpio_set_on>
    8cfc:	e8bd8010 	pop	{r4, pc}
    8d00:	ebfffff2 	bl	8cd0 <gpio_set_off>
    8d04:	e8bd8010 	pop	{r4, pc}

00008d08 <gpio_set_input>:
    8d08:	e92d4010 	push	{r4, lr}
    8d0c:	e3a01000 	mov	r1, #0, 0
    8d10:	ebffffce 	bl	8c50 <gpio_set_function>
    8d14:	e8bd8010 	pop	{r4, pc}

00008d18 <gpio_read>:
    8d18:	e92d4010 	push	{r4, lr}
    8d1c:	e1a04000 	mov	r4, r0
    8d20:	e59f000c 	ldr	r0, [pc, #12]	; 8d34 <gpio_read+0x1c>
    8d24:	ebfffd33 	bl	81f8 <__wrap_GET32>
    8d28:	e3a03001 	mov	r3, #1, 0
    8d2c:	e0000413 	and	r0, r0, r3, lsl r4
    8d30:	e8bd8010 	pop	{r4, pc}
    8d34:	20200034 	eorcs	r0, r0, r4, lsr r0

00008d38 <internal_putchar>:
    8d38:	e92d4010 	push	{r4, lr}
    8d3c:	e1a04000 	mov	r4, r0
    8d40:	ebffffa5 	bl	8bdc <uart_putc>
    8d44:	e1a00004 	mov	r0, r4
    8d48:	e8bd8010 	pop	{r4, pc}

00008d4c <rpi_reset_putc>:
    8d4c:	e59f3008 	ldr	r3, [pc, #8]	; 8d5c <rpi_reset_putc+0x10>
    8d50:	e59f2008 	ldr	r2, [pc, #8]	; 8d60 <rpi_reset_putc+0x14>
    8d54:	e5832000 	str	r2, [r3]
    8d58:	e12fff1e 	bx	lr
    8d5c:	00008f80 	andeq	r8, r0, r0, lsl #31
    8d60:	00008d38 	andeq	r8, r0, r8, lsr sp

00008d64 <rpi_set_putc>:
    8d64:	e59f3004 	ldr	r3, [pc, #4]	; 8d70 <rpi_set_putc+0xc>
    8d68:	e5830000 	str	r0, [r3]
    8d6c:	e12fff1e 	bx	lr
    8d70:	00008f80 	andeq	r8, r0, r0, lsl #31

00008d74 <strcat>:
    8d74:	e1a02000 	mov	r2, r0
    8d78:	e1a03002 	mov	r3, r2
    8d7c:	e2822001 	add	r2, r2, #1, 0
    8d80:	e5d3c000 	ldrb	ip, [r3]
    8d84:	e35c0000 	cmp	ip, #0, 0
    8d88:	1afffffa 	bne	8d78 <strcat+0x4>
    8d8c:	e2433001 	sub	r3, r3, #1, 0
    8d90:	e5d12000 	ldrb	r2, [r1]
    8d94:	e2811001 	add	r1, r1, #1, 0
    8d98:	e5e32001 	strb	r2, [r3, #1]!
    8d9c:	e3520000 	cmp	r2, #0, 0
    8da0:	1afffffa 	bne	8d90 <strcat+0x1c>
    8da4:	e12fff1e 	bx	lr

00008da8 <strncmp>:
    8da8:	e3520000 	cmp	r2, #0, 0
    8dac:	e2422001 	sub	r2, r2, #1, 0
    8db0:	0a000005 	beq	8dcc <strncmp+0x24>
    8db4:	e4d03001 	ldrb	r3, [r0], #1
    8db8:	e4d1c001 	ldrb	ip, [r1], #1
    8dbc:	e153000c 	cmp	r3, ip
    8dc0:	0afffff8 	beq	8da8 <strncmp>
    8dc4:	e043000c 	sub	r0, r3, ip
    8dc8:	e12fff1e 	bx	lr
    8dcc:	e3a00000 	mov	r0, #0, 0
    8dd0:	e12fff1e 	bx	lr

00008dd4 <__code_end__>:
    8dd4:	00000000 	andeq	r0, r0, r0

Disassembly of section .rodata:

00008dd8 <__FUNCTION__.3935-0x74>:
    8dd8:	43415254 	movtmi	r5, #4692	; 0x1254
    8ddc:	55503a45 	ldrbpl	r3, [r0, #-2629]	; 0xfffff5bb
    8de0:	28323354 	ldmdacs	r2!, {r2, r4, r6, r8, r9, ip, sp}
    8de4:	3d297825 	stccc	8, cr7, [r9, #-148]!	; 0xffffff6c
    8de8:	000a7825 	andeq	r7, sl, r5, lsr #16
    8dec:	43415254 	movtmi	r5, #4692	; 0x1254
    8df0:	45473a45 	strbmi	r3, [r7, #-2629]	; 0xfffff5bb
    8df4:	28323354 	ldmdacs	r2!, {r2, r4, r6, r8, r9, ip, sp}
    8df8:	3d297825 	stccc	8, cr7, [r9, #-148]!	; 0xffffff6c
    8dfc:	000a7825 	andeq	r7, sl, r5, lsr #16
    8e00:	63617274 	cmnvs	r1, #116, 4	; 0x40000007
    8e04:	69732d65 	ldmdbvs	r3!, {r0, r2, r5, r6, r8, sl, fp, sp}^
    8e08:	656c706d 	strbvs	r7, [ip, #-109]!	; 0xffffff93
    8e0c:	0000632e 	andeq	r6, r0, lr, lsr #6
    8e10:	494e4150 	stmdbmi	lr, {r4, r6, r8, lr}^
    8e14:	73253a43 			; <UNDEFINED> instruction: 0x73253a43
    8e18:	3a73253a 	bcc	1cd2308 <__bss_end__+0x1cc8f78>
    8e1c:	253a6425 	ldrcs	r6, [sl, #-1061]!	; 0xfffffbdb
    8e20:	00000a73 	andeq	r0, r0, r3, ror sl
    8e24:	74617473 	strbtvc	r7, [r1], #-1139	; 0xfffffb8d
    8e28:	3d3d2065 	ldccc	0, cr2, [sp, #-404]!	; 0xfffffe6c
    8e2c:	41525420 	cmpmi	r2, r0, lsr #8
    8e30:	4f5f4543 	svcmi	0x005f4543
    8e34:	00004646 	andeq	r4, r0, r6, asr #12
    8e38:	74617473 	strbtvc	r7, [r1], #-1139	; 0xfffffb8d
    8e3c:	3d3d2065 	ldccc	0, cr2, [sp, #-404]!	; 0xfffffe6c
    8e40:	41525420 	cmpmi	r2, r0, lsr #8
    8e44:	4f5f4543 	svcmi	0x005f4543
    8e48:	0000004e 	andeq	r0, r0, lr, asr #32

00008e4c <__FUNCTION__.3935>:
    8e4c:	63617274 	cmnvs	r1, #116, 4	; 0x40000007
    8e50:	74735f65 	ldrbtvc	r5, [r3], #-3941	; 0xfffff09b
    8e54:	00747261 	rsbseq	r7, r4, r1, ror #4

00008e58 <__FUNCTION__.3939>:
    8e58:	63617274 	cmnvs	r1, #116, 4	; 0x40000007
    8e5c:	74735f65 	ldrbtvc	r5, [r3], #-3941	; 0xfffff09b
    8e60:	0000706f 	andeq	r7, r0, pc, rrx
    8e64:	6362696c 	cmnvs	r2, #108, 18	; 0x1b0000
    8e68:	2d61762f 	stclcs	6, cr7, [r1, #-188]!	; 0xffffff44
    8e6c:	6e697270 	mcrvs	2, 3, r7, cr9, cr0, {3}
    8e70:	632e6b74 			; <UNDEFINED> instruction: 0x632e6b74
    8e74:	00000000 	andeq	r0, r0, r0
    8e78:	00000030 	andeq	r0, r0, r0, lsr r0
    8e7c:	33323130 	teqcc	r2, #12
    8e80:	37363534 			; <UNDEFINED> instruction: 0x37363534
    8e84:	00003938 	andeq	r3, r0, r8, lsr r9
    8e88:	33323130 	teqcc	r2, #12
    8e8c:	37363534 			; <UNDEFINED> instruction: 0x37363534
    8e90:	62613938 	rsbvs	r3, r1, #56, 18	; 0xe0000
    8e94:	66656463 	strbtvs	r6, [r5], -r3, ror #8
    8e98:	00000000 	andeq	r0, r0, r0
    8e9c:	00003130 	andeq	r3, r0, r0, lsr r1
    8ea0:	63747570 	cmnvs	r4, #112, 10	; 0x1c000000
    8ea4:	0070665f 	rsbseq	r6, r0, pc, asr r6
    8ea8:	74646977 	strbtvc	r6, [r4], #-2423	; 0xfffff689
    8eac:	203c2068 	eorscs	r2, ip, r8, rrx
    8eb0:	00003233 	andeq	r3, r0, r3, lsr r2
    8eb4:	00786c6c 	rsbseq	r6, r8, ip, ror #24
    8eb8:	6e727473 	mrcvs	4, 3, r7, cr2, cr3, {3}
    8ebc:	28706d63 	ldmdacs	r0!, {r0, r1, r5, r6, r8, sl, fp, sp, lr}^
    8ec0:	2c746d66 	ldclcs	13, cr6, [r4], #-408	; 0xfffffe68
    8ec4:	6c6c2220 	sfmvs	f2, 2, [ip], #-128	; 0xffffff80
    8ec8:	202c2278 	eorcs	r2, ip, r8, ror r2
    8ecc:	3d202933 			; <UNDEFINED> instruction: 0x3d202933
    8ed0:	0030203d 	eorseq	r2, r0, sp, lsr r0
    8ed4:	494e4150 	stmdbmi	lr, {r4, r6, r8, lr}^
    8ed8:	73253a43 			; <UNDEFINED> instruction: 0x73253a43
    8edc:	3a73253a 	bcc	1cd23cc <__bss_end__+0x1cc903c>
    8ee0:	663a6425 	ldrtvs	r6, [sl], -r5, lsr #8
    8ee4:	74616f6c 	strbtvc	r6, [r1], #-3948	; 0xfffff094
    8ee8:	746f6e20 	strbtvc	r6, [pc], #-3616	; 8ef0 <__FUNCTION__.3939+0x98>
    8eec:	616e6520 	cmnvs	lr, r0, lsr #10
    8ef0:	64656c62 	strbtvs	r6, [r5], #-3170	; 0xfffff39e
    8ef4:	0a212121 	beq	851380 <__bss_end__+0x847ff0>
    8ef8:	00000000 	andeq	r0, r0, r0
    8efc:	6e697270 	mcrvs	2, 3, r7, cr9, cr0, {3}
    8f00:	203a6b74 	eorscs	r6, sl, r4, ror fp
    8f04:	20746f6e 	rsbscs	r6, r4, lr, ror #30
    8f08:	646e6168 	strbtvs	r6, [lr], #-360	; 0xfffffe98
    8f0c:	676e696c 	strbvs	r6, [lr, -ip, ror #18]!
    8f10:	65707320 	ldrbvs	r7, [r0, #-800]!	; 0xfffffce0
    8f14:	69666963 	stmdbvs	r6!, {r0, r1, r5, r6, r8, fp, sp, lr}^
    8f18:	27207265 	strcs	r7, [r0, -r5, ror #4]!
    8f1c:	20276325 	eorcs	r6, r7, r5, lsr #6
    8f20:	63736128 	cmnvs	r3, #10
    8f24:	253d6969 	ldrcs	r6, [sp, #-2409]!	; 0xfffff697
    8f28:	000a2964 	andeq	r2, sl, r4, ror #18
    8f2c:	494e4150 	stmdbmi	lr, {r4, r6, r8, lr}^
    8f30:	73253a43 			; <UNDEFINED> instruction: 0x73253a43
    8f34:	3a73253a 	bcc	1cd2424 <__bss_end__+0x1cc9094>
    8f38:	703a6425 	eorsvc	r6, sl, r5, lsr #8
    8f3c:	746e6972 	strbtvc	r6, [lr], #-2418	; 0xfffff68e
    8f40:	7265206b 	rsbvc	r2, r5, #107, 0	; 0x6b
    8f44:	0a726f72 	beq	1ca4d14 <__bss_end__+0x1c9b984>
    8f48:	0000000a 	andeq	r0, r0, sl

00008f4c <__FUNCTION__.3978>:
    8f4c:	74696d65 	strbtvc	r6, [r9], #-3429	; 0xfffff29b
    8f50:	00000000 	andeq	r0, r0, r0

00008f54 <__FUNCTION__.3926>:
    8f54:	5f697072 	svcpl	0x00697072
    8f58:	5f746573 	svcpl	0x00746573
    8f5c:	7074756f 	rsbsvc	r7, r4, pc, ror #10
    8f60:	00007475 	andeq	r7, r0, r5, ror r4

00008f64 <__FUNCTION__.4004>:
    8f64:	705f6176 	subsvc	r6, pc, r6, ror r1	; <UNPREDICTABLE>
    8f68:	746e6972 	strbtvc	r6, [lr], #-2418	; 0xfffff68e
    8f6c:	0000006b 	andeq	r0, r0, fp, rrx
    8f70:	454e4f44 	strbmi	r4, [lr, #-3908]	; 0xfffff0bc
    8f74:	0a212121 	beq	851400 <__bss_end__+0x848070>
	...

Disassembly of section .data:

00008f7c <putk>:
    8f7c:	000082b4 			; <UNDEFINED> instruction: 0x000082b4

00008f80 <rpi_putchar>:
    8f80:	00008d38 	andeq	r8, r0, r8, lsr sp

Disassembly of section .bss:

00008f84 <__bss_start__>:
    8f84:	00000000 	andeq	r0, r0, r0

00008f88 <buf.3918>:
	...

00009388 <within_printk_operation>:
	...

Disassembly of section .ARM.attributes:

00000000 <.ARM.attributes>:
   0:	00002a41 	andeq	r2, r0, r1, asr #20
   4:	61656100 	cmnvs	r5, r0, lsl #2
   8:	01006962 	tsteq	r0, r2, ror #18
   c:	00000020 	andeq	r0, r0, r0, lsr #32
  10:	4b5a3605 	blmi	168d82c <__bss_end__+0x168449c>
  14:	08070600 	stmdaeq	r7, {r9, sl}
  18:	12010901 	andne	r0, r1, #16384	; 0x4000
  1c:	15011404 	strne	r1, [r1, #-1028]	; 0xfffffbfc
  20:	18031701 	stmdane	r3, {r0, r8, r9, sl, ip}
  24:	22011a01 	andcs	r1, r1, #4096	; 0x1000
  28:	Address 0x0000000000000028 is out of bounds.


Disassembly of section .comment:

00000000 <.comment>:
   0:	3a434347 	bcc	10d0d24 <__bss_end__+0x10c7994>
   4:	4e472820 	cdpmi	8, 4, cr2, cr7, cr0, {1}
   8:	6f542055 	svcvs	0x00542055
   c:	20736c6f 	rsbscs	r6, r3, pc, ror #24
  10:	20726f66 	rsbscs	r6, r2, r6, ror #30
  14:	206d7241 	rsbcs	r7, sp, r1, asr #4
  18:	65626d45 	strbvs	r6, [r2, #-3397]!	; 0xfffff2bb
  1c:	64656464 	strbtvs	r6, [r5], #-1124	; 0xfffffb9c
  20:	6f725020 	svcvs	0x00725020
  24:	73736563 	cmnvc	r3, #415236096	; 0x18c00000
  28:	2073726f 	rsbscs	r7, r3, pc, ror #4
  2c:	30322d39 	eorscc	r2, r2, r9, lsr sp
  30:	712d3931 			; <UNDEFINED> instruction: 0x712d3931
  34:	616d2d34 	cmnvs	sp, r4, lsr sp
  38:	29726f6a 	ldmdbcs	r2!, {r1, r3, r5, r6, r8, r9, sl, fp, sp, lr}^
  3c:	322e3920 	eorcc	r3, lr, #32, 18	; 0x80000
  40:	3220312e 	eorcc	r3, r0, #-2147483637	; 0x8000000b
  44:	31393130 	teqcc	r9, r0, lsr r1
  48:	20353230 	eorscs	r3, r5, r0, lsr r2
  4c:	6c657228 	sfmvs	f7, 2, [r5], #-160	; 0xffffff60
  50:	65736165 	ldrbvs	r6, [r3, #-357]!	; 0xfffffe9b
  54:	415b2029 	cmpmi	fp, r9, lsr #32
  58:	612f4d52 			; <UNDEFINED> instruction: 0x612f4d52
  5c:	392d6d72 	pushcc	{r1, r4, r5, r6, r8, sl, fp, sp, lr}
  60:	6172622d 	cmnvs	r2, sp, lsr #4
  64:	2068636e 	rsbcs	r6, r8, lr, ror #6
  68:	69766572 	ldmdbvs	r6!, {r1, r4, r5, r6, r8, sl, sp, lr}^
  6c:	6e6f6973 			; <UNDEFINED> instruction: 0x6e6f6973
  70:	37373220 	ldrcc	r3, [r7, -r0, lsr #4]!
  74:	5d393935 			; <UNDEFINED> instruction: 0x5d393935
  78:	43434700 	movtmi	r4, #14080	; 0x3700
  7c:	3128203a 			; <UNDEFINED> instruction: 0x3128203a
  80:	2d393a35 	vldmdbcs	r9!, {s6-s58}
  84:	39313032 	ldmdbcc	r1!, {r1, r4, r5, ip, sp}
  88:	2d34712d 	ldfcss	f7, [r4, #-180]!	; 0xffffff4c
  8c:	75627530 	strbvc	r7, [r2, #-1328]!	; 0xfffffad0
  90:	3175746e 	cmncc	r5, lr, ror #8
  94:	2e392029 	cdpcs	0, 3, cr2, cr9, cr9, {1}
  98:	20312e32 	eorscs	r2, r1, r2, lsr lr
  9c:	39313032 	ldmdbcc	r1!, {r1, r4, r5, ip, sp}
  a0:	35323031 	ldrcc	r3, [r2, #-49]!	; 0xffffffcf
  a4:	65722820 	ldrbvs	r2, [r2, #-2080]!	; 0xfffff7e0
  a8:	7361656c 	cmnvc	r1, #108, 10	; 0x1b000000
  ac:	5b202965 	blpl	80a648 <__bss_end__+0x8012b8>
  b0:	2f4d5241 	svccs	0x004d5241
  b4:	2d6d7261 	sfmcs	f7, 2, [sp, #-388]!	; 0xfffffe7c
  b8:	72622d39 	rsbvc	r2, r2, #3648	; 0xe40
  bc:	68636e61 	stmdavs	r3!, {r0, r5, r6, r9, sl, fp, sp, lr}^
  c0:	76657220 	strbtvc	r7, [r5], -r0, lsr #4
  c4:	6f697369 	svcvs	0x00697369
  c8:	3732206e 	ldrcc	r2, [r2, -lr, rrx]!
  cc:	39393537 	ldmdbcc	r9!, {r0, r1, r2, r4, r5, r8, sl, ip, sp}
  d0:	Address 0x00000000000000d0 is out of bounds.


Disassembly of section .debug_info:

00000000 <.debug_info>:
       0:	00000232 	andeq	r0, r0, r2, lsr r2
       4:	00000004 	andeq	r0, r0, r4
       8:	01040000 	mrseq	r0, (UNDEF: 4)
       c:	0000011a 	andeq	r0, r0, sl, lsl r1
      10:	0000650c 	andeq	r6, r0, ip, lsl #10
      14:	00001800 	andeq	r1, r0, r0, lsl #16
      18:	00803400 	addeq	r3, r0, r0, lsl #8
      1c:	00007400 	andeq	r7, r0, r0, lsl #8
      20:	00000000 	andeq	r0, r0, r0
      24:	05040200 	streq	r0, [r4, #-512]	; 0xfffffe00
      28:	00746e69 	rsbseq	r6, r4, r9, ror #28
      2c:	e9070403 	stmdb	r7, {r0, r1, sl}
      30:	03000000 	movweq	r0, #0
      34:	00760601 	rsbseq	r0, r6, r1, lsl #12
      38:	02030000 	andeq	r0, r3, #0, 0
      3c:	00011005 	andeq	r1, r1, r5
      40:	05040300 	streq	r0, [r4, #-768]	; 0xfffffd00
      44:	000000fb 	strdeq	r0, [r0], -fp
      48:	f6050803 			; <UNDEFINED> instruction: 0xf6050803
      4c:	03000000 	movweq	r0, #0
      50:	00740801 	rsbseq	r0, r4, r1, lsl #16
      54:	02030000 	andeq	r0, r3, #0, 0
      58:	00009b07 	andeq	r9, r0, r7, lsl #22
      5c:	07040300 	streq	r0, [r4, -r0, lsl #6]
      60:	000000e4 	andeq	r0, r0, r4, ror #1
      64:	df070803 	svcle	0x00070803
      68:	04000000 	streq	r0, [r0], #-0
      6c:	00000025 	andeq	r0, r0, r5, lsr #32
      70:	0000007a 	andeq	r0, r0, sl, ror r0
      74:	00002505 	andeq	r2, r0, r5, lsl #10
      78:	04060000 	streq	r0, [r6], #-0
      7c:	02000001 	andeq	r0, r0, #1, 0
      80:	00860e1c 	addeq	r0, r6, ip, lsl lr
      84:	04070000 	streq	r0, [r7], #-0
      88:	0000006b 	andeq	r0, r0, fp, rrx
      8c:	00002504 	andeq	r2, r0, r4, lsl #10
      90:	00009b00 	andeq	r9, r0, r0, lsl #22
      94:	009b0500 	addseq	r0, fp, r0, lsl #10
      98:	07000000 	streq	r0, [r0, -r0]
      9c:	0000a804 	andeq	sl, r0, r4, lsl #16
      a0:	08010300 	stmdaeq	r1, {r8, r9}
      a4:	0000007d 	andeq	r0, r0, sp, ror r0
      a8:	0000a108 	andeq	sl, r0, r8, lsl #2
      ac:	03590600 	cmpeq	r9, #0, 12
      b0:	21020000 	mrscs	r0, (UNDEF: 2)
      b4:	0000b90e 	andeq	fp, r0, lr, lsl #18
      b8:	8c040700 	stchi	7, cr0, [r4], {-0}
      bc:	09000000 	stmdbeq	r0, {}	; <UNPREDICTABLE>
      c0:	000001cf 	andeq	r0, r0, pc, asr #3
      c4:	34060501 	strcc	r0, [r6], #-1281	; 0xfffffaff
      c8:	74000080 	strvc	r0, [r0], #-128	; 0xffffff80
      cc:	01000000 	mrseq	r0, (UNDEF: 0)
      d0:	0001d59c 	muleq	r1, ip, r5
      d4:	01070a00 	tsteq	r7, r0, lsl #20
      d8:	0000004f 	andeq	r0, r0, pc, asr #32
      dc:	f00a0601 			; <UNDEFINED> instruction: 0xf00a0601
      e0:	0b000000 	bleq	e8 <__code_start__-0x7f18>
      e4:	000000d5 	ldrdeq	r0, [r0], -r5
      e8:	00da0b14 	sbcseq	r0, sl, r4, lsl fp
      ec:	00150000 	andseq	r0, r5, r0
      f0:	0080540c 	addeq	r5, r0, ip, lsl #8
      f4:	00004800 	andeq	r4, r0, r0, lsl #16
      f8:	00018000 	andeq	r8, r1, r0
      fc:	00690d00 	rsbeq	r0, r9, r0, lsl #26
     100:	250d0e01 	strcs	r0, [sp, #-3585]	; 0xfffff1ff
     104:	04000000 	streq	r0, [r0], #-0
     108:	00000000 	andeq	r0, r0, r0
     10c:	0e000000 	cdpeq	0, 0, cr0, cr0, cr0, {0}
     110:	00008068 	andeq	r8, r0, r8, rrx
     114:	000001d5 	ldrdeq	r0, [r0], -r5
     118:	00000122 	andeq	r0, r0, r2, lsr #2
     11c:	0150010f 	cmpeq	r0, pc, lsl #2
     120:	700e0044 	andvc	r0, lr, r4, asr #32
     124:	e1000080 	smlabb	r0, r0, r0, r0
     128:	35000001 	strcc	r0, [r0, #-1]
     12c:	0f000001 	svceq	0x00000001
     130:	45015001 	strmi	r5, [r1, #-1]
     134:	807c0e00 	rsbshi	r0, ip, r0, lsl #28
     138:	01ed0000 	mvneq	r0, r0
     13c:	01490000 	mrseq	r0, (UNDEF: 73)
     140:	010f0000 	mrseq	r0, CPSR
     144:	00750250 	rsbseq	r0, r5, r0, asr r2
     148:	80840e00 	addhi	r0, r4, r0, lsl #28
     14c:	01e10000 	mvneq	r0, r0
     150:	015c0000 	cmpeq	ip, r0
     154:	010f0000 	mrseq	r0, CPSR
     158:	00440150 	subeq	r0, r4, r0, asr r1
     15c:	00808c0e 	addeq	r8, r0, lr, lsl #24
     160:	0001d500 	andeq	sp, r1, r0, lsl #10
     164:	00016f00 	andeq	r6, r1, r0, lsl #30
     168:	50010f00 	andpl	r0, r1, r0, lsl #30
     16c:	10004501 	andne	r4, r0, r1, lsl #10
     170:	00008094 	muleq	r0, r4, r0
     174:	000001ed 	andeq	r0, r0, sp, ror #3
     178:	0250010f 	subseq	r0, r0, #-1073741821	; 0xc0000003
     17c:	00000075 	andeq	r0, r0, r5, ror r0
     180:	00803c11 	addeq	r3, r0, r1, lsl ip
     184:	0001f900 	andeq	pc, r1, r0, lsl #18
     188:	80440e00 	subhi	r0, r4, r0, lsl #28
     18c:	02050000 	andeq	r0, r5, #0, 0
     190:	019c0000 	orrseq	r0, ip, r0
     194:	010f0000 	mrseq	r0, CPSR
     198:	00300150 	eorseq	r0, r0, r0, asr r1
     19c:	00804c0e 	addeq	r4, r0, lr, lsl #24
     1a0:	00021100 	andeq	r1, r2, r0, lsl #2
     1a4:	0001af00 	andeq	sl, r1, r0, lsl #30
     1a8:	50010f00 	andpl	r0, r1, r0, lsl #30
     1ac:	0e004401 	cdpeq	4, 0, cr4, cr0, cr1, {0}
     1b0:	00008054 	andeq	r8, r0, r4, asr r0
     1b4:	00000211 	andeq	r0, r0, r1, lsl r2
     1b8:	000001c2 	andeq	r0, r0, r2, asr #3
     1bc:	0150010f 	cmpeq	r0, pc, lsl #2
     1c0:	a0110045 	andsge	r0, r1, r5, asr #32
     1c4:	1d000080 	stcne	0, cr0, [r0, #-512]	; 0xfffffe00
     1c8:	11000002 	tstne	r0, r2
     1cc:	000080a4 	andeq	r8, r0, r4, lsr #1
     1d0:	00000229 	andeq	r0, r0, r9, lsr #4
     1d4:	01d71200 	bicseq	r1, r7, r0, lsl #4
     1d8:	01d70000 	bicseq	r0, r7, r0
     1dc:	27030000 	strcs	r0, [r3, -r0]
     1e0:	00ae1206 	adceq	r1, lr, r6, lsl #4
     1e4:	00ae0000 	adceq	r0, lr, r0
     1e8:	2a030000 	bcs	c01f0 <__bss_end__+0xb6e60>
     1ec:	00001206 	andeq	r1, r0, r6, lsl #4
     1f0:	00000000 	andeq	r0, r0, r0
     1f4:	4d020000 	stcmi	0, cr0, [r2, #-0]
     1f8:	00cb1206 	sbceq	r1, fp, r6, lsl #4
     1fc:	00cb0000 	sbceq	r0, fp, r0
     200:	39020000 	stmdbcc	r2, {}	; <UNPREDICTABLE>
     204:	008f1206 	addeq	r1, pc, r6, lsl #4
     208:	008f0000 	addeq	r0, pc, r0
     20c:	0b040000 	bleq	100214 <__bss_end__+0xf6e84>
     210:	00bb1206 	adcseq	r1, fp, r6, lsl #4
     214:	00bb0000 	adcseq	r0, fp, r0
     218:	1d030000 	stcne	0, cr0, [r3, #-0]
     21c:	000d1206 	andeq	r1, sp, r6, lsl #4
     220:	000d0000 	andeq	r0, sp, r0
     224:	0f040000 	svceq	0x00040000
     228:	00821206 	addeq	r1, r2, r6, lsl #4
     22c:	00820000 	addeq	r0, r2, r0
     230:	67020000 	strvs	r0, [r2, -r0]
     234:	03d80006 	bicseq	r0, r8, #6, 0
     238:	00040000 	andeq	r0, r4, r0
     23c:	000000f8 	strdeq	r0, [r0], -r8
     240:	011a0104 	tsteq	sl, r4, lsl #2
     244:	570c0000 	strpl	r0, [ip, -r0]
     248:	91000002 	tstls	r0, r2
     24c:	a8000002 	stmdage	r0, {r1}
     250:	b4000080 	strlt	r0, [r0], #-128	; 0xffffff80
     254:	f9000001 			; <UNDEFINED> instruction: 0xf9000001
     258:	02000000 	andeq	r0, r0, #0, 0
     25c:	6e690504 	cdpvs	5, 6, cr0, cr9, cr4, {0}
     260:	04030074 	streq	r0, [r3], #-116	; 0xffffff8c
     264:	0000e907 	andeq	lr, r0, r7, lsl #18
     268:	06010300 	streq	r0, [r1], -r0, lsl #6
     26c:	00000076 	andeq	r0, r0, r6, ror r0
     270:	10050203 	andne	r0, r5, r3, lsl #4
     274:	03000001 	movweq	r0, #1
     278:	00fb0504 	rscseq	r0, fp, r4, lsl #10
     27c:	08030000 	stmdaeq	r3, {}	; <UNPREDICTABLE>
     280:	0000f605 	andeq	pc, r0, r5, lsl #12
     284:	08010300 	stmdaeq	r1, {r8, r9}
     288:	00000074 	andeq	r0, r0, r4, ror r0
     28c:	9b070203 	blls	1c0aa0 <__bss_end__+0x1b7710>
     290:	04000000 	streq	r0, [r0], #-0
     294:	00000270 	andeq	r0, r0, r0, ror r2
     298:	69193403 	ldmdbvs	r9, {r0, r1, sl, ip, sp}
     29c:	03000000 	movweq	r0, #0
     2a0:	00e40704 	rsceq	r0, r4, r4, lsl #14
     2a4:	08030000 	stmdaeq	r3, {}	; <UNPREDICTABLE>
     2a8:	0000df07 	andeq	sp, r0, r7, lsl #30
     2ac:	00250500 	eoreq	r0, r5, r0, lsl #10
     2b0:	00860000 	addeq	r0, r6, r0
     2b4:	25060000 	strcs	r0, [r6, #-0]
     2b8:	00000000 	andeq	r0, r0, r0
     2bc:	00010407 	andeq	r0, r1, r7, lsl #8
     2c0:	0e1c0200 	cdpeq	2, 1, cr0, cr12, cr0, {0}
     2c4:	00000092 	muleq	r0, r2, r0
     2c8:	00770408 	rsbseq	r0, r7, r8, lsl #8
     2cc:	25050000 	strcs	r0, [r5, #-0]
     2d0:	a7000000 	strge	r0, [r0, -r0]
     2d4:	06000000 	streq	r0, [r0], -r0
     2d8:	000000a7 	andeq	r0, r0, r7, lsr #1
     2dc:	b4040800 	strlt	r0, [r4], #-2048	; 0xfffff800
     2e0:	03000000 	movweq	r0, #0
     2e4:	007d0801 	rsbseq	r0, sp, r1, lsl #16
     2e8:	ad090000 	stcge	0, cr0, [r9, #-0]
     2ec:	07000000 	streq	r0, [r0, -r0]
     2f0:	00000359 	andeq	r0, r0, r9, asr r3
     2f4:	c50e2102 	strgt	r2, [lr, #-258]	; 0xfffffefe
     2f8:	08000000 	stmdaeq	r0, {}	; <UNPREDICTABLE>
     2fc:	00009804 	andeq	r9, r0, r4, lsl #16
     300:	02790a00 	rsbseq	r0, r9, #0, 20
     304:	18010000 	stmdane	r1, {}	; <UNPREDICTABLE>
     308:	00002c0a 	andeq	r2, r0, sl, lsl #24
     30c:	88030500 	stmdahi	r3, {r8, sl}
     310:	0b000093 	bleq	564 <__code_start__-0x7a9c>
     314:	004f0107 	subeq	r0, pc, r7, lsl #2
     318:	21010000 	mrscs	r0, (UNDEF: 1)
     31c:	0000fe06 	andeq	pc, r0, r6, lsl #28
     320:	02660c00 	rsbeq	r0, r6, #0, 24
     324:	0c000000 	stceq	0, cr0, [r0], {-0}
     328:	00000219 	andeq	r0, r0, r9, lsl r2
     32c:	02d80c01 	sbcseq	r0, r8, #256	; 0x100
     330:	00020000 	andeq	r0, r2, r0
     334:	0001f00d 	andeq	pc, r1, sp
     338:	0c260100 	stfeqs	f0, [r6], #-0
     33c:	00000025 	andeq	r0, r0, r5, lsr #32
     340:	8f840305 	svchi	0x00840305
     344:	4a0e0000 	bmi	38034c <__bss_end__+0x376fbc>
     348:	01000002 	tsteq	r0, r2
     34c:	002c0a4e 	eoreq	r0, ip, lr, asr #20
     350:	81f80000 	mvnshi	r0, r0
     354:	00640000 	rsbeq	r0, r4, r0
     358:	9c010000 	stcls	0, cr0, [r1], {-0}
     35c:	0000017b 	andeq	r0, r0, fp, ror r1
     360:	0002220f 	andeq	r2, r2, pc, lsl #4
     364:	204e0100 	subcs	r0, lr, r0, lsl #2
     368:	0000002c 	andeq	r0, r0, ip, lsr #32
     36c:	00000027 	andeq	r0, r0, r7, lsr #32
     370:	00000023 	andeq	r0, r0, r3, lsr #32
     374:	01007610 	tsteq	r0, r0, lsl r6
     378:	002c0e4f 	eoreq	r0, ip, pc, asr #28
     37c:	004d0000 	subeq	r0, sp, r0
     380:	00450000 	subeq	r0, r5, r0
     384:	04110000 	ldreq	r0, [r1], #-0
     388:	ab000082 	blge	598 <__code_start__-0x7a68>
     38c:	64000003 	strvs	r0, [r0], #-3
     390:	12000001 	andne	r0, r0, #1, 0
     394:	75025001 	strvc	r5, [r2, #-1]
     398:	48130000 	ldmdami	r3, {}	; <UNPREDICTABLE>
     39c:	dd000082 	stcle	0, cr0, [r0, #-520]	; 0xfffffdf8
     3a0:	12000001 	andne	r0, r0, #1, 0
     3a4:	75025001 	strvc	r5, [r2, #-1]
     3a8:	51011200 	mrspl	r1, R9_usr
     3ac:	00007402 	andeq	r7, r0, r2, lsl #8
     3b0:	020c1400 	andeq	r1, ip, #0, 8
     3b4:	44010000 	strmi	r0, [r1], #-0
     3b8:	00819806 	addeq	r9, r1, r6, lsl #16
     3bc:	00006000 	andeq	r6, r0, r0
     3c0:	dd9c0100 	ldfles	f0, [ip]
     3c4:	0f000001 	svceq	0x00000001
     3c8:	00000222 	andeq	r0, r0, r2, lsr #4
     3cc:	2c1c4401 	cfldrscs	mvf4, [ip], {1}
     3d0:	89000000 	stmdbhi	r0, {}	; <UNPREDICTABLE>
     3d4:	81000000 	mrshi	r0, (UNDEF: 0)
     3d8:	15000000 	strne	r0, [r0, #-0]
     3dc:	006c6176 	rsbeq	r6, ip, r6, ror r1
     3e0:	2c2b4401 	cfstrscs	mvf4, [fp], #-4
     3e4:	c5000000 	strgt	r0, [r0, #-0]
     3e8:	bd000000 	stclt	0, cr0, [r0, #-0]
     3ec:	11000000 	mrsne	r0, (UNDEF: 0)
     3f0:	000081c0 	andeq	r8, r0, r0, asr #3
     3f4:	000003b7 			; <UNDEFINED> instruction: 0x000003b7
     3f8:	000001d3 	ldrdeq	r0, [r0], -r3
     3fc:	02500112 	subseq	r0, r0, #-2147483644	; 0x80000004
     400:	01120074 	tsteq	r2, r4, ror r0
     404:	00750251 	rsbseq	r0, r5, r1, asr r2
     408:	81e41600 	mvnhi	r1, r0, lsl #12
     40c:	023d0000 	eorseq	r0, sp, #0, 0
     410:	17000000 	strne	r0, [r0, -r0]
     414:	000001f6 	strdeq	r0, [r0], -r6
     418:	c40d3f01 	strgt	r3, [sp], #-3841	; 0xfffff0ff
     41c:	1c000080 	stcne	0, cr0, [r0], {128}	; 0x80
     420:	01000000 	mrseq	r0, (UNDEF: 0)
     424:	00023d9c 	muleq	r2, ip, sp
     428:	02220f00 	eoreq	r0, r2, #0, 30
     42c:	3f010000 	svccc	0x00010000
     430:	00005d21 	andeq	r5, r0, r1, lsr #26
     434:	0000ff00 	andeq	pc, r0, r0, lsl #30
     438:	0000f900 	andeq	pc, r0, r0, lsl #18
     43c:	61761500 	cmnvs	r6, r0, lsl #10
     440:	3f01006c 	svccc	0x0001006c
     444:	00005d30 	andeq	r5, r0, r0, lsr sp
     448:	00013100 	andeq	r3, r1, r0, lsl #2
     44c:	00012b00 	andeq	r2, r1, r0, lsl #22
     450:	80d81300 	sbcshi	r1, r8, r0, lsl #6
     454:	03c30000 	biceq	r0, r3, #0, 0
     458:	01120000 	tsteq	r2, r0
     45c:	ec030550 	cfstr32	mvfx0, [r3], {80}	; 0x50
     460:	1200008d 	andne	r0, r0, #141, 0	; 0x8d
     464:	f3035101 	vrhadd.u8	d5, d3, d1
     468:	01125001 	tsteq	r2, r1
     46c:	01f30352 	mvnseq	r0, r2, asr r3
     470:	17000051 	smlsdne	r0, r1, r0, r0
     474:	00000201 	andeq	r0, r0, r1, lsl #4
     478:	a80d3c01 	stmdage	sp, {r0, sl, fp, ip, sp}
     47c:	1c000080 	stcne	0, cr0, [r0], {128}	; 0x80
     480:	01000000 	mrseq	r0, (UNDEF: 0)
     484:	00029d9c 	muleq	r2, ip, sp
     488:	02220f00 	eoreq	r0, r2, #0, 30
     48c:	3c010000 	stccc	0, cr0, [r1], {-0}
     490:	00005d21 	andeq	r5, r0, r1, lsr #26
     494:	00016300 	andeq	r6, r1, r0, lsl #6
     498:	00015d00 	andeq	r5, r1, r0, lsl #26
     49c:	61761500 	cmnvs	r6, r0, lsl #10
     4a0:	3c01006c 	stccc	0, cr0, [r1], {108}	; 0x6c
     4a4:	00005d30 	andeq	r5, r0, r0, lsr sp
     4a8:	00019500 	andeq	r9, r1, r0, lsl #10
     4ac:	00018f00 	andeq	r8, r1, r0, lsl #30
     4b0:	80bc1300 	adcshi	r1, ip, r0, lsl #6
     4b4:	03c30000 	biceq	r0, r3, #0, 0
     4b8:	01120000 	tsteq	r2, r0
     4bc:	d8030550 	stmdale	r3, {r4, r6, r8, sl}
     4c0:	1200008d 	andne	r0, r0, #141, 0	; 0x8d
     4c4:	f3035101 	vrhadd.u8	d5, d3, d1
     4c8:	01125001 	tsteq	r2, r1
     4cc:	01f30352 	mvnseq	r0, r2, asr r3
     4d0:	14000051 	strne	r0, [r0], #-81	; 0xffffffaf
     4d4:	0000000d 	andeq	r0, r0, sp
     4d8:	3c063501 	cfstr32cc	mvfx3, [r6], {1}
     4dc:	5c000081 	stcpl	0, cr0, [r0], {129}	; 0x81
     4e0:	01000000 	mrseq	r0, (UNDEF: 0)
     4e4:	0003059c 	muleq	r3, ip, r5
     4e8:	02301800 	eorseq	r1, r0, #0, 16
     4ec:	03150000 	tsteq	r5, #0, 0
     4f0:	03050000 	movweq	r0, #20480	; 0x5000
     4f4:	00008e58 	andeq	r8, r0, r8, asr lr
     4f8:	00818011 	addeq	r8, r1, r1, lsl r0
     4fc:	0003c300 	andeq	ip, r3, r0, lsl #6
     500:	0002fb00 	andeq	pc, r2, r0, lsl #22
     504:	50011200 	andpl	r1, r1, r0, lsl #4
     508:	8e100305 	cdphi	3, 1, cr0, cr0, cr5, {0}
     50c:	01120000 	tsteq	r2, r0
     510:	00030551 	andeq	r0, r3, r1, asr r5
     514:	1200008e 	andne	r0, r0, #142, 0	; 0x8e
     518:	03055201 	movweq	r5, #20993	; 0x5201
     51c:	00008e58 	andeq	r8, r0, r8, asr lr
     520:	02530112 	subseq	r0, r3, #-2147483644	; 0x80000004
     524:	02123608 	andseq	r3, r2, #8, 12	; 0x800000
     528:	0305007d 	movweq	r0, #20605	; 0x507d
     52c:	00008e38 	andeq	r8, r0, r8, lsr lr
     530:	81841600 	orrhi	r1, r4, r0, lsl #12
     534:	03cf0000 	biceq	r0, pc, #0, 0
     538:	19000000 	stmdbne	r0, {}	; <UNPREDICTABLE>
     53c:	000000b4 	strheq	r0, [r0], -r4
     540:	00000315 	andeq	r0, r0, r5, lsl r3
     544:	00002c1a 	andeq	r2, r0, sl, lsl ip
     548:	09000a00 	stmdbeq	r0, {r9, fp}
     54c:	00000305 	andeq	r0, r0, r5, lsl #6
     550:	00008f14 	andeq	r8, r0, r4, lsl pc
     554:	062e0100 	strteq	r0, [lr], -r0, lsl #2
     558:	000080e0 	andeq	r8, r0, r0, ror #1
     55c:	0000005c 	andeq	r0, r0, ip, asr r0
     560:	03969c01 	orrseq	r9, r6, #256	; 0x100
     564:	270f0000 	strcs	r0, [pc, -r0]
     568:	01000002 	tsteq	r0, r2
     56c:	0025162e 	eoreq	r1, r5, lr, lsr #12
     570:	01c50000 	biceq	r0, r5, r0
     574:	01c10000 	biceq	r0, r1, r0
     578:	30180000 	andscc	r0, r8, r0
     57c:	a6000002 	strge	r0, [r0], -r2
     580:	05000003 	streq	r0, [r0, #-3]
     584:	008e4c03 	addeq	r4, lr, r3, lsl #24
     588:	81241100 			; <UNDEFINED> instruction: 0x81241100
     58c:	03c30000 	biceq	r0, r3, #0, 0
     590:	038c0000 	orreq	r0, ip, #0, 0
     594:	01120000 	tsteq	r2, r0
     598:	10030550 	andne	r0, r3, r0, asr r5
     59c:	1200008e 	andne	r0, r0, #142, 0	; 0x8e
     5a0:	03055101 	movweq	r5, #20737	; 0x5101
     5a4:	00008e00 	andeq	r8, r0, r0, lsl #28
     5a8:	05520112 	ldrbeq	r0, [r2, #-274]	; 0xfffffeee
     5ac:	008e4c03 	addeq	r4, lr, r3, lsl #24
     5b0:	53011200 	movwpl	r1, #4608	; 0x1200
     5b4:	122f0802 	eorne	r0, pc, #131072	; 0x20000
     5b8:	05007d02 	streq	r7, [r0, #-3330]	; 0xfffff2fe
     5bc:	008e2403 	addeq	r2, lr, r3, lsl #8
     5c0:	28160000 	ldmdacs	r6, {}	; <UNPREDICTABLE>
     5c4:	cf000081 	svcgt	0x00000081
     5c8:	00000003 	andeq	r0, r0, r3
     5cc:	0000b419 	andeq	fp, r0, r9, lsl r4
     5d0:	0003a600 	andeq	sl, r3, r0, lsl #12
     5d4:	002c1a00 	eoreq	r1, ip, r0, lsl #20
     5d8:	000b0000 	andeq	r0, fp, r0
     5dc:	00039609 	andeq	r9, r3, r9, lsl #12
     5e0:	01e31b00 	mvneq	r1, r0, lsl #22
     5e4:	01e30000 	mvneq	r0, r0
     5e8:	1c010000 	stcne	0, cr0, [r1], {-0}
     5ec:	023d1b0a 	eorseq	r1, sp, #10240	; 0x2800
     5f0:	023d0000 	eorseq	r0, sp, #0, 0
     5f4:	1e010000 	cdpne	0, 0, cr0, cr1, cr0, {0}
     5f8:	02eb1b06 	rsceq	r1, fp, #6144	; 0x1800
     5fc:	02eb0000 	rsceq	r0, fp, #0, 0
     600:	28020000 	stmdacs	r2, {}	; <UNPREDICTABLE>
     604:	00821b06 	addeq	r1, r2, r6, lsl #22
     608:	00820000 	addeq	r0, r2, r0
     60c:	67020000 	strvs	r0, [r2, -r0]
     610:	019d0006 	orrseq	r0, sp, r6
     614:	00040000 	andeq	r0, r4, r0
     618:	00000297 	muleq	r0, r7, r2
     61c:	011a0104 	tsteq	sl, r4, lsl #2
     620:	010c0000 	mrseq	r0, (UNDEF: 12)
     624:	1e000003 	cdpne	0, 0, cr0, cr0, cr3, {0}
     628:	5c000003 	stcpl	0, cr0, [r0], {3}
     62c:	58000082 	stmdapl	r0, {r1, r7}
     630:	fd000000 	stc2	0, cr0, [r0, #-0]
     634:	02000002 	andeq	r0, r0, #2, 0
     638:	000002f2 	strdeq	r0, [r0], -r2
     63c:	311b2802 	tstcc	fp, r2, lsl #16
     640:	03000000 	movweq	r0, #0
     644:	00000314 	andeq	r0, r0, r4, lsl r3
     648:	48000404 	stmdami	r0, {r2, sl}
     64c:	04000000 	streq	r0, [r0], #-0
     650:	0000030f 	andeq	r0, r0, pc, lsl #6
     654:	00000048 	andeq	r0, r0, r8, asr #32
     658:	04050000 	streq	r0, [r5], #-0
     65c:	00031602 	andeq	r1, r3, r2, lsl #12
     660:	18630200 	stmdane	r3!, {r9}^
     664:	00000025 	andeq	r0, r0, r5, lsr #32
     668:	69050406 	stmdbvs	r5, {r1, r2, sl}
     66c:	0700746e 	streq	r7, [r0, -lr, ror #8]
     670:	00e90704 	rsceq	r0, r9, r4, lsl #14
     674:	01070000 	mrseq	r0, (UNDEF: 7)
     678:	00007606 	andeq	r7, r0, r6, lsl #12
     67c:	05020700 	streq	r0, [r2, #-1792]	; 0xfffff900
     680:	00000110 	andeq	r0, r0, r0, lsl r1
     684:	fb050407 	blx	1416aa <__bss_end__+0x13831a>
     688:	07000000 	streq	r0, [r0, -r0]
     68c:	00f60508 	rscseq	r0, r6, r8, lsl #10
     690:	01070000 	mrseq	r0, (UNDEF: 7)
     694:	00007408 	andeq	r7, r0, r8, lsl #8
     698:	07020700 	streq	r0, [r2, -r0, lsl #14]
     69c:	0000009b 	muleq	r0, fp, r0
     6a0:	e4070407 	str	r0, [r7], #-1031	; 0xfffffbf9
     6a4:	07000000 	streq	r0, [r0, -r0]
     6a8:	00df0708 	sbcseq	r0, pc, r8, lsl #14
     6ac:	56080000 	strpl	r0, [r8], -r0
     6b0:	ab000000 	blge	6b8 <__code_start__-0x7948>
     6b4:	09000000 	stmdbeq	r0, {}	; <UNPREDICTABLE>
     6b8:	00000056 	andeq	r0, r0, r6, asr r0
     6bc:	01040a00 	tsteq	r4, r0, lsl #20
     6c0:	1c030000 	stcne	0, cr0, [r3], {-0}
     6c4:	0000b70e 	andeq	fp, r0, lr, lsl #14
     6c8:	9c040b00 			; <UNDEFINED> instruction: 0x9c040b00
     6cc:	08000000 	stmdaeq	r0, {}	; <UNPREDICTABLE>
     6d0:	00000056 	andeq	r0, r0, r6, asr r0
     6d4:	000000cc 	andeq	r0, r0, ip, asr #1
     6d8:	0000cc09 	andeq	ip, r0, r9, lsl #24
     6dc:	040b0000 	streq	r0, [fp], #-0
     6e0:	000000d9 	ldrdeq	r0, [r0], -r9
     6e4:	7d080107 	stfvcs	f0, [r8, #-28]	; 0xffffffe4
     6e8:	0c000000 	stceq	0, cr0, [r0], {-0}
     6ec:	000000d2 	ldrdeq	r0, [r0], -r2
     6f0:	0003590a 	andeq	r5, r3, sl, lsl #18
     6f4:	0e210300 	cdpeq	3, 2, cr0, cr1, cr0, {0}
     6f8:	000000ea 	andeq	r0, r0, sl, ror #1
     6fc:	00bd040b 	adcseq	r0, sp, fp, lsl #8
     700:	eb0d0000 	bl	340708 <__bss_end__+0x337378>
     704:	01000002 	tsteq	r0, r2
     708:	00560506 	subseq	r0, r6, r6, lsl #10
     70c:	825c0000 	subshi	r0, ip, #0, 0
     710:	00580000 	subseq	r0, r8, r0
     714:	9c010000 	stcls	0, cr0, [r1], {-0}
     718:	00000183 	andeq	r0, r0, r3, lsl #3
     71c:	746d660e 	strbtvc	r6, [sp], #-1550	; 0xfffff9f2
     720:	18060100 	stmdane	r6, {r8}
     724:	000000cc 	andeq	r0, r0, ip, asr #1
     728:	0f709102 	svceq	0x00709102
     72c:	66756210 			; <UNDEFINED> instruction: 0x66756210
     730:	11080100 	mrsne	r0, (UNDEF: 24)
     734:	00000183 	andeq	r0, r0, r3, lsl #3
     738:	8f880305 	svchi	0x00880305
     73c:	e3110000 	tst	r1, #0, 0
     740:	01000002 	tsteq	r0, r2
     744:	004a0d09 	subeq	r0, sl, r9, lsl #26
     748:	91020000 	mrsls	r0, (UNDEF: 2)
     74c:	7a73125c 	bvc	1cc50c4 <__bss_end__+0x1cbbd34>
     750:	0d0c0100 	stfeqs	f0, [ip, #-0]
     754:	00000056 	andeq	r0, r0, r6, asr r0
     758:	000001ec 	andeq	r0, r0, ip, ror #3
     75c:	000001e6 	andeq	r0, r0, r6, ror #3
     760:	00828413 	addeq	r8, r2, r3, lsl r4
     764:	00019400 	andeq	r9, r1, r0, lsl #8
     768:	00017600 	andeq	r7, r1, r0, lsl #12
     76c:	50011400 	andpl	r1, r1, r0, lsl #8
     770:	14007502 	strne	r7, [r0], #-1282	; 0xfffffafe
     774:	0a035101 	beq	d4b80 <__bss_end__+0xcb7f0>
     778:	01140400 	tsteq	r4, r0, lsl #8
     77c:	48910352 	ldmmi	r1, {r1, r4, r6, r8, r9}
     780:	53011406 	movwpl	r1, #5126	; 0x1406
     784:	004c9102 	subeq	r9, ip, r2, lsl #2
     788:	00829815 	addeq	r9, r2, r5, lsl r8
     78c:	50011400 	andpl	r1, r1, r0, lsl #8
     790:	00007502 	andeq	r7, r0, r2, lsl #10
     794:	00d21600 	sbcseq	r1, r2, r0, lsl #12
     798:	01940000 	orrseq	r0, r4, r0
     79c:	5d170000 	ldcpl	0, cr0, [r7, #-0]
     7a0:	ff000000 			; <UNDEFINED> instruction: 0xff000000
     7a4:	e8180003 	ldmda	r8, {r0, r1}
     7a8:	e8000002 	stmda	r0, {r1}
     7ac:	05000002 	streq	r0, [r0, #-2]
     7b0:	f3000502 	vrshl.u8	d0, d2, d0
     7b4:	04000000 	streq	r0, [r0], #-0
     7b8:	0003d900 	andeq	sp, r3, r0, lsl #18
     7bc:	1a010400 	bne	417c4 <__bss_end__+0x38434>
     7c0:	0c000001 	stceq	0, cr0, [r0], {1}
     7c4:	0000035e 	andeq	r0, r0, lr, asr r3
     7c8:	0000031e 	andeq	r0, r0, lr, lsl r3
     7cc:	000082b4 			; <UNDEFINED> instruction: 0x000082b4
     7d0:	00000034 	andeq	r0, r0, r4, lsr r0
     7d4:	0000041c 	andeq	r0, r0, ip, lsl r4
     7d8:	69050402 	stmdbvs	r5, {r1, sl}
     7dc:	0300746e 	movweq	r7, #1134	; 0x46e
     7e0:	00e90704 	rsceq	r0, r9, r4, lsl #14
     7e4:	01030000 	mrseq	r0, (UNDEF: 3)
     7e8:	00007606 	andeq	r7, r0, r6, lsl #12
     7ec:	05020300 	streq	r0, [r2, #-768]	; 0xfffffd00
     7f0:	00000110 	andeq	r0, r0, r0, lsl r1
     7f4:	fb050403 	blx	14180a <__bss_end__+0x13847a>
     7f8:	03000000 	movweq	r0, #0
     7fc:	00f60508 	rscseq	r0, r6, r8, lsl #10
     800:	01030000 	mrseq	r0, (UNDEF: 3)
     804:	00007408 	andeq	r7, r0, r8, lsl #8
     808:	07020300 	streq	r0, [r2, -r0, lsl #6]
     80c:	0000009b 	muleq	r0, fp, r0
     810:	e4070403 	str	r0, [r7], #-1027	; 0xfffffbfd
     814:	03000000 	movweq	r0, #0
     818:	00df0708 	sbcseq	r0, pc, r8, lsl #14
     81c:	25040000 	strcs	r0, [r4, #-0]
     820:	7a000000 	bvc	828 <__code_start__-0x77d8>
     824:	05000000 	streq	r0, [r0, #-0]
     828:	00000025 	andeq	r0, r0, r5, lsr #32
     82c:	01040600 	tsteq	r4, r0, lsl #12
     830:	1c020000 	stcne	0, cr0, [r2], {-0}
     834:	0000860e 	andeq	r8, r0, lr, lsl #12
     838:	6b040700 	blvs	102440 <__bss_end__+0xf90b0>
     83c:	04000000 	streq	r0, [r0], #-0
     840:	00000025 	andeq	r0, r0, r5, lsr #32
     844:	0000009b 	muleq	r0, fp, r0
     848:	00009b05 	andeq	r9, r0, r5, lsl #22
     84c:	04070000 	streq	r0, [r7], #-0
     850:	000000a8 	andeq	r0, r0, r8, lsr #1
     854:	7d080103 	stfvcs	f0, [r8, #-12]
     858:	08000000 	stmdaeq	r0, {}	; <UNPREDICTABLE>
     85c:	000000a1 	andeq	r0, r0, r1, lsr #1
     860:	00035906 	andeq	r5, r3, r6, lsl #18
     864:	0e210200 	cdpeq	2, 2, cr0, cr1, cr0, {0}
     868:	000000b9 	strheq	r0, [r0], -r9
     86c:	008c0407 	addeq	r0, ip, r7, lsl #8
     870:	ad090000 	stcge	0, cr0, [r9, #-0]
     874:	01000000 	mrseq	r0, (UNDEF: 0)
     878:	0305070c 	movweq	r0, #22284	; 0x570c
     87c:	00008f7c 	andeq	r8, r0, ip, ror pc
     880:	0003500a 	andeq	r5, r3, sl
     884:	05040100 	streq	r0, [r4, #-256]	; 0xffffff00
     888:	00000025 	andeq	r0, r0, r5, lsr #32
     88c:	000082b4 			; <UNDEFINED> instruction: 0x000082b4
     890:	00000034 	andeq	r0, r0, r4, lsr r0
     894:	700b9c01 	andvc	r9, fp, r1, lsl #24
     898:	1f040100 	svcne	0x00040100
     89c:	0000009b 	muleq	r0, fp, r0
     8a0:	00000219 	andeq	r0, r0, r9, lsl r2
     8a4:	00000215 	andeq	r0, r0, r5, lsl r2
     8a8:	09040000 	stmdbeq	r4, {}	; <UNPREDICTABLE>
     8ac:	00040000 	andeq	r0, r4, r0
     8b0:	00000477 	andeq	r0, r0, r7, ror r4
     8b4:	011a0104 	tsteq	sl, r4, lsl #2
     8b8:	e70c0000 	str	r0, [ip, -r0]
     8bc:	1e000003 	cdpne	0, 0, cr0, cr0, cr3, {0}
     8c0:	e8000003 	stmda	r0, {r0, r1}
     8c4:	2c000082 	stccs	0, cr0, [r0], {130}	; 0x82
     8c8:	d3000006 	movwle	r0, #6
     8cc:	02000004 	andeq	r0, r0, #4, 0
     8d0:	6e690504 	cdpvs	5, 6, cr0, cr9, cr4, {0}
     8d4:	04030074 	streq	r0, [r3], #-116	; 0xffffff8c
     8d8:	0000e907 	andeq	lr, r0, r7, lsl #18
     8dc:	06010300 	streq	r0, [r1], -r0, lsl #6
     8e0:	00000076 	andeq	r0, r0, r6, ror r0
     8e4:	10050203 	andne	r0, r5, r3, lsl #4
     8e8:	03000001 	movweq	r0, #1
     8ec:	00fb0504 	rscseq	r0, fp, r4, lsl #10
     8f0:	08030000 	stmdaeq	r3, {}	; <UNPREDICTABLE>
     8f4:	0000f605 	andeq	pc, r0, r5, lsl #12
     8f8:	08010300 	stmdaeq	r1, {r8, r9}
     8fc:	00000074 	andeq	r0, r0, r4, ror r0
     900:	9b070203 	blls	1c1114 <__bss_end__+0x1b7d84>
     904:	04000000 	streq	r0, [r0], #-0
     908:	00000270 	andeq	r0, r0, r0, ror r2
     90c:	69193402 	ldmdbvs	r9, {r1, sl, ip, sp}
     910:	03000000 	movweq	r0, #0
     914:	00e40704 	rsceq	r0, r4, r4, lsl #14
     918:	72040000 	andvc	r0, r4, #0, 0
     91c:	02000003 	andeq	r0, r0, #3, 0
     920:	007c1937 	rsbseq	r1, ip, r7, lsr r9
     924:	08030000 	stmdaeq	r3, {}	; <UNPREDICTABLE>
     928:	0000df07 	andeq	sp, r0, r7, lsl #30
     92c:	00250500 	eoreq	r0, r5, r0, lsl #10
     930:	00920000 	addseq	r0, r2, r0
     934:	25060000 	strcs	r0, [r6, #-0]
     938:	00000000 	andeq	r0, r0, r0
     93c:	00010407 	andeq	r0, r1, r7, lsl #8
     940:	0e1c0300 	cdpeq	3, 1, cr0, cr12, cr0, {0}
     944:	0000009e 	muleq	r0, lr, r0
     948:	00830408 	addeq	r0, r3, r8, lsl #8
     94c:	25050000 	strcs	r0, [r5, #-0]
     950:	b3000000 	movwlt	r0, #0
     954:	06000000 	streq	r0, [r0], -r0
     958:	000000b3 	strheq	r0, [r0], -r3
     95c:	c0040800 	andgt	r0, r4, r0, lsl #16
     960:	03000000 	movweq	r0, #0
     964:	007d0801 	rsbseq	r0, sp, r1, lsl #16
     968:	b9090000 	stmdblt	r9, {}	; <UNPREDICTABLE>
     96c:	07000000 	streq	r0, [r0, -r0]
     970:	00000359 	andeq	r0, r0, r9, asr r3
     974:	d10e2103 	tstle	lr, r3, lsl #2
     978:	08000000 	stmdaeq	r0, {}	; <UNPREDICTABLE>
     97c:	0000a404 	andeq	sl, r0, r4, lsl #8
     980:	037b0700 	cmneq	fp, #0, 14
     984:	0b040000 	bleq	10098c <__bss_end__+0xf75fc>
     988:	0000b90d 	andeq	fp, r0, sp, lsl #18
     98c:	04050700 	streq	r0, [r5], #-1792	; 0xfffff900
     990:	0c040000 	stceq	0, cr0, [r4], {-0}
     994:	0000b90d 	andeq	fp, r0, sp, lsl #18
     998:	038a0700 	orreq	r0, sl, #0, 14
     99c:	0d040000 	stceq	0, cr0, [r4, #-0]
     9a0:	0000b90d 	andeq	fp, r0, sp, lsl #18
     9a4:	03b30700 			; <UNDEFINED> instruction: 0x03b30700
     9a8:	0e040000 	cdpeq	0, 0, cr0, cr4, cr0, {0}
     9ac:	0000b90d 	andeq	fp, r0, sp, lsl #18
     9b0:	04270700 	strteq	r0, [r7], #-1792	; 0xfffff900
     9b4:	0f040000 	svceq	0x00040000
     9b8:	0000b90d 	andeq	fp, r0, sp, lsl #18
     9bc:	039e0700 	orrseq	r0, lr, #0, 14
     9c0:	10040000 	andne	r0, r4, r0
     9c4:	0000b90d 	andeq	fp, r0, sp, lsl #18
     9c8:	04360700 	ldrteq	r0, [r6], #-1792	; 0xfffff900
     9cc:	11040000 	mrsne	r0, (UNDEF: 4)
     9d0:	0000b90d 	andeq	fp, r0, sp, lsl #18
     9d4:	03bf0700 			; <UNDEFINED> instruction: 0x03bf0700
     9d8:	12040000 	andne	r0, r4, #0, 0
     9dc:	0000b90d 	andeq	fp, r0, sp, lsl #18
     9e0:	02f20400 	rscseq	r0, r2, #0, 8
     9e4:	28050000 	stmdacs	r5, {}	; <UNPREDICTABLE>
     9e8:	0001431b 	andeq	r4, r1, fp, lsl r3
     9ec:	03140a00 	tsteq	r4, #0, 20
     9f0:	06040000 	streq	r0, [r4], -r0
     9f4:	00015a00 	andeq	r5, r1, r0, lsl #20
     9f8:	030f0b00 	movweq	r0, #64256	; 0xfb00
     9fc:	015a0000 	cmpeq	sl, r0
     a00:	00000000 	andeq	r0, r0, r0
     a04:	1604040c 	strne	r0, [r4], -ip, lsl #8
     a08:	05000003 	streq	r0, [r0, #-3]
     a0c:	01371863 	teqeq	r7, r3, ror #16
     a10:	e80d0000 	stmda	sp, {}	; <UNPREDICTABLE>
     a14:	01000002 	tsteq	r0, r2
     a18:	00250581 	eoreq	r0, r5, r1, lsl #11
     a1c:	85700000 	ldrbhi	r0, [r0, #-0]!
     a20:	03a40000 			; <UNDEFINED> instruction: 0x03a40000
     a24:	9c010000 	stcls	0, cr0, [r1], {-0}
     a28:	0000055c 	andeq	r0, r0, ip, asr r5
     a2c:	6675620e 	ldrbtvs	r6, [r5], -lr, lsl #4
     a30:	15810100 	strne	r0, [r1, #256]	; 0x100
     a34:	0000055c 	andeq	r0, r0, ip, asr r5
     a38:	0000023d 	andeq	r0, r0, sp, lsr r2
     a3c:	00000237 	andeq	r0, r0, r7, lsr r2
     a40:	01006e0e 	tsteq	r0, lr, lsl #28
     a44:	00251e81 	eoreq	r1, r5, r1, lsl #29
     a48:	026f0000 	rsbeq	r0, pc, #0, 0
     a4c:	02690000 	rsbeq	r0, r9, #0, 0
     a50:	660e0000 	strvs	r0, [lr], -r0
     a54:	0100746d 	tsteq	r0, sp, ror #8
     a58:	00b32d81 	adcseq	r2, r3, r1, lsl #27
     a5c:	02a10000 	adceq	r0, r1, #0, 0
     a60:	029d0000 	addseq	r0, sp, #0, 0
     a64:	e30f0000 	movw	r0, #61440	; 0xf000
     a68:	01000002 	tsteq	r0, r2
     a6c:	015c3a81 	cmpeq	ip, r1, lsl #21
     a70:	91030000 	mrsls	r0, (UNDEF: 3)
     a74:	70107dd4 			; <UNDEFINED> instruction: 0x70107dd4
     a78:	08820100 	stmeq	r2, {r8}
     a7c:	0000055c 	andeq	r0, r0, ip, asr r5
     a80:	000002d3 	ldrdeq	r0, [r0], -r3
     a84:	000002bf 			; <UNDEFINED> instruction: 0x000002bf
     a88:	01006510 	tsteq	r0, r0, lsl r5
     a8c:	055c1282 	ldrbeq	r1, [ip, #-642]	; 0xfffffd7e
     a90:	03550000 	cmpeq	r5, #0, 0
     a94:	03510000 	cmpeq	r1, #0, 0
     a98:	78100000 	ldmdavc	r0, {}	; <UNPREDICTABLE>
     a9c:	83010030 	movwhi	r0, #4144	; 0x1030
     aa0:	00005d0e 	andeq	r5, r0, lr, lsl #26
     aa4:	00037e00 	andeq	r7, r3, r0, lsl #28
     aa8:	00037c00 	andeq	r7, r3, r0, lsl #24
     aac:	31781100 	cmncc	r8, r0, lsl #2
     ab0:	11830100 	orrne	r0, r3, r0, lsl #2
     ab4:	0000005d 	andeq	r0, r0, sp, asr r0
     ab8:	0003dd12 	andeq	sp, r3, r2, lsl sp
     abc:	11860100 	orrne	r0, r6, r0, lsl #2
     ac0:	000000b3 	strheq	r0, [r0], -r3
     ac4:	00000395 	muleq	r0, r5, r3
     ac8:	00000391 	muleq	r0, r1, r3
     acc:	00023013 	andeq	r3, r2, r3, lsl r0
     ad0:	00057200 	andeq	r7, r5, r0, lsl #4
     ad4:	64030500 	strvs	r0, [r3], #-1280	; 0xfffffb00
     ad8:	1400008f 	strne	r0, [r0], #-143	; 0xffffff71
     adc:	000085d8 	ldrdeq	r8, [r0], -r8	; <UNPREDICTABLE>
     ae0:	00000300 	andeq	r0, r0, r0, lsl #6
     ae4:	01007310 	tsteq	r0, r0, lsl r3
     ae8:	055c0a91 	ldrbeq	r0, [ip, #-2705]	; 0xfffff56f
     aec:	03c70000 	biceq	r0, r7, #0, 0
     af0:	03b50000 			; <UNDEFINED> instruction: 0x03b50000
     af4:	6e150000 	cdpvs	0, 1, cr0, cr5, cr0, {0}
     af8:	01006d75 	tsteq	r0, r5, ror sp
     afc:	05770d91 	ldrbeq	r0, [r7, #-3473]!	; 0xfffff26f
     b00:	91030000 	mrsls	r0, (UNDEF: 3)
     b04:	43167dd8 	tstmi	r6, #216, 26	; 0x3600
     b08:	01000004 	tsteq	r0, r4
     b0c:	05771791 	ldrbeq	r1, [r7, #-1937]!	; 0xfffff86f
     b10:	91030000 	mrsls	r0, (UNDEF: 3)
     b14:	98127ed8 	ldmdals	r2, {r3, r4, r6, r7, r9, sl, fp, ip, sp, lr}
     b18:	01000003 	tsteq	r0, r3
     b1c:	002c0d92 	mlaeq	ip, r2, sp, r0
     b20:	04380000 	ldrteq	r0, [r8], #-0
     b24:	04320000 	ldrteq	r0, [r2], #-0
     b28:	00170000 	andseq	r0, r7, r0
     b2c:	04000000 	streq	r0, [r0], #-0
     b30:	15000005 	strne	r0, [r0, #-5]
     b34:	01007878 	tsteq	r0, r8, ror r8
     b38:	00701a9f 			; <UNDEFINED> instruction: 0x00701a9f
     b3c:	5b060000 	blpl	180b44 <__bss_end__+0x1777b4>
     b40:	93530493 	cmpls	r3, #-1828716544	; 0x93000000
     b44:	86b01804 	ldrthi	r1, [r0], r4, lsl #16
     b48:	08d70000 	ldmeq	r7, {}^	; <UNPREDICTABLE>
     b4c:	02bd0000 	adcseq	r0, sp, #0, 0
     b50:	01190000 	tsteq	r9, r0
     b54:	00760250 	rsbseq	r0, r6, r0, asr r2
     b58:	05510119 	ldrbeq	r0, [r1, #-281]	; 0xfffffee7
     b5c:	008eb403 	addeq	fp, lr, r3, lsl #8
     b60:	52011900 	andpl	r1, r1, #0, 18
     b64:	18003301 	stmdane	r0, {r0, r8, r9, ip, sp}
     b68:	000086f4 	strdeq	r8, [r0], -r4
     b6c:	00000587 	andeq	r0, r0, r7, lsl #11
     b70:	000002eb 	andeq	r0, r0, fp, ror #5
     b74:	01500119 	cmpeq	r0, r9, lsl r1
     b78:	51011940 	tstpl	r1, r0, asr #18
     b7c:	7dd09103 	ldfvcp	f1, [r0, #12]
     b80:	02520119 	subseq	r0, r2, #1073741830	; 0x40000006
     b84:	02198008 	andseq	r8, r9, #8, 0
     b88:	7502007d 	strvc	r0, [r2, #-125]	; 0xffffff83
     b8c:	7d021900 	vstrvc.16	s2, [r2, #-0]	; <UNPREDICTABLE>
     b90:	007a0204 	rsbseq	r0, sl, r4, lsl #4
     b94:	87141800 	ldrhi	r1, [r4, -r0, lsl #16]
     b98:	05870000 	streq	r0, [r7]
     b9c:	031f0000 	tsteq	pc, #0, 0
     ba0:	01190000 	tsteq	r9, r0
     ba4:	19400150 	stmdbne	r0, {r4, r6, r8}^
     ba8:	91035101 	tstls	r3, r1, lsl #2
     bac:	01197ed0 			; <UNDEFINED> instruction: 0x01197ed0
     bb0:	80080252 	andhi	r0, r8, r2, asr r2
     bb4:	02530119 	subseq	r0, r3, #1073741830	; 0x40000006
     bb8:	0219007b 	andseq	r0, r9, #123, 0	; 0x7b
     bbc:	7502007d 	strvc	r0, [r2, #-125]	; 0xffffff83
     bc0:	7d021900 	vstrvc.16	s2, [r2, #-0]	; <UNPREDICTABLE>
     bc4:	007a0204 	rsbseq	r0, sl, r4, lsl #4
     bc8:	87201800 	strhi	r1, [r0, -r0, lsl #16]!
     bcc:	08e30000 	stmiaeq	r3!, {}^	; <UNPREDICTABLE>
     bd0:	033b0000 	teqeq	fp, #0, 0
     bd4:	01190000 	tsteq	r9, r0
     bd8:	d0910350 	addsle	r0, r1, r0, asr r3
     bdc:	5101197d 	tstpl	r1, sp, ror r9
     be0:	7ed29103 	atnvcs	f1, f3
     be4:	87401800 	strbhi	r1, [r0, -r0, lsl #16]
     be8:	08ef0000 	stmiaeq	pc!, {}^	; <UNPREDICTABLE>
     bec:	03740000 	cmneq	r4, #0, 0
     bf0:	01190000 	tsteq	r9, r0
     bf4:	10030550 	andne	r0, r3, r0, asr r5
     bf8:	1900008e 	stmdbne	r0, {r1, r2, r3, r7}
     bfc:	03055101 	movweq	r5, #20737	; 0x5101
     c00:	00008e64 	andeq	r8, r0, r4, ror #28
     c04:	05520119 	ldrbeq	r0, [r2, #-281]	; 0xfffffee7
     c08:	008f6403 	addeq	r6, pc, r3, lsl #8
     c0c:	53011900 	movwpl	r1, #6400	; 0x1900
     c10:	199d0802 	ldmibne	sp, {r1, fp}
     c14:	05007d02 	streq	r7, [r0, #-3330]	; 0xfffff2fe
     c18:	008eb803 	addeq	fp, lr, r3, lsl #16
     c1c:	441a0000 	ldrmi	r0, [sl], #-0
     c20:	fb000087 	blx	e46 <__code_start__-0x71ba>
     c24:	18000008 	stmdane	r0, {r3}
     c28:	00008758 	andeq	r8, r0, r8, asr r7
     c2c:	000008ef 	andeq	r0, r0, pc, ror #17
     c30:	000003ac 	andeq	r0, r0, ip, lsr #7
     c34:	05500119 	ldrbeq	r0, [r0, #-281]	; 0xfffffee7
     c38:	008ed403 	addeq	sp, lr, r3, lsl #8
     c3c:	51011900 	tstpl	r1, r0, lsl #18
     c40:	8e640305 	cdphi	3, 6, cr0, cr4, cr5, {0}
     c44:	01190000 	tsteq	r9, r0
     c48:	64030552 	strvs	r0, [r3], #-1362	; 0xfffffaae
     c4c:	1900008f 	stmdbne	r0, {r0, r1, r2, r3, r7}
     c50:	08025301 	stmdaeq	r2, {r0, r8, r9, ip, lr}
     c54:	5c1a00af 	ldcpl	0, cr0, [sl], {175}	; 0xaf
     c58:	fb000087 	blx	e7e <__code_start__-0x7182>
     c5c:	18000008 	stmdane	r0, {r3}
     c60:	00008788 	andeq	r8, r0, r8, lsl #15
     c64:	00000587 	andeq	r0, r0, r7, lsl #11
     c68:	000003e2 	andeq	r0, r0, r2, ror #7
     c6c:	01500119 	cmpeq	r0, r9, lsl r1
     c70:	5101193a 	tstpl	r1, sl, lsr r9
     c74:	7dd09103 	ldfvcp	f1, [r0, #12]
     c78:	02520119 	subseq	r0, r2, #1073741830	; 0x40000006
     c7c:	02198008 	andseq	r8, r9, #8, 0
     c80:	7502007d 	strvc	r0, [r2, #-125]	; 0xffffff83
     c84:	7d021900 	vstrvc.16	s2, [r2, #-0]	; <UNPREDICTABLE>
     c88:	00310104 	eorseq	r0, r1, r4, lsl #2
     c8c:	0087c018 	addeq	ip, r7, r8, lsl r0
     c90:	00058700 	andeq	r8, r5, r0, lsl #14
     c94:	00040f00 	andeq	r0, r4, r0, lsl #30
     c98:	50011900 	andpl	r1, r1, r0, lsl #18
     c9c:	01193a01 	tsteq	r9, r1, lsl #20
     ca0:	d0910351 	addsle	r0, r1, r1, asr r3
     ca4:	5201197d 	andpl	r1, r1, #2048000	; 0x1f4000
     ca8:	19800802 	stmibne	r0, {r1, fp}
     cac:	02007d02 	andeq	r7, r0, #128	; 0x80
     cb0:	02190075 	andseq	r0, r9, #117, 0	; 0x75
     cb4:	3001047d 	andcc	r0, r1, sp, ror r4
     cb8:	87f41800 	ldrbhi	r1, [r4, r0, lsl #16]!
     cbc:	05870000 	streq	r0, [r7]
     cc0:	043c0000 	ldrteq	r0, [ip], #-0
     cc4:	01190000 	tsteq	r9, r0
     cc8:	19400150 	stmdbne	r0, {r4, r6, r8}^
     ccc:	91035101 	tstls	r3, r1, lsl #2
     cd0:	01197dd0 			; <UNDEFINED> instruction: 0x01197dd0
     cd4:	80080252 	andhi	r0, r8, r2, asr r2
     cd8:	007d0219 	rsbseq	r0, sp, r9, lsl r2
     cdc:	19007502 	stmdbne	r0, {r1, r8, sl, ip, sp, lr}
     ce0:	01047d02 	tsteq	r4, r2, lsl #26
     ce4:	28180030 	ldmdacs	r8, {r4, r5}
     ce8:	87000088 	strhi	r0, [r0, -r8, lsl #1]
     cec:	69000005 	stmdbvs	r0, {r0, r2}
     cf0:	19000004 	stmdbne	r0, {r2}
     cf4:	32015001 	andcc	r5, r1, #1, 0
     cf8:	03510119 	cmpeq	r1, #1073741830	; 0x40000006
     cfc:	197dd091 	ldmdbne	sp!, {r0, r4, r7, ip, lr, pc}^
     d00:	08025201 	stmdaeq	r2, {r0, r9, ip, lr}
     d04:	7d021980 	vstrvc.16	s2, [r2, #-256]	; 0xffffff00	; <UNPREDICTABLE>
     d08:	00750200 	rsbseq	r0, r5, r0, lsl #4
     d0c:	047d0219 	ldrbteq	r0, [sp], #-537	; 0xfffffde7
     d10:	18003001 	stmdane	r0, {r0, ip, sp}
     d14:	00008870 	andeq	r8, r0, r0, ror r8
     d18:	00000587 	andeq	r0, r0, r7, lsl #11
     d1c:	00000496 	muleq	r0, r6, r4
     d20:	01500119 	cmpeq	r0, r9, lsl r1
     d24:	51011938 	tstpl	r1, r8, lsr r9
     d28:	7dd09103 	ldfvcp	f1, [r0, #12]
     d2c:	02520119 	subseq	r0, r2, #1073741830	; 0x40000006
     d30:	02198008 	andseq	r8, r9, #8, 0
     d34:	7502007d 	strvc	r0, [r2, #-125]	; 0xffffff83
     d38:	7d021900 	vstrvc.16	s2, [r2, #-0]	; <UNPREDICTABLE>
     d3c:	00300104 	eorseq	r0, r0, r4, lsl #2
     d40:	00889018 	addeq	r9, r8, r8, lsl r0
     d44:	0008ef00 	andeq	lr, r8, r0, lsl #30
     d48:	0004b900 	andeq	fp, r4, r0, lsl #18
     d4c:	50011900 	andpl	r1, r1, r0, lsl #18
     d50:	8efc0305 	cdphi	3, 15, cr0, cr12, cr5, {0}
     d54:	01190000 	tsteq	r9, r0
     d58:	007a0251 	rsbseq	r0, sl, r1, asr r2
     d5c:	02520119 	subseq	r0, r2, #1073741830	; 0x40000006
     d60:	1b00007a 	blne	f50 <__code_start__-0x70b0>
     d64:	000088a0 	andeq	r8, r0, r0, lsr #17
     d68:	000004cb 	andeq	r0, r0, fp, asr #9
     d6c:	04500119 	ldrbeq	r0, [r0], #-281	; 0xfffffee7
     d70:	067dc891 			; <UNDEFINED> instruction: 0x067dc891
     d74:	88b41800 	ldmhi	r4!, {fp, ip}
     d78:	08ef0000 	stmiaeq	pc!, {}^	; <UNPREDICTABLE>
     d7c:	04fa0000 	ldrbteq	r0, [sl], #0
     d80:	01190000 	tsteq	r9, r0
     d84:	2c030550 	cfstr32cs	mvfx0, [r3], {80}	; 0x50
     d88:	1900008f 	stmdbne	r0, {r0, r1, r2, r3, r7}
     d8c:	03055101 	movweq	r5, #20737	; 0x5101
     d90:	00008e64 	andeq	r8, r0, r4, ror #28
     d94:	05520119 	ldrbeq	r0, [r2, #-281]	; 0xfffffee7
     d98:	008f6403 	addeq	r6, pc, r3, lsl #8
     d9c:	53011900 	movwpl	r1, #6400	; 0x1900
     da0:	00d30802 	sbcseq	r0, r3, r2, lsl #16
     da4:	0088b81a 	addeq	fp, r8, sl, lsl r8
     da8:	0008fb00 	andeq	pc, r8, r0, lsl #22
     dac:	f0180000 			; <UNDEFINED> instruction: 0xf0180000
     db0:	05000085 	streq	r0, [r0, #-133]	; 0xffffff7b
     db4:	18000008 	stmdane	r0, {r3}
     db8:	19000005 	stmdbne	r0, {r0, r2}
     dbc:	77025001 	strvc	r5, [r2, -r1]
     dc0:	9c180000 	ldcls	0, cr0, [r8], {-0}
     dc4:	ef000086 	svc	0x00000086
     dc8:	51000008 	tstpl	r0, r8
     dcc:	19000005 	stmdbne	r0, {r0, r2}
     dd0:	03055001 	movweq	r5, #20481	; 0x5001
     dd4:	00008e10 	andeq	r8, r0, r0, lsl lr
     dd8:	05510119 	ldrbeq	r0, [r1, #-281]	; 0xfffffee7
     ddc:	008e6403 	addeq	r6, lr, r3, lsl #8
     de0:	52011900 	andpl	r1, r1, #0, 18
     de4:	8f640305 	svchi	0x00640305
     de8:	01190000 	tsteq	r9, r0
     dec:	98080253 	stmdals	r8, {r0, r1, r4, r6, r9}
     df0:	007d0219 	rsbseq	r0, sp, r9, lsl r2
     df4:	8ea80305 	cdphi	3, 10, cr0, cr8, cr5, {0}
     df8:	1a000000 	bne	e00 <__code_start__-0x7200>
     dfc:	000086a0 	andeq	r8, r0, r0, lsr #13
     e00:	000008fb 	strdeq	r0, [r0], -fp
     e04:	04080000 	streq	r0, [r8], #-0
     e08:	000000b9 	strheq	r0, [r0], -r9
     e0c:	0000c01c 	andeq	ip, r0, ip, lsl r0
     e10:	00057200 	andeq	r7, r5, r0, lsl #4
     e14:	002c1d00 	eoreq	r1, ip, r0, lsl #26
     e18:	00090000 	andeq	r0, r9, r0
     e1c:	00056209 	andeq	r6, r5, r9, lsl #4
     e20:	00b91c00 	adcseq	r1, r9, r0, lsl #24
     e24:	05870000 	streq	r0, [r7]
     e28:	2c1d0000 	ldccs	0, cr0, [sp], {-0}
     e2c:	7f000000 	svcvc	0x00000000
     e30:	04121e00 	ldreq	r1, [r2], #-3584	; 0xfffff200
     e34:	49010000 	stmdbmi	r1, {}	; <UNPREDICTABLE>
     e38:	00055c01 	andeq	r5, r5, r1, lsl #24
     e3c:	00835800 	addeq	r5, r3, r0, lsl #16
     e40:	0001b400 	andeq	fp, r1, r0, lsl #8
     e44:	f09c0100 			; <UNDEFINED> instruction: 0xf09c0100
     e48:	1f000006 	svcne	0x00000006
     e4c:	00000450 	andeq	r0, r0, r0, asr r4
     e50:	2c0f4901 			; <UNDEFINED> instruction: 0x2c0f4901
     e54:	68000000 	stmdavs	r0, {}	; <UNPREDICTABLE>
     e58:	62000004 	andvs	r0, r0, #4, 0
     e5c:	0e000004 	cdpeq	0, 0, cr0, cr0, cr4, {0}
     e60:	00747364 	rsbseq	r7, r4, r4, ror #6
     e64:	5c1b4901 			; <UNDEFINED> instruction: 0x5c1b4901
     e68:	a6000005 	strge	r0, [r0], -r5
     e6c:	96000004 	strls	r0, [r0], -r4
     e70:	0e000004 	cdpeq	0, 0, cr0, cr0, cr4, {0}
     e74:	4901006e 	stmdbmi	r1, {r1, r2, r3, r5, r6}
     e78:	00002524 	andeq	r2, r0, r4, lsr #10
     e7c:	00050a00 	andeq	r0, r5, r0, lsl #20
     e80:	00050600 	andeq	r0, r5, r0, lsl #12
     e84:	61760e00 	cmnvs	r6, r0, lsl #28
     e88:	4901006c 	stmdbmi	r1, {r2, r3, r5, r6}
     e8c:	0000252b 	andeq	r2, r0, fp, lsr #10
     e90:	00053400 	andeq	r3, r5, r0, lsl #8
     e94:	00052800 	andeq	r2, r5, r0, lsl #16
     e98:	03981f00 	orrseq	r1, r8, #0, 30
     e9c:	49010000 	stmdbmi	r1, {}	; <UNPREDICTABLE>
     ea0:	00002534 	andeq	r2, r0, r4, lsr r5
     ea4:	00058a00 	andeq	r8, r5, r0, lsl #20
     ea8:	00058400 	andeq	r8, r5, r0, lsl #8
     eac:	04550f00 	ldrbeq	r0, [r5], #-3840	; 0xfffff100
     eb0:	49010000 	stmdbmi	r1, {}	; <UNPREDICTABLE>
     eb4:	0000253f 	andeq	r2, r0, pc, lsr r5
     eb8:	04910200 	ldreq	r0, [r1], #512	; 0x200
     ebc:	66756215 			; <UNDEFINED> instruction: 0x66756215
     ec0:	074e0100 	strbeq	r0, [lr, -r0, lsl #2]
     ec4:	000006f0 	strdeq	r0, [r0], -r0	; <UNPREDICTABLE>
     ec8:	7fa89103 	svcvc	0x00a89103
     ecc:	01007010 	tsteq	r0, r0, lsl r0
     ed0:	055c114e 	ldrbeq	r1, [ip, #-334]	; 0xfffffeb2
     ed4:	05d40000 	ldrbeq	r0, [r4]
     ed8:	05b40000 	ldreq	r0, [r4, #0]!
     edc:	75100000 	ldrvc	r0, [r0, #-0]
     ee0:	0b4f0100 	bleq	13c12e8 <__bss_end__+0x13b7f58>
     ee4:	0000002c 	andeq	r0, r0, ip, lsr #32
     ee8:	000006ba 			; <UNDEFINED> instruction: 0x000006ba
     eec:	000006a6 	andeq	r0, r0, r6, lsr #13
     ef0:	00023013 	andeq	r3, r2, r3, lsl r0
     ef4:	00071000 	andeq	r1, r7, r0
     ef8:	4c030500 	cfstr32mi	mvfx0, [r3], {-0}
     efc:	2000008f 	andcs	r0, r0, pc, lsl #1
     f00:	000083c4 	andeq	r8, r0, r4, asr #7
     f04:	00000078 	andeq	r0, r0, r8, ror r0
     f08:	00000677 	andeq	r0, r0, r7, ror r6
     f0c:	0003ff12 	andeq	pc, r3, r2, lsl pc	; <UNPREDICTABLE>
     f10:	0d540100 	ldfeqe	f0, [r4, #-0]
     f14:	0000002c 	andeq	r0, r0, ip, lsr #32
     f18:	0000073b 	andeq	r0, r0, fp, lsr r7
     f1c:	00000733 	andeq	r0, r0, r3, lsr r7
     f20:	847c1800 	ldrbthi	r1, [ip], #-2048	; 0xfffff800
     f24:	07a20000 	streq	r0, [r2, r0]!
     f28:	068c0000 	streq	r0, [ip], r0
     f2c:	01190000 	tsteq	r9, r0
     f30:	a0910351 	addsge	r0, r1, r1, asr r3
     f34:	9018007f 	andsls	r0, r8, pc, ror r0
     f38:	15000084 	strne	r0, [r0, #-132]	; 0xffffff7c
     f3c:	ad000007 	stcge	0, cr0, [r0, #-28]	; 0xffffffe4
     f40:	19000006 	stmdbne	r0, {r1, r2}
     f44:	75025001 	strvc	r5, [r2, #-1]
     f48:	51011900 	tstpl	r1, r0, lsl #18
     f4c:	19007402 	stmdbne	r0, {r1, sl, ip, sp, lr}
     f50:	91035301 	tstls	r3, r1, lsl #6
     f54:	18007fa0 	stmdane	r0, {r5, r7, r8, r9, sl, fp, ip, sp, lr}
     f58:	000084e8 	andeq	r8, r0, r8, ror #9
     f5c:	000008ef 	andeq	r0, r0, pc, ror #17
     f60:	000006e6 	andeq	r0, r0, r6, ror #13
     f64:	05500119 	ldrbeq	r0, [r0, #-281]	; 0xfffffee7
     f68:	008e1003 	addeq	r1, lr, r3
     f6c:	51011900 	tstpl	r1, r0, lsl #18
     f70:	8e640305 	cdphi	3, 6, cr0, cr4, cr5, {0}
     f74:	01190000 	tsteq	r9, r0
     f78:	4c030552 	cfstr32mi	mvfx0, [r3], {82}	; 0x52
     f7c:	1900008f 	stmdbne	r0, {r0, r1, r2, r3, r7}
     f80:	08025301 	stmdaeq	r2, {r0, r8, r9, ip, lr}
     f84:	7d021979 	vstrvc.16	s2, [r2, #-242]	; 0xffffff0e	; <UNPREDICTABLE>
     f88:	78030500 	stmdavc	r3, {r8, sl}
     f8c:	0000008e 	andeq	r0, r0, lr, lsl #1
     f90:	0084ec1a 	addeq	lr, r4, sl, lsl ip
     f94:	0008fb00 	andeq	pc, r8, r0, lsl #22
     f98:	b91c0000 	ldmdblt	ip, {}	; <UNPREDICTABLE>
     f9c:	00000000 	andeq	r0, r0, r0
     fa0:	1d000007 	stcne	0, cr0, [r0, #-28]	; 0xffffffe4
     fa4:	0000002c 	andeq	r0, r0, ip, lsr #32
     fa8:	c01c003f 	andsgt	r0, ip, pc, lsr r0
     fac:	10000000 	andne	r0, r0, r0
     fb0:	1d000007 	stcne	0, cr0, [r0, #-28]	; 0xffffffe4
     fb4:	0000002c 	andeq	r0, r0, ip, lsr #32
     fb8:	00090004 	andeq	r0, r9, r4
     fbc:	1e000007 	cdpne	0, 0, cr0, cr0, cr7, {0}
     fc0:	0000041f 	andeq	r0, r0, pc, lsl r4
     fc4:	5c0e3801 	stcpl	8, cr3, [lr], {1}
     fc8:	20000005 	andcs	r0, r0, r5
     fcc:	38000083 	stmdacc	r0, {r0, r1, r7}
     fd0:	01000000 	mrseq	r0, (UNDEF: 0)
     fd4:	0007a29c 	muleq	r7, ip, r2
     fd8:	73640e00 	cmnvc	r4, #0, 28
     fdc:	38010074 	stmdacc	r1, {r2, r4, r5, r6}
     fe0:	00055c1c 	andeq	r5, r5, ip, lsl ip
     fe4:	00077c00 	andeq	r7, r7, r0, lsl #24
     fe8:	00077200 	andeq	r7, r7, r0, lsl #4
     fec:	006e0e00 	rsbeq	r0, lr, r0, lsl #28
     ff0:	25253801 	strcs	r3, [r5, #-2049]!	; 0xfffff7ff
     ff4:	c3000000 	movwgt	r0, #0
     ff8:	bf000007 	svclt	0x00000007
     ffc:	0e000007 	cdpeq	0, 0, cr0, cr0, cr7, {0}
    1000:	38010070 	stmdacc	r1, {r4, r5, r6}
    1004:	00055c2e 	andeq	r5, r5, lr, lsr #24
    1008:	0007ec00 	andeq	lr, r7, r0, lsl #24
    100c:	0007e400 	andeq	lr, r7, r0, lsl #8
    1010:	00951f00 	addseq	r1, r5, r0, lsl #30
    1014:	38010000 	stmdacc	r1, {}	; <UNPREDICTABLE>
    1018:	00055c37 	andeq	r5, r5, r7, lsr ip
    101c:	00082600 	andeq	r2, r8, r0, lsl #12
    1020:	00082200 	andeq	r2, r8, r0, lsl #4
    1024:	656c1000 	strbvs	r1, [ip, #-0]!
    1028:	3a01006e 	bcc	411e8 <__bss_end__+0x37e58>
    102c:	00002506 	andeq	r2, r0, r6, lsl #10
    1030:	00084c00 	andeq	r4, r8, r0, lsl #24
    1034:	00084400 	andeq	r4, r8, r0, lsl #8
    1038:	00731000 	rsbseq	r1, r3, r0
    103c:	5c083e01 	stcpl	14, cr3, [r8], {1}
    1040:	9a000005 	bls	105c <__code_start__-0x6fa4>
    1044:	98000008 	stmdals	r0, {r3}
    1048:	00000008 	andeq	r0, r0, r8
    104c:	64617021 	strbtvs	r7, [r1], #-33	; 0xffffffdf
    1050:	0e2e0100 	sufeqe	f0, f6, f0
    1054:	0000055c 	andeq	r0, r0, ip, asr r5
    1058:	000082fc 	strdeq	r8, [r0], -ip
    105c:	00000024 	andeq	r0, r0, r4, lsr #32
    1060:	08059c01 	stmdaeq	r5, {r0, sl, fp, ip, pc}
    1064:	700e0000 	andvc	r0, lr, r0
    1068:	182e0100 	stmdane	lr!, {r8}
    106c:	0000055c 	andeq	r0, r0, ip, asr r5
    1070:	000008b3 			; <UNDEFINED> instruction: 0x000008b3
    1074:	000008ad 	andeq	r0, r0, sp, lsr #17
    1078:	0004501f 	andeq	r5, r4, pc, lsl r0
    107c:	222e0100 	eorcs	r0, lr, #0
    1080:	0000055c 	andeq	r0, r0, ip, asr r5
    1084:	000008e2 	andeq	r0, r0, r2, ror #17
    1088:	000008de 	ldrdeq	r0, [r0], -lr
    108c:	0003980f 	andeq	r9, r3, pc, lsl #16
    1090:	2c2e0100 	stfcss	f0, [lr], #-0
    1094:	00000025 	andeq	r0, r0, r5, lsr #32
    1098:	6c105201 	lfmvs	f5, 4, [r0], {1}
    109c:	01006e65 	tsteq	r0, r5, ror #28
    10a0:	0025062f 	eoreq	r0, r5, pc, lsr #12
    10a4:	09050000 	stmdbeq	r5, {}	; <UNPREDICTABLE>
    10a8:	09030000 	stmdbeq	r3, {}	; <UNPREDICTABLE>
    10ac:	1e000000 	cdpne	0, 0, cr0, cr0, cr0, {0}
    10b0:	0000036a 	andeq	r0, r0, sl, ror #6
    10b4:	250c2701 	strcs	r2, [ip, #-1793]	; 0xfffff8ff
    10b8:	e8000000 	stmda	r0, {}	; <UNPREDICTABLE>
    10bc:	14000082 	strne	r0, [r0], #-130	; 0xffffff7e
    10c0:	01000000 	mrseq	r0, (UNDEF: 0)
    10c4:	0008329c 	muleq	r8, ip, r2
    10c8:	00630e00 	rsbeq	r0, r3, r0, lsl #28
    10cc:	25182701 	ldrcs	r2, [r8, #-1793]	; 0xfffff8ff
    10d0:	1e000000 	cdpne	0, 0, cr0, cr0, cr0, {0}
    10d4:	18000009 	stmdane	r0, {r0, r3}
    10d8:	00000009 	andeq	r0, r0, r9
    10dc:	0003ce22 	andeq	ip, r3, r2, lsr #28
    10e0:	061f0100 	ldreq	r0, [pc], -r0, lsl #2
    10e4:	0000850c 	andeq	r8, r0, ip, lsl #10
    10e8:	00000064 	andeq	r0, r0, r4, rrx
    10ec:	08c29c01 	stmiaeq	r2, {r0, sl, fp, ip, pc}^
    10f0:	ab1f0000 	blge	7c10f8 <__bss_end__+0x7b7d68>
    10f4:	01000003 	tsteq	r0, r3
    10f8:	009e1b1f 	addseq	r1, lr, pc, lsl fp
    10fc:	09500000 	ldmdbeq	r0, {}^	; <UNPREDICTABLE>
    1100:	094c0000 	stmdbeq	ip, {}^	; <UNPREDICTABLE>
    1104:	171f0000 	ldrne	r0, [pc, -r0]
    1108:	01000004 	tsteq	r0, r4
    110c:	00d1301f 	sbcseq	r3, r1, pc, lsl r0
    1110:	09750000 	ldmdbeq	r5!, {}^	; <UNPREDICTABLE>
    1114:	09710000 	ldmdbeq	r1!, {}^	; <UNPREDICTABLE>
    1118:	30130000 	andscc	r0, r3, r0
    111c:	d2000002 	andle	r0, r0, #2, 0
    1120:	05000008 	streq	r0, [r0, #-8]
    1124:	008f5403 	addeq	r5, pc, r3, lsl #8
    1128:	85541800 	ldrbhi	r1, [r4, #-2048]	; 0xfffff800
    112c:	08ef0000 	stmiaeq	pc!, {}^	; <UNPREDICTABLE>
    1130:	08b80000 	ldmeq	r8!, {}	; <UNPREDICTABLE>
    1134:	01190000 	tsteq	r9, r0
    1138:	10030550 	andne	r0, r3, r0, asr r5
    113c:	1900008e 	stmdbne	r0, {r1, r2, r3, r7}
    1140:	03055101 	movweq	r5, #20737	; 0x5101
    1144:	00008e64 	andeq	r8, r0, r4, ror #28
    1148:	05520119 	ldrbeq	r0, [r2, #-281]	; 0xfffffee7
    114c:	008f5403 	addeq	r5, pc, r3, lsl #8
    1150:	53011900 	movwpl	r1, #6400	; 0x1900
    1154:	19200802 	stmdbne	r0!, {r1, fp}
    1158:	05007d02 	streq	r7, [r0, #-3330]	; 0xfffff2fe
    115c:	008ea003 	addeq	sl, lr, r3
    1160:	581a0000 	ldmdapl	sl, {}	; <UNPREDICTABLE>
    1164:	fb000085 	blx	1382 <__code_start__-0x6c7e>
    1168:	00000008 	andeq	r0, r0, r8
    116c:	0000c01c 	andeq	ip, r0, ip, lsl r0
    1170:	0008d200 	andeq	sp, r8, r0, lsl #4
    1174:	002c1d00 	eoreq	r1, ip, r0, lsl #26
    1178:	000e0000 	andeq	r0, lr, r0
    117c:	0008c209 	andeq	ip, r8, r9, lsl #4
    1180:	04482300 	strbeq	r2, [r8], #-768	; 0xfffffd00
    1184:	04480000 	strbeq	r0, [r8], #-0
    1188:	d6030000 	strle	r0, [r3], -r0
    118c:	03f82305 	mvnseq	r2, #335544320	; 0x14000000
    1190:	03f80000 	mvnseq	r0, #0, 0
    1194:	d9030000 	stmdble	r3, {}	; <UNPREDICTABLE>
    1198:	02eb2307 	rsceq	r2, fp, #469762048	; 0x1c000000
    119c:	02eb0000 	rsceq	r0, fp, #0, 0
    11a0:	28030000 	stmdacs	r3, {}	; <UNPREDICTABLE>
    11a4:	00822306 	addeq	r2, r2, r6, lsl #6
    11a8:	00820000 	addeq	r0, r2, r0
    11ac:	67030000 	strvs	r0, [r3, -r0]
    11b0:	012f0006 			; <UNDEFINED> instruction: 0x012f0006
    11b4:	00040000 	andeq	r0, r4, r0
    11b8:	0000068a 	andeq	r0, r0, sl, lsl #13
    11bc:	011a0104 	tsteq	sl, r4, lsl #2
    11c0:	720c0000 	andvc	r0, ip, #0, 0
    11c4:	1e000004 	cdpne	0, 0, cr0, cr0, cr4, {0}
    11c8:	14000003 	strne	r0, [r0], #-3
    11cc:	2c000089 	stccs	0, cr0, [r0], {137}	; 0x89
    11d0:	9c000000 	stcls	0, cr0, [r0], {-0}
    11d4:	0200000a 	andeq	r0, r0, #10, 0
    11d8:	6e690504 	cdpvs	5, 6, cr0, cr9, cr4, {0}
    11dc:	04030074 	streq	r0, [r3], #-116	; 0xffffff8c
    11e0:	0000e907 	andeq	lr, r0, r7, lsl #18
    11e4:	06010300 	streq	r0, [r1], -r0, lsl #6
    11e8:	00000076 	andeq	r0, r0, r6, ror r0
    11ec:	10050203 	andne	r0, r5, r3, lsl #4
    11f0:	03000001 	movweq	r0, #1
    11f4:	00fb0504 	rscseq	r0, fp, r4, lsl #10
    11f8:	08030000 	stmdaeq	r3, {}	; <UNPREDICTABLE>
    11fc:	0000f605 	andeq	pc, r0, r5, lsl #12
    1200:	08010300 	stmdaeq	r1, {r8, r9}
    1204:	00000074 	andeq	r0, r0, r4, ror r0
    1208:	9b070203 	blls	1c1a1c <__bss_end__+0x1b868c>
    120c:	03000000 	movweq	r0, #0
    1210:	00e40704 	rsceq	r0, r4, r4, lsl #14
    1214:	08030000 	stmdaeq	r3, {}	; <UNPREDICTABLE>
    1218:	0000df07 	andeq	sp, r0, r7, lsl #30
    121c:	00250400 	eoreq	r0, r5, r0, lsl #8
    1220:	007a0000 	rsbseq	r0, sl, r0
    1224:	25050000 	strcs	r0, [r5, #-0]
    1228:	00000000 	andeq	r0, r0, r0
    122c:	00010406 	andeq	r0, r1, r6, lsl #8
    1230:	0e1c0200 	cdpeq	2, 1, cr0, cr12, cr0, {0}
    1234:	00000086 	andeq	r0, r0, r6, lsl #1
    1238:	006b0407 	rsbeq	r0, fp, r7, lsl #8
    123c:	25040000 	strcs	r0, [r4, #-0]
    1240:	9b000000 	blls	1248 <__code_start__-0x6db8>
    1244:	05000000 	streq	r0, [r0, #-0]
    1248:	0000009b 	muleq	r0, fp, r0
    124c:	a8040700 	stmdage	r4, {r8, r9, sl}
    1250:	03000000 	movweq	r0, #0
    1254:	007d0801 	rsbseq	r0, sp, r1, lsl #16
    1258:	a1080000 	mrsge	r0, (UNDEF: 8)
    125c:	06000000 	streq	r0, [r0], -r0
    1260:	00000359 	andeq	r0, r0, r9, asr r3
    1264:	b90e2102 	stmdblt	lr, {r1, r8, sp}
    1268:	07000000 	streq	r0, [r0, -r0]
    126c:	00008c04 	andeq	r8, r0, r4, lsl #24
    1270:	00820900 	addeq	r0, r2, r0, lsl #18
    1274:	04010000 	streq	r0, [r1], #-0
    1278:	00891406 	addeq	r1, r9, r6, lsl #8
    127c:	00002c00 	andeq	r2, r0, r0, lsl #24
    1280:	0e9c0100 	fmleqe	f0, f4, f0
    1284:	0a000001 	beq	1290 <__code_start__-0x6d70>
    1288:	00008928 	andeq	r8, r0, r8, lsr #18
    128c:	000000e8 	andeq	r0, r0, r8, ror #1
    1290:	0550010b 	ldrbeq	r0, [r0, #-267]	; 0xfffffef5
    1294:	008f7003 	addeq	r7, pc, r3
    1298:	2c0c0000 	stccs	0, cr0, [ip], {-0}
    129c:	0e000089 	cdpeq	0, 0, cr0, cr0, cr9, {4}
    12a0:	0d000001 	stceq	0, cr0, [r0, #-4]
    12a4:	00008934 	andeq	r8, r0, r4, lsr r9
    12a8:	0000011a 	andeq	r0, r0, sl, lsl r1
    12ac:	00000104 	andeq	r0, r0, r4, lsl #2
    12b0:	0150010b 	cmpeq	r0, fp, lsl #2
    12b4:	380c003a 	stmdacc	ip, {r1, r3, r4, r5}
    12b8:	26000089 	strcs	r0, [r0], -r9, lsl #1
    12bc:	00000001 	andeq	r0, r0, r1
    12c0:	00048b0e 	andeq	r8, r4, lr, lsl #22
    12c4:	00048b00 	andeq	r8, r4, r0, lsl #22
    12c8:	06460200 	strbeq	r0, [r6], -r0, lsl #4
    12cc:	0004690e 	andeq	r6, r4, lr, lsl #18
    12d0:	00046900 	andeq	r6, r4, r0, lsl #18
    12d4:	06510200 	ldrbeq	r0, [r1], -r0, lsl #4
    12d8:	00045e0e 	andeq	r5, r4, lr, lsl #28
    12dc:	00045e00 	andeq	r5, r4, r0, lsl #28
    12e0:	06640200 	strbteq	r0, [r4], -r0, lsl #4
    12e4:	00015900 	andeq	r5, r1, r0, lsl #18
    12e8:	4a000400 	bmi	22f0 <__code_start__-0x5d10>
    12ec:	04000007 	streq	r0, [r0], #-7
    12f0:	00011a01 	andeq	r1, r1, r1, lsl #20
    12f4:	04b70c00 	ldrteq	r0, [r7], #3072	; 0xc00
    12f8:	031e0000 	tsteq	lr, #0, 0
    12fc:	89400000 	stmdbhi	r0, {}^	; <UNPREDICTABLE>
    1300:	00300000 	eorseq	r0, r0, r0
    1304:	0b2d0000 	bleq	b4130c <__bss_end__+0xb37f7c>
    1308:	04020000 	streq	r0, [r2], #-0
    130c:	746e6905 	strbtvc	r6, [lr], #-2309	; 0xfffff6fb
    1310:	07040300 	streq	r0, [r4, -r0, lsl #6]
    1314:	000000e9 	andeq	r0, r0, r9, ror #1
    1318:	76060103 	strvc	r0, [r6], -r3, lsl #2
    131c:	03000000 	movweq	r0, #0
    1320:	01100502 	tsteq	r0, r2, lsl #10
    1324:	04030000 	streq	r0, [r3], #-0
    1328:	0000fb05 	andeq	pc, r0, r5, lsl #22
    132c:	05080300 	streq	r0, [r8, #-768]	; 0xfffffd00
    1330:	000000f6 	strdeq	r0, [r0], -r6
    1334:	74080103 	strvc	r0, [r8], #-259	; 0xfffffefd
    1338:	03000000 	movweq	r0, #0
    133c:	009b0702 	addseq	r0, fp, r2, lsl #14
    1340:	04030000 	streq	r0, [r3], #-0
    1344:	0000e407 	andeq	lr, r0, r7, lsl #8
    1348:	07080300 	streq	r0, [r8, -r0, lsl #6]
    134c:	000000df 	ldrdeq	r0, [r0], -pc	; <UNPREDICTABLE>
    1350:	00002504 	andeq	r2, r0, r4, lsl #10
    1354:	00007a00 	andeq	r7, r0, r0, lsl #20
    1358:	00250500 	eoreq	r0, r5, r0, lsl #10
    135c:	06000000 	streq	r0, [r0], -r0
    1360:	00000104 	andeq	r0, r0, r4, lsl #2
    1364:	860e1c02 	strhi	r1, [lr], -r2, lsl #24
    1368:	07000000 	streq	r0, [r0, -r0]
    136c:	00006b04 	andeq	r6, r0, r4, lsl #22
    1370:	00250400 	eoreq	r0, r5, r0, lsl #8
    1374:	009b0000 	addseq	r0, fp, r0
    1378:	9b050000 	blls	141380 <__bss_end__+0x137ff0>
    137c:	00000000 	andeq	r0, r0, r0
    1380:	00a80407 	adceq	r0, r8, r7, lsl #8
    1384:	01030000 	mrseq	r0, (UNDEF: 3)
    1388:	00007d08 	andeq	r7, r0, r8, lsl #26
    138c:	00a10800 	adceq	r0, r1, r0, lsl #16
    1390:	59060000 	stmdbpl	r6, {}	; <UNPREDICTABLE>
    1394:	02000003 	andeq	r0, r0, #3, 0
    1398:	00b90e21 	adcseq	r0, r9, r1, lsr #28
    139c:	04070000 	streq	r0, [r7], #-0
    13a0:	0000008c 	andeq	r0, r0, ip, lsl #1
    13a4:	00049909 	andeq	r9, r4, r9, lsl #18
    13a8:	06030100 	streq	r0, [r3], -r0, lsl #2
    13ac:	00008940 	andeq	r8, r0, r0, asr #18
    13b0:	00000030 	andeq	r0, r0, r0, lsr r0
    13b4:	01319c01 	teqeq	r1, r1, lsl #24
    13b8:	8a060000 	bhi	1813c0 <__bss_end__+0x178030>
    13bc:	01000003 	tsteq	r0, r3
    13c0:	00251004 	eoreq	r1, r5, r4
    13c4:	b3060000 	movwlt	r0, #24576	; 0x6000
    13c8:	01000003 	tsteq	r0, r3
    13cc:	00251f04 	eoreq	r1, r5, r4, lsl #30
    13d0:	cf0a0000 	svcgt	0x000a0000
    13d4:	01000001 	tsteq	r0, r1
    13d8:	620b0705 	andvs	r0, fp, #1310720	; 0x140000
    13dc:	01007373 	tsteq	r0, r3, ror r3
    13e0:	01310a09 	teqeq	r1, r9, lsl #20
    13e4:	099c0000 	ldmibeq	ip, {}	; <UNPREDICTABLE>
    13e8:	09960000 	ldmibeq	r6, {}	; <UNPREDICTABLE>
    13ec:	a10c0000 	mrsge	r0, (UNDEF: 12)
    13f0:	01000004 	tsteq	r0, r4
    13f4:	01310a0a 	teqeq	r1, sl, lsl #20
    13f8:	480d0000 	stmdami	sp, {}	; <UNPREDICTABLE>
    13fc:	37000089 	strcc	r0, [r0, -r9, lsl #1]
    1400:	0d000001 	stceq	0, cr0, [r0, #-4]
    1404:	00008964 	andeq	r8, r0, r4, ror #18
    1408:	00000144 	andeq	r0, r0, r4, asr #2
    140c:	0089680d 	addeq	r6, r9, sp, lsl #16
    1410:	00015000 	andeq	r5, r1, r0
    1414:	04070000 	streq	r0, [r7], #-0
    1418:	00000025 	andeq	r0, r0, r5, lsr #32
    141c:	0004a90e 	andeq	sl, r4, lr, lsl #18
    1420:	0004a900 	andeq	sl, r4, r0, lsl #18
    1424:	01170200 	tsteq	r7, r0, lsl #4
    1428:	01cf0f06 	biceq	r0, pc, r6, lsl #30
    142c:	01cf0000 	biceq	r0, pc, r0
    1430:	eb020000 	bl	81438 <__bss_end__+0x780a8>
    1434:	00820f06 	addeq	r0, r2, r6, lsl #30
    1438:	00820000 	addeq	r0, r2, r0
    143c:	67020000 	strvs	r0, [r2, -r0]
    1440:	00ce0006 	sbceq	r0, lr, r6
    1444:	00040000 	andeq	r0, r4, r0
    1448:	0000082a 	andeq	r0, r0, sl, lsr #16
    144c:	011a0104 	tsteq	sl, r4, lsl #2
    1450:	ca0c0000 	bgt	301458 <__bss_end__+0x2f80c8>
    1454:	1e000004 	cdpne	0, 0, cr0, cr0, cr4, {0}
    1458:	70000003 	andvc	r0, r0, r3
    145c:	04000089 	streq	r0, [r0], #-137	; 0xffffff77
    1460:	d3000000 	movwle	r0, #0
    1464:	0200000b 	andeq	r0, r0, #11, 0
    1468:	6e690504 	cdpvs	5, 6, cr0, cr9, cr4, {0}
    146c:	04030074 	streq	r0, [r3], #-116	; 0xffffff8c
    1470:	0000e907 	andeq	lr, r0, r7, lsl #18
    1474:	06010300 	streq	r0, [r1], -r0, lsl #6
    1478:	00000076 	andeq	r0, r0, r6, ror r0
    147c:	10050203 	andne	r0, r5, r3, lsl #4
    1480:	03000001 	movweq	r0, #1
    1484:	00fb0504 	rscseq	r0, fp, r4, lsl #10
    1488:	08030000 	stmdaeq	r3, {}	; <UNPREDICTABLE>
    148c:	0000f605 	andeq	pc, r0, r5, lsl #12
    1490:	08010300 	stmdaeq	r1, {r8, r9}
    1494:	00000074 	andeq	r0, r0, r4, ror r0
    1498:	9b070203 	blls	1c1cac <__bss_end__+0x1b891c>
    149c:	03000000 	movweq	r0, #0
    14a0:	00e40704 	rsceq	r0, r4, r4, lsl #14
    14a4:	08030000 	stmdaeq	r3, {}	; <UNPREDICTABLE>
    14a8:	0000df07 	andeq	sp, r0, r7, lsl #30
    14ac:	00250400 	eoreq	r0, r5, r0, lsl #8
    14b0:	007a0000 	rsbseq	r0, sl, r0
    14b4:	25050000 	strcs	r0, [r5, #-0]
    14b8:	00000000 	andeq	r0, r0, r0
    14bc:	00010406 	andeq	r0, r1, r6, lsl #8
    14c0:	0e1c0200 	cdpeq	2, 1, cr0, cr12, cr0, {0}
    14c4:	00000086 	andeq	r0, r0, r6, lsl #1
    14c8:	006b0407 	rsbeq	r0, fp, r7, lsl #8
    14cc:	25040000 	strcs	r0, [r4, #-0]
    14d0:	9b000000 	blls	14d8 <__code_start__-0x6b28>
    14d4:	05000000 	streq	r0, [r0, #-0]
    14d8:	0000009b 	muleq	r0, fp, r0
    14dc:	a8040700 	stmdage	r4, {r8, r9, sl}
    14e0:	03000000 	movweq	r0, #0
    14e4:	007d0801 	rsbseq	r0, sp, r1, lsl #16
    14e8:	a1080000 	mrsge	r0, (UNDEF: 8)
    14ec:	06000000 	streq	r0, [r0], -r0
    14f0:	00000359 	andeq	r0, r0, r9, asr r3
    14f4:	b90e2102 	stmdblt	lr, {r1, r8, sp}
    14f8:	07000000 	streq	r0, [r0, -r0]
    14fc:	00008c04 	andeq	r8, r0, r4, lsl #24
    1500:	04a90900 	strteq	r0, [r9], #2304	; 0x900
    1504:	04010000 	streq	r0, [r1], #-0
    1508:	00897006 	addeq	r7, r9, r6
    150c:	00000400 	andeq	r0, r0, r0, lsl #8
    1510:	009c0100 	addseq	r0, ip, r0, lsl #2
    1514:	00000220 	andeq	r0, r0, r0, lsr #4
    1518:	08a30004 	stmiaeq	r3!, {r2}
    151c:	01040000 	mrseq	r0, (UNDEF: 4)
    1520:	0000011a 	andeq	r0, r0, sl, lsl r1
    1524:	0005150c 	andeq	r1, r5, ip, lsl #10
    1528:	00031e00 	andeq	r1, r3, r0, lsl #28
    152c:	00001800 	andeq	r1, r0, r0, lsl #16
    1530:	00000000 	andeq	r0, r0, r0
    1534:	000c6200 	andeq	r6, ip, r0, lsl #4
    1538:	05040200 	streq	r0, [r4, #-512]	; 0xfffffe00
    153c:	00746e69 	rsbseq	r6, r4, r9, ror #28
    1540:	00002503 	andeq	r2, r0, r3, lsl #10
    1544:	07040400 	streq	r0, [r4, -r0, lsl #8]
    1548:	000000e9 	andeq	r0, r0, r9, ror #1
    154c:	76060104 	strvc	r0, [r6], -r4, lsl #2
    1550:	04000000 	streq	r0, [r0], #-0
    1554:	01100502 	tsteq	r0, r2, lsl #10
    1558:	04040000 	streq	r0, [r4], #-0
    155c:	0000fb05 	andeq	pc, r0, r5, lsl #22
    1560:	05080400 	streq	r0, [r8, #-1024]	; 0xfffffc00
    1564:	000000f6 	strdeq	r0, [r0], -r6
    1568:	74080104 	strvc	r0, [r8], #-260	; 0xfffffefc
    156c:	04000000 	streq	r0, [r0], #-0
    1570:	009b0702 	addseq	r0, fp, r2, lsl #14
    1574:	04040000 	streq	r0, [r4], #-0
    1578:	0000e407 	andeq	lr, r0, r7, lsl #8
    157c:	07080400 	streq	r0, [r8, -r0, lsl #8]
    1580:	000000df 	ldrdeq	r0, [r0], -pc	; <UNPREDICTABLE>
    1584:	00002505 	andeq	r2, r0, r5, lsl #10
    1588:	00007f00 	andeq	r7, r0, r0, lsl #30
    158c:	00250600 	eoreq	r0, r5, r0, lsl #12
    1590:	07000000 	streq	r0, [r0, -r0]
    1594:	00000104 	andeq	r0, r0, r4, lsl #2
    1598:	8b0e1c02 	blhi	3885a8 <__bss_end__+0x37f218>
    159c:	08000000 	stmdaeq	r0, {}	; <UNPREDICTABLE>
    15a0:	00007004 	andeq	r7, r0, r4
    15a4:	00250500 	eoreq	r0, r5, r0, lsl #10
    15a8:	00a00000 	adceq	r0, r0, r0
    15ac:	a0060000 	andge	r0, r6, r0
    15b0:	00000000 	andeq	r0, r0, r0
    15b4:	00ad0408 	adceq	r0, sp, r8, lsl #8
    15b8:	01040000 	mrseq	r0, (UNDEF: 4)
    15bc:	00007d08 	andeq	r7, r0, r8, lsl #26
    15c0:	00a60300 	adceq	r0, r6, r0, lsl #6
    15c4:	59070000 	stmdbpl	r7, {}	; <UNPREDICTABLE>
    15c8:	02000003 	andeq	r0, r0, #3, 0
    15cc:	00be0e21 	adcseq	r0, lr, r1, lsr #28
    15d0:	04080000 	streq	r0, [r8], #-0
    15d4:	00000091 	muleq	r0, r1, r0
    15d8:	00050a09 	andeq	r0, r5, r9, lsl #20
    15dc:	110d0100 	mrsne	r0, (UNDEF: 29)
    15e0:	00000031 	andeq	r0, r0, r1, lsr r0
    15e4:	00045e0a 	andeq	r5, r4, sl, lsl #28
    15e8:	061f0100 	ldreq	r0, [pc], -r0, lsl #2
    15ec:	000089a0 	andeq	r8, r0, r0, lsr #19
    15f0:	00000050 	andeq	r0, r0, r0, asr r0
    15f4:	01a59c01 			; <UNDEFINED> instruction: 0x01a59c01
    15f8:	280b0000 	stmdacs	fp, {}	; <UNPREDICTABLE>
    15fc:	01000005 	tsteq	r0, r5
    1600:	002c0f2f 	eoreq	r0, ip, pc, lsr #30
    1604:	09c90000 	stmibeq	r9, {}^	; <UNPREDICTABLE>
    1608:	09c70000 	stmibeq	r7, {}^	; <UNPREDICTABLE>
    160c:	e40b0000 	str	r0, [fp], #-0
    1610:	01000004 	tsteq	r0, r4
    1614:	002c0f30 	eoreq	r0, ip, r0, lsr pc
    1618:	09e30000 	stmibeq	r3!, {}^	; <UNPREDICTABLE>
    161c:	09e10000 	stmibeq	r1!, {}^	; <UNPREDICTABLE>
    1620:	fb0b0000 	blx	2c162a <__bss_end__+0x2b829a>
    1624:	01000004 	tsteq	r0, r4
    1628:	002c0f31 	eoreq	r0, ip, r1, lsr pc
    162c:	09fd0000 	ldmibeq	sp!, {}^	; <UNPREDICTABLE>
    1630:	09fb0000 	ldmibeq	fp!, {}^	; <UNPREDICTABLE>
    1634:	350b0000 	strcc	r0, [fp, #-0]
    1638:	01000005 	tsteq	r0, r5
    163c:	002c0f32 	eoreq	r0, ip, r2, lsr pc
    1640:	0a160000 	beq	581648 <__bss_end__+0x5782b8>
    1644:	0a140000 	beq	50164c <__bss_end__+0x4f82bc>
    1648:	a80c0000 	stmdage	ip, {}	; <UNPREDICTABLE>
    164c:	d0000089 	andle	r0, r0, r9, lsl #1
    1650:	0c000001 	stceq	0, cr0, [r0], {1}
    1654:	000089b4 			; <UNDEFINED> instruction: 0x000089b4
    1658:	000001ff 	strdeq	r0, [r0], -pc	; <UNPREDICTABLE>
    165c:	0089bc0d 	addeq	fp, r9, sp, lsl #24
    1660:	00020b00 	andeq	r0, r2, r0, lsl #22
    1664:	00015b00 	andeq	r5, r1, r0, lsl #22
    1668:	50010e00 	andpl	r0, r1, r0, lsl #28
    166c:	0d003a01 	vstreq	s6, [r0, #-4]
    1670:	000089c8 	andeq	r8, r0, r8, asr #19
    1674:	00000217 	andeq	r0, r0, r7, lsl r2
    1678:	0000017b 	andeq	r0, r0, fp, ror r1
    167c:	0550010e 	ldrbeq	r0, [r0, #-270]	; 0xfffffef2
    1680:	1000240c 	andne	r2, r0, ip, lsl #8
    1684:	51010e20 	tstpl	r1, r0, lsr #28
    1688:	00010c05 	andeq	r0, r1, r5, lsl #24
    168c:	0d005a00 	vstreq	s10, [r0, #-0]
    1690:	000089d4 	ldrdeq	r8, [r0], -r4
    1694:	00000217 	andeq	r0, r0, r7, lsl r2
    1698:	0000019b 	muleq	r0, fp, r1
    169c:	0550010e 	ldrbeq	r0, [r0, #-270]	; 0xfffffef2
    16a0:	10001c0c 	andne	r1, r0, ip, lsl #24
    16a4:	51010e20 	tstpl	r1, r0, lsr #28
    16a8:	00200c05 	eoreq	r0, r0, r5, lsl #24
    16ac:	0c005a00 			; <UNDEFINED> instruction: 0x0c005a00
    16b0:	000089dc 	ldrdeq	r8, [r0], -ip
    16b4:	000001a5 	andeq	r0, r0, r5, lsr #3
    16b8:	04ec0f00 	strbteq	r0, [ip], #3840	; 0xf00
    16bc:	17010000 	strne	r0, [r1, -r0]
    16c0:	00898c06 	addeq	r8, r9, r6, lsl #24
    16c4:	00001400 	andeq	r1, r0, r0, lsl #8
    16c8:	d09c0100 	addsle	r0, ip, r0, lsl #2
    16cc:	0b000001 	bleq	16d8 <__code_start__-0x6928>
    16d0:	00000530 	andeq	r0, r0, r0, lsr r5
    16d4:	310e1801 	tstcc	lr, r1, lsl #16
    16d8:	31000000 	mrscc	r0, (UNDEF: 0)
    16dc:	2b00000a 	blcs	170c <__code_start__-0x68f4>
    16e0:	0000000a 	andeq	r0, r0, sl
    16e4:	00050710 	andeq	r0, r5, r0, lsl r7
    16e8:	050e0100 	streq	r0, [lr, #-256]	; 0xffffff00
    16ec:	00000025 	andeq	r0, r0, r5, lsr #32
    16f0:	00008974 	andeq	r8, r0, r4, ror r9
    16f4:	00000018 	andeq	r0, r0, r8, lsl r0
    16f8:	01ff9c01 	mvnseq	r9, r1, lsl #24
    16fc:	300b0000 	andcc	r0, fp, r0
    1700:	01000005 	tsteq	r0, r5
    1704:	00310e0f 	eorseq	r0, r1, pc, lsl #28
    1708:	0a5f0000 	beq	17c1710 <__bss_end__+0x17b8380>
    170c:	0a5b0000 	beq	16c1714 <__bss_end__+0x16b8384>
    1710:	11000000 	mrsne	r0, (UNDEF: 0)
    1714:	0000048b 	andeq	r0, r0, fp, lsl #9
    1718:	0000048b 	andeq	r0, r0, fp, lsl #9
    171c:	11064602 	tstne	r6, r2, lsl #12
    1720:	00000469 	andeq	r0, r0, r9, ror #8
    1724:	00000469 	andeq	r0, r0, r9, ror #8
    1728:	11065102 	tstne	r6, r2, lsl #2
    172c:	00000244 	andeq	r0, r0, r4, asr #4
    1730:	00000244 	andeq	r0, r0, r4, asr #4
    1734:	0006a102 	andeq	sl, r6, r2, lsl #2
    1738:	00000278 	andeq	r0, r0, r8, ror r2
    173c:	09b50004 	ldmibeq	r5!, {r2}
    1740:	01040000 	mrseq	r0, (UNDEF: 4)
    1744:	0000011a 	andeq	r0, r0, sl, lsl r1
    1748:	0005950c 	andeq	r9, r5, ip, lsl #10
    174c:	00031e00 	andeq	r1, r3, r0, lsl #28
    1750:	0089f000 	addeq	pc, r9, r0
    1754:	00009c00 	andeq	r9, r0, r0, lsl #24
    1758:	000d4200 	andeq	r4, sp, r0, lsl #4
    175c:	05040200 	streq	r0, [r4, #-512]	; 0xfffffe00
    1760:	00746e69 	rsbseq	r6, r4, r9, ror #28
    1764:	e9070403 	stmdb	r7, {r0, r1, sl}
    1768:	03000000 	movweq	r0, #0
    176c:	00760601 	rsbseq	r0, r6, r1, lsl #12
    1770:	02030000 	andeq	r0, r3, #0, 0
    1774:	00011005 	andeq	r1, r1, r5
    1778:	05040300 	streq	r0, [r4, #-768]	; 0xfffffd00
    177c:	000000fb 	strdeq	r0, [r0], -fp
    1780:	f6050803 			; <UNDEFINED> instruction: 0xf6050803
    1784:	03000000 	movweq	r0, #0
    1788:	00740801 	rsbseq	r0, r4, r1, lsl #16
    178c:	02030000 	andeq	r0, r3, #0, 0
    1790:	00009b07 	andeq	r9, r0, r7, lsl #22
    1794:	07040300 	streq	r0, [r4, -r0, lsl #6]
    1798:	000000e4 	andeq	r0, r0, r4, ror #1
    179c:	df070803 	svcle	0x00070803
    17a0:	04000000 	streq	r0, [r0], #-0
    17a4:	00000025 	andeq	r0, r0, r5, lsr #32
    17a8:	0000007a 	andeq	r0, r0, sl, ror r0
    17ac:	00002505 	andeq	r2, r0, r5, lsl #10
    17b0:	04060000 	streq	r0, [r6], #-0
    17b4:	02000001 	andeq	r0, r0, #1, 0
    17b8:	00860e1c 	addeq	r0, r6, ip, lsl lr
    17bc:	04070000 	streq	r0, [r7], #-0
    17c0:	0000006b 	andeq	r0, r0, fp, rrx
    17c4:	00002504 	andeq	r2, r0, r4, lsl #10
    17c8:	00009b00 	andeq	r9, r0, r0, lsl #22
    17cc:	009b0500 	addseq	r0, fp, r0, lsl #10
    17d0:	07000000 	streq	r0, [r0, -r0]
    17d4:	0000a804 	andeq	sl, r0, r4, lsl #16
    17d8:	08010300 	stmdaeq	r1, {r8, r9}
    17dc:	0000007d 	andeq	r0, r0, sp, ror r0
    17e0:	0000a108 	andeq	sl, r0, r8, lsl #2
    17e4:	03590600 	cmpeq	r9, #0, 12
    17e8:	21020000 	mrscs	r0, (UNDEF: 2)
    17ec:	0000b90e 	andeq	fp, r0, lr, lsl #18
    17f0:	8c040700 	stchi	7, cr0, [r4], {-0}
    17f4:	09000000 	stmdbeq	r0, {}	; <UNPREDICTABLE>
    17f8:	00000560 	andeq	r0, r0, r0, ror #10
    17fc:	74062b01 	strvc	r2, [r6], #-2817	; 0xfffff4ff
    1800:	1800008a 	stmdane	r0, {r1, r3, r7}
    1804:	01000000 	mrseq	r0, (UNDEF: 0)
    1808:	0001099c 	muleq	r1, ip, r9
    180c:	65730a00 	ldrbvs	r0, [r3, #-2560]!	; 0xfffff600
    1810:	2b010063 	blcs	419a4 <__bss_end__+0x38614>
    1814:	00002c19 	andeq	r2, r0, r9, lsl ip
    1818:	000a8200 	andeq	r8, sl, r0, lsl #4
    181c:	000a7e00 	andeq	r7, sl, r0, lsl #28
    1820:	8a880b00 	bhi	fe204428 <__bss_end__+0xfe1fb098>
    1824:	01090000 	mrseq	r0, (UNDEF: 9)
    1828:	010c0000 	mrseq	r0, (UNDEF: 12)
    182c:	01f31150 	mvnseq	r1, r0, asr r1
    1830:	f3243550 	vqrshl.u32	<illegal reg q1.5>, q0, q2
    1834:	321c5001 	andscc	r5, ip, #1, 0
    1838:	5001f324 	andpl	pc, r1, r4, lsr #6
    183c:	00243322 	eoreq	r3, r4, r2, lsr #6
    1840:	04690900 	strbteq	r0, [r9], #-2304	; 0xfffff700
    1844:	28010000 	stmdacs	r1, {}	; <UNPREDICTABLE>
    1848:	008a5c06 	addeq	r5, sl, r6, lsl #24
    184c:	00001800 	andeq	r1, r0, r0, lsl #16
    1850:	529c0100 	addspl	r0, ip, #0
    1854:	0a000001 	beq	1860 <__code_start__-0x67a0>
    1858:	0100736d 	tsteq	r0, sp, ror #6
    185c:	002c1828 	eoreq	r1, ip, r8, lsr #16
    1860:	0aa70000 	beq	fe9c1868 <__bss_end__+0xfe9b84d8>
    1864:	0aa30000 	beq	fe8c186c <__bss_end__+0xfe8b84dc>
    1868:	700b0000 	andvc	r0, fp, r0
    186c:	5200008a 	andpl	r0, r0, #138, 0	; 0x8a
    1870:	0c000001 	stceq	0, cr0, [r0], {1}
    1874:	f3115001 	vhadd.u16	d5, d1, d1
    1878:	24355001 	ldrtcs	r5, [r5], #-1
    187c:	1c5001f3 	ldfnee	f0, [r0], {243}	; 0xf3
    1880:	01f32432 	mvnseq	r2, r2, lsr r4
    1884:	24332250 	ldrtcs	r2, [r3], #-592	; 0xfffffdb0
    1888:	79090000 	stmdbvc	r9, {}	; <UNPREDICTABLE>
    188c:	01000005 	tsteq	r0, r5
    1890:	8a38061f 	bhi	e03114 <__bss_end__+0xdf9d84>
    1894:	00240000 	eoreq	r0, r4, r0
    1898:	9c010000 	stcls	0, cr0, [r1], {-0}
    189c:	000001c2 	andeq	r0, r0, r2, asr #3
    18a0:	0073750a 	rsbseq	r7, r3, sl, lsl #10
    18a4:	2c181f01 	ldccs	15, cr1, [r8], {1}
    18a8:	cc000000 	stcgt	0, cr0, [r0], {-0}
    18ac:	c800000a 	stmdagt	r0, {r1, r3}
    18b0:	0d00000a 	stceq	0, cr0, [r0, #-40]	; 0xffffffd8
    18b4:	01006272 	tsteq	r0, r2, ror r2
    18b8:	002c0e20 	eoreq	r0, ip, r0, lsr #28
    18bc:	0aec0000 	beq	ffb018c4 <__bss_end__+0xffaf8534>
    18c0:	0aea0000 	beq	ffa818c8 <__bss_end__+0xffa78538>
    18c4:	480e0000 	stmdami	lr, {}	; <UNPREDICTABLE>
    18c8:	1400008a 	strne	r0, [r0], #-138	; 0xffffff76
    18cc:	b8000000 	stmdalt	r0, {}	; <UNPREDICTABLE>
    18d0:	0d000001 	stceq	0, cr0, [r0, #-4]
    18d4:	01006172 	tsteq	r0, r2, ror r1
    18d8:	002c1222 	eoreq	r1, ip, r2, lsr #4
    18dc:	0b010000 	bleq	418e4 <__bss_end__+0x38554>
    18e0:	0aff0000 	beq	fffc18e8 <__bss_end__+0xfffb8558>
    18e4:	4c0f0000 	stcmi	0, cr0, [pc], {-0}
    18e8:	c200008a 	andgt	r0, r0, #138, 0	; 0x8a
    18ec:	00000001 	andeq	r0, r0, r1
    18f0:	008a440f 	addeq	r4, sl, pc, lsl #8
    18f4:	0001c200 	andeq	ip, r1, r0, lsl #4
    18f8:	6a100000 	bvs	401900 <__bss_end__+0x3f8570>
    18fc:	01000005 	tsteq	r0, r5
    1900:	002c0a16 	eoreq	r0, ip, r6, lsl sl
    1904:	8a1c0000 	bhi	70190c <__bss_end__+0x6f857c>
    1908:	001c0000 	andseq	r0, ip, r0
    190c:	9c010000 	stcls	0, cr0, [r1], {-0}
    1910:	0000020a 	andeq	r0, r0, sl, lsl #4
    1914:	0100750d 	tsteq	r0, sp, lsl #10
    1918:	002c0e1a 	eoreq	r0, ip, sl, lsl lr
    191c:	0b180000 	bleq	601924 <__bss_end__+0x5f8594>
    1920:	0b140000 	bleq	501928 <__bss_end__+0x4f8598>
    1924:	240f0000 	strcs	r0, [pc], #-0	; 192c <__code_start__-0x66d4>
    1928:	6300008a 	movwvs	r0, #138	; 0x8a
    192c:	0f000002 	svceq	0x00000002
    1930:	00008a28 	andeq	r8, r0, r8, lsr #20
    1934:	0000020a 	andeq	r0, r0, sl, lsl #4
    1938:	008a300f 	addeq	r3, sl, pc
    193c:	00026300 	andeq	r6, r2, r0, lsl #6
    1940:	82100000 	andshi	r0, r0, #0, 0
    1944:	01000005 	tsteq	r0, r5
    1948:	002c0a11 	eoreq	r0, ip, r1, lsl sl
    194c:	8a080000 	bhi	201954 <__bss_end__+0x1f85c4>
    1950:	00140000 	andseq	r0, r4, r0
    1954:	9c010000 	stcls	0, cr0, [r1], {-0}
    1958:	00000238 	andeq	r0, r0, r8, lsr r2
    195c:	008a140b 	addeq	r1, sl, fp, lsl #8
    1960:	00026f00 	andeq	r6, r2, r0, lsl #30
    1964:	50010c00 	andpl	r0, r1, r0, lsl #24
    1968:	30040c05 	andcc	r0, r4, r5, lsl #24
    196c:	00002000 	andeq	r2, r0, r0
    1970:	00000009 	andeq	r0, r0, r9
    1974:	06050100 	streq	r0, [r5], -r0, lsl #2
    1978:	000089f0 	strdeq	r8, [r0], -r0
    197c:	00000018 	andeq	r0, r0, r8, lsl r0
    1980:	02639c01 	rsbeq	r9, r3, #256	; 0x100
    1984:	5a110000 	bpl	44198c <__bss_end__+0x4385fc>
    1988:	01000005 	tsteq	r0, r5
    198c:	002c1c05 	eoreq	r1, ip, r5, lsl #24
    1990:	0b3a0000 	bleq	e81998 <__bss_end__+0xe78608>
    1994:	0b360000 	bleq	d8199c <__bss_end__+0xd7860c>
    1998:	12000000 	andne	r0, r0, #0, 0
    199c:	0000054e 	andeq	r0, r0, lr, asr #10
    19a0:	0000054e 	andeq	r0, r0, lr, asr #10
    19a4:	12069002 	andne	r9, r6, #2, 0
    19a8:	000001ea 	andeq	r0, r0, sl, ror #3
    19ac:	000001ea 	andeq	r0, r0, sl, ror #3
    19b0:	000aad02 	andeq	sl, sl, r2, lsl #26
    19b4:	00000568 	andeq	r0, r0, r8, ror #10
    19b8:	0aca0004 	beq	ff2819d0 <__bss_end__+0xff278640>
    19bc:	01040000 	mrseq	r0, (UNDEF: 4)
    19c0:	0000011a 	andeq	r0, r0, sl, lsl r1
    19c4:	0005e10c 	andeq	lr, r5, ip, lsl #2
    19c8:	0005f600 	andeq	pc, r5, r0, lsl #12
    19cc:	008aa400 	addeq	sl, sl, r0, lsl #8
    19d0:	0001ac00 	andeq	sl, r1, r0, lsl #24
    19d4:	000e4300 	andeq	r4, lr, r0, lsl #6
    19d8:	05040200 	streq	r0, [r4, #-512]	; 0xfffffe00
    19dc:	00746e69 	rsbseq	r6, r4, r9, ror #28
    19e0:	e9070403 	stmdb	r7, {r0, r1, sl}
    19e4:	04000000 	streq	r0, [r0], #-0
    19e8:	0000002c 	andeq	r0, r0, ip, lsr #32
    19ec:	76060103 	strvc	r0, [r6], -r3, lsl #2
    19f0:	03000000 	movweq	r0, #0
    19f4:	01100502 	tsteq	r0, r2, lsl #10
    19f8:	04030000 	streq	r0, [r3], #-0
    19fc:	0000fb05 	andeq	pc, r0, r5, lsl #22
    1a00:	05080300 	streq	r0, [r8, #-768]	; 0xfffffd00
    1a04:	000000f6 	strdeq	r0, [r0], -r6
    1a08:	74080103 	strvc	r0, [r8], #-259	; 0xfffffefd
    1a0c:	03000000 	movweq	r0, #0
    1a10:	009b0702 	addseq	r0, fp, r2, lsl #14
    1a14:	70050000 	andvc	r0, r5, r0
    1a18:	05000002 	streq	r0, [r0, #-2]
    1a1c:	006e1934 	rsbeq	r1, lr, r4, lsr r9
    1a20:	04030000 	streq	r0, [r3], #-0
    1a24:	0000e407 	andeq	lr, r0, r7, lsl #8
    1a28:	07080300 	streq	r0, [r8, -r0, lsl #6]
    1a2c:	000000df 	ldrdeq	r0, [r0], -pc	; <UNPREDICTABLE>
    1a30:	00002506 	andeq	r2, r0, r6, lsl #10
    1a34:	00008b00 	andeq	r8, r0, r0, lsl #22
    1a38:	00250700 	eoreq	r0, r5, r0, lsl #14
    1a3c:	08000000 	stmdaeq	r0, {}	; <UNPREDICTABLE>
    1a40:	00000104 	andeq	r0, r0, r4, lsl #2
    1a44:	970e1c02 	strls	r1, [lr, -r2, lsl #24]
    1a48:	09000000 	stmdbeq	r0, {}	; <UNPREDICTABLE>
    1a4c:	00007c04 	andeq	r7, r0, r4, lsl #24
    1a50:	00250600 	eoreq	r0, r5, r0, lsl #12
    1a54:	00ac0000 	adceq	r0, ip, r0
    1a58:	ac070000 	stcge	0, cr0, [r7], {-0}
    1a5c:	00000000 	andeq	r0, r0, r0
    1a60:	00b90409 	adcseq	r0, r9, r9, lsl #8
    1a64:	01030000 	mrseq	r0, (UNDEF: 3)
    1a68:	00007d08 	andeq	r7, r0, r8, lsl #26
    1a6c:	00b20a00 	adcseq	r0, r2, r0, lsl #20
    1a70:	59080000 	stmdbpl	r8, {}	; <UNPREDICTABLE>
    1a74:	02000003 	andeq	r0, r0, #3, 0
    1a78:	00ca0e21 	sbceq	r0, sl, r1, lsr #28
    1a7c:	04090000 	streq	r0, [r9], #-0
    1a80:	0000009d 	muleq	r0, sp, r0
    1a84:	5401070b 	strpl	r0, [r1], #-1803	; 0xfffff8f5
    1a88:	04000000 	streq	r0, [r0], #-0
    1a8c:	010f0e0c 	tsteq	pc, ip, lsl #28
    1a90:	e10c0000 	mrs	r0, (UNDEF: 12)
    1a94:	00000006 	andeq	r0, r0, r6
    1a98:	0005c40c 	andeq	ip, r5, ip, lsl #8
    1a9c:	2a0c0100 	bcs	301ea4 <__bss_end__+0x2f8b14>
    1aa0:	04000006 	streq	r0, [r0], #-6
    1aa4:	0006390c 	andeq	r3, r6, ip, lsl #18
    1aa8:	480c0500 	stmdami	ip, {r8, sl}
    1aac:	06000006 	streq	r0, [r0], -r6
    1ab0:	0006570c 	andeq	r5, r6, ip, lsl #14
    1ab4:	bd0c0700 	stclt	7, cr0, [ip, #-0]
    1ab8:	03000006 	movweq	r0, #6
    1abc:	0006660c 	andeq	r6, r6, ip, lsl #12
    1ac0:	0d000200 	sfmeq	f0, 4, [r0, #-0]
    1ac4:	000005d5 	ldrdeq	r0, [r0], -r5
    1ac8:	0806032c 	stmdaeq	r6, {r2, r3, r5, r8, r9}
    1acc:	000001ab 	andeq	r0, r0, fp, lsr #3
    1ad0:	006f690e 	rsbeq	r6, pc, lr, lsl #18
    1ad4:	33090903 	movwcc	r0, #39171	; 0x9903
    1ad8:	00000000 	andeq	r0, r0, r0
    1adc:	7265690e 	rsbvc	r6, r5, #229376	; 0x38000
    1ae0:	090a0300 	stmdbeq	sl, {r8, r9}
    1ae4:	00000033 	andeq	r0, r0, r3, lsr r0
    1ae8:	69690e04 	stmdbvs	r9!, {r2, r9, sl, fp}^
    1aec:	11030072 	tstne	r3, r2, ror r0
    1af0:	00003309 	andeq	r3, r0, r9, lsl #6
    1af4:	6c0e0800 	stcvs	8, cr0, [lr], {-0}
    1af8:	03007263 	movweq	r7, #611	; 0x263
    1afc:	00330913 	eorseq	r0, r3, r3, lsl r9
    1b00:	0e0c0000 	cdpeq	0, 0, cr0, cr12, cr0, {0}
    1b04:	0072636d 	rsbseq	r6, r2, sp, ror #6
    1b08:	33091403 	movwcc	r1, #37891	; 0x9403
    1b0c:	10000000 	andne	r0, r0, r0
    1b10:	72736c0e 	rsbsvc	r6, r3, #3584	; 0xe00
    1b14:	09150300 	ldmdbeq	r5, {r8, r9}
    1b18:	00000033 	andeq	r0, r0, r3, lsr r0
    1b1c:	736d0e14 	cmnvc	sp, #20, 28	; 0x140
    1b20:	16030072 			; <UNDEFINED> instruction: 0x16030072
    1b24:	00003309 	andeq	r3, r0, r9, lsl #6
    1b28:	d40f1800 	strle	r1, [pc], #-2048	; 1b30 <__code_start__-0x64d0>
    1b2c:	03000006 	movweq	r0, #6
    1b30:	00330917 	eorseq	r0, r3, r7, lsl r9
    1b34:	0f1c0000 	svceq	0x001c0000
    1b38:	000006aa 	andeq	r0, r0, sl, lsr #13
    1b3c:	33091b03 	movwcc	r1, #39683	; 0x9b03
    1b40:	20000000 	andcs	r0, r0, r0
    1b44:	0005b10f 	andeq	fp, r5, pc, lsl #2
    1b48:	091d0300 	ldmdbeq	sp, {r8, r9}
    1b4c:	00000033 	andeq	r0, r0, r3, lsr r0
    1b50:	06750f24 	ldrbteq	r0, [r5], -r4, lsr #30
    1b54:	1e030000 	cdpne	0, 0, cr0, cr3, cr0, {0}
    1b58:	00003309 	andeq	r3, r0, r9, lsl #6
    1b5c:	10002800 	andne	r2, r0, r0, lsl #16
    1b60:	0000067a 	andeq	r0, r0, sl, ror r6
    1b64:	c1090801 	tstgt	r9, r1, lsl #16
    1b68:	04000001 	streq	r0, [r0], #-1
    1b6c:	09202150 	stmdbeq	r0!, {r4, r6, r8, sp}
    1b70:	00003304 	andeq	r3, r0, r4, lsl #6
    1b74:	01bb0a00 			; <UNDEFINED> instruction: 0x01bb0a00
    1b78:	dc100000 	ldcle	0, cr0, [r0], {-0}
    1b7c:	01000006 	tsteq	r0, r6
    1b80:	01dc2329 	bicseq	r2, ip, r9, lsr #6
    1b84:	50400000 	subpl	r0, r0, r0
    1b88:	04092021 	streq	r2, [r9], #-33	; 0xffffffdf
    1b8c:	0000010f 	andeq	r0, r0, pc, lsl #2
    1b90:	0001d60a 	andeq	sp, r1, sl, lsl #12
    1b94:	048b1100 	streq	r1, [fp], #256	; 0x100
    1b98:	c2010000 	andgt	r0, r1, #0, 0
    1b9c:	008c3c06 	addeq	r3, ip, r6, lsl #24
    1ba0:	00001400 	andeq	r1, r0, r0, lsl #8
    1ba4:	019c0100 	orrseq	r0, ip, r0, lsl #2
    1ba8:	12000002 	andne	r0, r0, #2, 0
    1bac:	00008c44 	andeq	r8, r0, r4, asr #24
    1bb0:	00000201 	andeq	r0, r0, r1, lsl #4
    1bb4:	06901300 	ldreq	r1, [r0], r0, lsl #6
    1bb8:	ac010000 	stcge	0, cr0, [r1], {-0}
    1bbc:	00002505 	andeq	r2, r0, r5, lsl #10
    1bc0:	008c1c00 	addeq	r1, ip, r0, lsl #24
    1bc4:	00002000 	andeq	r2, r0, r0
    1bc8:	389c0100 	ldmcc	ip, {r8}
    1bcc:	12000002 	andne	r0, r0, #2, 0
    1bd0:	00008c24 	andeq	r8, r0, r4, lsr #24
    1bd4:	0000053b 	andeq	r0, r0, fp, lsr r5
    1bd8:	008c2c14 	addeq	r2, ip, r4, lsl ip
    1bdc:	00054700 	andeq	r4, r5, r0, lsl #14
    1be0:	50011500 	andpl	r1, r1, r0, lsl #10
    1be4:	50640c05 	rsbpl	r0, r4, r5, lsl #24
    1be8:	00002021 	andeq	r2, r0, r1, lsr #32
    1bec:	0006af13 	andeq	sl, r6, r3, lsl pc
    1bf0:	05a90100 	streq	r0, [r9, #256]!	; 0x100
    1bf4:	00000025 	andeq	r0, r0, r5, lsr #32
    1bf8:	00008c0c 	andeq	r8, r0, ip, lsl #24
    1bfc:	00000010 	andeq	r0, r0, r0, lsl r0
    1c00:	02659c01 	rsbeq	r9, r5, #256	; 0x100
    1c04:	14120000 	ldrne	r0, [r2], #-0
    1c08:	3b00008c 	blcc	1e40 <__code_start__-0x61c0>
    1c0c:	12000005 	andne	r0, r0, #5, 0
    1c10:	00008c18 	andeq	r8, r0, r8, lsl ip
    1c14:	00000356 	andeq	r0, r0, r6, asr r3
    1c18:	05a71100 	streq	r1, [r7, #256]!	; 0x100
    1c1c:	a1010000 	mrsge	r0, (UNDEF: 1)
    1c20:	008bdc06 	addeq	sp, fp, r6, lsl #24
    1c24:	00003000 	andeq	r3, r0, r0
    1c28:	c99c0100 	ldmibgt	ip, {r8}
    1c2c:	16000002 	strne	r0, [r0], -r2
    1c30:	a1010063 	tstge	r1, r3, rrx
    1c34:	00002c19 	andeq	r2, r0, r9, lsl ip
    1c38:	000b5c00 	andeq	r5, fp, r0, lsl #24
    1c3c:	000b5800 	andeq	r5, fp, r0, lsl #16
    1c40:	8be81200 	blhi	ffa06448 <__bss_end__+0xff9fd0b8>
    1c44:	053b0000 	ldreq	r0, [fp, #-0]!
    1c48:	ec120000 	ldc	0, cr0, [r2], {-0}
    1c4c:	2800008b 	stmdacs	r0, {r0, r1, r3, r7}
    1c50:	17000003 	strne	r0, [r0, -r3]
    1c54:	00008c00 	andeq	r8, r0, r0, lsl #24
    1c58:	00000553 	andeq	r0, r0, r3, asr r5
    1c5c:	000002bf 			; <UNDEFINED> instruction: 0x000002bf
    1c60:	05500115 	ldrbeq	r0, [r0, #-277]	; 0xfffffeeb
    1c64:	2150400c 	cmpcs	r0, ip
    1c68:	51011520 	tstpl	r1, r0, lsr #10
    1c6c:	08007405 	stmdaeq	r0, {r0, r2, sl, ip, sp, lr}
    1c70:	12001aff 	andne	r1, r0, #1044480	; 0xff000
    1c74:	00008c04 	andeq	r8, r0, r4, lsl #24
    1c78:	0000053b 	andeq	r0, r0, fp, lsr r5
    1c7c:	06861300 	streq	r1, [r6], r0, lsl #6
    1c80:	99010000 	stmdbls	r1, {}	; <UNPREDICTABLE>
    1c84:	00002505 	andeq	r2, r0, r5, lsl #10
    1c88:	008bac00 	addeq	sl, fp, r0, lsl #24
    1c8c:	00003000 	andeq	r3, r0, r0
    1c90:	289c0100 	ldmcs	ip, {r8}
    1c94:	18000003 	stmdane	r0, {r0, r1}
    1c98:	9d010063 	stcls	0, cr0, [r1, #-396]	; 0xfffffe74
    1c9c:	00002509 	andeq	r2, r0, r9, lsl #10
    1ca0:	000b7c00 	andeq	r7, fp, r0, lsl #24
    1ca4:	000b7a00 	andeq	r7, fp, r0, lsl #20
    1ca8:	8bb41200 	blhi	fed064b0 <__bss_end__+0xfecfd120>
    1cac:	053b0000 	ldreq	r0, [fp, #-0]!
    1cb0:	b8120000 	ldmdalt	r2, {}	; <UNPREDICTABLE>
    1cb4:	5600008b 	strpl	r0, [r0], -fp, lsl #1
    1cb8:	17000003 	strne	r0, [r0, -r3]
    1cbc:	00008bc8 	andeq	r8, r0, r8, asr #23
    1cc0:	00000547 	andeq	r0, r0, r7, asr #10
    1cc4:	0000031e 	andeq	r0, r0, lr, lsl r3
    1cc8:	05500115 	ldrbeq	r0, [r0, #-277]	; 0xfffffeeb
    1ccc:	2150400c 	cmpcs	r0, ip
    1cd0:	d0120020 	andsle	r0, r2, r0, lsr #32
    1cd4:	3b00008b 	blcc	1f08 <__code_start__-0x60f8>
    1cd8:	00000005 	andeq	r0, r0, r5
    1cdc:	0005e813 	andeq	lr, r5, r3, lsl r8
    1ce0:	058a0100 	streq	r0, [sl, #256]	; 0x100
    1ce4:	00000025 	andeq	r0, r0, r5, lsr #32
    1ce8:	00008b8c 	andeq	r8, r0, ip, lsl #23
    1cec:	00000020 	andeq	r0, r0, r0, lsr #32
    1cf0:	03569c01 	cmpeq	r6, #256	; 0x100
    1cf4:	98140000 	ldmdals	r4, {}	; <UNPREDICTABLE>
    1cf8:	4700008b 	strmi	r0, [r0, -fp, lsl #1]
    1cfc:	15000005 	strne	r0, [r0, #-5]
    1d00:	0c055001 	stceq	0, cr5, [r5], {1}
    1d04:	20215064 	eorcs	r5, r1, r4, rrx
    1d08:	b6130000 	ldrlt	r0, [r3], -r0
    1d0c:	01000005 	tsteq	r0, r5
    1d10:	00250581 	eoreq	r0, r5, r1, lsl #11
    1d14:	8b740000 	blhi	1d01d1c <__bss_end__+0x1cf898c>
    1d18:	00180000 	andseq	r0, r8, r0
    1d1c:	9c010000 	stcls	0, cr0, [r1], {-0}
    1d20:	00000384 	andeq	r0, r0, r4, lsl #7
    1d24:	008b8014 	addeq	r8, fp, r4, lsl r0
    1d28:	00054700 	andeq	r4, r5, r0, lsl #14
    1d2c:	50011500 	andpl	r1, r1, r0, lsl #10
    1d30:	50640c05 	rsbpl	r0, r4, r5, lsl #24
    1d34:	00002021 	andeq	r2, r0, r1, lsr #32
    1d38:	0000cb11 	andeq	ip, r0, r1, lsl fp
    1d3c:	063b0100 	ldrteq	r0, [fp], -r0, lsl #2
    1d40:	00008ac4 	andeq	r8, r0, r4, asr #21
    1d44:	000000b0 	strheq	r0, [r0], -r0	; <UNPREDICTABLE>
    1d48:	04d19c01 	ldrbeq	r9, [r1], #3073	; 0xc01
    1d4c:	a1190000 	tstge	r9, r0
    1d50:	01000006 	tsteq	r0, r6
    1d54:	00620e74 	rsbeq	r0, r2, r4, ror lr
    1d58:	010e0000 	mrseq	r0, (UNDEF: 14)
    1d5c:	008ad417 	addeq	sp, sl, r7, lsl r4
    1d60:	00055f00 	andeq	r5, r5, r0, lsl #30
    1d64:	0003c000 	andeq	ip, r3, r0
    1d68:	50011500 	andpl	r1, r1, r0, lsl #10
    1d6c:	01153e01 	tsteq	r5, r1, lsl #28
    1d70:	00320151 	eorseq	r0, r2, r1, asr r1
    1d74:	008ae017 	addeq	lr, sl, r7, lsl r0
    1d78:	00055f00 	andeq	r5, r5, r0, lsl #30
    1d7c:	0003d800 	andeq	sp, r3, r0, lsl #16
    1d80:	50011500 	andpl	r1, r1, r0, lsl #10
    1d84:	01153f01 	tsteq	r5, r1, lsl #30
    1d88:	00320151 	eorseq	r0, r2, r1, asr r1
    1d8c:	008ae412 	addeq	lr, sl, r2, lsl r4
    1d90:	00053b00 	andeq	r3, r5, r0, lsl #22
    1d94:	8af01700 	bhi	ffc0799c <__bss_end__+0xffbfe60c>
    1d98:	04d10000 	ldrbeq	r0, [r1], #0
    1d9c:	03fd0000 	mvnseq	r0, #0, 0
    1da0:	01150000 	tsteq	r5, r0
    1da4:	040c0550 	streq	r0, [ip], #-1360	; 0xfffffab0
    1da8:	15202150 	strne	r2, [r0, #-336]!	; 0xfffffeb0
    1dac:	31015101 	tstcc	r1, r1, lsl #2
    1db0:	8af41200 	bhi	ffd065b8 <__bss_end__+0xffcfd228>
    1db4:	053b0000 	ldreq	r0, [fp, #-0]!
    1db8:	04170000 	ldreq	r0, [r7], #-0
    1dbc:	5300008b 	movwpl	r0, #139	; 0x8b
    1dc0:	1f000005 	svcne	0x00000005
    1dc4:	15000004 	strne	r0, [r0, #-4]
    1dc8:	74025001 	strvc	r5, [r2], #-1
    1dcc:	51011500 	tstpl	r1, r0, lsl #10
    1dd0:	17003001 	strne	r3, [r0, -r1]
    1dd4:	00008b10 	andeq	r8, r0, r0, lsl fp
    1dd8:	00000553 	andeq	r0, r0, r3, asr r5
    1ddc:	0000043b 	andeq	r0, r0, fp, lsr r4
    1de0:	05500115 	ldrbeq	r0, [r0, #-277]	; 0xfffffeeb
    1de4:	2150440c 	cmpcs	r0, ip, lsl #8
    1de8:	51011520 	tstpl	r1, r0, lsr #10
    1dec:	17003001 	strne	r3, [r0, -r1]
    1df0:	00008b1c 	andeq	r8, r0, ip, lsl fp
    1df4:	00000553 	andeq	r0, r0, r3, asr r5
    1df8:	00000457 	andeq	r0, r0, r7, asr r4
    1dfc:	05500115 	ldrbeq	r0, [r0, #-277]	; 0xfffffeeb
    1e00:	21504c0c 	cmpcs	r0, ip, lsl #24
    1e04:	51011520 	tstpl	r1, r0, lsr #10
    1e08:	17003301 	strne	r3, [r0, -r1, lsl #6]
    1e0c:	00008b28 	andeq	r8, r0, r8, lsr #22
    1e10:	00000553 	andeq	r0, r0, r3, asr r5
    1e14:	00000473 	andeq	r0, r0, r3, ror r4
    1e18:	05500115 	ldrbeq	r0, [r0, #-277]	; 0xfffffeeb
    1e1c:	2150500c 	cmpcs	r0, ip
    1e20:	51011520 	tstpl	r1, r0, lsr #10
    1e24:	17003001 	strne	r3, [r0, -r1]
    1e28:	00008b34 	andeq	r8, r0, r4, lsr fp
    1e2c:	00000553 	andeq	r0, r0, r3, asr r5
    1e30:	00000490 	muleq	r0, r0, r4
    1e34:	05500115 	ldrbeq	r0, [r0, #-277]	; 0xfffffeeb
    1e38:	2150480c 	cmpcs	r0, ip, lsl #16
    1e3c:	51011520 	tstpl	r1, r0, lsr #10
    1e40:	00c70802 	sbceq	r0, r7, r2, lsl #16
    1e44:	008b4017 	addeq	r4, fp, r7, lsl r0
    1e48:	00055300 	andeq	r5, r5, r0, lsl #6
    1e4c:	0004ae00 	andeq	sl, r4, r0, lsl #28
    1e50:	50011500 	andpl	r1, r1, r0, lsl #10
    1e54:	50680c05 	rsbpl	r0, r8, r5, lsl #24
    1e58:	01152021 	tsteq	r5, r1, lsr #32
    1e5c:	0e0a0351 	mcreq	3, 0, r0, cr10, cr1, {2}
    1e60:	4c170001 	ldcmi	0, cr0, [r7], {1}
    1e64:	5300008b 	movwpl	r0, #139	; 0x8b
    1e68:	c7000005 	strgt	r0, [r0, -r5]
    1e6c:	15000004 	strne	r0, [r0, #-4]
    1e70:	74025001 	strvc	r5, [r2], #-1
    1e74:	51011500 	tstpl	r1, r0, lsl #10
    1e78:	12003301 	andne	r3, r0, #67108864	; 0x4000000
    1e7c:	00008b50 	andeq	r8, r0, r0, asr fp
    1e80:	0000053b 	andeq	r0, r0, fp, lsr r5
    1e84:	06cc1a00 	strbeq	r1, [ip], r0, lsl #20
    1e88:	2e010000 	cdpcs	0, 0, cr0, cr1, cr0, {0}
    1e8c:	008aa40d 	addeq	sl, sl, sp, lsl #8
    1e90:	00002000 	andeq	r2, r0, r0
    1e94:	349c0100 	ldrcc	r0, [ip], #256	; 0x100
    1e98:	1b000005 	blne	1eb4 <__code_start__-0x614c>
    1e9c:	00000222 	andeq	r0, r0, r2, lsr #4
    1ea0:	34242e01 	strtcc	r2, [r4], #-3585	; 0xfffff1ff
    1ea4:	93000005 	movwls	r0, #5
    1ea8:	8f00000b 	svchi	0x0000000b
    1eac:	1600000b 	strne	r0, [r0], -fp
    1eb0:	006c6176 	rsbeq	r6, ip, r6, ror r1
    1eb4:	2c332e01 	ldccs	14, cr2, [r3], #-4
    1eb8:	b5000000 	strlt	r0, [r0, #-0]
    1ebc:	b100000b 	tstlt	r0, fp
    1ec0:	1700000b 	strne	r0, [r0, -fp]
    1ec4:	00008ab4 			; <UNDEFINED> instruction: 0x00008ab4
    1ec8:	00000547 	andeq	r0, r0, r7, asr #10
    1ecc:	00000523 	andeq	r0, r0, r3, lsr #10
    1ed0:	02500115 	subseq	r0, r0, #1073741829	; 0x40000005
    1ed4:	14000074 	strne	r0, [r0], #-116	; 0xffffff8c
    1ed8:	00008ac0 	andeq	r8, r0, r0, asr #21
    1edc:	00000553 	andeq	r0, r0, r3, asr r5
    1ee0:	02500115 	subseq	r0, r0, #1073741829	; 0x40000005
    1ee4:	00000074 	andeq	r0, r0, r4, ror r0
    1ee8:	053a0409 	ldreq	r0, [sl, #-1033]!	; 0xfffffbf7
    1eec:	1d1c0000 	ldcne	0, cr0, [ip, #-0]
    1ef0:	0000054e 	andeq	r0, r0, lr, asr #10
    1ef4:	0000054e 	andeq	r0, r0, lr, asr #10
    1ef8:	1d069002 	stcne	0, cr9, [r6, #-8]
    1efc:	000001fb 	strdeq	r0, [r0], -fp
    1f00:	000001fb 	strdeq	r0, [r0], -fp
    1f04:	1d0bae02 	stcne	14, cr10, [fp, #-8]
    1f08:	00000206 	andeq	r0, r0, r6, lsl #4
    1f0c:	00000206 	andeq	r0, r0, r6, lsl #4
    1f10:	1d06a202 	sfmne	f2, 1, [r6, #-8]
    1f14:	000006f1 	strdeq	r0, [r0], -r1
    1f18:	000006f1 	strdeq	r0, [r0], -r1
    1f1c:	00061904 	andeq	r1, r6, r4, lsl #18
    1f20:	000003bb 			; <UNDEFINED> instruction: 0x000003bb
    1f24:	0c870004 	stceq	0, cr0, [r7], {4}
    1f28:	01040000 	mrseq	r0, (UNDEF: 4)
    1f2c:	0000011a 	andeq	r0, r0, sl, lsl r1
    1f30:	0007710c 	andeq	r7, r7, ip, lsl #2
    1f34:	00031e00 	andeq	r1, r3, r0, lsl #28
    1f38:	008c5000 	addeq	r5, ip, r0
    1f3c:	0000e800 	andeq	lr, r0, r0, lsl #16
    1f40:	000ffc00 	andeq	pc, pc, r0, lsl #24
    1f44:	05040200 	streq	r0, [r4, #-512]	; 0xfffffe00
    1f48:	00746e69 	rsbseq	r6, r4, r9, ror #28
    1f4c:	e9070403 	stmdb	r7, {r0, r1, sl}
    1f50:	04000000 	streq	r0, [r0], #-0
    1f54:	0000002c 	andeq	r0, r0, ip, lsr #32
    1f58:	76060103 	strvc	r0, [r6], -r3, lsl #2
    1f5c:	03000000 	movweq	r0, #0
    1f60:	01100502 	tsteq	r0, r2, lsl #10
    1f64:	04030000 	streq	r0, [r3], #-0
    1f68:	0000fb05 	andeq	pc, r0, r5, lsl #22
    1f6c:	05080300 	streq	r0, [r8, #-768]	; 0xfffffd00
    1f70:	000000f6 	strdeq	r0, [r0], -r6
    1f74:	74080103 	strvc	r0, [r8], #-259	; 0xfffffefd
    1f78:	03000000 	movweq	r0, #0
    1f7c:	009b0702 	addseq	r0, fp, r2, lsl #14
    1f80:	70050000 	andvc	r0, r5, r0
    1f84:	03000002 	movweq	r0, #2
    1f88:	006e1934 	rsbeq	r1, lr, r4, lsr r9
    1f8c:	04030000 	streq	r0, [r3], #-0
    1f90:	0000e407 	andeq	lr, r0, r7, lsl #8
    1f94:	07080300 	streq	r0, [r8, -r0, lsl #6]
    1f98:	000000df 	ldrdeq	r0, [r0], -pc	; <UNPREDICTABLE>
    1f9c:	00002506 	andeq	r2, r0, r6, lsl #10
    1fa0:	00008b00 	andeq	r8, r0, r0, lsl #22
    1fa4:	00250700 	eoreq	r0, r5, r0, lsl #14
    1fa8:	08000000 	stmdaeq	r0, {}	; <UNPREDICTABLE>
    1fac:	00000104 	andeq	r0, r0, r4, lsl #2
    1fb0:	970e1c02 	strls	r1, [lr, -r2, lsl #24]
    1fb4:	09000000 	stmdbeq	r0, {}	; <UNPREDICTABLE>
    1fb8:	00007c04 	andeq	r7, r0, r4, lsl #24
    1fbc:	00250600 	eoreq	r0, r5, r0, lsl #12
    1fc0:	00ac0000 	adceq	r0, ip, r0
    1fc4:	ac070000 	stcge	0, cr0, [r7], {-0}
    1fc8:	00000000 	andeq	r0, r0, r0
    1fcc:	00b90409 	adcseq	r0, r9, r9, lsl #8
    1fd0:	01030000 	mrseq	r0, (UNDEF: 3)
    1fd4:	00007d08 	andeq	r7, r0, r8, lsl #26
    1fd8:	00b20400 	adcseq	r0, r2, r0, lsl #8
    1fdc:	59080000 	stmdbpl	r8, {}	; <UNPREDICTABLE>
    1fe0:	02000003 	andeq	r0, r0, #3, 0
    1fe4:	00ca0e21 	sbceq	r0, sl, r1, lsr #28
    1fe8:	04090000 	streq	r0, [r9], #-0
    1fec:	0000009d 	muleq	r0, sp, r0
    1ff0:	5401070a 	strpl	r0, [r1], #-1802	; 0xfffff8f6
    1ff4:	04000000 	streq	r0, [r0], #-0
    1ff8:	010f0e0c 	tsteq	pc, ip, lsl #28
    1ffc:	e10b0000 	mrs	r0, (UNDEF: 11)
    2000:	00000006 	andeq	r0, r0, r6
    2004:	0005c40b 	andeq	ip, r5, fp, lsl #8
    2008:	2a0b0100 	bcs	2c2410 <__bss_end__+0x2b9080>
    200c:	04000006 	streq	r0, [r0], #-6
    2010:	0006390b 	andeq	r3, r6, fp, lsl #18
    2014:	480b0500 	stmdami	fp, {r8, sl}
    2018:	06000006 	streq	r0, [r0], -r6
    201c:	0006570b 	andeq	r5, r6, fp, lsl #14
    2020:	bd0b0700 	stclt	7, cr0, [fp, #-0]
    2024:	03000006 	movweq	r0, #6
    2028:	0006660b 	andeq	r6, r6, fp, lsl #12
    202c:	05000200 	streq	r0, [r0, #-512]	; 0xfffffe00
    2030:	00000749 	andeq	r0, r0, r9, asr #14
    2034:	d0031504 	andle	r1, r3, r4, lsl #10
    2038:	0c000000 	stceq	0, cr0, [r0], {-0}
    203c:	00000767 	andeq	r0, r0, r7, ror #14
    2040:	33170e01 	tstcc	r7, #1, 28
    2044:	00000000 	andeq	r0, r0, r0
    2048:	0c202000 	stceq	0, cr2, [r0], #-0
    204c:	00000713 	andeq	r0, r0, r3, lsl r7
    2050:	33170f01 	tstcc	r7, #1, 30
    2054:	1c000000 	stcne	0, cr0, [r0], {-0}
    2058:	0c202000 	stceq	0, cr2, [r0], #-0
    205c:	00000703 	andeq	r0, r0, r3, lsl #14
    2060:	33171001 	tstcc	r7, #1, 0
    2064:	28000000 	stmdacs	r0, {}	; <UNPREDICTABLE>
    2068:	0c202000 	stceq	0, cr2, [r0], #-0
    206c:	0000075d 	andeq	r0, r0, sp, asr r7
    2070:	33171101 	tstcc	r7, #1073741824	; 0x40000000
    2074:	34000000 	strcc	r0, [r0], #-0
    2078:	0d202000 	stceq	0, cr2, [r0, #-0]
    207c:	00000730 	andeq	r0, r0, r0, lsr r7
    2080:	25054301 	strcs	r4, [r5, #-769]	; 0xfffffcff
    2084:	18000000 	stmdane	r0, {}	; <UNPREDICTABLE>
    2088:	2000008d 	andcs	r0, r0, sp, lsl #1
    208c:	01000000 	mrseq	r0, (UNDEF: 0)
    2090:	00019d9c 	muleq	r1, ip, sp
    2094:	69700e00 	ldmdbvs	r0!, {r9, sl, fp}^
    2098:	4301006e 	movwmi	r0, #4206	; 0x106e
    209c:	00002c18 	andeq	r2, r0, r8, lsl ip
    20a0:	000bd700 	andeq	sp, fp, r0, lsl #14
    20a4:	000bd300 	andeq	sp, fp, r0, lsl #6
    20a8:	8d280f00 	stchi	15, cr0, [r8, #-0]
    20ac:	03a60000 			; <UNDEFINED> instruction: 0x03a60000
    20b0:	01100000 	tsteq	r0, r0
    20b4:	340c0550 	strcc	r0, [ip], #-1360	; 0xfffffab0
    20b8:	00202000 	eoreq	r2, r0, r0
    20bc:	073a1100 	ldreq	r1, [sl, -r0, lsl #2]!
    20c0:	3e010000 	cdpcc	0, 0, cr0, cr1, cr0, {0}
    20c4:	008d0806 	addeq	r0, sp, r6, lsl #16
    20c8:	00001000 	andeq	r1, r0, r0
    20cc:	de9c0100 	fmllee	f0, f4, f0
    20d0:	0e000001 	cdpeq	0, 0, cr0, cr0, cr1, {0}
    20d4:	006e6970 	rsbeq	r6, lr, r0, ror r9
    20d8:	2c1e3e01 	ldccs	14, cr3, [lr], {1}
    20dc:	f9000000 			; <UNDEFINED> instruction: 0xf9000000
    20e0:	f500000b 			; <UNDEFINED> instruction: 0xf500000b
    20e4:	0f00000b 	svceq	0x0000000b
    20e8:	00008d14 	andeq	r8, r0, r4, lsl sp
    20ec:	00000308 	andeq	r0, r0, r8, lsl #6
    20f0:	03500110 	cmpeq	r0, #4
    20f4:	105001f3 	ldrshne	r0, [r0], #-19	; 0xffffffed
    20f8:	30015101 	andcc	r5, r1, r1, lsl #2
    20fc:	25110000 	ldrcs	r0, [r1, #-0]
    2100:	01000007 	tsteq	r0, r7
    2104:	8cec0632 	stclhi	6, cr0, [ip], #200	; 0xc8
    2108:	001c0000 	andseq	r0, ip, r0
    210c:	9c010000 	stcls	0, cr0, [r1], {-0}
    2110:	00000239 	andeq	r0, r0, r9, lsr r2
    2114:	6e69700e 	cdpvs	0, 6, cr7, cr9, cr14, {0}
    2118:	1a320100 	bne	c82520 <__bss_end__+0xc79190>
    211c:	0000002c 	andeq	r0, r0, ip, lsr #32
    2120:	00000c22 	andeq	r0, r0, r2, lsr #24
    2124:	00000c1a 	andeq	r0, r0, sl, lsl ip
    2128:	0100760e 	tsteq	r0, lr, lsl #12
    212c:	002c2832 	eoreq	r2, ip, r2, lsr r8
    2130:	0c640000 	stcleq	0, cr0, [r4], #-0
    2134:	0c5c0000 	mraeq	r0, ip, acc0
    2138:	fc120000 	ldc2	0, cr0, [r2], {-0}
    213c:	8000008c 	andhi	r0, r0, ip, lsl #1
    2140:	2f000002 	svccs	0x00000002
    2144:	10000002 	andne	r0, r0, r2
    2148:	f3035001 	vhadd.u8	d5, d3, d1
    214c:	13005001 	movwne	r5, #1
    2150:	00008d04 	andeq	r8, r0, r4, lsl #26
    2154:	00000239 	andeq	r0, r0, r9, lsr r2
    2158:	00ae1100 	adceq	r1, lr, r0, lsl #2
    215c:	2d010000 	stccs	0, cr0, [r1, #-0]
    2160:	008cd006 	addeq	sp, ip, r6
    2164:	00001c00 	andeq	r1, r0, r0, lsl #24
    2168:	809c0100 	addshi	r0, ip, r0, lsl #2
    216c:	0e000002 	cdpeq	0, 0, cr0, cr0, cr2, {0}
    2170:	006e6970 	rsbeq	r6, lr, r0, ror r9
    2174:	2c1c2d01 	ldccs	13, cr2, [ip], {1}
    2178:	a2000000 	andge	r0, r0, #0, 0
    217c:	9e00000c 	cdpls	0, 0, cr0, cr0, cr12, {0}
    2180:	0f00000c 	svceq	0x0000000c
    2184:	00008ce4 	andeq	r8, r0, r4, ror #25
    2188:	000003b2 			; <UNDEFINED> instruction: 0x000003b2
    218c:	05500110 	ldrbeq	r0, [r0, #-272]	; 0xfffffef0
    2190:	2000280c 	andcs	r2, r0, ip, lsl #16
    2194:	51011020 	tstpl	r1, r0, lsr #32
    2198:	01f33105 	mvnseq	r3, r5, lsl #2
    219c:	00002450 	andeq	r2, r0, r0, asr r4
    21a0:	0001d711 	andeq	sp, r1, r1, lsl r7
    21a4:	06280100 	strteq	r0, [r8], -r0, lsl #2
    21a8:	00008cb4 			; <UNDEFINED> instruction: 0x00008cb4
    21ac:	0000001c 	andeq	r0, r0, ip, lsl r0
    21b0:	02c79c01 	sbceq	r9, r7, #256	; 0x100
    21b4:	700e0000 	andvc	r0, lr, r0
    21b8:	01006e69 	tsteq	r0, r9, ror #28
    21bc:	002c1b28 	eoreq	r1, ip, r8, lsr #22
    21c0:	0cc70000 	stcleq	0, cr0, [r7], {0}
    21c4:	0cc30000 	stcleq	0, cr0, [r3], {0}
    21c8:	c80f0000 	stmdagt	pc, {}	; <UNPREDICTABLE>
    21cc:	b200008c 	andlt	r0, r0, #140, 0	; 0x8c
    21d0:	10000003 	andne	r0, r0, r3
    21d4:	0c055001 	stceq	0, cr5, [r5], {1}
    21d8:	2020001c 	eorcs	r0, r0, ip, lsl r0
    21dc:	05510110 	ldrbeq	r0, [r1, #-272]	; 0xfffffef0
    21e0:	5001f331 	andpl	pc, r1, r1, lsr r3	; <UNPREDICTABLE>
    21e4:	11000024 	tstne	r0, r4, lsr #32
    21e8:	000000bb 	strheq	r0, [r0], -fp
    21ec:	a4062301 	strge	r2, [r6], #-769	; 0xfffffcff
    21f0:	1000008c 	andne	r0, r0, ip, lsl #1
    21f4:	01000000 	mrseq	r0, (UNDEF: 0)
    21f8:	0003089c 	muleq	r3, ip, r8
    21fc:	69700e00 	ldmdbvs	r0!, {r9, sl, fp}^
    2200:	2301006e 	movwcs	r0, #4206	; 0x106e
    2204:	00002c1f 	andeq	r2, r0, pc, lsl ip
    2208:	000cec00 	andeq	lr, ip, r0, lsl #24
    220c:	000ce800 	andeq	lr, ip, r0, lsl #16
    2210:	8cb00f00 	ldchi	15, cr0, [r0]
    2214:	03080000 	movweq	r0, #32768	; 0x8000
    2218:	01100000 	tsteq	r0, r0
    221c:	01f30350 	mvnseq	r0, r0, asr r3
    2220:	51011050 	qaddpl	r1, r0, r1
    2224:	00003101 	andeq	r3, r0, r1, lsl #2
    2228:	0006f111 	andeq	pc, r6, r1, lsl r1	; <UNPREDICTABLE>
    222c:	06140100 	ldreq	r0, [r4], -r0, lsl #2
    2230:	00008c50 	andeq	r8, r0, r0, asr ip
    2234:	00000054 	andeq	r0, r0, r4, asr r0
    2238:	03a69c01 			; <UNDEFINED> instruction: 0x03a69c01
    223c:	700e0000 	andvc	r0, lr, r0
    2240:	01006e69 	tsteq	r0, r9, ror #28
    2244:	002c2114 	eoreq	r2, ip, r4, lsl r1
    2248:	0d110000 	ldceq	0, cr0, [r1, #-0]
    224c:	0d0d0000 	stceq	0, cr0, [sp, #-0]
    2250:	660e0000 	strvs	r0, [lr], -r0
    2254:	14010076 	strne	r0, [r1], #-118	; 0xffffff8a
    2258:	00010f32 	andeq	r0, r1, r2, lsr pc
    225c:	000d3300 	andeq	r3, sp, r0, lsl #6
    2260:	000d2f00 	andeq	r2, sp, r0, lsl #30
    2264:	07551400 	ldrbeq	r1, [r5, -r0, lsl #8]
    2268:	15010000 	strne	r0, [r1, #-0]
    226c:	0000620e 	andeq	r6, r0, lr, lsl #4
    2270:	000d5600 	andeq	r5, sp, r0, lsl #12
    2274:	000d5400 	andeq	r5, sp, r0, lsl #8
    2278:	071d1400 	ldreq	r1, [sp, -r0, lsl #8]
    227c:	16010000 	strne	r0, [r1], -r0
    2280:	0000620e 	andeq	r6, r0, lr, lsl #4
    2284:	000d6b00 	andeq	r6, sp, r0, lsl #22
    2288:	000d6900 	andeq	r6, sp, r0, lsl #18
    228c:	070d1400 	streq	r1, [sp, -r0, lsl #8]
    2290:	17010000 	strne	r0, [r1, -r0]
    2294:	0000620e 	andeq	r6, r0, lr, lsl #4
    2298:	000d8000 	andeq	r8, sp, r0
    229c:	000d7e00 	andeq	r7, sp, r0, lsl #28
    22a0:	8c7c1200 	lfmhi	f1, 2, [ip], #-0
    22a4:	03a60000 			; <UNDEFINED> instruction: 0x03a60000
    22a8:	03950000 	orrseq	r0, r5, #0, 0
    22ac:	01100000 	tsteq	r0, r0
    22b0:	00770250 	rsbseq	r0, r7, r0, asr r2
    22b4:	8c9c0f00 	ldchi	15, cr0, [ip], {0}
    22b8:	03b20000 			; <UNDEFINED> instruction: 0x03b20000
    22bc:	01100000 	tsteq	r0, r0
    22c0:	00770250 	rsbseq	r0, r7, r0, asr r2
    22c4:	ea150000 	b	5422cc <__bss_end__+0x538f3c>
    22c8:	ea000001 	b	22d4 <__code_start__-0x5d2c>
    22cc:	02000001 	andeq	r0, r0, #1, 0
    22d0:	44150aad 	ldrmi	r0, [r5], #-2733	; 0xfffff553
    22d4:	44000002 	strmi	r0, [r0], #-2
    22d8:	02000002 	andeq	r0, r0, #2, 0
    22dc:	490006a1 	stmdbmi	r0, {r0, r5, r7, r9, sl}
    22e0:	04000001 	streq	r0, [r0], #-1
    22e4:	000dc600 	andeq	ip, sp, r0, lsl #12
    22e8:	1a010400 	bne	432f0 <__bss_end__+0x39f60>
    22ec:	0c000001 	stceq	0, cr0, [r0], {1}
    22f0:	0000079a 	muleq	r0, sl, r7
    22f4:	0000031e 	andeq	r0, r0, lr, lsl r3
    22f8:	00008d38 	andeq	r8, r0, r8, lsr sp
    22fc:	0000003c 	andeq	r0, r0, ip, lsr r0
    2300:	00001189 	andeq	r1, r0, r9, lsl #3
    2304:	69050402 	stmdbvs	r5, {r1, sl}
    2308:	0300746e 	movweq	r7, #1134	; 0x46e
    230c:	00e90704 	rsceq	r0, r9, r4, lsl #14
    2310:	01030000 	mrseq	r0, (UNDEF: 3)
    2314:	00007606 	andeq	r7, r0, r6, lsl #12
    2318:	05020300 	streq	r0, [r2, #-768]	; 0xfffffd00
    231c:	00000110 	andeq	r0, r0, r0, lsl r1
    2320:	fb050403 	blx	143336 <__bss_end__+0x139fa6>
    2324:	03000000 	movweq	r0, #0
    2328:	00f60508 	rscseq	r0, r6, r8, lsl #10
    232c:	01030000 	mrseq	r0, (UNDEF: 3)
    2330:	00007408 	andeq	r7, r0, r8, lsl #8
    2334:	07020300 	streq	r0, [r2, -r0, lsl #6]
    2338:	0000009b 	muleq	r0, fp, r0
    233c:	e4070403 	str	r0, [r7], #-1027	; 0xfffffbfd
    2340:	03000000 	movweq	r0, #0
    2344:	00df0708 	sbcseq	r0, pc, r8, lsl #14
    2348:	25040000 	strcs	r0, [r4, #-0]
    234c:	7a000000 	bvc	2354 <__code_start__-0x5cac>
    2350:	05000000 	streq	r0, [r0, #-0]
    2354:	00000025 	andeq	r0, r0, r5, lsr #32
    2358:	01040600 	tsteq	r4, r0, lsl #12
    235c:	1c020000 	stcne	0, cr0, [r2], {-0}
    2360:	0000860e 	andeq	r8, r0, lr, lsl #12
    2364:	6b040700 	blvs	103f6c <__bss_end__+0xfabdc>
    2368:	04000000 	streq	r0, [r0], #-0
    236c:	00000025 	andeq	r0, r0, r5, lsr #32
    2370:	0000009b 	muleq	r0, fp, r0
    2374:	00009b05 	andeq	r9, r0, r5, lsl #22
    2378:	04070000 	streq	r0, [r7], #-0
    237c:	000000a8 	andeq	r0, r0, r8, lsr #1
    2380:	7d080103 	stfvcs	f0, [r8, #-12]
    2384:	08000000 	stmdaeq	r0, {}	; <UNPREDICTABLE>
    2388:	000000a1 	andeq	r0, r0, r1, lsr #1
    238c:	00035906 	andeq	r5, r3, r6, lsl #18
    2390:	0e210200 	cdpeq	2, 2, cr0, cr1, cr0, {0}
    2394:	000000b9 	strheq	r0, [r0], -r9
    2398:	008c0407 	addeq	r0, ip, r7, lsl #8
    239c:	7a090000 	bvc	2423a4 <__bss_end__+0x239014>
    23a0:	01000000 	mrseq	r0, (UNDEF: 0)
    23a4:	03050706 	movweq	r0, #22278	; 0x5706
    23a8:	00008f80 	andeq	r8, r0, r0, lsl #31
    23ac:	00078d0a 	andeq	r8, r7, sl, lsl #26
    23b0:	060b0100 	streq	r0, [fp], -r0, lsl #2
    23b4:	00008d64 	andeq	r8, r0, r4, ror #26
    23b8:	00000010 	andeq	r0, r0, r0, lsl r0
    23bc:	00f19c01 	rscseq	r9, r1, r1, lsl #24
    23c0:	660b0000 	strvs	r0, [fp], -r0
    23c4:	0b010070 	bleq	4258c <__bss_end__+0x391fc>
    23c8:	00008619 	andeq	r8, r0, r9, lsl r6
    23cc:	00500100 	subseq	r0, r0, r0, lsl #2
    23d0:	0007a90c 	andeq	sl, r7, ip, lsl #18
    23d4:	06080100 	streq	r0, [r8], -r0, lsl #2
    23d8:	00008d4c 	andeq	r8, r0, ip, asr #26
    23dc:	00000018 	andeq	r0, r0, r8, lsl r0
    23e0:	7c0d9c01 	stcvc	12, cr9, [sp], {1}
    23e4:	01000007 	tsteq	r0, r7
    23e8:	00250c03 	eoreq	r0, r5, r3, lsl #24
    23ec:	8d380000 	ldchi	0, cr0, [r8, #-0]
    23f0:	00140000 	andseq	r0, r4, r0
    23f4:	9c010000 	stcls	0, cr0, [r1], {-0}
    23f8:	00000140 	andeq	r0, r0, r0, asr #2
    23fc:	0100630e 	tsteq	r0, lr, lsl #6
    2400:	00252103 	eoreq	r2, r5, r3, lsl #2
    2404:	0d970000 	ldceq	0, cr0, [r7]
    2408:	0d930000 	ldceq	0, cr0, [r3]
    240c:	440f0000 	strmi	r0, [pc], #-0	; 2414 <__code_start__-0x5bec>
    2410:	4000008d 	andmi	r0, r0, sp, lsl #1
    2414:	10000001 	andne	r0, r0, r1
    2418:	74025001 	strvc	r5, [r2], #-1
    241c:	11000000 	mrsne	r0, (UNDEF: 0)
    2420:	000005a7 	andeq	r0, r0, r7, lsr #11
    2424:	000005a7 	andeq	r0, r0, r7, lsr #11
    2428:	00063b02 	andeq	r3, r6, r2, lsl #22
    242c:	00000137 	andeq	r0, r0, r7, lsr r1
    2430:	0ed50004 	cdpeq	0, 13, cr0, cr5, cr4, {0}
    2434:	01040000 	mrseq	r0, (UNDEF: 4)
    2438:	0000011a 	andeq	r0, r0, sl, lsl r1
    243c:	0007b80c 	andeq	fp, r7, ip, lsl #16
    2440:	00031e00 	andeq	r1, r3, r0, lsl #28
    2444:	008d7400 	addeq	r7, sp, r0, lsl #8
    2448:	00003400 	andeq	r3, r0, r0, lsl #8
    244c:	00123300 	andseq	r3, r2, r0, lsl #6
    2450:	05040200 	streq	r0, [r4, #-512]	; 0xfffffe00
    2454:	00746e69 	rsbseq	r6, r4, r9, ror #28
    2458:	e9070403 	stmdb	r7, {r0, r1, sl}
    245c:	03000000 	movweq	r0, #0
    2460:	00760601 	rsbseq	r0, r6, r1, lsl #12
    2464:	02030000 	andeq	r0, r3, #0, 0
    2468:	00011005 	andeq	r1, r1, r5
    246c:	05040300 	streq	r0, [r4, #-768]	; 0xfffffd00
    2470:	000000fb 	strdeq	r0, [r0], -fp
    2474:	f6050803 			; <UNDEFINED> instruction: 0xf6050803
    2478:	03000000 	movweq	r0, #0
    247c:	00740801 	rsbseq	r0, r4, r1, lsl #16
    2480:	02030000 	andeq	r0, r3, #0, 0
    2484:	00009b07 	andeq	r9, r0, r7, lsl #22
    2488:	07040300 	streq	r0, [r4, -r0, lsl #6]
    248c:	000000e4 	andeq	r0, r0, r4, ror #1
    2490:	df070803 	svcle	0x00070803
    2494:	04000000 	streq	r0, [r0], #-0
    2498:	00000025 	andeq	r0, r0, r5, lsr #32
    249c:	0000007a 	andeq	r0, r0, sl, ror r0
    24a0:	00002505 	andeq	r2, r0, r5, lsl #10
    24a4:	04060000 	streq	r0, [r6], #-0
    24a8:	02000001 	andeq	r0, r0, #1, 0
    24ac:	00860e1c 	addeq	r0, r6, ip, lsl lr
    24b0:	04070000 	streq	r0, [r7], #-0
    24b4:	0000006b 	andeq	r0, r0, fp, rrx
    24b8:	00002504 	andeq	r2, r0, r4, lsl #10
    24bc:	00009b00 	andeq	r9, r0, r0, lsl #22
    24c0:	009b0500 	addseq	r0, fp, r0, lsl #10
    24c4:	07000000 	streq	r0, [r0, -r0]
    24c8:	0000a804 	andeq	sl, r0, r4, lsl #16
    24cc:	08010300 	stmdaeq	r1, {r8, r9}
    24d0:	0000007d 	andeq	r0, r0, sp, ror r0
    24d4:	0000a108 	andeq	sl, r0, r8, lsl #2
    24d8:	03590600 	cmpeq	r9, #0, 12
    24dc:	21020000 	mrscs	r0, (UNDEF: 2)
    24e0:	0000b90e 	andeq	fp, r0, lr, lsl #18
    24e4:	8c040700 	stchi	7, cr0, [r4], {-0}
    24e8:	09000000 	stmdbeq	r0, {}	; <UNPREDICTABLE>
    24ec:	000003f8 	strdeq	r0, [r0], -r8
    24f0:	34070401 	strcc	r0, [r7], #-1025	; 0xfffffbff
    24f4:	74000001 	strvc	r0, [r0], #-1
    24f8:	3400008d 	strcc	r0, [r0], #-141	; 0xffffff73
    24fc:	01000000 	mrseq	r0, (UNDEF: 0)
    2500:	0001349c 	muleq	r1, ip, r4
    2504:	07c60a00 	strbeq	r0, [r6, r0, lsl #20]
    2508:	04010000 	streq	r0, [r1], #-0
    250c:	00013415 	andeq	r3, r1, r5, lsl r4
    2510:	0b500100 	bleq	1402918 <__bss_end__+0x13f9588>
    2514:	00637273 	rsbeq	r7, r3, r3, ror r2
    2518:	9b270401 	blls	9c3524 <__bss_end__+0x9ba194>
    251c:	b9000000 	stmdblt	r0, {}	; <UNPREDICTABLE>
    2520:	b500000d 	strlt	r0, [r0, #-13]
    2524:	0c00000d 	stceq	0, cr0, [r0], {13}
    2528:	01003173 	tsteq	r0, r3, ror r1
    252c:	01340b05 	teqeq	r4, r5, lsl #22
    2530:	0de40000 	stcleq	0, cr0, [r4]
    2534:	0dda0000 	ldcleq	0, cr0, [sl]
    2538:	730c0000 	movwvc	r0, #49152	; 0xc000
    253c:	06010032 			; <UNDEFINED> instruction: 0x06010032
    2540:	00009b11 	andeq	r9, r0, r1, lsl fp
    2544:	000e2900 	andeq	r2, lr, r0, lsl #18
    2548:	000e2500 	andeq	r2, lr, r0, lsl #10
    254c:	00630c00 	rsbeq	r0, r3, r0, lsl #24
    2550:	a10a0701 	tstge	sl, r1, lsl #14
    2554:	4d000000 	stcmi	0, cr0, [r0, #-0]
    2558:	4900000e 	stmdbmi	r0, {r1, r2, r3}
    255c:	0000000e 	andeq	r0, r0, lr
    2560:	00a10407 	adceq	r0, r1, r7, lsl #8
    2564:	4e000000 	cdpmi	0, 0, cr0, cr0, cr0, {0}
    2568:	04000001 	streq	r0, [r0], #-1
    256c:	000f8b00 	andeq	r8, pc, r0, lsl #22
    2570:	1a010400 	bne	43578 <__bss_end__+0x3a1e8>
    2574:	0c000001 	stceq	0, cr0, [r0], {1}
    2578:	000007d2 	ldrdeq	r0, [r0], -r2
    257c:	0000031e 	andeq	r0, r0, lr, lsl r3
    2580:	00000028 	andeq	r0, r0, r8, lsr #32
    2584:	00000000 	andeq	r0, r0, r0
    2588:	00001329 	andeq	r1, r0, r9, lsr #6
    258c:	69050402 	stmdbvs	r5, {r1, sl}
    2590:	0300746e 	movweq	r7, #1134	; 0x46e
    2594:	000007cb 	andeq	r0, r0, fp, asr #15
    2598:	3817d103 	ldmdacc	r7, {r0, r1, r8, ip, lr, pc}
    259c:	04000000 	streq	r0, [r0], #-0
    25a0:	00e90704 	rsceq	r0, r9, r4, lsl #14
    25a4:	01040000 	mrseq	r0, (UNDEF: 4)
    25a8:	00007606 	andeq	r7, r0, r6, lsl #12
    25ac:	05020400 	streq	r0, [r2, #-1024]	; 0xfffffc00
    25b0:	00000110 	andeq	r0, r0, r0, lsl r1
    25b4:	fb050404 	blx	1435ce <__bss_end__+0x13a23e>
    25b8:	04000000 	streq	r0, [r0], #-0
    25bc:	00f60508 	rscseq	r0, r6, r8, lsl #10
    25c0:	01040000 	mrseq	r0, (UNDEF: 4)
    25c4:	00007408 	andeq	r7, r0, r8, lsl #8
    25c8:	005b0500 	subseq	r0, fp, r0, lsl #10
    25cc:	02040000 	andeq	r0, r4, #0, 0
    25d0:	00009b07 	andeq	r9, r0, r7, lsl #22
    25d4:	07040400 	streq	r0, [r4, -r0, lsl #8]
    25d8:	000000e4 	andeq	r0, r0, r4, ror #1
    25dc:	df070804 	svcle	0x00070804
    25e0:	06000000 	streq	r0, [r0], -r0
    25e4:	00000025 	andeq	r0, r0, r5, lsr #32
    25e8:	0000008b 	andeq	r0, r0, fp, lsl #1
    25ec:	00002507 	andeq	r2, r0, r7, lsl #10
    25f0:	04080000 	streq	r0, [r8], #-0
    25f4:	02000001 	andeq	r0, r0, #1, 0
    25f8:	00970e1c 	addseq	r0, r7, ip, lsl lr
    25fc:	04090000 	streq	r0, [r9], #-0
    2600:	0000007c 	andeq	r0, r0, ip, ror r0
    2604:	00002506 	andeq	r2, r0, r6, lsl #10
    2608:	0000ac00 	andeq	sl, r0, r0, lsl #24
    260c:	00ac0700 	adceq	r0, ip, r0, lsl #14
    2610:	09000000 	stmdbeq	r0, {}	; <UNPREDICTABLE>
    2614:	0000b904 	andeq	fp, r0, r4, lsl #18
    2618:	08010400 	stmdaeq	r1, {sl}
    261c:	0000007d 	andeq	r0, r0, sp, ror r0
    2620:	0000b205 	andeq	fp, r0, r5, lsl #4
    2624:	03590800 	cmpeq	r9, #0, 16
    2628:	21020000 	mrscs	r0, (UNDEF: 2)
    262c:	0000ca0e 	andeq	ip, r0, lr, lsl #20
    2630:	9d040900 	vstrls.16	s0, [r4, #-0]	; <UNPREDICTABLE>
    2634:	0a000000 	beq	263c <__code_start__-0x59c4>
    2638:	00000448 	andeq	r0, r0, r8, asr #8
    263c:	25050401 	strcs	r0, [r5, #-1025]	; 0xfffffbff
    2640:	a8000000 	stmdage	r0, {}	; <UNPREDICTABLE>
    2644:	2c00008d 	stccs	0, cr0, [r0], {141}	; 0x8d
    2648:	01000000 	mrseq	r0, (UNDEF: 0)
    264c:	00014b9c 	muleq	r1, ip, fp
    2650:	735f0b00 	cmpvc	pc, #0, 22
    2654:	04010031 	streq	r0, [r1], #-49	; 0xffffffcf
    2658:	0000ac19 	andeq	sl, r0, r9, lsl ip
    265c:	000e6f00 	andeq	r6, lr, r0, lsl #30
    2660:	000e6b00 	andeq	r6, lr, r0, lsl #22
    2664:	735f0b00 	cmpvc	pc, #0, 22
    2668:	04010032 	streq	r0, [r1], #-50	; 0xffffffce
    266c:	0000ac2a 	andeq	sl, r0, sl, lsr #24
    2670:	000e9400 	andeq	r9, lr, r0, lsl #8
    2674:	000e9000 	andeq	r9, lr, r0
    2678:	006e0b00 	rsbeq	r0, lr, r0, lsl #22
    267c:	2c360401 	cfldrscs	mvf0, [r6], #-4
    2680:	bb000000 	bllt	2688 <__code_start__-0x5978>
    2684:	b500000e 	strlt	r0, [r0, #-14]
    2688:	0c00000e 	stceq	0, cr0, [r0], {14}
    268c:	01003173 	tsteq	r0, r3, ror r1
    2690:	014b1a05 	cmpeq	fp, r5, lsl #20
    2694:	0eee0000 	cdpeq	0, 14, cr0, cr14, cr0, {0}
    2698:	0ee60000 	cdpeq	0, 14, cr0, cr6, cr0, {0}
    269c:	730c0000 	movwvc	r0, #49152	; 0xc000
    26a0:	05010032 	streq	r0, [r1, #-50]	; 0xffffffce
    26a4:	00014b2c 	andeq	r4, r1, ip, lsr #22
    26a8:	000f2a00 	andeq	r2, pc, r0, lsl #20
    26ac:	000f2400 	andeq	r2, pc, r0, lsl #8
    26b0:	04090000 	streq	r0, [r9], #-0
    26b4:	00000062 	andeq	r0, r0, r2, rrx
	...

Disassembly of section .debug_abbrev:

00000000 <.debug_abbrev>:
       0:	25011101 	strcs	r1, [r1, #-257]	; 0xfffffeff
       4:	030b130e 	movweq	r1, #45838	; 0xb30e
       8:	110e1b0e 	tstne	lr, lr, lsl #22
       c:	10061201 	andne	r1, r6, r1, lsl #4
      10:	02000017 	andeq	r0, r0, #23, 0
      14:	0b0b0024 	bleq	2c00ac <__bss_end__+0x2b6d1c>
      18:	08030b3e 	stmdaeq	r3, {r1, r2, r3, r4, r5, r8, r9, fp}
      1c:	24030000 	strcs	r0, [r3], #-0
      20:	3e0b0b00 	vmlacc.f64	d0, d11, d0
      24:	000e030b 	andeq	r0, lr, fp, lsl #6
      28:	01150400 	tsteq	r5, r0, lsl #8
      2c:	13491927 	movtne	r1, #39207	; 0x9927
      30:	00001301 	andeq	r1, r0, r1, lsl #6
      34:	49000505 	stmdbmi	r0, {r0, r2, r8, sl}
      38:	06000013 			; <UNDEFINED> instruction: 0x06000013
      3c:	0e030034 	mcreq	0, 0, r0, cr3, cr4, {1}
      40:	0b3b0b3a 	bleq	ec2d30 <__bss_end__+0xeb99a0>
      44:	13490b39 	movtne	r0, #39737	; 0x9b39
      48:	193c193f 	ldmdbne	ip!, {r0, r1, r2, r3, r4, r5, r8, fp, ip}
      4c:	0f070000 	svceq	0x00070000
      50:	490b0b00 	stmdbmi	fp, {r8, r9, fp}
      54:	08000013 	stmdaeq	r0, {r0, r1, r4}
      58:	13490026 	movtne	r0, #36902	; 0x9026
      5c:	2e090000 	cdpcs	0, 0, cr0, cr9, cr0, {0}
      60:	03193f01 	tsteq	r9, #1, 30
      64:	3b0b3a0e 	blcc	2ce8a4 <__bss_end__+0x2c5514>
      68:	270b390b 	strcs	r3, [fp, -fp, lsl #18]
      6c:	12011119 	andne	r1, r1, #1073741830	; 0x40000006
      70:	97184006 	ldrls	r4, [r8, -r6]
      74:	13011942 	movwne	r1, #6466	; 0x1942
      78:	040a0000 	streq	r0, [sl], #-0
      7c:	0b0b3e01 	bleq	2cf888 <__bss_end__+0x2c64f8>
      80:	3a13490b 	bcc	4d24b4 <__bss_end__+0x4c9124>
      84:	390b3b0b 	stmdbcc	fp, {r0, r1, r3, r8, r9, fp, ip, sp}
      88:	0013010b 	andseq	r0, r3, fp, lsl #2
      8c:	00280b00 	eoreq	r0, r8, r0, lsl #22
      90:	0b1c0e03 	bleq	7038a4 <__bss_end__+0x6fa514>
      94:	0b0c0000 	bleq	30009c <__bss_end__+0x2f6d0c>
      98:	12011101 	andne	r1, r1, #1073741824	; 0x40000000
      9c:	00130106 	andseq	r0, r3, r6, lsl #2
      a0:	00340d00 	eorseq	r0, r4, r0, lsl #26
      a4:	0b3a0803 	bleq	e820b8 <__bss_end__+0xe78d28>
      a8:	0b390b3b 	bleq	e42d9c <__bss_end__+0xe39a0c>
      ac:	17021349 	strne	r1, [r2, -r9, asr #6]
      b0:	001742b7 			; <UNDEFINED> instruction: 0x001742b7
      b4:	82890e00 	addhi	r0, r9, #0, 28
      b8:	01110101 	tsteq	r1, r1, lsl #2
      bc:	13011331 	movwne	r1, #4913	; 0x1331
      c0:	8a0f0000 	bhi	3c00c8 <__bss_end__+0x3b6d38>
      c4:	02000182 	andeq	r0, r0, #-2147483616	; 0x80000020
      c8:	18429118 	stmdane	r2, {r3, r4, r8, ip, pc}^
      cc:	89100000 	ldmdbhi	r0, {}	; <UNPREDICTABLE>
      d0:	11010182 	smlabbne	r1, r2, r1, r0
      d4:	00133101 	andseq	r3, r3, r1, lsl #2
      d8:	82891100 	addhi	r1, r9, #0
      dc:	01110001 	tsteq	r1, r1
      e0:	00001331 	andeq	r1, r0, r1, lsr r3
      e4:	3f002e12 	svccc	0x00002e12
      e8:	6e193c19 	mrcvs	12, 0, r3, cr9, cr9, {0}
      ec:	3a0e030e 	bcc	380d2c <__bss_end__+0x37799c>
      f0:	390b3b0b 	stmdbcc	fp, {r0, r1, r3, r8, r9, fp, ip, sp}
      f4:	0000000b 	andeq	r0, r0, fp
      f8:	25011101 	strcs	r1, [r1, #-257]	; 0xfffffeff
      fc:	030b130e 	movweq	r1, #45838	; 0xb30e
     100:	110e1b0e 	tstne	lr, lr, lsl #22
     104:	10061201 	andne	r1, r6, r1, lsl #4
     108:	02000017 	andeq	r0, r0, #23, 0
     10c:	0b0b0024 	bleq	2c01a4 <__bss_end__+0x2b6e14>
     110:	08030b3e 	stmdaeq	r3, {r1, r2, r3, r4, r5, r8, r9, fp}
     114:	24030000 	strcs	r0, [r3], #-0
     118:	3e0b0b00 	vmlacc.f64	d0, d11, d0
     11c:	000e030b 	andeq	r0, lr, fp, lsl #6
     120:	00160400 	andseq	r0, r6, r0, lsl #8
     124:	0b3a0e03 	bleq	e83938 <__bss_end__+0xe7a5a8>
     128:	0b390b3b 	bleq	e42e1c <__bss_end__+0xe39a8c>
     12c:	00001349 	andeq	r1, r0, r9, asr #6
     130:	27011505 	strcs	r1, [r1, -r5, lsl #10]
     134:	01134919 	tsteq	r3, r9, lsl r9
     138:	06000013 			; <UNDEFINED> instruction: 0x06000013
     13c:	13490005 	movtne	r0, #36869	; 0x9005
     140:	34070000 	strcc	r0, [r7], #-0
     144:	3a0e0300 	bcc	380d4c <__bss_end__+0x3779bc>
     148:	390b3b0b 	stmdbcc	fp, {r0, r1, r3, r8, r9, fp, ip, sp}
     14c:	3f13490b 	svccc	0x0013490b
     150:	00193c19 	andseq	r3, r9, r9, lsl ip
     154:	000f0800 	andeq	r0, pc, r0, lsl #16
     158:	13490b0b 	movtne	r0, #39691	; 0x9b0b
     15c:	26090000 	strcs	r0, [r9], -r0
     160:	00134900 	andseq	r4, r3, r0, lsl #18
     164:	00340a00 	eorseq	r0, r4, r0, lsl #20
     168:	0b3a0e03 	bleq	e8397c <__bss_end__+0xe7a5ec>
     16c:	0b390b3b 	bleq	e42e60 <__bss_end__+0xe39ad0>
     170:	193f1349 	ldmdbne	pc!, {r0, r3, r6, r8, r9, ip}	; <UNPREDICTABLE>
     174:	00001802 	andeq	r1, r0, r2, lsl #16
     178:	3e01040b 	cdpcc	4, 0, cr0, cr1, cr11, {0}
     17c:	490b0b0b 	stmdbmi	fp, {r0, r1, r3, r8, r9, fp}
     180:	3b0b3a13 	blcc	2ce9d4 <__bss_end__+0x2c5644>
     184:	010b390b 	tsteq	fp, fp, lsl #18
     188:	0c000013 	stceq	0, cr0, [r0], {19}
     18c:	0e030028 	cdpeq	0, 0, cr0, cr3, cr8, {1}
     190:	00000b1c 	andeq	r0, r0, ip, lsl fp
     194:	0300340d 	movweq	r3, #1037	; 0x40d
     198:	3b0b3a0e 	blcc	2ce9d8 <__bss_end__+0x2c5648>
     19c:	490b390b 	stmdbmi	fp, {r0, r1, r3, r8, fp, ip, sp}
     1a0:	00180213 	andseq	r0, r8, r3, lsl r2
     1a4:	012e0e00 			; <UNDEFINED> instruction: 0x012e0e00
     1a8:	0e03193f 			; <UNDEFINED> instruction: 0x0e03193f
     1ac:	0b3b0b3a 	bleq	ec2e9c <__bss_end__+0xeb9b0c>
     1b0:	19270b39 	stmdbne	r7!, {r0, r3, r4, r5, r8, r9, fp}
     1b4:	01111349 	tsteq	r1, r9, asr #6
     1b8:	18400612 	stmdane	r0, {r1, r4, r9, sl}^
     1bc:	01194297 			; <UNDEFINED> instruction: 0x01194297
     1c0:	0f000013 	svceq	0x00000013
     1c4:	0e030005 	cdpeq	0, 0, cr0, cr3, cr5, {0}
     1c8:	0b3b0b3a 	bleq	ec2eb8 <__bss_end__+0xeb9b28>
     1cc:	13490b39 	movtne	r0, #39737	; 0x9b39
     1d0:	42b71702 	adcsmi	r1, r7, #524288	; 0x80000
     1d4:	10000017 	andne	r0, r0, r7, lsl r0
     1d8:	08030034 	stmdaeq	r3, {r2, r4, r5}
     1dc:	0b3b0b3a 	bleq	ec2ecc <__bss_end__+0xeb9b3c>
     1e0:	13490b39 	movtne	r0, #39737	; 0x9b39
     1e4:	42b71702 	adcsmi	r1, r7, #524288	; 0x80000
     1e8:	11000017 	tstne	r0, r7, lsl r0
     1ec:	01018289 	smlabbeq	r1, r9, r2, r8
     1f0:	13310111 	teqne	r1, #1073741828	; 0x40000004
     1f4:	00001301 	andeq	r1, r0, r1, lsl #6
     1f8:	01828a12 	orreq	r8, r2, r2, lsl sl
     1fc:	91180200 	tstls	r8, r0, lsl #4
     200:	00001842 	andeq	r1, r0, r2, asr #16
     204:	01828913 	orreq	r8, r2, r3, lsl r9
     208:	31011101 	tstcc	r1, r1, lsl #2
     20c:	14000013 	strne	r0, [r0], #-19	; 0xffffffed
     210:	193f012e 	ldmdbne	pc!, {r1, r2, r3, r5, r8}	; <UNPREDICTABLE>
     214:	0b3a0e03 	bleq	e83a28 <__bss_end__+0xe7a698>
     218:	0b390b3b 	bleq	e42f0c <__bss_end__+0xe39b7c>
     21c:	01111927 	tsteq	r1, r7, lsr #18
     220:	18400612 	stmdane	r0, {r1, r4, r9, sl}^
     224:	01194297 			; <UNDEFINED> instruction: 0x01194297
     228:	15000013 	strne	r0, [r0, #-19]	; 0xffffffed
     22c:	08030005 	stmdaeq	r3, {r0, r2}
     230:	0b3b0b3a 	bleq	ec2f20 <__bss_end__+0xeb9b90>
     234:	13490b39 	movtne	r0, #39737	; 0x9b39
     238:	42b71702 	adcsmi	r1, r7, #524288	; 0x80000
     23c:	16000017 			; <UNDEFINED> instruction: 0x16000017
     240:	00018289 	andeq	r8, r1, r9, lsl #5
     244:	13310111 	teqne	r1, #1073741828	; 0x40000004
     248:	2e170000 	cdpcs	0, 1, cr0, cr7, cr0, {0}
     24c:	3a0e0301 	bcc	380e58 <__bss_end__+0x377ac8>
     250:	390b3b0b 	stmdbcc	fp, {r0, r1, r3, r8, r9, fp, ip, sp}
     254:	1119270b 	tstne	r9, fp, lsl #14
     258:	40061201 	andmi	r1, r6, r1, lsl #4
     25c:	19429718 	stmdbne	r2, {r3, r4, r8, r9, sl, ip, pc}^
     260:	00001301 	andeq	r1, r0, r1, lsl #6
     264:	03003418 	movweq	r3, #1048	; 0x418
     268:	3413490e 	ldrcc	r4, [r3], #-2318	; 0xfffff6f2
     26c:	00180219 	andseq	r0, r8, r9, lsl r2
     270:	01011900 	tsteq	r1, r0, lsl #18
     274:	13011349 	movwne	r1, #4937	; 0x1349
     278:	211a0000 	tstcs	sl, r0
     27c:	2f134900 	svccs	0x00134900
     280:	1b00000b 	blne	2b4 <__code_start__-0x7d4c>
     284:	193f002e 	ldmdbne	pc!, {r1, r2, r3, r5}	; <UNPREDICTABLE>
     288:	0e6e193c 			; <UNDEFINED> instruction: 0x0e6e193c
     28c:	0b3a0e03 	bleq	e83aa0 <__bss_end__+0xe7a710>
     290:	0b390b3b 	bleq	e42f84 <__bss_end__+0xe39bf4>
     294:	01000000 	mrseq	r0, (UNDEF: 0)
     298:	0e250111 	mcreq	1, 1, r0, cr5, cr1, {0}
     29c:	0e030b13 	vmoveq.32	d3[0], r0
     2a0:	01110e1b 	tsteq	r1, fp, lsl lr
     2a4:	17100612 			; <UNDEFINED> instruction: 0x17100612
     2a8:	16020000 	strne	r0, [r2], -r0
     2ac:	3a0e0300 	bcc	380eb4 <__bss_end__+0x377b24>
     2b0:	390b3b0b 	stmdbcc	fp, {r0, r1, r3, r8, r9, fp, ip, sp}
     2b4:	0013490b 	andseq	r4, r3, fp, lsl #18
     2b8:	01130300 	tsteq	r3, r0, lsl #6
     2bc:	0b0b0e03 	bleq	2c3ad0 <__bss_end__+0x2ba740>
     2c0:	0b3b0b3a 	bleq	ec2fb0 <__bss_end__+0xeb9c20>
     2c4:	00001301 	andeq	r1, r0, r1, lsl #6
     2c8:	03000d04 	movweq	r0, #3332	; 0xd04
     2cc:	3813490e 	ldmdacc	r3, {r1, r2, r3, r8, fp, lr}
     2d0:	0019340b 	andseq	r3, r9, fp, lsl #8
     2d4:	000f0500 	andeq	r0, pc, r0, lsl #10
     2d8:	00000b0b 	andeq	r0, r0, fp, lsl #22
     2dc:	0b002406 	bleq	92fc <buf.3918+0x374>
     2e0:	030b3e0b 	movweq	r3, #48651	; 0xbe0b
     2e4:	07000008 	streq	r0, [r0, -r8]
     2e8:	0b0b0024 	bleq	2c0380 <__bss_end__+0x2b6ff0>
     2ec:	0e030b3e 	vmoveq.16	d3[0], r0
     2f0:	15080000 	strne	r0, [r8, #-0]
     2f4:	49192701 	ldmdbmi	r9, {r0, r8, r9, sl, sp}
     2f8:	00130113 	andseq	r0, r3, r3, lsl r1
     2fc:	00050900 	andeq	r0, r5, r0, lsl #18
     300:	00001349 	andeq	r1, r0, r9, asr #6
     304:	0300340a 	movweq	r3, #1034	; 0x40a
     308:	3b0b3a0e 	blcc	2ceb48 <__bss_end__+0x2c57b8>
     30c:	490b390b 	stmdbmi	fp, {r0, r1, r3, r8, fp, ip, sp}
     310:	3c193f13 	ldccc	15, cr3, [r9], {19}
     314:	0b000019 	bleq	380 <__code_start__-0x7c80>
     318:	0b0b000f 	bleq	2c035c <__bss_end__+0x2b6fcc>
     31c:	00001349 	andeq	r1, r0, r9, asr #6
     320:	4900260c 	stmdbmi	r0, {r2, r3, r9, sl, sp}
     324:	0d000013 	stceq	0, cr0, [r0, #-76]	; 0xffffffb4
     328:	193f012e 	ldmdbne	pc!, {r1, r2, r3, r5, r8}	; <UNPREDICTABLE>
     32c:	0b3a0e03 	bleq	e83b40 <__bss_end__+0xe7a7b0>
     330:	0b390b3b 	bleq	e43024 <__bss_end__+0xe39c94>
     334:	13491927 	movtne	r1, #39207	; 0x9927
     338:	06120111 			; <UNDEFINED> instruction: 0x06120111
     33c:	42971840 	addsmi	r1, r7, #64, 16	; 0x400000
     340:	00130119 	andseq	r0, r3, r9, lsl r1
     344:	00050e00 	andeq	r0, r5, r0, lsl #28
     348:	0b3a0803 	bleq	e8235c <__bss_end__+0xe78fcc>
     34c:	0b390b3b 	bleq	e43040 <__bss_end__+0xe39cb0>
     350:	18021349 	stmdane	r2, {r0, r3, r6, r8, r9, ip}
     354:	180f0000 	stmdane	pc, {}	; <UNPREDICTABLE>
     358:	10000000 	andne	r0, r0, r0
     35c:	08030034 	stmdaeq	r3, {r2, r4, r5}
     360:	0b3b0b3a 	bleq	ec3050 <__bss_end__+0xeb9cc0>
     364:	13490b39 	movtne	r0, #39737	; 0x9b39
     368:	00001802 	andeq	r1, r0, r2, lsl #16
     36c:	03003411 	movweq	r3, #1041	; 0x411
     370:	3b0b3a0e 	blcc	2cebb0 <__bss_end__+0x2c5820>
     374:	490b390b 	stmdbmi	fp, {r0, r1, r3, r8, fp, ip, sp}
     378:	00180213 	andseq	r0, r8, r3, lsl r2
     37c:	00341200 	eorseq	r1, r4, r0, lsl #4
     380:	0b3a0803 	bleq	e82394 <__bss_end__+0xe79004>
     384:	0b390b3b 	bleq	e43078 <__bss_end__+0xe39ce8>
     388:	17021349 	strne	r1, [r2, -r9, asr #6]
     38c:	001742b7 			; <UNDEFINED> instruction: 0x001742b7
     390:	82891300 	addhi	r1, r9, #0, 6
     394:	01110101 	tsteq	r1, r1, lsl #2
     398:	13011331 	movwne	r1, #4913	; 0x1331
     39c:	8a140000 	bhi	5003a4 <__bss_end__+0x4f7014>
     3a0:	02000182 	andeq	r0, r0, #-2147483616	; 0x80000020
     3a4:	18429118 	stmdane	r2, {r3, r4, r8, ip, pc}^
     3a8:	89150000 	ldmdbhi	r5, {}	; <UNPREDICTABLE>
     3ac:	11010182 	smlabbne	r1, r2, r1, r0
     3b0:	16000001 	strne	r0, [r0], -r1
     3b4:	13490101 	movtne	r0, #37121	; 0x9101
     3b8:	00001301 	andeq	r1, r0, r1, lsl #6
     3bc:	49002117 	stmdbmi	r0, {r0, r1, r2, r4, r8, sp}
     3c0:	00052f13 	andeq	r2, r5, r3, lsl pc
     3c4:	002e1800 	eoreq	r1, lr, r0, lsl #16
     3c8:	193c193f 	ldmdbne	ip!, {r0, r1, r2, r3, r4, r5, r8, fp, ip}
     3cc:	0e030e6e 	cdpeq	14, 0, cr0, cr3, cr14, {3}
     3d0:	0b3b0b3a 	bleq	ec30c0 <__bss_end__+0xeb9d30>
     3d4:	00000b39 	andeq	r0, r0, r9, lsr fp
     3d8:	01110100 	tsteq	r1, r0, lsl #2
     3dc:	0b130e25 	bleq	4c3c78 <__bss_end__+0x4ba8e8>
     3e0:	0e1b0e03 	cdpeq	14, 1, cr0, cr11, cr3, {0}
     3e4:	06120111 			; <UNDEFINED> instruction: 0x06120111
     3e8:	00001710 	andeq	r1, r0, r0, lsl r7
     3ec:	0b002402 	bleq	93fc <__bss_end__+0x6c>
     3f0:	030b3e0b 	movweq	r3, #48651	; 0xbe0b
     3f4:	03000008 	movweq	r0, #8
     3f8:	0b0b0024 	bleq	2c0490 <__bss_end__+0x2b7100>
     3fc:	0e030b3e 	vmoveq.16	d3[0], r0
     400:	15040000 	strne	r0, [r4, #-0]
     404:	49192701 	ldmdbmi	r9, {r0, r8, r9, sl, sp}
     408:	00130113 	andseq	r0, r3, r3, lsl r1
     40c:	00050500 	andeq	r0, r5, r0, lsl #10
     410:	00001349 	andeq	r1, r0, r9, asr #6
     414:	03003406 	movweq	r3, #1030	; 0x406
     418:	3b0b3a0e 	blcc	2cec58 <__bss_end__+0x2c58c8>
     41c:	490b390b 	stmdbmi	fp, {r0, r1, r3, r8, fp, ip, sp}
     420:	3c193f13 	ldccc	15, cr3, [r9], {19}
     424:	07000019 	smladeq	r0, r9, r0, r0
     428:	0b0b000f 	bleq	2c046c <__bss_end__+0x2b70dc>
     42c:	00001349 	andeq	r1, r0, r9, asr #6
     430:	49002608 	stmdbmi	r0, {r3, r9, sl, sp}
     434:	09000013 	stmdbeq	r0, {r0, r1, r4}
     438:	13470034 	movtne	r0, #28724	; 0x7034
     43c:	0b3b0b3a 	bleq	ec312c <__bss_end__+0xeb9d9c>
     440:	18020b39 	stmdane	r2, {r0, r3, r4, r5, r8, r9, fp}
     444:	2e0a0000 	cdpcs	0, 0, cr0, cr10, cr0, {0}
     448:	03193f01 	tsteq	r9, #1, 30
     44c:	3b0b3a0e 	blcc	2cec8c <__bss_end__+0x2c58fc>
     450:	270b390b 	strcs	r3, [fp, -fp, lsl #18]
     454:	11134919 	tstne	r3, r9, lsl r9
     458:	40061201 	andmi	r1, r6, r1, lsl #4
     45c:	19429618 	stmdbne	r2, {r3, r4, r9, sl, ip, pc}^
     460:	050b0000 	streq	r0, [fp, #-0]
     464:	3a080300 	bcc	20106c <__bss_end__+0x1f7cdc>
     468:	390b3b0b 	stmdbcc	fp, {r0, r1, r3, r8, r9, fp, ip, sp}
     46c:	0213490b 	andseq	r4, r3, #180224	; 0x2c000
     470:	1742b717 	smlaldne	fp, r2, r7, r7
     474:	01000000 	mrseq	r0, (UNDEF: 0)
     478:	0e250111 	mcreq	1, 1, r0, cr5, cr1, {0}
     47c:	0e030b13 	vmoveq.32	d3[0], r0
     480:	01110e1b 	tsteq	r1, fp, lsl lr
     484:	17100612 			; <UNDEFINED> instruction: 0x17100612
     488:	24020000 	strcs	r0, [r2], #-0
     48c:	3e0b0b00 	vmlacc.f64	d0, d11, d0
     490:	0008030b 	andeq	r0, r8, fp, lsl #6
     494:	00240300 	eoreq	r0, r4, r0, lsl #6
     498:	0b3e0b0b 	bleq	f830cc <__bss_end__+0xf79d3c>
     49c:	00000e03 	andeq	r0, r0, r3, lsl #28
     4a0:	03001604 	movweq	r1, #1540	; 0x604
     4a4:	3b0b3a0e 	blcc	2cece4 <__bss_end__+0x2c5954>
     4a8:	490b390b 	stmdbmi	fp, {r0, r1, r3, r8, fp, ip, sp}
     4ac:	05000013 	streq	r0, [r0, #-19]	; 0xffffffed
     4b0:	19270115 	stmdbne	r7!, {r0, r2, r4, r8}
     4b4:	13011349 	movwne	r1, #4937	; 0x1349
     4b8:	05060000 	streq	r0, [r6, #-0]
     4bc:	00134900 	andseq	r4, r3, r0, lsl #18
     4c0:	00340700 	eorseq	r0, r4, r0, lsl #14
     4c4:	0b3a0e03 	bleq	e83cd8 <__bss_end__+0xe7a948>
     4c8:	0b390b3b 	bleq	e431bc <__bss_end__+0xe39e2c>
     4cc:	193f1349 	ldmdbne	pc!, {r0, r3, r6, r8, r9, ip}	; <UNPREDICTABLE>
     4d0:	0000193c 	andeq	r1, r0, ip, lsr r9
     4d4:	0b000f08 	bleq	40fc <__code_start__-0x3f04>
     4d8:	0013490b 	andseq	r4, r3, fp, lsl #18
     4dc:	00260900 	eoreq	r0, r6, r0, lsl #18
     4e0:	00001349 	andeq	r1, r0, r9, asr #6
     4e4:	0301130a 	movweq	r1, #4874	; 0x130a
     4e8:	3a0b0b0e 	bcc	2c3128 <__bss_end__+0x2b9d98>
     4ec:	010b3b0b 	tsteq	fp, fp, lsl #22
     4f0:	0b000013 	bleq	544 <__code_start__-0x7abc>
     4f4:	0e03000d 	cdpeq	0, 0, cr0, cr3, cr13, {0}
     4f8:	0b381349 	bleq	e05224 <__bss_end__+0xdfbe94>
     4fc:	00001934 	andeq	r1, r0, r4, lsr r9
     500:	0b000f0c 	bleq	4138 <__code_start__-0x3ec8>
     504:	0d00000b 	stceq	0, cr0, [r0, #-44]	; 0xffffffd4
     508:	193f012e 	ldmdbne	pc!, {r1, r2, r3, r5, r8}	; <UNPREDICTABLE>
     50c:	0b3a0e03 	bleq	e83d20 <__bss_end__+0xe7a990>
     510:	0b390b3b 	bleq	e43204 <__bss_end__+0xe39e74>
     514:	13491927 	movtne	r1, #39207	; 0x9927
     518:	06120111 			; <UNDEFINED> instruction: 0x06120111
     51c:	42971840 	addsmi	r1, r7, #64, 16	; 0x400000
     520:	00130119 	andseq	r0, r3, r9, lsl r1
     524:	00050e00 	andeq	r0, r5, r0, lsl #28
     528:	0b3a0803 	bleq	e8253c <__bss_end__+0xe791ac>
     52c:	0b390b3b 	bleq	e43220 <__bss_end__+0xe39e90>
     530:	17021349 	strne	r1, [r2, -r9, asr #6]
     534:	001742b7 			; <UNDEFINED> instruction: 0x001742b7
     538:	00050f00 	andeq	r0, r5, r0, lsl #30
     53c:	0b3a0e03 	bleq	e83d50 <__bss_end__+0xe7a9c0>
     540:	0b390b3b 	bleq	e43234 <__bss_end__+0xe39ea4>
     544:	18021349 	stmdane	r2, {r0, r3, r6, r8, r9, ip}
     548:	34100000 	ldrcc	r0, [r0], #-0
     54c:	3a080300 	bcc	201154 <__bss_end__+0x1f7dc4>
     550:	390b3b0b 	stmdbcc	fp, {r0, r1, r3, r8, r9, fp, ip, sp}
     554:	0213490b 	andseq	r4, r3, #180224	; 0x2c000
     558:	1742b717 	smlaldne	fp, r2, r7, r7
     55c:	34110000 	ldrcc	r0, [r1], #-0
     560:	3a080300 	bcc	201168 <__bss_end__+0x1f7dd8>
     564:	390b3b0b 	stmdbcc	fp, {r0, r1, r3, r8, r9, fp, ip, sp}
     568:	0013490b 	andseq	r4, r3, fp, lsl #18
     56c:	00341200 	eorseq	r1, r4, r0, lsl #4
     570:	0b3a0e03 	bleq	e83d84 <__bss_end__+0xe7a9f4>
     574:	0b390b3b 	bleq	e43268 <__bss_end__+0xe39ed8>
     578:	17021349 	strne	r1, [r2, -r9, asr #6]
     57c:	001742b7 			; <UNDEFINED> instruction: 0x001742b7
     580:	00341300 	eorseq	r1, r4, r0, lsl #6
     584:	13490e03 	movtne	r0, #40451	; 0x9e03
     588:	18021934 	stmdane	r2, {r2, r4, r5, r8, fp, ip}
     58c:	0b140000 	bleq	500594 <__bss_end__+0x4f7204>
     590:	12011101 	andne	r1, r1, #1073741824	; 0x40000000
     594:	15000006 	strne	r0, [r0, #-6]
     598:	08030034 	stmdaeq	r3, {r2, r4, r5}
     59c:	0b3b0b3a 	bleq	ec328c <__bss_end__+0xeb9efc>
     5a0:	13490b39 	movtne	r0, #39737	; 0x9b39
     5a4:	00001802 	andeq	r1, r0, r2, lsl #16
     5a8:	03003416 	movweq	r3, #1046	; 0x416
     5ac:	3b0b3a0e 	blcc	2cedec <__bss_end__+0x2c5a5c>
     5b0:	490b390b 	stmdbmi	fp, {r0, r1, r3, r8, fp, ip, sp}
     5b4:	00180213 	andseq	r0, r8, r3, lsl r2
     5b8:	010b1700 	tsteq	fp, r0, lsl #14
     5bc:	13011755 	movwne	r1, #5973	; 0x1755
     5c0:	89180000 	ldmdbhi	r8, {}	; <UNPREDICTABLE>
     5c4:	11010182 	smlabbne	r1, r2, r1, r0
     5c8:	01133101 	tsteq	r3, r1, lsl #2
     5cc:	19000013 	stmdbne	r0, {r0, r1, r4}
     5d0:	0001828a 	andeq	r8, r1, sl, lsl #5
     5d4:	42911802 	addsmi	r1, r1, #131072	; 0x20000
     5d8:	1a000018 	bne	640 <__code_start__-0x79c0>
     5dc:	00018289 	andeq	r8, r1, r9, lsl #5
     5e0:	13310111 	teqne	r1, #1073741828	; 0x40000004
     5e4:	891b0000 	ldmdbhi	fp, {}	; <UNPREDICTABLE>
     5e8:	11010182 	smlabbne	r1, r2, r1, r0
     5ec:	00130101 	andseq	r0, r3, r1, lsl #2
     5f0:	01011c00 	tsteq	r1, r0, lsl #24
     5f4:	13011349 	movwne	r1, #4937	; 0x1349
     5f8:	211d0000 	tstcs	sp, r0
     5fc:	2f134900 	svccs	0x00134900
     600:	1e00000b 	cdpne	0, 0, cr0, cr0, cr11, {0}
     604:	0e03012e 	adfeqsp	f0, f3, #0.5
     608:	0b3b0b3a 	bleq	ec32f8 <__bss_end__+0xeb9f68>
     60c:	19270b39 	stmdbne	r7!, {r0, r3, r4, r5, r8, r9, fp}
     610:	01111349 	tsteq	r1, r9, asr #6
     614:	18400612 	stmdane	r0, {r1, r4, r9, sl}^
     618:	01194297 			; <UNDEFINED> instruction: 0x01194297
     61c:	1f000013 	svcne	0x00000013
     620:	0e030005 	cdpeq	0, 0, cr0, cr3, cr5, {0}
     624:	0b3b0b3a 	bleq	ec3314 <__bss_end__+0xeb9f84>
     628:	13490b39 	movtne	r0, #39737	; 0x9b39
     62c:	42b71702 	adcsmi	r1, r7, #524288	; 0x80000
     630:	20000017 	andcs	r0, r0, r7, lsl r0
     634:	0111010b 	tsteq	r1, fp, lsl #2
     638:	13010612 	movwne	r0, #5650	; 0x1612
     63c:	2e210000 	cdpcs	0, 2, cr0, cr1, cr0, {0}
     640:	3a080301 	bcc	20124c <__bss_end__+0x1f7ebc>
     644:	390b3b0b 	stmdbcc	fp, {r0, r1, r3, r8, r9, fp, ip, sp}
     648:	4919270b 	ldmdbmi	r9, {r0, r1, r3, r8, r9, sl, sp}
     64c:	12011113 	andne	r1, r1, #-1073741820	; 0xc0000004
     650:	97184006 	ldrls	r4, [r8, -r6]
     654:	13011942 	movwne	r1, #6466	; 0x1942
     658:	2e220000 	cdpcs	0, 2, cr0, cr2, cr0, {0}
     65c:	03193f01 	tsteq	r9, #1, 30
     660:	3b0b3a0e 	blcc	2ceea0 <__bss_end__+0x2c5b10>
     664:	270b390b 	strcs	r3, [fp, -fp, lsl #18]
     668:	12011119 	andne	r1, r1, #1073741830	; 0x40000006
     66c:	97184006 	ldrls	r4, [r8, -r6]
     670:	13011942 	movwne	r1, #6466	; 0x1942
     674:	2e230000 	cdpcs	0, 2, cr0, cr3, cr0, {0}
     678:	3c193f00 	ldccc	15, cr3, [r9], {-0}
     67c:	030e6e19 	movweq	r6, #60953	; 0xee19
     680:	3b0b3a0e 	blcc	2ceec0 <__bss_end__+0x2c5b30>
     684:	000b390b 	andeq	r3, fp, fp, lsl #18
     688:	11010000 	mrsne	r0, (UNDEF: 1)
     68c:	130e2501 	movwne	r2, #58625	; 0xe501
     690:	1b0e030b 	blne	3812c4 <__bss_end__+0x377f34>
     694:	1201110e 	andne	r1, r1, #-2147483645	; 0x80000003
     698:	00171006 	andseq	r1, r7, r6
     69c:	00240200 	eoreq	r0, r4, r0, lsl #4
     6a0:	0b3e0b0b 	bleq	f832d4 <__bss_end__+0xf79f44>
     6a4:	00000803 	andeq	r0, r0, r3, lsl #16
     6a8:	0b002403 	bleq	96bc <__bss_end__+0x32c>
     6ac:	030b3e0b 	movweq	r3, #48651	; 0xbe0b
     6b0:	0400000e 	streq	r0, [r0], #-14
     6b4:	19270115 	stmdbne	r7!, {r0, r2, r4, r8}
     6b8:	13011349 	movwne	r1, #4937	; 0x1349
     6bc:	05050000 	streq	r0, [r5, #-0]
     6c0:	00134900 	andseq	r4, r3, r0, lsl #18
     6c4:	00340600 	eorseq	r0, r4, r0, lsl #12
     6c8:	0b3a0e03 	bleq	e83edc <__bss_end__+0xe7ab4c>
     6cc:	0b390b3b 	bleq	e433c0 <__bss_end__+0xe3a030>
     6d0:	193f1349 	ldmdbne	pc!, {r0, r3, r6, r8, r9, ip}	; <UNPREDICTABLE>
     6d4:	0000193c 	andeq	r1, r0, ip, lsr r9
     6d8:	0b000f07 	bleq	42fc <__code_start__-0x3d04>
     6dc:	0013490b 	andseq	r4, r3, fp, lsl #18
     6e0:	00260800 	eoreq	r0, r6, r0, lsl #16
     6e4:	00001349 	andeq	r1, r0, r9, asr #6
     6e8:	3f012e09 	svccc	0x00012e09
     6ec:	3a0e0319 	bcc	381358 <__bss_end__+0x377fc8>
     6f0:	390b3b0b 	stmdbcc	fp, {r0, r1, r3, r8, r9, fp, ip, sp}
     6f4:	8719270b 	ldrhi	r2, [r9, -fp, lsl #14]
     6f8:	01111901 	tsteq	r1, r1, lsl #18
     6fc:	18400612 	stmdane	r0, {r1, r4, r9, sl}^
     700:	01194297 			; <UNDEFINED> instruction: 0x01194297
     704:	0a000013 	beq	758 <__code_start__-0x78a8>
     708:	01018289 	smlabbeq	r1, r9, r2, r8
     70c:	13010111 	movwne	r0, #4369	; 0x1111
     710:	8a0b0000 	bhi	2c0718 <__bss_end__+0x2b7388>
     714:	02000182 	andeq	r0, r0, #-2147483616	; 0x80000020
     718:	18429118 	stmdane	r2, {r3, r4, r8, ip, pc}^
     71c:	890c0000 	stmdbhi	ip, {}	; <UNPREDICTABLE>
     720:	11000182 	smlabbne	r0, r2, r1, r0
     724:	00133101 	andseq	r3, r3, r1, lsl #2
     728:	82890d00 	addhi	r0, r9, #0, 26
     72c:	01110101 	tsteq	r1, r1, lsl #2
     730:	13011331 	movwne	r1, #4913	; 0x1331
     734:	2e0e0000 	cdpcs	0, 0, cr0, cr14, cr0, {0}
     738:	3c193f00 	ldccc	15, cr3, [r9], {-0}
     73c:	030e6e19 	movweq	r6, #60953	; 0xee19
     740:	3b0b3a0e 	blcc	2cef80 <__bss_end__+0x2c5bf0>
     744:	000b390b 	andeq	r3, fp, fp, lsl #18
     748:	11010000 	mrsne	r0, (UNDEF: 1)
     74c:	130e2501 	movwne	r2, #58625	; 0xe501
     750:	1b0e030b 	blne	381384 <__bss_end__+0x377ff4>
     754:	1201110e 	andne	r1, r1, #-2147483645	; 0x80000003
     758:	00171006 	andseq	r1, r7, r6
     75c:	00240200 	eoreq	r0, r4, r0, lsl #4
     760:	0b3e0b0b 	bleq	f83394 <__bss_end__+0xf7a004>
     764:	00000803 	andeq	r0, r0, r3, lsl #16
     768:	0b002403 	bleq	977c <__bss_end__+0x3ec>
     76c:	030b3e0b 	movweq	r3, #48651	; 0xbe0b
     770:	0400000e 	streq	r0, [r0], #-14
     774:	19270115 	stmdbne	r7!, {r0, r2, r4, r8}
     778:	13011349 	movwne	r1, #4937	; 0x1349
     77c:	05050000 	streq	r0, [r5, #-0]
     780:	00134900 	andseq	r4, r3, r0, lsl #18
     784:	00340600 	eorseq	r0, r4, r0, lsl #12
     788:	0b3a0e03 	bleq	e83f9c <__bss_end__+0xe7ac0c>
     78c:	0b390b3b 	bleq	e43480 <__bss_end__+0xe3a0f0>
     790:	193f1349 	ldmdbne	pc!, {r0, r3, r6, r8, r9, ip}	; <UNPREDICTABLE>
     794:	0000193c 	andeq	r1, r0, ip, lsr r9
     798:	0b000f07 	bleq	43bc <__code_start__-0x3c44>
     79c:	0013490b 	andseq	r4, r3, fp, lsl #18
     7a0:	00260800 	eoreq	r0, r6, r0, lsl #16
     7a4:	00001349 	andeq	r1, r0, r9, asr #6
     7a8:	3f012e09 	svccc	0x00012e09
     7ac:	3a0e0319 	bcc	381418 <__bss_end__+0x378088>
     7b0:	390b3b0b 	stmdbcc	fp, {r0, r1, r3, r8, r9, fp, ip, sp}
     7b4:	1201110b 	andne	r1, r1, #-1073741822	; 0xc0000002
     7b8:	97184006 	ldrls	r4, [r8, -r6]
     7bc:	13011942 	movwne	r1, #6466	; 0x1942
     7c0:	2e0a0000 	cdpcs	0, 0, cr0, cr10, cr0, {0}
     7c4:	03193f00 	tsteq	r9, #0, 30
     7c8:	3b0b3a0e 	blcc	2cf008 <__bss_end__+0x2c5c78>
     7cc:	270b390b 	strcs	r3, [fp, -fp, lsl #18]
     7d0:	00193c19 	andseq	r3, r9, r9, lsl ip
     7d4:	00340b00 	eorseq	r0, r4, r0, lsl #22
     7d8:	0b3a0803 	bleq	e827ec <__bss_end__+0xe7945c>
     7dc:	0b390b3b 	bleq	e434d0 <__bss_end__+0xe3a140>
     7e0:	17021349 	strne	r1, [r2, -r9, asr #6]
     7e4:	001742b7 			; <UNDEFINED> instruction: 0x001742b7
     7e8:	00340c00 	eorseq	r0, r4, r0, lsl #24
     7ec:	0b3a0e03 	bleq	e84000 <__bss_end__+0xe7ac70>
     7f0:	0b390b3b 	bleq	e434e4 <__bss_end__+0xe3a154>
     7f4:	00001349 	andeq	r1, r0, r9, asr #6
     7f8:	0182890d 	orreq	r8, r2, sp, lsl #18
     7fc:	31011100 	mrscc	r1, (UNDEF: 17)
     800:	0e000013 	mcreq	0, 0, r0, cr0, cr3, {0}
     804:	193f002e 	ldmdbne	pc!, {r1, r2, r3, r5}	; <UNPREDICTABLE>
     808:	0e6e193c 			; <UNDEFINED> instruction: 0x0e6e193c
     80c:	0b3a0e03 	bleq	e84020 <__bss_end__+0xe7ac90>
     810:	0b39053b 	bleq	e41d04 <__bss_end__+0xe38974>
     814:	2e0f0000 	cdpcs	0, 0, cr0, cr15, cr0, {0}
     818:	3c193f00 	ldccc	15, cr3, [r9], {-0}
     81c:	030e6e19 	movweq	r6, #60953	; 0xee19
     820:	3b0b3a0e 	blcc	2cf060 <__bss_end__+0x2c5cd0>
     824:	000b390b 	andeq	r3, fp, fp, lsl #18
     828:	11010000 	mrsne	r0, (UNDEF: 1)
     82c:	130e2501 	movwne	r2, #58625	; 0xe501
     830:	1b0e030b 	blne	381464 <__bss_end__+0x3780d4>
     834:	1201110e 	andne	r1, r1, #-2147483645	; 0x80000003
     838:	00171006 	andseq	r1, r7, r6
     83c:	00240200 	eoreq	r0, r4, r0, lsl #4
     840:	0b3e0b0b 	bleq	f83474 <__bss_end__+0xf7a0e4>
     844:	00000803 	andeq	r0, r0, r3, lsl #16
     848:	0b002403 	bleq	985c <__bss_end__+0x4cc>
     84c:	030b3e0b 	movweq	r3, #48651	; 0xbe0b
     850:	0400000e 	streq	r0, [r0], #-14
     854:	19270115 	stmdbne	r7!, {r0, r2, r4, r8}
     858:	13011349 	movwne	r1, #4937	; 0x1349
     85c:	05050000 	streq	r0, [r5, #-0]
     860:	00134900 	andseq	r4, r3, r0, lsl #18
     864:	00340600 	eorseq	r0, r4, r0, lsl #12
     868:	0b3a0e03 	bleq	e8407c <__bss_end__+0xe7acec>
     86c:	0b390b3b 	bleq	e43560 <__bss_end__+0xe3a1d0>
     870:	193f1349 	ldmdbne	pc!, {r0, r3, r6, r8, r9, ip}	; <UNPREDICTABLE>
     874:	0000193c 	andeq	r1, r0, ip, lsr r9
     878:	0b000f07 	bleq	449c <__code_start__-0x3b64>
     87c:	0013490b 	andseq	r4, r3, fp, lsl #18
     880:	00260800 	eoreq	r0, r6, r0, lsl #16
     884:	00001349 	andeq	r1, r0, r9, asr #6
     888:	3f002e09 	svccc	0x00002e09
     88c:	3a0e0319 	bcc	3814f8 <__bss_end__+0x378168>
     890:	390b3b0b 	stmdbcc	fp, {r0, r1, r3, r8, r9, fp, ip, sp}
     894:	1119270b 	tstne	r9, fp, lsl #14
     898:	40061201 	andmi	r1, r6, r1, lsl #4
     89c:	19429718 	stmdbne	r2, {r3, r4, r8, r9, sl, ip, pc}^
     8a0:	01000000 	mrseq	r0, (UNDEF: 0)
     8a4:	0e250111 	mcreq	1, 1, r0, cr5, cr1, {0}
     8a8:	0e030b13 	vmoveq.32	d3[0], r0
     8ac:	17550e1b 	smmlane	r5, fp, lr, r0
     8b0:	17100111 			; <UNDEFINED> instruction: 0x17100111
     8b4:	24020000 	strcs	r0, [r2], #-0
     8b8:	3e0b0b00 	vmlacc.f64	d0, d11, d0
     8bc:	0008030b 	andeq	r0, r8, fp, lsl #6
     8c0:	00260300 	eoreq	r0, r6, r0, lsl #6
     8c4:	00001349 	andeq	r1, r0, r9, asr #6
     8c8:	0b002404 	bleq	98e0 <__bss_end__+0x550>
     8cc:	030b3e0b 	movweq	r3, #48651	; 0xbe0b
     8d0:	0500000e 	streq	r0, [r0, #-14]
     8d4:	19270115 	stmdbne	r7!, {r0, r2, r4, r8}
     8d8:	13011349 	movwne	r1, #4937	; 0x1349
     8dc:	05060000 	streq	r0, [r6, #-0]
     8e0:	00134900 	andseq	r4, r3, r0, lsl #18
     8e4:	00340700 	eorseq	r0, r4, r0, lsl #14
     8e8:	0b3a0e03 	bleq	e840fc <__bss_end__+0xe7ad6c>
     8ec:	0b390b3b 	bleq	e435e0 <__bss_end__+0xe3a250>
     8f0:	193f1349 	ldmdbne	pc!, {r0, r3, r6, r8, r9, ip}	; <UNPREDICTABLE>
     8f4:	0000193c 	andeq	r1, r0, ip, lsr r9
     8f8:	0b000f08 	bleq	4520 <__code_start__-0x3ae0>
     8fc:	0013490b 	andseq	r4, r3, fp, lsl #18
     900:	00340900 	eorseq	r0, r4, r0, lsl #18
     904:	0b3a0e03 	bleq	e84118 <__bss_end__+0xe7ad88>
     908:	0b390b3b 	bleq	e435fc <__bss_end__+0xe3a26c>
     90c:	00001349 	andeq	r1, r0, r9, asr #6
     910:	3f012e0a 	svccc	0x00012e0a
     914:	3a0e0319 	bcc	381580 <__bss_end__+0x3781f0>
     918:	390b3b0b 	stmdbcc	fp, {r0, r1, r3, r8, r9, fp, ip, sp}
     91c:	8719270b 	ldrhi	r2, [r9, -fp, lsl #14]
     920:	01111901 	tsteq	r1, r1, lsl #18
     924:	18400612 	stmdane	r0, {r1, r4, r9, sl}^
     928:	01194297 			; <UNDEFINED> instruction: 0x01194297
     92c:	0b000013 	bleq	980 <__code_start__-0x7680>
     930:	0e030034 	mcreq	0, 0, r0, cr3, cr4, {1}
     934:	0b3b0b3a 	bleq	ec3624 <__bss_end__+0xeba294>
     938:	13490b39 	movtne	r0, #39737	; 0x9b39
     93c:	42b71702 	adcsmi	r1, r7, #524288	; 0x80000
     940:	0c000017 	stceq	0, cr0, [r0], {23}
     944:	00018289 	andeq	r8, r1, r9, lsl #5
     948:	13310111 	teqne	r1, #1073741828	; 0x40000004
     94c:	890d0000 	stmdbhi	sp, {}	; <UNPREDICTABLE>
     950:	11010182 	smlabbne	r1, r2, r1, r0
     954:	01133101 	tsteq	r3, r1, lsl #2
     958:	0e000013 	mcreq	0, 0, r0, cr0, cr3, {0}
     95c:	0001828a 	andeq	r8, r1, sl, lsl #5
     960:	42911802 	addsmi	r1, r1, #131072	; 0x20000
     964:	0f000018 	svceq	0x00000018
     968:	193f012e 	ldmdbne	pc!, {r1, r2, r3, r5, r8}	; <UNPREDICTABLE>
     96c:	0b3a0e03 	bleq	e84180 <__bss_end__+0xe7adf0>
     970:	0b390b3b 	bleq	e43664 <__bss_end__+0xe3a2d4>
     974:	01111927 	tsteq	r1, r7, lsr #18
     978:	18400612 	stmdane	r0, {r1, r4, r9, sl}^
     97c:	01194297 			; <UNDEFINED> instruction: 0x01194297
     980:	10000013 	andne	r0, r0, r3, lsl r0
     984:	193f012e 	ldmdbne	pc!, {r1, r2, r3, r5, r8}	; <UNPREDICTABLE>
     988:	0b3a0e03 	bleq	e8419c <__bss_end__+0xe7ae0c>
     98c:	0b390b3b 	bleq	e43680 <__bss_end__+0xe3a2f0>
     990:	13491927 	movtne	r1, #39207	; 0x9927
     994:	06120111 			; <UNDEFINED> instruction: 0x06120111
     998:	42971840 	addsmi	r1, r7, #64, 16	; 0x400000
     99c:	00130119 	andseq	r0, r3, r9, lsl r1
     9a0:	002e1100 	eoreq	r1, lr, r0, lsl #2
     9a4:	193c193f 	ldmdbne	ip!, {r0, r1, r2, r3, r4, r5, r8, fp, ip}
     9a8:	0e030e6e 	cdpeq	14, 0, cr0, cr3, cr14, {3}
     9ac:	0b3b0b3a 	bleq	ec369c <__bss_end__+0xeba30c>
     9b0:	00000b39 	andeq	r0, r0, r9, lsr fp
     9b4:	01110100 	tsteq	r1, r0, lsl #2
     9b8:	0b130e25 	bleq	4c4254 <__bss_end__+0x4baec4>
     9bc:	0e1b0e03 	cdpeq	14, 1, cr0, cr11, cr3, {0}
     9c0:	06120111 			; <UNDEFINED> instruction: 0x06120111
     9c4:	00001710 	andeq	r1, r0, r0, lsl r7
     9c8:	0b002402 	bleq	99d8 <__bss_end__+0x648>
     9cc:	030b3e0b 	movweq	r3, #48651	; 0xbe0b
     9d0:	03000008 	movweq	r0, #8
     9d4:	0b0b0024 	bleq	2c0a6c <__bss_end__+0x2b76dc>
     9d8:	0e030b3e 	vmoveq.16	d3[0], r0
     9dc:	15040000 	strne	r0, [r4, #-0]
     9e0:	49192701 	ldmdbmi	r9, {r0, r8, r9, sl, sp}
     9e4:	00130113 	andseq	r0, r3, r3, lsl r1
     9e8:	00050500 	andeq	r0, r5, r0, lsl #10
     9ec:	00001349 	andeq	r1, r0, r9, asr #6
     9f0:	03003406 	movweq	r3, #1030	; 0x406
     9f4:	3b0b3a0e 	blcc	2cf234 <__bss_end__+0x2c5ea4>
     9f8:	490b390b 	stmdbmi	fp, {r0, r1, r3, r8, fp, ip, sp}
     9fc:	3c193f13 	ldccc	15, cr3, [r9], {19}
     a00:	07000019 	smladeq	r0, r9, r0, r0
     a04:	0b0b000f 	bleq	2c0a48 <__bss_end__+0x2b76b8>
     a08:	00001349 	andeq	r1, r0, r9, asr #6
     a0c:	49002608 	stmdbmi	r0, {r3, r9, sl, sp}
     a10:	09000013 	stmdbeq	r0, {r0, r1, r4}
     a14:	193f012e 	ldmdbne	pc!, {r1, r2, r3, r5, r8}	; <UNPREDICTABLE>
     a18:	0b3a0e03 	bleq	e8422c <__bss_end__+0xe7ae9c>
     a1c:	0b390b3b 	bleq	e43710 <__bss_end__+0xe3a380>
     a20:	01111927 	tsteq	r1, r7, lsr #18
     a24:	18400612 	stmdane	r0, {r1, r4, r9, sl}^
     a28:	01194297 			; <UNDEFINED> instruction: 0x01194297
     a2c:	0a000013 	beq	a80 <__code_start__-0x7580>
     a30:	08030005 	stmdaeq	r3, {r0, r2}
     a34:	0b3b0b3a 	bleq	ec3724 <__bss_end__+0xeba394>
     a38:	13490b39 	movtne	r0, #39737	; 0x9b39
     a3c:	42b71702 	adcsmi	r1, r7, #524288	; 0x80000
     a40:	0b000017 	bleq	aa4 <__code_start__-0x755c>
     a44:	01018289 	smlabbeq	r1, r9, r2, r8
     a48:	13310111 	teqne	r1, #1073741828	; 0x40000004
     a4c:	8a0c0000 	bhi	300a54 <__bss_end__+0x2f76c4>
     a50:	02000182 	andeq	r0, r0, #-2147483616	; 0x80000020
     a54:	18429118 	stmdane	r2, {r3, r4, r8, ip, pc}^
     a58:	340d0000 	strcc	r0, [sp], #-0
     a5c:	3a080300 	bcc	201664 <__bss_end__+0x1f82d4>
     a60:	390b3b0b 	stmdbcc	fp, {r0, r1, r3, r8, r9, fp, ip, sp}
     a64:	0213490b 	andseq	r4, r3, #180224	; 0x2c000
     a68:	1742b717 	smlaldne	fp, r2, r7, r7
     a6c:	0b0e0000 	bleq	380a74 <__bss_end__+0x3776e4>
     a70:	12011101 	andne	r1, r1, #1073741824	; 0x40000000
     a74:	00130106 	andseq	r0, r3, r6, lsl #2
     a78:	82890f00 	addhi	r0, r9, #0, 30
     a7c:	01110001 	tsteq	r1, r1
     a80:	00001331 	andeq	r1, r0, r1, lsr r3
     a84:	3f012e10 	svccc	0x00012e10
     a88:	3a0e0319 	bcc	3816f4 <__bss_end__+0x378364>
     a8c:	390b3b0b 	stmdbcc	fp, {r0, r1, r3, r8, r9, fp, ip, sp}
     a90:	4919270b 	ldmdbmi	r9, {r0, r1, r3, r8, r9, sl, sp}
     a94:	12011113 	andne	r1, r1, #-1073741820	; 0xc0000004
     a98:	97184006 	ldrls	r4, [r8, -r6]
     a9c:	13011942 	movwne	r1, #6466	; 0x1942
     aa0:	05110000 	ldreq	r0, [r1, #-0]
     aa4:	3a0e0300 	bcc	3816ac <__bss_end__+0x37831c>
     aa8:	390b3b0b 	stmdbcc	fp, {r0, r1, r3, r8, r9, fp, ip, sp}
     aac:	0213490b 	andseq	r4, r3, #180224	; 0x2c000
     ab0:	1742b717 	smlaldne	fp, r2, r7, r7
     ab4:	2e120000 	cdpcs	0, 1, cr0, cr2, cr0, {0}
     ab8:	3c193f00 	ldccc	15, cr3, [r9], {-0}
     abc:	030e6e19 	movweq	r6, #60953	; 0xee19
     ac0:	3b0b3a0e 	blcc	2cf300 <__bss_end__+0x2c5f70>
     ac4:	000b390b 	andeq	r3, fp, fp, lsl #18
     ac8:	11010000 	mrsne	r0, (UNDEF: 1)
     acc:	130e2501 	movwne	r2, #58625	; 0xe501
     ad0:	1b0e030b 	blne	381704 <__bss_end__+0x378374>
     ad4:	1201110e 	andne	r1, r1, #-2147483645	; 0x80000003
     ad8:	00171006 	andseq	r1, r7, r6
     adc:	00240200 	eoreq	r0, r4, r0, lsl #4
     ae0:	0b3e0b0b 	bleq	f83714 <__bss_end__+0xf7a384>
     ae4:	00000803 	andeq	r0, r0, r3, lsl #16
     ae8:	0b002403 	bleq	9afc <__bss_end__+0x76c>
     aec:	030b3e0b 	movweq	r3, #48651	; 0xbe0b
     af0:	0400000e 	streq	r0, [r0], #-14
     af4:	13490035 	movtne	r0, #36917	; 0x9035
     af8:	16050000 	strne	r0, [r5], -r0
     afc:	3a0e0300 	bcc	381704 <__bss_end__+0x378374>
     b00:	390b3b0b 	stmdbcc	fp, {r0, r1, r3, r8, r9, fp, ip, sp}
     b04:	0013490b 	andseq	r4, r3, fp, lsl #18
     b08:	01150600 	tsteq	r5, r0, lsl #12
     b0c:	13491927 	movtne	r1, #39207	; 0x9927
     b10:	00001301 	andeq	r1, r0, r1, lsl #6
     b14:	49000507 	stmdbmi	r0, {r0, r1, r2, r8, sl}
     b18:	08000013 	stmdaeq	r0, {r0, r1, r4}
     b1c:	0e030034 	mcreq	0, 0, r0, cr3, cr4, {1}
     b20:	0b3b0b3a 	bleq	ec3810 <__bss_end__+0xeba480>
     b24:	13490b39 	movtne	r0, #39737	; 0x9b39
     b28:	193c193f 	ldmdbne	ip!, {r0, r1, r2, r3, r4, r5, r8, fp, ip}
     b2c:	0f090000 	svceq	0x00090000
     b30:	490b0b00 	stmdbmi	fp, {r8, r9, fp}
     b34:	0a000013 	beq	b88 <__code_start__-0x7478>
     b38:	13490026 	movtne	r0, #36902	; 0x9026
     b3c:	040b0000 	streq	r0, [fp], #-0
     b40:	0b0b3e01 	bleq	2d034c <__bss_end__+0x2c6fbc>
     b44:	3a13490b 	bcc	4d2f78 <__bss_end__+0x4c9be8>
     b48:	390b3b0b 	stmdbcc	fp, {r0, r1, r3, r8, r9, fp, ip, sp}
     b4c:	0013010b 	andseq	r0, r3, fp, lsl #2
     b50:	00280c00 	eoreq	r0, r8, r0, lsl #24
     b54:	0b1c0e03 	bleq	704368 <__bss_end__+0x6fafd8>
     b58:	130d0000 	movwne	r0, #53248	; 0xd000
     b5c:	0b0e0301 	bleq	381768 <__bss_end__+0x3783d8>
     b60:	3b0b3a0b 	blcc	2cf394 <__bss_end__+0x2c6004>
     b64:	010b390b 	tsteq	fp, fp, lsl #18
     b68:	0e000013 	mcreq	0, 0, r0, cr0, cr3, {0}
     b6c:	0803000d 	stmdaeq	r3, {r0, r2, r3}
     b70:	0b3b0b3a 	bleq	ec3860 <__bss_end__+0xeba4d0>
     b74:	13490b39 	movtne	r0, #39737	; 0x9b39
     b78:	00000b38 	andeq	r0, r0, r8, lsr fp
     b7c:	03000d0f 	movweq	r0, #3343	; 0xd0f
     b80:	3b0b3a0e 	blcc	2cf3c0 <__bss_end__+0x2c6030>
     b84:	490b390b 	stmdbmi	fp, {r0, r1, r3, r8, fp, ip, sp}
     b88:	000b3813 	andeq	r3, fp, r3, lsl r8
     b8c:	00341000 	eorseq	r1, r4, r0
     b90:	0b3a0e03 	bleq	e843a4 <__bss_end__+0xe7b014>
     b94:	0b390b3b 	bleq	e43888 <__bss_end__+0xe3a4f8>
     b98:	061c1349 	ldreq	r1, [ip], -r9, asr #6
     b9c:	2e110000 	cdpcs	0, 1, cr0, cr1, cr0, {0}
     ba0:	03193f01 	tsteq	r9, #1, 30
     ba4:	3b0b3a0e 	blcc	2cf3e4 <__bss_end__+0x2c6054>
     ba8:	270b390b 	strcs	r3, [fp, -fp, lsl #18]
     bac:	12011119 	andne	r1, r1, #1073741830	; 0x40000006
     bb0:	97184006 	ldrls	r4, [r8, -r6]
     bb4:	13011942 	movwne	r1, #6466	; 0x1942
     bb8:	89120000 	ldmdbhi	r2, {}	; <UNPREDICTABLE>
     bbc:	11000182 	smlabbne	r0, r2, r1, r0
     bc0:	00133101 	andseq	r3, r3, r1, lsl #2
     bc4:	012e1300 			; <UNDEFINED> instruction: 0x012e1300
     bc8:	0e03193f 			; <UNDEFINED> instruction: 0x0e03193f
     bcc:	0b3b0b3a 	bleq	ec38bc <__bss_end__+0xeba52c>
     bd0:	19270b39 	stmdbne	r7!, {r0, r3, r4, r5, r8, r9, fp}
     bd4:	01111349 	tsteq	r1, r9, asr #6
     bd8:	18400612 	stmdane	r0, {r1, r4, r9, sl}^
     bdc:	01194297 			; <UNDEFINED> instruction: 0x01194297
     be0:	14000013 	strne	r0, [r0], #-19	; 0xffffffed
     be4:	01018289 	smlabbeq	r1, r9, r2, r8
     be8:	13310111 	teqne	r1, #1073741828	; 0x40000004
     bec:	8a150000 	bhi	540bf4 <__bss_end__+0x537864>
     bf0:	02000182 	andeq	r0, r0, #-2147483616	; 0x80000020
     bf4:	18429118 	stmdane	r2, {r3, r4, r8, ip, pc}^
     bf8:	05160000 	ldreq	r0, [r6, #-0]
     bfc:	3a080300 	bcc	201804 <__bss_end__+0x1f8474>
     c00:	390b3b0b 	stmdbcc	fp, {r0, r1, r3, r8, r9, fp, ip, sp}
     c04:	0213490b 	andseq	r4, r3, #180224	; 0x2c000
     c08:	1742b717 	smlaldne	fp, r2, r7, r7
     c0c:	89170000 	ldmdbhi	r7, {}	; <UNPREDICTABLE>
     c10:	11010182 	smlabbne	r1, r2, r1, r0
     c14:	01133101 	tsteq	r3, r1, lsl #2
     c18:	18000013 	stmdane	r0, {r0, r1, r4}
     c1c:	08030034 	stmdaeq	r3, {r2, r4, r5}
     c20:	0b3b0b3a 	bleq	ec3910 <__bss_end__+0xeba580>
     c24:	13490b39 	movtne	r0, #39737	; 0x9b39
     c28:	42b71702 	adcsmi	r1, r7, #524288	; 0x80000
     c2c:	19000017 	stmdbne	r0, {r0, r1, r2, r4}
     c30:	0e030034 	mcreq	0, 0, r0, cr3, cr4, {1}
     c34:	0b3b0b3a 	bleq	ec3924 <__bss_end__+0xeba594>
     c38:	13490b39 	movtne	r0, #39737	; 0x9b39
     c3c:	0000051c 	andeq	r0, r0, ip, lsl r5
     c40:	03012e1a 	movweq	r2, #7706	; 0x1e1a
     c44:	3b0b3a0e 	blcc	2cf484 <__bss_end__+0x2c60f4>
     c48:	270b390b 	strcs	r3, [fp, -fp, lsl #18]
     c4c:	12011119 	andne	r1, r1, #1073741830	; 0x40000006
     c50:	97184006 	ldrls	r4, [r8, -r6]
     c54:	13011942 	movwne	r1, #6466	; 0x1942
     c58:	051b0000 	ldreq	r0, [fp, #-0]
     c5c:	3a0e0300 	bcc	381864 <__bss_end__+0x3784d4>
     c60:	390b3b0b 	stmdbcc	fp, {r0, r1, r3, r8, r9, fp, ip, sp}
     c64:	0213490b 	andseq	r4, r3, #180224	; 0x2c000
     c68:	1742b717 	smlaldne	fp, r2, r7, r7
     c6c:	351c0000 	ldrcc	r0, [ip, #-0]
     c70:	1d000000 	stcne	0, cr0, [r0, #-0]
     c74:	193f002e 	ldmdbne	pc!, {r1, r2, r3, r5}	; <UNPREDICTABLE>
     c78:	0e6e193c 			; <UNDEFINED> instruction: 0x0e6e193c
     c7c:	0b3a0e03 	bleq	e84490 <__bss_end__+0xe7b100>
     c80:	0b390b3b 	bleq	e43974 <__bss_end__+0xe3a5e4>
     c84:	01000000 	mrseq	r0, (UNDEF: 0)
     c88:	0e250111 	mcreq	1, 1, r0, cr5, cr1, {0}
     c8c:	0e030b13 	vmoveq.32	d3[0], r0
     c90:	01110e1b 	tsteq	r1, fp, lsl lr
     c94:	17100612 			; <UNDEFINED> instruction: 0x17100612
     c98:	24020000 	strcs	r0, [r2], #-0
     c9c:	3e0b0b00 	vmlacc.f64	d0, d11, d0
     ca0:	0008030b 	andeq	r0, r8, fp, lsl #6
     ca4:	00240300 	eoreq	r0, r4, r0, lsl #6
     ca8:	0b3e0b0b 	bleq	f838dc <__bss_end__+0xf7a54c>
     cac:	00000e03 	andeq	r0, r0, r3, lsl #28
     cb0:	49002604 	stmdbmi	r0, {r2, r9, sl, sp}
     cb4:	05000013 	streq	r0, [r0, #-19]	; 0xffffffed
     cb8:	0e030016 	mcreq	0, 0, r0, cr3, cr6, {0}
     cbc:	0b3b0b3a 	bleq	ec39ac <__bss_end__+0xeba61c>
     cc0:	13490b39 	movtne	r0, #39737	; 0x9b39
     cc4:	15060000 	strne	r0, [r6, #-0]
     cc8:	49192701 	ldmdbmi	r9, {r0, r8, r9, sl, sp}
     ccc:	00130113 	andseq	r0, r3, r3, lsl r1
     cd0:	00050700 	andeq	r0, r5, r0, lsl #14
     cd4:	00001349 	andeq	r1, r0, r9, asr #6
     cd8:	03003408 	movweq	r3, #1032	; 0x408
     cdc:	3b0b3a0e 	blcc	2cf51c <__bss_end__+0x2c618c>
     ce0:	490b390b 	stmdbmi	fp, {r0, r1, r3, r8, fp, ip, sp}
     ce4:	3c193f13 	ldccc	15, cr3, [r9], {19}
     ce8:	09000019 	stmdbeq	r0, {r0, r3, r4}
     cec:	0b0b000f 	bleq	2c0d30 <__bss_end__+0x2b79a0>
     cf0:	00001349 	andeq	r1, r0, r9, asr #6
     cf4:	3e01040a 	cdpcc	4, 0, cr0, cr1, cr10, {0}
     cf8:	490b0b0b 	stmdbmi	fp, {r0, r1, r3, r8, r9, fp}
     cfc:	3b0b3a13 	blcc	2cf550 <__bss_end__+0x2c61c0>
     d00:	010b390b 	tsteq	fp, fp, lsl #18
     d04:	0b000013 	bleq	d58 <__code_start__-0x72a8>
     d08:	0e030028 	cdpeq	0, 0, cr0, cr3, cr8, {1}
     d0c:	00000b1c 	andeq	r0, r0, ip, lsl fp
     d10:	0300340c 	movweq	r3, #1036	; 0x40c
     d14:	3b0b3a0e 	blcc	2cf554 <__bss_end__+0x2c61c4>
     d18:	490b390b 	stmdbmi	fp, {r0, r1, r3, r8, fp, ip, sp}
     d1c:	00061c13 	andeq	r1, r6, r3, lsl ip
     d20:	012e0d00 			; <UNDEFINED> instruction: 0x012e0d00
     d24:	0e03193f 			; <UNDEFINED> instruction: 0x0e03193f
     d28:	0b3b0b3a 	bleq	ec3a18 <__bss_end__+0xeba688>
     d2c:	19270b39 	stmdbne	r7!, {r0, r3, r4, r5, r8, r9, fp}
     d30:	01111349 	tsteq	r1, r9, asr #6
     d34:	18400612 	stmdane	r0, {r1, r4, r9, sl}^
     d38:	01194297 			; <UNDEFINED> instruction: 0x01194297
     d3c:	0e000013 	mcreq	0, 0, r0, cr0, cr3, {0}
     d40:	08030005 	stmdaeq	r3, {r0, r2}
     d44:	0b3b0b3a 	bleq	ec3a34 <__bss_end__+0xeba6a4>
     d48:	13490b39 	movtne	r0, #39737	; 0x9b39
     d4c:	42b71702 	adcsmi	r1, r7, #524288	; 0x80000
     d50:	0f000017 	svceq	0x00000017
     d54:	01018289 	smlabbeq	r1, r9, r2, r8
     d58:	13310111 	teqne	r1, #1073741828	; 0x40000004
     d5c:	8a100000 	bhi	400d64 <__bss_end__+0x3f79d4>
     d60:	02000182 	andeq	r0, r0, #-2147483616	; 0x80000020
     d64:	18429118 	stmdane	r2, {r3, r4, r8, ip, pc}^
     d68:	2e110000 	cdpcs	0, 1, cr0, cr1, cr0, {0}
     d6c:	03193f01 	tsteq	r9, #1, 30
     d70:	3b0b3a0e 	blcc	2cf5b0 <__bss_end__+0x2c6220>
     d74:	270b390b 	strcs	r3, [fp, -fp, lsl #18]
     d78:	12011119 	andne	r1, r1, #1073741830	; 0x40000006
     d7c:	97184006 	ldrls	r4, [r8, -r6]
     d80:	13011942 	movwne	r1, #6466	; 0x1942
     d84:	89120000 	ldmdbhi	r2, {}	; <UNPREDICTABLE>
     d88:	11010182 	smlabbne	r1, r2, r1, r0
     d8c:	01133101 	tsteq	r3, r1, lsl #2
     d90:	13000013 	movwne	r0, #19
     d94:	00018289 	andeq	r8, r1, r9, lsl #5
     d98:	13310111 	teqne	r1, #1073741828	; 0x40000004
     d9c:	34140000 	ldrcc	r0, [r4], #-0
     da0:	3a0e0300 	bcc	3819a8 <__bss_end__+0x378618>
     da4:	390b3b0b 	stmdbcc	fp, {r0, r1, r3, r8, r9, fp, ip, sp}
     da8:	0213490b 	andseq	r4, r3, #180224	; 0x2c000
     dac:	1742b717 	smlaldne	fp, r2, r7, r7
     db0:	2e150000 	cdpcs	0, 1, cr0, cr5, cr0, {0}
     db4:	3c193f00 	ldccc	15, cr3, [r9], {-0}
     db8:	030e6e19 	movweq	r6, #60953	; 0xee19
     dbc:	3b0b3a0e 	blcc	2cf5fc <__bss_end__+0x2c626c>
     dc0:	000b390b 	andeq	r3, fp, fp, lsl #18
     dc4:	11010000 	mrsne	r0, (UNDEF: 1)
     dc8:	130e2501 	movwne	r2, #58625	; 0xe501
     dcc:	1b0e030b 	blne	381a00 <__bss_end__+0x378670>
     dd0:	1201110e 	andne	r1, r1, #-2147483645	; 0x80000003
     dd4:	00171006 	andseq	r1, r7, r6
     dd8:	00240200 	eoreq	r0, r4, r0, lsl #4
     ddc:	0b3e0b0b 	bleq	f83a10 <__bss_end__+0xf7a680>
     de0:	00000803 	andeq	r0, r0, r3, lsl #16
     de4:	0b002403 	bleq	9df8 <__bss_end__+0xa68>
     de8:	030b3e0b 	movweq	r3, #48651	; 0xbe0b
     dec:	0400000e 	streq	r0, [r0], #-14
     df0:	19270115 	stmdbne	r7!, {r0, r2, r4, r8}
     df4:	13011349 	movwne	r1, #4937	; 0x1349
     df8:	05050000 	streq	r0, [r5, #-0]
     dfc:	00134900 	andseq	r4, r3, r0, lsl #18
     e00:	00340600 	eorseq	r0, r4, r0, lsl #12
     e04:	0b3a0e03 	bleq	e84618 <__bss_end__+0xe7b288>
     e08:	0b390b3b 	bleq	e43afc <__bss_end__+0xe3a76c>
     e0c:	193f1349 	ldmdbne	pc!, {r0, r3, r6, r8, r9, ip}	; <UNPREDICTABLE>
     e10:	0000193c 	andeq	r1, r0, ip, lsr r9
     e14:	0b000f07 	bleq	4a38 <__code_start__-0x35c8>
     e18:	0013490b 	andseq	r4, r3, fp, lsl #18
     e1c:	00260800 	eoreq	r0, r6, r0, lsl #16
     e20:	00001349 	andeq	r1, r0, r9, asr #6
     e24:	47003409 	strmi	r3, [r0, -r9, lsl #8]
     e28:	3b0b3a13 	blcc	2cf67c <__bss_end__+0x2c62ec>
     e2c:	020b390b 	andeq	r3, fp, #180224	; 0x2c000
     e30:	0a000018 	beq	e98 <__code_start__-0x7168>
     e34:	193f012e 	ldmdbne	pc!, {r1, r2, r3, r5, r8}	; <UNPREDICTABLE>
     e38:	0b3a0e03 	bleq	e8464c <__bss_end__+0xe7b2bc>
     e3c:	0b390b3b 	bleq	e43b30 <__bss_end__+0xe3a7a0>
     e40:	01111927 	tsteq	r1, r7, lsr #18
     e44:	18400612 	stmdane	r0, {r1, r4, r9, sl}^
     e48:	01194297 			; <UNDEFINED> instruction: 0x01194297
     e4c:	0b000013 	bleq	ea0 <__code_start__-0x7160>
     e50:	08030005 	stmdaeq	r3, {r0, r2}
     e54:	0b3b0b3a 	bleq	ec3b44 <__bss_end__+0xeba7b4>
     e58:	13490b39 	movtne	r0, #39737	; 0x9b39
     e5c:	00001802 	andeq	r1, r0, r2, lsl #16
     e60:	3f002e0c 	svccc	0x00002e0c
     e64:	3a0e0319 	bcc	381ad0 <__bss_end__+0x378740>
     e68:	390b3b0b 	stmdbcc	fp, {r0, r1, r3, r8, r9, fp, ip, sp}
     e6c:	1119270b 	tstne	r9, fp, lsl #14
     e70:	40061201 	andmi	r1, r6, r1, lsl #4
     e74:	19429718 	stmdbne	r2, {r3, r4, r8, r9, sl, ip, pc}^
     e78:	2e0d0000 	cdpcs	0, 0, cr0, cr13, cr0, {0}
     e7c:	3a0e0301 	bcc	381a88 <__bss_end__+0x3786f8>
     e80:	390b3b0b 	stmdbcc	fp, {r0, r1, r3, r8, r9, fp, ip, sp}
     e84:	4919270b 	ldmdbmi	r9, {r0, r1, r3, r8, r9, sl, sp}
     e88:	12011113 	andne	r1, r1, #-1073741820	; 0xc0000004
     e8c:	97184006 	ldrls	r4, [r8, -r6]
     e90:	13011942 	movwne	r1, #6466	; 0x1942
     e94:	050e0000 	streq	r0, [lr, #-0]
     e98:	3a080300 	bcc	201aa0 <__bss_end__+0x1f8710>
     e9c:	390b3b0b 	stmdbcc	fp, {r0, r1, r3, r8, r9, fp, ip, sp}
     ea0:	0213490b 	andseq	r4, r3, #180224	; 0x2c000
     ea4:	1742b717 	smlaldne	fp, r2, r7, r7
     ea8:	890f0000 	stmdbhi	pc, {}	; <UNPREDICTABLE>
     eac:	11010182 	smlabbne	r1, r2, r1, r0
     eb0:	00133101 	andseq	r3, r3, r1, lsl #2
     eb4:	828a1000 	addhi	r1, sl, #0, 0
     eb8:	18020001 	stmdane	r2, {r0}
     ebc:	00184291 	mulseq	r8, r1, r2
     ec0:	002e1100 	eoreq	r1, lr, r0, lsl #2
     ec4:	193c193f 	ldmdbne	ip!, {r0, r1, r2, r3, r4, r5, r8, fp, ip}
     ec8:	0e030e6e 	cdpeq	14, 0, cr0, cr3, cr14, {3}
     ecc:	0b3b0b3a 	bleq	ec3bbc <__bss_end__+0xeba82c>
     ed0:	00000b39 	andeq	r0, r0, r9, lsr fp
     ed4:	01110100 	tsteq	r1, r0, lsl #2
     ed8:	0b130e25 	bleq	4c4774 <__bss_end__+0x4bb3e4>
     edc:	0e1b0e03 	cdpeq	14, 1, cr0, cr11, cr3, {0}
     ee0:	06120111 			; <UNDEFINED> instruction: 0x06120111
     ee4:	00001710 	andeq	r1, r0, r0, lsl r7
     ee8:	0b002402 	bleq	9ef8 <__bss_end__+0xb68>
     eec:	030b3e0b 	movweq	r3, #48651	; 0xbe0b
     ef0:	03000008 	movweq	r0, #8
     ef4:	0b0b0024 	bleq	2c0f8c <__bss_end__+0x2b7bfc>
     ef8:	0e030b3e 	vmoveq.16	d3[0], r0
     efc:	15040000 	strne	r0, [r4, #-0]
     f00:	49192701 	ldmdbmi	r9, {r0, r8, r9, sl, sp}
     f04:	00130113 	andseq	r0, r3, r3, lsl r1
     f08:	00050500 	andeq	r0, r5, r0, lsl #10
     f0c:	00001349 	andeq	r1, r0, r9, asr #6
     f10:	03003406 	movweq	r3, #1030	; 0x406
     f14:	3b0b3a0e 	blcc	2cf754 <__bss_end__+0x2c63c4>
     f18:	490b390b 	stmdbmi	fp, {r0, r1, r3, r8, fp, ip, sp}
     f1c:	3c193f13 	ldccc	15, cr3, [r9], {19}
     f20:	07000019 	smladeq	r0, r9, r0, r0
     f24:	0b0b000f 	bleq	2c0f68 <__bss_end__+0x2b7bd8>
     f28:	00001349 	andeq	r1, r0, r9, asr #6
     f2c:	49002608 	stmdbmi	r0, {r3, r9, sl, sp}
     f30:	09000013 	stmdbeq	r0, {r0, r1, r4}
     f34:	193f012e 	ldmdbne	pc!, {r1, r2, r3, r5, r8}	; <UNPREDICTABLE>
     f38:	0b3a0e03 	bleq	e8474c <__bss_end__+0xe7b3bc>
     f3c:	0b390b3b 	bleq	e43c30 <__bss_end__+0xe3a8a0>
     f40:	13491927 	movtne	r1, #39207	; 0x9927
     f44:	06120111 			; <UNDEFINED> instruction: 0x06120111
     f48:	42971840 	addsmi	r1, r7, #64, 16	; 0x400000
     f4c:	00130119 	andseq	r0, r3, r9, lsl r1
     f50:	00050a00 	andeq	r0, r5, r0, lsl #20
     f54:	0b3a0e03 	bleq	e84768 <__bss_end__+0xe7b3d8>
     f58:	0b390b3b 	bleq	e43c4c <__bss_end__+0xe3a8bc>
     f5c:	18021349 	stmdane	r2, {r0, r3, r6, r8, r9, ip}
     f60:	050b0000 	streq	r0, [fp, #-0]
     f64:	3a080300 	bcc	201b6c <__bss_end__+0x1f87dc>
     f68:	390b3b0b 	stmdbcc	fp, {r0, r1, r3, r8, r9, fp, ip, sp}
     f6c:	0213490b 	andseq	r4, r3, #180224	; 0x2c000
     f70:	1742b717 	smlaldne	fp, r2, r7, r7
     f74:	340c0000 	strcc	r0, [ip], #-0
     f78:	3a080300 	bcc	201b80 <__bss_end__+0x1f87f0>
     f7c:	390b3b0b 	stmdbcc	fp, {r0, r1, r3, r8, r9, fp, ip, sp}
     f80:	0213490b 	andseq	r4, r3, #180224	; 0x2c000
     f84:	1742b717 	smlaldne	fp, r2, r7, r7
     f88:	01000000 	mrseq	r0, (UNDEF: 0)
     f8c:	0e250111 	mcreq	1, 1, r0, cr5, cr1, {0}
     f90:	0e030b13 	vmoveq.32	d3[0], r0
     f94:	17550e1b 	smmlane	r5, fp, lr, r0
     f98:	17100111 			; <UNDEFINED> instruction: 0x17100111
     f9c:	24020000 	strcs	r0, [r2], #-0
     fa0:	3e0b0b00 	vmlacc.f64	d0, d11, d0
     fa4:	0008030b 	andeq	r0, r8, fp, lsl #6
     fa8:	00160300 	andseq	r0, r6, r0, lsl #6
     fac:	0b3a0e03 	bleq	e847c0 <__bss_end__+0xe7b430>
     fb0:	0b390b3b 	bleq	e43ca4 <__bss_end__+0xe3a914>
     fb4:	00001349 	andeq	r1, r0, r9, asr #6
     fb8:	0b002404 	bleq	9fd0 <__bss_end__+0xc40>
     fbc:	030b3e0b 	movweq	r3, #48651	; 0xbe0b
     fc0:	0500000e 	streq	r0, [r0, #-14]
     fc4:	13490026 	movtne	r0, #36902	; 0x9026
     fc8:	15060000 	strne	r0, [r6, #-0]
     fcc:	49192701 	ldmdbmi	r9, {r0, r8, r9, sl, sp}
     fd0:	00130113 	andseq	r0, r3, r3, lsl r1
     fd4:	00050700 	andeq	r0, r5, r0, lsl #14
     fd8:	00001349 	andeq	r1, r0, r9, asr #6
     fdc:	03003408 	movweq	r3, #1032	; 0x408
     fe0:	3b0b3a0e 	blcc	2cf820 <__bss_end__+0x2c6490>
     fe4:	490b390b 	stmdbmi	fp, {r0, r1, r3, r8, fp, ip, sp}
     fe8:	3c193f13 	ldccc	15, cr3, [r9], {19}
     fec:	09000019 	stmdbeq	r0, {r0, r3, r4}
     ff0:	0b0b000f 	bleq	2c1034 <__bss_end__+0x2b7ca4>
     ff4:	00001349 	andeq	r1, r0, r9, asr #6
     ff8:	3f012e0a 	svccc	0x00012e0a
     ffc:	3a0e0319 	bcc	381c68 <__bss_end__+0x3788d8>
    1000:	390b3b0b 	stmdbcc	fp, {r0, r1, r3, r8, r9, fp, ip, sp}
    1004:	4919270b 	ldmdbmi	r9, {r0, r1, r3, r8, r9, sl, sp}
    1008:	12011113 	andne	r1, r1, #-1073741820	; 0xc0000004
    100c:	97184006 	ldrls	r4, [r8, -r6]
    1010:	13011942 	movwne	r1, #6466	; 0x1942
    1014:	050b0000 	streq	r0, [fp, #-0]
    1018:	3a080300 	bcc	201c20 <__bss_end__+0x1f8890>
    101c:	390b3b0b 	stmdbcc	fp, {r0, r1, r3, r8, r9, fp, ip, sp}
    1020:	0213490b 	andseq	r4, r3, #180224	; 0x2c000
    1024:	1742b717 	smlaldne	fp, r2, r7, r7
    1028:	340c0000 	strcc	r0, [ip], #-0
    102c:	3a080300 	bcc	201c34 <__bss_end__+0x1f88a4>
    1030:	390b3b0b 	stmdbcc	fp, {r0, r1, r3, r8, r9, fp, ip, sp}
    1034:	0213490b 	andseq	r4, r3, #180224	; 0x2c000
    1038:	1742b717 	smlaldne	fp, r2, r7, r7
    103c:	Address 0x000000000000103c is out of bounds.


Disassembly of section .debug_loc:

00000000 <.debug_loc>:
   0:	00000002 	andeq	r0, r0, r2
   4:	00000020 	andeq	r0, r0, r0, lsr #32
   8:	00000024 	andeq	r0, r0, r4, lsr #32
   c:	9f300002 	svcls	0x00300002
  10:	00000024 	andeq	r0, r0, r4, lsr #32
  14:	00000074 	andeq	r0, r0, r4, ror r0
  18:	00540001 	subseq	r0, r4, r1
	...
  24:	50000000 	andpl	r0, r0, r0
  28:	5b000001 	blpl	34 <__code_start__-0x7fcc>
  2c:	01000001 	tsteq	r0, r1
  30:	015b5000 	cmpeq	fp, r0
  34:	01b40000 			; <UNDEFINED> instruction: 0x01b40000
  38:	00010000 	andeq	r0, r1, r0
  3c:	00000055 	andeq	r0, r0, r5, asr r0
	...
  4c:	00016000 	andeq	r6, r1, r0
  50:	00017000 	andeq	r7, r1, r0
  54:	50000100 	andpl	r0, r0, r0, lsl #2
  58:	00000170 	andeq	r0, r0, r0, ror r1
  5c:	00000178 	andeq	r0, r0, r8, ror r1
  60:	78540001 	ldmdavc	r4, {r0}^
  64:	9c000001 	stcls	0, cr0, [r0], {1}
  68:	01000001 	tsteq	r0, r1
  6c:	019c5000 	orrseq	r5, ip, r0
  70:	01b40000 			; <UNDEFINED> instruction: 0x01b40000
  74:	00010000 	andeq	r0, r1, r0
  78:	00000054 	andeq	r0, r0, r4, asr r0
	...
  88:	0000f000 	andeq	pc, r0, r0
  8c:	00010c00 	andeq	r0, r1, r0, lsl #24
  90:	50000100 	andpl	r0, r0, r0, lsl #2
  94:	0000010c 	andeq	r0, r0, ip, lsl #2
  98:	0000011c 	andeq	r0, r0, ip, lsl r1
  9c:	1c540001 	mrrcne	0, 0, r0, r4, cr1
  a0:	3b000001 	blcc	ac <__code_start__-0x7f54>
  a4:	01000001 	tsteq	r0, r1
  a8:	013b5000 	teqeq	fp, r0
  ac:	01500000 	cmpeq	r0, r0
  b0:	00010000 	andeq	r0, r1, r0
  b4:	00000054 	andeq	r0, r0, r4, asr r0
	...
  c4:	0000f000 	andeq	pc, r0, r0
  c8:	00010c00 	andeq	r0, r1, r0, lsl #24
  cc:	51000100 	mrspl	r0, (UNDEF: 16)
  d0:	0000010c 	andeq	r0, r0, ip, lsl #2
  d4:	0000011c 	andeq	r0, r0, ip, lsl r1
  d8:	1c550001 	mrrcne	0, 0, r0, r5, cr1
  dc:	3b000001 	blcc	e8 <__code_start__-0x7f18>
  e0:	01000001 	tsteq	r0, r1
  e4:	013b5100 	teqeq	fp, r0, lsl #2
  e8:	01500000 	cmpeq	r0, r0
  ec:	00010000 	andeq	r0, r1, r0
  f0:	00000055 	andeq	r0, r0, r5, asr r0
	...
  fc:	1c000000 	stcne	0, cr0, [r0], {-0}
 100:	2c000000 	stccs	0, cr0, [r0], {-0}
 104:	01000000 	mrseq	r0, (UNDEF: 0)
 108:	002c5000 	eoreq	r5, ip, r0
 10c:	002f0000 	eoreq	r0, pc, r0
 110:	00010000 	andeq	r0, r1, r0
 114:	00002f51 	andeq	r2, r0, r1, asr pc
 118:	00003800 	andeq	r3, r0, r0, lsl #16
 11c:	f3000400 	vshl.u8	d0, d0, d0
 120:	009f5001 	addseq	r5, pc, r1
	...
 130:	00001c00 	andeq	r1, r0, r0, lsl #24
 134:	00002800 	andeq	r2, r0, r0, lsl #16
 138:	51000100 	mrspl	r0, (UNDEF: 16)
 13c:	00000028 	andeq	r0, r0, r8, lsr #32
 140:	0000002f 	andeq	r0, r0, pc, lsr #32
 144:	2f520001 	svccs	0x00520001
 148:	38000000 	stmdacc	r0, {}	; <UNPREDICTABLE>
 14c:	04000000 	streq	r0, [r0], #-0
 150:	5101f300 	mrspl	pc, SP_irq	; <UNPREDICTABLE>
 154:	0000009f 	muleq	r0, pc, r0	; <UNPREDICTABLE>
	...
 164:	10000000 	andne	r0, r0, r0
 168:	01000000 	mrseq	r0, (UNDEF: 0)
 16c:	00105000 	andseq	r5, r0, r0
 170:	00130000 	andseq	r0, r3, r0
 174:	00010000 	andeq	r0, r1, r0
 178:	00001351 	andeq	r1, r0, r1, asr r3
 17c:	00001c00 	andeq	r1, r0, r0, lsl #24
 180:	f3000400 	vshl.u8	d0, d0, d0
 184:	009f5001 	addseq	r5, pc, r1
	...
 198:	00000c00 	andeq	r0, r0, r0, lsl #24
 19c:	51000100 	mrspl	r0, (UNDEF: 16)
 1a0:	0000000c 	andeq	r0, r0, ip
 1a4:	00000013 	andeq	r0, r0, r3, lsl r0
 1a8:	13520001 	cmpne	r2, #1, 0
 1ac:	1c000000 	stcne	0, cr0, [r0], {-0}
 1b0:	04000000 	streq	r0, [r0], #-0
 1b4:	5101f300 	mrspl	pc, SP_irq	; <UNPREDICTABLE>
 1b8:	0000009f 	muleq	r0, pc, r0	; <UNPREDICTABLE>
	...
 1c4:	00003800 	andeq	r3, r0, r0, lsl #16
 1c8:	00007800 	andeq	r7, r0, r0, lsl #16
 1cc:	50000100 	andpl	r0, r0, r0, lsl #2
 1d0:	00000078 	andeq	r0, r0, r8, ror r0
 1d4:	00000094 	muleq	r0, r4, r0
 1d8:	01f30004 	mvnseq	r0, r4
 1dc:	00009f50 	andeq	r9, r0, r0, asr pc
	...
 1ec:	0000002c 	andeq	r0, r0, ip, lsr #32
 1f0:	00000038 	andeq	r0, r0, r8, lsr r0
 1f4:	38500001 	ldmdacc	r0, {r0}^
 1f8:	48000000 	stmdami	r0, {}	; <UNPREDICTABLE>
 1fc:	01000000 	mrseq	r0, (UNDEF: 0)
 200:	00485400 	subeq	r5, r8, r0, lsl #8
 204:	00580000 	subseq	r0, r8, r0
 208:	00010000 	andeq	r0, r1, r0
 20c:	00000050 	andeq	r0, r0, r0, asr r0
 210:	00000000 	andeq	r0, r0, r0
 214:	01010000 	mrseq	r0, (UNDEF: 1)
 218:	00000000 	andeq	r0, r0, r0
 21c:	00000800 	andeq	r0, r0, r0, lsl #16
 220:	50000100 	andpl	r0, r0, r0, lsl #2
 224:	00000008 	andeq	r0, r0, r8
 228:	00000034 	andeq	r0, r0, r4, lsr r0
 22c:	00540001 	subseq	r0, r4, r1
	...
 23c:	00028800 	andeq	r8, r2, r0, lsl #16
 240:	0002b800 	andeq	fp, r2, r0, lsl #16
 244:	50000100 	andpl	r0, r0, r0, lsl #2
 248:	000002b8 			; <UNDEFINED> instruction: 0x000002b8
 24c:	00000604 	andeq	r0, r0, r4, lsl #12
 250:	04590001 	ldrbeq	r0, [r9], #-1
 254:	2c000006 	stccs	0, cr0, [r0], {6}
 258:	04000006 	streq	r0, [r0], #-6
 25c:	5001f300 	andpl	pc, r1, r0, lsl #6
 260:	0000009f 	muleq	r0, pc, r0	; <UNPREDICTABLE>
	...
 26c:	88000000 	stmdahi	r0, {}	; <UNPREDICTABLE>
 270:	a0000002 	andge	r0, r0, r2
 274:	01000002 	tsteq	r0, r2
 278:	02a05100 	adceq	r5, r0, #0
 27c:	02b80000 	adcseq	r0, r8, #0, 0
 280:	00030000 	andeq	r0, r3, r0
 284:	b89f0171 	ldmlt	pc, {r0, r4, r5, r6, r8}	; <UNPREDICTABLE>
 288:	2c000002 	stccs	0, cr0, [r0], {2}
 28c:	04000006 	streq	r0, [r0], #-6
 290:	5101f300 	mrspl	pc, SP_irq	; <UNPREDICTABLE>
 294:	0000009f 	muleq	r0, pc, r0	; <UNPREDICTABLE>
	...
 2a0:	00028800 	andeq	r8, r2, r0, lsl #16
 2a4:	0002b800 	andeq	fp, r2, r0, lsl #16
 2a8:	52000100 	andpl	r0, r0, #0
 2ac:	000002b8 			; <UNDEFINED> instruction: 0x000002b8
 2b0:	00000604 	andeq	r0, r0, r4, lsl #12
 2b4:	00560001 	subseq	r0, r6, r1
 2b8:	00000000 	andeq	r0, r0, r0
 2bc:	01000000 	mrseq	r0, (UNDEF: 0)
 2c0:	00000000 	andeq	r0, r0, r0
 2c4:	01010000 	mrseq	r0, (UNDEF: 1)
 2c8:	00000000 	andeq	r0, r0, r0
 2cc:	02020000 	andeq	r0, r2, #0, 0
 2d0:	9c000000 	stcls	0, cr0, [r0], {-0}
 2d4:	b8000002 	stmdalt	r0, {r1}
 2d8:	01000002 	tsteq	r0, r2
 2dc:	02b85000 	adcseq	r5, r8, #0, 0
 2e0:	02bc0000 	adcseq	r0, ip, #0, 0
 2e4:	00010000 	andeq	r0, r1, r0
 2e8:	0002bc54 	andeq	fp, r2, r4, asr ip
 2ec:	0002c000 	andeq	ip, r2, r0
 2f0:	74000300 	strvc	r0, [r0], #-768	; 0xfffffd00
 2f4:	02c09f01 	sbceq	r9, r0, #1, 30
 2f8:	02e40000 	rsceq	r0, r4, #0, 0
 2fc:	00010000 	andeq	r0, r1, r0
 300:	0002e454 	andeq	lr, r2, r4, asr r4
 304:	0002e800 	andeq	lr, r2, r0, lsl #16
 308:	74000300 	strvc	r0, [r0], #-768	; 0xfffffd00
 30c:	02e89f01 	rsceq	r9, r8, #1, 30
 310:	05d40000 	ldrbeq	r0, [r4]
 314:	00010000 	andeq	r0, r1, r0
 318:	0005d454 	andeq	sp, r5, r4, asr r4
 31c:	0005d800 	andeq	sp, r5, r0, lsl #16
 320:	74000300 	strvc	r0, [r0], #-768	; 0xfffffd00
 324:	05d89f01 	ldrbeq	r9, [r8, #3841]	; 0xf01
 328:	05f00000 	ldrbeq	r0, [r0, #0]!
 32c:	00010000 	andeq	r0, r1, r0
 330:	0005f054 	andeq	pc, r5, r4, asr r0	; <UNPREDICTABLE>
 334:	0005f800 	andeq	pc, r5, r0, lsl #16
 338:	74000300 	strvc	r0, [r0], #-768	; 0xfffffd00
 33c:	05f89f01 	ldrbeq	r9, [r8, #3841]!	; 0xf01
 340:	06040000 	streq	r0, [r4], -r0
 344:	00010000 	andeq	r0, r1, r0
 348:	00000054 	andeq	r0, r0, r4, asr r0
	...
 354:	0002a400 	andeq	sl, r2, r0, lsl #8
 358:	00060400 	andeq	r0, r6, r0, lsl #8
 35c:	58000100 	stmdapl	r0, {r8}
 360:	00000604 	andeq	r0, r0, r4, lsl #12
 364:	0000062c 	andeq	r0, r0, ip, lsr #12
 368:	01f3000a 	mvnseq	r0, sl
 36c:	5001f351 	andpl	pc, r1, r1, asr r3	; <UNPREDICTABLE>
 370:	9f1c3122 	svcls	0x001c3122
	...
 37c:	03f00001 	mvnseq	r0, #1, 0
 380:	040b0000 	streq	r0, [fp], #-0
 384:	00010000 	andeq	r0, r1, r0
 388:	00000053 	andeq	r0, r0, r3, asr r0
 38c:	00000000 	andeq	r0, r0, r0
 390:	00000100 	andeq	r0, r0, r0, lsl #2
 394:	0002ac00 	andeq	sl, r2, r0, lsl #24
 398:	0002b800 	andeq	fp, r2, r0, lsl #16
 39c:	52000100 	andpl	r0, r0, #0
 3a0:	000002b8 			; <UNDEFINED> instruction: 0x000002b8
 3a4:	0000062c 	andeq	r0, r0, ip, lsr #12
 3a8:	c8910003 	ldmgt	r1, {r0, r1}
 3ac:	0000007d 	andeq	r0, r0, sp, ror r0
	...
 3b8:	01010000 	mrseq	r0, (UNDEF: 1)
	...
 3c4:	10000000 	andne	r0, r0, r0
 3c8:	28000004 	stmdacs	r0, {r2}
 3cc:	01000004 	tsteq	r0, r4
 3d0:	04285000 	strteq	r5, [r8], #-0
 3d4:	043c0000 	ldrteq	r0, [ip], #-0
 3d8:	00010000 	andeq	r0, r1, r0
 3dc:	0004a457 	andeq	sl, r4, r7, asr r4
 3e0:	0004a400 	andeq	sl, r4, r0, lsl #8
 3e4:	50000100 	andpl	r0, r0, r0, lsl #2
 3e8:	000004a4 	andeq	r0, r0, r4, lsr #9
 3ec:	000004ac 	andeq	r0, r0, ip, lsr #9
 3f0:	dc570001 	mrrcle	0, 0, r0, r7, cr1
 3f4:	e0000004 	and	r0, r0, r4
 3f8:	01000004 	tsteq	r0, r4
 3fc:	05105000 	ldreq	r5, [r0, #-0]
 400:	05140000 	ldreq	r0, [r4, #-0]
 404:	00010000 	andeq	r0, r1, r0
 408:	00054450 	andeq	r4, r5, r0, asr r4
 40c:	00054800 	andeq	r4, r5, r0, lsl #16
 410:	50000100 	andpl	r0, r0, r0, lsl #2
 414:	0000058c 	andeq	r0, r0, ip, lsl #11
 418:	00000590 	muleq	r0, r0, r5
 41c:	d0500001 	subsle	r0, r0, r1
 420:	f0000005 			; <UNDEFINED> instruction: 0xf0000005
 424:	01000005 	tsteq	r0, r5
 428:	00005700 	andeq	r5, r0, r0, lsl #14
 42c:	00000000 	andeq	r0, r0, r0
 430:	00020000 	andeq	r0, r2, r0
 434:	00000000 	andeq	r0, r0, r0
 438:	000002f4 	strdeq	r0, [r0], -r4
 43c:	000002f8 	strdeq	r0, [r0], -r8
 440:	9f300002 	svcls	0x00300002
 444:	000002f8 	strdeq	r0, [r0], -r8
 448:	00000314 	andeq	r0, r0, r4, lsl r3
 44c:	1c550001 	mrrcne	0, 0, r0, r5, cr1
 450:	f0000003 			; <UNDEFINED> instruction: 0xf0000003
 454:	01000005 	tsteq	r0, r5
 458:	00005500 	andeq	r5, r0, r0, lsl #10
	...
 468:	00000070 	andeq	r0, r0, r0, ror r0
 46c:	00000094 	muleq	r0, r4, r0
 470:	94500001 	ldrbls	r0, [r0], #-1
 474:	fc000000 	stc2	0, cr0, [r0], {-0}
 478:	03000000 	movweq	r0, #0
 47c:	9f027000 	svcls	0x00027000
 480:	000000fc 	strdeq	r0, [r0], -ip
 484:	00000224 	andeq	r0, r0, r4, lsr #4
 488:	01f30004 	mvnseq	r0, r4
 48c:	00009f50 	andeq	r9, r0, r0, asr pc
	...
 4a4:	00700000 	rsbseq	r0, r0, r0
 4a8:	00e00000 	rsceq	r0, r0, r0
 4ac:	00010000 	andeq	r0, r1, r0
 4b0:	0000e051 	andeq	lr, r0, r1, asr r0
 4b4:	00015400 	andeq	r5, r1, r0, lsl #8
 4b8:	55000100 	strpl	r0, [r0, #-256]	; 0xffffff00
 4bc:	00000154 	andeq	r0, r0, r4, asr r1
 4c0:	00000158 	andeq	r0, r0, r8, asr r1
 4c4:	58510001 	ldmdapl	r1, {r0}^
 4c8:	b0000001 	andlt	r0, r0, r1
 4cc:	01000001 	tsteq	r0, r1
 4d0:	01b05500 	lslseq	r5, r0, #10
 4d4:	01c00000 	biceq	r0, r0, r0
 4d8:	00010000 	andeq	r0, r1, r0
 4dc:	0001c051 	andeq	ip, r1, r1, asr r0
 4e0:	0001e400 	andeq	lr, r1, r0, lsl #8
 4e4:	55000100 	strpl	r0, [r0, #-256]	; 0xffffff00
 4e8:	000001e4 	andeq	r0, r0, r4, ror #3
 4ec:	000001f8 	strdeq	r0, [r0], -r8
 4f0:	f8510001 			; <UNDEFINED> instruction: 0xf8510001
 4f4:	24000001 	strcs	r0, [r0], #-1
 4f8:	01000002 	tsteq	r0, r2
 4fc:	00005500 	andeq	r5, r0, r0, lsl #10
	...
 508:	00700000 	rsbseq	r0, r0, r0
 50c:	00840000 	addeq	r0, r4, r0
 510:	00010000 	andeq	r0, r1, r0
 514:	00008452 	andeq	r8, r0, r2, asr r4
 518:	00022400 	andeq	r2, r2, r0, lsl #8
 51c:	54000100 	strpl	r0, [r0], #-256	; 0xffffff00
	...
 52c:	00000100 	andeq	r0, r0, r0, lsl #2
 530:	00000000 	andeq	r0, r0, r0
 534:	00000070 	andeq	r0, r0, r0, ror r0
 538:	000000f4 	strdeq	r0, [r0], -r4
 53c:	4c530001 	mrrcmi	0, 0, r0, r3, cr1
 540:	80000001 	andhi	r0, r0, r1
 544:	01000001 	tsteq	r0, r1
 548:	01805300 	orreq	r5, r0, r0, lsl #6
 54c:	018c0000 	orreq	r0, ip, r0
 550:	00040000 	andeq	r0, r4, r0
 554:	9f5301f3 	svcls	0x005301f3
 558:	000001b0 			; <UNDEFINED> instruction: 0x000001b0
 55c:	000001e8 	andeq	r0, r0, r8, ror #3
 560:	e8530001 	ldmda	r3, {r0}^
 564:	ff000001 			; <UNDEFINED> instruction: 0xff000001
 568:	01000001 	tsteq	r0, r1
 56c:	01ff5c00 	mvnseq	r5, r0, lsl #24
 570:	02240000 	eoreq	r0, r4, #0, 0
 574:	00040000 	andeq	r0, r4, r0
 578:	9f5301f3 	svcls	0x005301f3
	...
 588:	00700000 	rsbseq	r0, r0, r0
 58c:	008c0000 	addeq	r0, ip, r0
 590:	00020000 	andeq	r0, r2, r0
 594:	008c0091 	umulleq	r0, ip, r1, r0
 598:	01930000 	orrseq	r0, r3, r0
 59c:	00010000 	andeq	r0, r1, r0
 5a0:	0001b052 	andeq	fp, r1, r2, asr r0
 5a4:	0001f400 	andeq	pc, r1, r0, lsl #8
 5a8:	52000100 	andpl	r0, r0, #0
	...
 5b4:	01000001 	tsteq	r0, r1
 5b8:	00000001 	andeq	r0, r0, r1
 5bc:	00000000 	andeq	r0, r0, r0
 5c0:	01010100 	mrseq	r0, (UNDEF: 17)
 5c4:	01000001 	tsteq	r0, r1
 5c8:	00000001 	andeq	r0, r0, r1
	...
 5d4:	0000008c 	andeq	r0, r0, ip, lsl #1
 5d8:	000000fc 	strdeq	r0, [r0], -ip
 5dc:	a0910004 	addsge	r0, r1, r4
 5e0:	00fc9f7f 	rscseq	r9, ip, pc, ror pc
 5e4:	013c0000 	teqeq	ip, r0
 5e8:	00010000 	andeq	r0, r1, r0
 5ec:	00013c50 	andeq	r3, r1, r0, asr ip
 5f0:	00014800 	andeq	r4, r1, r0, lsl #16
 5f4:	71000300 	mrsvc	r0, LR_irq
 5f8:	01489f02 	cmpeq	r8, r2, lsl #30
 5fc:	014c0000 	mrseq	r0, (UNDEF: 76)
 600:	00010000 	andeq	r0, r1, r0
 604:	00014c50 	andeq	r4, r1, r0, asr ip
 608:	00015800 	andeq	r5, r1, r0, lsl #16
 60c:	91000400 	tstls	r0, r0, lsl #8
 610:	589f7fa0 	ldmpl	pc, {r5, r7, r8, r9, sl, fp, ip, sp, lr}	; <UNPREDICTABLE>
 614:	6c000001 	stcvs	0, cr0, [r0], {1}
 618:	01000001 	tsteq	r0, r1
 61c:	016c5100 	cmneq	ip, r0, lsl #2
 620:	01780000 	cmneq	r8, r0
 624:	00030000 	andeq	r0, r3, r0
 628:	789f7f71 	ldmvc	pc, {r0, r4, r5, r6, r8, r9, sl, fp, ip, sp, lr}	; <UNPREDICTABLE>
 62c:	84000001 	strhi	r0, [r0], #-1
 630:	03000001 	movweq	r0, #1
 634:	9f017100 	svcls	0x00017100
 638:	00000184 	andeq	r0, r0, r4, lsl #3
 63c:	00000193 	muleq	r0, r3, r1
 640:	b0500001 	subslt	r0, r0, r1
 644:	b0000001 	andlt	r0, r0, r1
 648:	04000001 	streq	r0, [r0], #-1
 64c:	7fa09100 	svcvc	0x00a09100
 650:	0001b09f 	muleq	r1, pc, r0	; <UNPREDICTABLE>
 654:	0001b800 	andeq	fp, r1, r0, lsl #16
 658:	91000400 	tstls	r0, r0, lsl #8
 65c:	b89f7fa1 	ldmlt	pc, {r0, r5, r7, r8, r9, sl, fp, ip, sp, lr}	; <UNPREDICTABLE>
 660:	bc000001 	stclt	0, cr0, [r0], {1}
 664:	01000001 	tsteq	r0, r1
 668:	01bc5000 			; <UNDEFINED> instruction: 0x01bc5000
 66c:	01c00000 	biceq	r0, r0, r0
 670:	00040000 	andeq	r0, r4, r0
 674:	9f7fa091 	svcls	0x007fa091
 678:	000001c0 	andeq	r0, r0, r0, asr #3
 67c:	000001d4 	ldrdeq	r0, [r0], -r4
 680:	d4500001 	ldrble	r0, [r0], #-1
 684:	e4000001 	str	r0, [r0], #-1
 688:	03000001 	movweq	r0, #1
 68c:	9f7f7000 	svcls	0x007f7000
 690:	000001e4 	andeq	r0, r0, r4, ror #3
 694:	00000224 	andeq	r0, r0, r4, lsr #4
 698:	a0910004 	addsge	r0, r1, r4
 69c:	00009f7f 	andeq	r9, r0, pc, ror pc
	...
 6a8:	00010100 	andeq	r0, r1, r0, lsl #2
	...
 6b8:	00900000 	addseq	r0, r0, r0
 6bc:	00dc0000 	sbcseq	r0, ip, r0
 6c0:	00010000 	andeq	r0, r1, r0
 6c4:	0000dc5c 	andeq	sp, r0, ip, asr ip
 6c8:	0000f400 	andeq	pc, r0, r0, lsl #8
 6cc:	53000100 	movwpl	r0, #256	; 0x100
 6d0:	000000f4 	strdeq	r0, [r0], -r4
 6d4:	0000014c 	andeq	r0, r0, ip, asr #2
 6d8:	4c5c0001 	mrrcmi	0, 0, r0, ip, cr1
 6dc:	58000001 	stmdapl	r0, {r0}
 6e0:	01000001 	tsteq	r0, r1
 6e4:	01585300 	cmpeq	r8, r0, lsl #6
 6e8:	01740000 	cmneq	r4, r0
 6ec:	00010000 	andeq	r0, r1, r0
 6f0:	0001b05c 	andeq	fp, r1, ip, asr r0
 6f4:	0001c000 	andeq	ip, r1, r0
 6f8:	53000100 	movwpl	r0, #256	; 0x100
 6fc:	000001c0 	andeq	r0, r0, r0, asr #3
 700:	000001dc 	ldrdeq	r0, [r0], -ip
 704:	e45c0001 	ldrb	r0, [ip], #-1
 708:	e8000001 	stmda	r0, {r0}
 70c:	01000001 	tsteq	r0, r1
 710:	01e85300 	mvneq	r5, r0, lsl #6
 714:	01ff0000 	mvnseq	r0, r0
 718:	00010000 	andeq	r0, r1, r0
 71c:	0001ff5c 	andeq	pc, r1, ip, asr pc	; <UNPREDICTABLE>
 720:	00022400 	andeq	r2, r2, r0, lsl #8
 724:	f3000400 	vshl.u8	d0, d0, d0
 728:	009f5301 	addseq	r5, pc, r1, lsl #6
 72c:	00000000 	andeq	r0, r0, r0
 730:	01000000 	mrseq	r0, (UNDEF: 0)
 734:	00000101 	andeq	r0, r0, r1, lsl #2
 738:	dc000000 	stcle	0, cr0, [r0], {-0}
 73c:	f0000000 			; <UNDEFINED> instruction: 0xf0000000
 740:	02000000 	andeq	r0, r0, #0, 0
 744:	f09f3000 			; <UNDEFINED> instruction: 0xf09f3000
 748:	f8000000 			; <UNDEFINED> instruction: 0xf8000000
 74c:	02000000 	andeq	r0, r0, #0, 0
 750:	fc9f3100 	ldc2	1, cr3, [pc], {0}
 754:	4c000000 	stcmi	0, cr0, [r0], {-0}
 758:	01000001 	tsteq	r0, r1
 75c:	014c5600 	cmpeq	ip, r0, lsl #12
 760:	01540000 	cmpeq	r4, r0
 764:	00020000 	andeq	r0, r2, r0
 768:	00009f30 	andeq	r9, r0, r0, lsr pc
	...
 774:	00010100 	andeq	r0, r1, r0, lsl #2
 778:	00010100 	andeq	r0, r1, r0, lsl #2
 77c:	00000038 	andeq	r0, r0, r8, lsr r0
 780:	00000054 	andeq	r0, r0, r4, asr r0
 784:	54500001 	ldrbpl	r0, [r0], #-1
 788:	58000000 	stmdapl	r0, {}	; <UNPREDICTABLE>
 78c:	01000000 	mrseq	r0, (UNDEF: 0)
 790:	00585200 	subseq	r5, r8, r0, lsl #4
 794:	00600000 	rsbeq	r0, r0, r0
 798:	00030000 	andeq	r0, r3, r0
 79c:	609f0172 	addsvs	r0, pc, r2, ror r1	; <UNPREDICTABLE>
 7a0:	64000000 	strvs	r0, [r0], #-0
 7a4:	01000000 	mrseq	r0, (UNDEF: 0)
 7a8:	00645200 	rsbeq	r5, r4, r0, lsl #4
 7ac:	00700000 	rsbseq	r0, r0, r0
 7b0:	00030000 	andeq	r0, r3, r0
 7b4:	009f0172 	addseq	r0, pc, r2, ror r1	; <UNPREDICTABLE>
	...
 7c0:	38000000 	stmdacc	r0, {}	; <UNPREDICTABLE>
 7c4:	50000000 	andpl	r0, r0, r0
 7c8:	01000000 	mrseq	r0, (UNDEF: 0)
 7cc:	00505100 	subseq	r5, r0, r0, lsl #2
 7d0:	00700000 	rsbseq	r0, r0, r0
 7d4:	00040000 	andeq	r0, r4, r0
 7d8:	9f5101f3 	svcls	0x005101f3
	...
 7e8:	00010100 	andeq	r0, r1, r0, lsl #2
 7ec:	00000038 	andeq	r0, r0, r8, lsr r0
 7f0:	00000050 	andeq	r0, r0, r0, asr r0
 7f4:	50520001 	subspl	r0, r2, r1
 7f8:	5c000000 	stcpl	0, cr0, [r0], {-0}
 7fc:	01000000 	mrseq	r0, (UNDEF: 0)
 800:	005c5100 	subseq	r5, ip, r0, lsl #2
 804:	00600000 	rsbeq	r0, r0, r0
 808:	00030000 	andeq	r0, r3, r0
 80c:	609f0171 	addsvs	r0, pc, r1, ror r1	; <UNPREDICTABLE>
 810:	70000000 	andvc	r0, r0, r0
 814:	01000000 	mrseq	r0, (UNDEF: 0)
 818:	00005100 	andeq	r5, r0, r0, lsl #2
	...
 824:	00380000 	eorseq	r0, r8, r0
 828:	004c0000 	subeq	r0, ip, r0
 82c:	00010000 	andeq	r0, r1, r0
 830:	00004c53 	andeq	r4, r0, r3, asr ip
 834:	00006800 	andeq	r6, r0, r0, lsl #16
 838:	53000100 	movwpl	r0, #256	; 0x100
	...
 84c:	00000040 	andeq	r0, r0, r0, asr #32
 850:	00000048 	andeq	r0, r0, r8, asr #32
 854:	485c0001 	ldmdami	ip, {r0}^
 858:	4c000000 	stcmi	0, cr0, [r0], {-0}
 85c:	08000000 	stmdaeq	r0, {}	; <UNPREDICTABLE>
 860:	73007200 	movwvc	r7, #512	; 0x200
 864:	01231c00 			; <UNDEFINED> instruction: 0x01231c00
 868:	00004c9f 	muleq	r0, pc, ip	; <UNPREDICTABLE>
 86c:	00005400 	andeq	r5, r0, r0, lsl #8
 870:	72000900 	andvc	r0, r0, #0, 18
 874:	5301f300 	movwpl	pc, #4864	; 0x1300	; <UNPREDICTABLE>
 878:	9f01231c 	svcls	0x0001231c
 87c:	00000054 	andeq	r0, r0, r4, asr r0
 880:	00000070 	andeq	r0, r0, r0, ror r0
 884:	01f3000a 	mvnseq	r0, sl
 888:	5301f352 	movwpl	pc, #4946	; 0x1352	; <UNPREDICTABLE>
 88c:	9f01231c 	svcls	0x0001231c
	...
 898:	004c0001 	subeq	r0, ip, r1
 89c:	00700000 	rsbseq	r0, r0, r0
 8a0:	00010000 	andeq	r0, r1, r0
 8a4:	00000050 	andeq	r0, r0, r0, asr r0
 8a8:	00000000 	andeq	r0, r0, r0
 8ac:	01010000 	mrseq	r0, (UNDEF: 1)
 8b0:	14000000 	strne	r0, [r0], #-0
 8b4:	1c000000 	stcne	0, cr0, [r0], {-0}
 8b8:	01000000 	mrseq	r0, (UNDEF: 0)
 8bc:	001c5000 	andseq	r5, ip, r0
 8c0:	00240000 	eoreq	r0, r4, r0
 8c4:	00030000 	andeq	r0, r3, r0
 8c8:	249f0170 	ldrcs	r0, [pc], #368	; 8d0 <__code_start__-0x7730>
 8cc:	38000000 	stmdacc	r0, {}	; <UNPREDICTABLE>
 8d0:	01000000 	mrseq	r0, (UNDEF: 0)
 8d4:	00005000 	andeq	r5, r0, r0
	...
 8e0:	00140000 	andseq	r0, r4, r0
 8e4:	00180000 	andseq	r0, r8, r0
 8e8:	00010000 	andeq	r0, r1, r0
 8ec:	00001851 	andeq	r1, r0, r1, asr r8
 8f0:	00003800 	andeq	r3, r0, r0, lsl #16
 8f4:	f3000400 	vshl.u8	d0, d0, d0
 8f8:	009f5101 	addseq	r5, pc, r1, lsl #2
	...
 904:	00001800 	andeq	r1, r0, r0, lsl #16
 908:	00003800 	andeq	r3, r0, r0, lsl #16
 90c:	51000100 	mrspl	r0, (UNDEF: 16)
	...
 920:	00040000 	andeq	r0, r4, r0
 924:	00010000 	andeq	r0, r1, r0
 928:	00000450 	andeq	r0, r0, r0, asr r4
 92c:	00000c00 	andeq	r0, r0, r0, lsl #24
 930:	70000300 	andvc	r0, r0, r0, lsl #6
 934:	000c9f30 	andeq	r9, ip, r0, lsr pc
 938:	00140000 	andseq	r0, r4, r0
 93c:	00040000 	andeq	r0, r4, r0
 940:	9f5001f3 	svcls	0x005001f3
	...
 950:	00000224 	andeq	r0, r0, r4, lsr #4
 954:	00000268 	andeq	r0, r0, r8, ror #4
 958:	68500001 	ldmdavs	r0, {r0}^
 95c:	88000002 	stmdahi	r0, {r1}
 960:	04000002 	streq	r0, [r0], #-2
 964:	5001f300 	andpl	pc, r1, r0, lsl #6
 968:	0000009f 	muleq	r0, pc, r0	; <UNPREDICTABLE>
	...
 974:	00022400 	andeq	r2, r2, r0, lsl #8
 978:	00026400 	andeq	r6, r2, r0, lsl #8
 97c:	51000100 	mrspl	r0, (UNDEF: 16)
 980:	00000264 	andeq	r0, r0, r4, ror #4
 984:	00000288 	andeq	r0, r0, r8, lsl #5
 988:	01f30004 	mvnseq	r0, r4
 98c:	00009f51 	andeq	r9, r0, r1, asr pc
 990:	00000000 	andeq	r0, r0, r0
 994:	01000000 	mrseq	r0, (UNDEF: 0)
 998:	00000001 	andeq	r0, r0, r1
 99c:	0000000c 	andeq	r0, r0, ip
 9a0:	00000014 	andeq	r0, r0, r4, lsl r0
 9a4:	14530001 	ldrbne	r0, [r3], #-1
 9a8:	1c000000 	stcne	0, cr0, [r0], {-0}
 9ac:	03000000 	movweq	r0, #0
 9b0:	9f047300 	svcls	0x00047300
 9b4:	0000001c 	andeq	r0, r0, ip, lsl r0
 9b8:	00000023 	andeq	r0, r0, r3, lsr #32
 9bc:	00530001 	subseq	r0, r3, r1
 9c0:	00000000 	andeq	r0, r0, r0
 9c4:	01000000 	mrseq	r0, (UNDEF: 0)
 9c8:	0089bc00 	addeq	fp, r9, r0, lsl #24
 9cc:	0089d800 	addeq	sp, r9, r0, lsl #16
 9d0:	0c000600 	stceq	6, cr0, [r0], {-0}
 9d4:	2010001c 	andscs	r0, r0, ip, lsl r0
 9d8:	0000009f 	muleq	r0, pc, r0	; <UNPREDICTABLE>
 9dc:	00000000 	andeq	r0, r0, r0
 9e0:	bc000200 	sfmlt	f0, 4, [r0], {-0}
 9e4:	d8000089 	stmdale	r0, {r0, r3, r7}
 9e8:	06000089 	streq	r0, [r0], -r9, lsl #1
 9ec:	00240c00 	eoreq	r0, r4, r0, lsl #24
 9f0:	009f2010 	addseq	r2, pc, r0, lsl r0	; <UNPREDICTABLE>
 9f4:	00000000 	andeq	r0, r0, r0
 9f8:	03000000 	movweq	r0, #0
 9fc:	0089bc00 	addeq	fp, r9, r0, lsl #24
 a00:	0089d800 	addeq	sp, r9, r0, lsl #16
 a04:	08000500 	stmdaeq	r0, {r8, sl}
 a08:	9f2447b4 	svcls	0x002447b4
	...
 a14:	89bc0004 	ldmibhi	ip!, {r2}
 a18:	89d80000 	ldmibhi	r8, {}^	; <UNPREDICTABLE>
 a1c:	00030000 	andeq	r0, r3, r0
 a20:	009f2008 	addseq	r2, pc, r8
 a24:	00000000 	andeq	r0, r0, r0
 a28:	02000000 	andeq	r0, r0, #0, 0
 a2c:	00000000 	andeq	r0, r0, r0
 a30:	00898c00 	addeq	r8, r9, r0, lsl #24
 a34:	00899000 	addeq	r9, r9, r0
 a38:	30000200 	andcc	r0, r0, r0, lsl #4
 a3c:	0089909f 	umulleq	r9, r9, pc, r0	; <UNPREDICTABLE>
 a40:	00899400 	addeq	r9, r9, r0, lsl #8
 a44:	53000100 	movwpl	r0, #256	; 0x100
 a48:	00008998 	muleq	r0, r8, r9
 a4c:	000089a0 	andeq	r8, r0, r0, lsr #19
 a50:	00530001 	subseq	r0, r3, r1
 a54:	00000000 	andeq	r0, r0, r0
 a58:	02000000 	andeq	r0, r0, #0, 0
 a5c:	74000000 	strvc	r0, [r0], #-0
 a60:	78000089 	stmdavc	r0, {r0, r3, r7}
 a64:	02000089 	andeq	r0, r0, #137, 0	; 0x89
 a68:	789f3000 	ldmvc	pc, {ip, sp}	; <UNPREDICTABLE>
 a6c:	7c000089 	stcvc	0, cr0, [r0], {137}	; 0x89
 a70:	01000089 	smlabbeq	r0, r9, r0, r0
 a74:	00005000 	andeq	r5, r0, r0
	...
 a80:	00840000 	addeq	r0, r4, r0
 a84:	00900000 	addseq	r0, r0, r0
 a88:	00010000 	andeq	r0, r1, r0
 a8c:	00009050 	andeq	r9, r0, r0, asr r0
 a90:	00009c00 	andeq	r9, r0, r0, lsl #24
 a94:	f3000400 	vshl.u8	d0, d0, d0
 a98:	009f5001 	addseq	r5, pc, r1
	...
 aa4:	6c000000 	stcvs	0, cr0, [r0], {-0}
 aa8:	78000000 	stmdavc	r0, {}	; <UNPREDICTABLE>
 aac:	01000000 	mrseq	r0, (UNDEF: 0)
 ab0:	00785000 	rsbseq	r5, r8, r0
 ab4:	00840000 	addeq	r0, r4, r0
 ab8:	00040000 	andeq	r0, r4, r0
 abc:	9f5001f3 	svcls	0x005001f3
	...
 acc:	00000048 	andeq	r0, r0, r8, asr #32
 ad0:	00000053 	andeq	r0, r0, r3, asr r0
 ad4:	53500001 	cmppl	r0, #1, 0
 ad8:	6c000000 	stcvs	0, cr0, [r0], {-0}
 adc:	01000000 	mrseq	r0, (UNDEF: 0)
 ae0:	00005500 	andeq	r5, r0, r0, lsl #10
	...
 aec:	00000058 	andeq	r0, r0, r8, asr r0
 af0:	0000006c 	andeq	r0, r0, ip, rrx
 af4:	00540001 	subseq	r0, r4, r1
	...
 b00:	00005c00 	andeq	r5, r0, r0, lsl #24
 b04:	00006000 	andeq	r6, r0, r0
 b08:	50000100 	andpl	r0, r0, r0, lsl #2
	...
 b18:	0000003c 	andeq	r0, r0, ip, lsr r0
 b1c:	0000003f 	andeq	r0, r0, pc, lsr r0
 b20:	3f500001 	svccc	0x00500001
 b24:	48000000 	stmdami	r0, {}	; <UNPREDICTABLE>
 b28:	01000000 	mrseq	r0, (UNDEF: 0)
 b2c:	00005400 	andeq	r5, r0, r0, lsl #8
	...
 b3c:	00040000 	andeq	r0, r4, r0
 b40:	00010000 	andeq	r0, r1, r0
 b44:	00000450 	andeq	r0, r0, r0, asr r4
 b48:	00001800 	andeq	r1, r0, r0, lsl #16
 b4c:	53000100 	movwpl	r0, #256	; 0x100
	...
 b5c:	00000138 	andeq	r0, r0, r8, lsr r1
 b60:	00000143 	andeq	r0, r0, r3, asr #2
 b64:	43500001 	cmpmi	r0, #1, 0
 b68:	68000001 	stmdavs	r0, {r0}
 b6c:	01000001 	tsteq	r0, r1
 b70:	00005400 	andeq	r5, r0, r0, lsl #8
	...
 b7c:	00000128 	andeq	r0, r0, r8, lsr #2
 b80:	00000138 	andeq	r0, r0, r8, lsr r1
 b84:	00540001 	subseq	r0, r4, r1
	...
 b94:	0f000000 	svceq	0x00000000
 b98:	01000000 	mrseq	r0, (UNDEF: 0)
 b9c:	000f5000 	andeq	r5, pc, r0
 ba0:	00200000 	eoreq	r0, r0, r0
 ba4:	00010000 	andeq	r0, r1, r0
 ba8:	00000054 	andeq	r0, r0, r4, asr r0
	...
 bb8:	00000f00 	andeq	r0, r0, r0, lsl #30
 bbc:	51000100 	mrspl	r0, (UNDEF: 16)
 bc0:	0000000f 	andeq	r0, r0, pc
 bc4:	00000020 	andeq	r0, r0, r0, lsr #32
 bc8:	00550001 	subseq	r0, r5, r1
	...
 bd4:	c8000000 	stmdagt	r0, {}	; <UNPREDICTABLE>
 bd8:	d4000000 	strle	r0, [r0], #-0
 bdc:	01000000 	mrseq	r0, (UNDEF: 0)
 be0:	00d45000 	sbcseq	r5, r4, r0
 be4:	00e80000 	rsceq	r0, r8, r0
 be8:	00010000 	andeq	r0, r1, r0
 bec:	00000054 	andeq	r0, r0, r4, asr r0
	...
 bf8:	0000b800 	andeq	fp, r0, r0, lsl #16
 bfc:	0000c300 	andeq	ip, r0, r0, lsl #6
 c00:	50000100 	andpl	r0, r0, r0, lsl #2
 c04:	000000c3 	andeq	r0, r0, r3, asr #1
 c08:	000000c8 	andeq	r0, r0, r8, asr #1
 c0c:	01f30004 	mvnseq	r0, r4
 c10:	00009f50 	andeq	r9, r0, r0, asr pc
	...
 c20:	009c0000 	addseq	r0, ip, r0
 c24:	00ab0000 	adceq	r0, fp, r0
 c28:	00010000 	andeq	r0, r1, r0
 c2c:	0000ab50 	andeq	sl, r0, r0, asr fp
 c30:	0000b000 	andeq	fp, r0, r0
 c34:	f3000400 	vshl.u8	d0, d0, d0
 c38:	b09f5001 	addslt	r5, pc, r1
 c3c:	b3000000 	movwlt	r0, #0
 c40:	01000000 	mrseq	r0, (UNDEF: 0)
 c44:	00b35000 	adcseq	r5, r3, r0
 c48:	00b80000 	adcseq	r0, r8, r0
 c4c:	00040000 	andeq	r0, r4, r0
 c50:	9f5001f3 	svcls	0x005001f3
	...
 c64:	0000009c 	muleq	r0, ip, r0
 c68:	000000ab 	andeq	r0, r0, fp, lsr #1
 c6c:	ab510001 	blge	1440c78 <__bss_end__+0x14378e8>
 c70:	b0000000 	andlt	r0, r0, r0
 c74:	04000000 	streq	r0, [r0], #-0
 c78:	5101f300 	mrspl	pc, SP_irq	; <UNPREDICTABLE>
 c7c:	0000b09f 	muleq	r0, pc, r0	; <UNPREDICTABLE>
 c80:	0000b300 	andeq	fp, r0, r0, lsl #6
 c84:	51000100 	mrspl	r0, (UNDEF: 16)
 c88:	000000b3 	strheq	r0, [r0], -r3
 c8c:	000000b8 	strheq	r0, [r0], -r8
 c90:	01f30004 	mvnseq	r0, r4
 c94:	00009f51 	andeq	r9, r0, r1, asr pc
	...
 ca0:	00800000 	addeq	r0, r0, r0
 ca4:	00900000 	addseq	r0, r0, r0
 ca8:	00010000 	andeq	r0, r1, r0
 cac:	00009050 	andeq	r9, r0, r0, asr r0
 cb0:	00009c00 	andeq	r9, r0, r0, lsl #24
 cb4:	f3000400 	vshl.u8	d0, d0, d0
 cb8:	009f5001 	addseq	r5, pc, r1
	...
 cc4:	64000000 	strvs	r0, [r0], #-0
 cc8:	74000000 	strvc	r0, [r0], #-0
 ccc:	01000000 	mrseq	r0, (UNDEF: 0)
 cd0:	00745000 	rsbseq	r5, r4, r0
 cd4:	00800000 	addeq	r0, r0, r0
 cd8:	00040000 	andeq	r0, r4, r0
 cdc:	9f5001f3 	svcls	0x005001f3
	...
 cec:	00000054 	andeq	r0, r0, r4, asr r0
 cf0:	0000005f 	andeq	r0, r0, pc, asr r0
 cf4:	5f500001 	svcpl	0x00500001
 cf8:	64000000 	strvs	r0, [r0], #-0
 cfc:	04000000 	streq	r0, [r0], #-0
 d00:	5001f300 	andpl	pc, r1, r0, lsl #6
 d04:	0000009f 	muleq	r0, pc, r0	; <UNPREDICTABLE>
	...
 d14:	00002800 	andeq	r2, r0, r0, lsl #16
 d18:	50000100 	andpl	r0, r0, r0, lsl #2
 d1c:	00000028 	andeq	r0, r0, r8, lsr #32
 d20:	00000054 	andeq	r0, r0, r4, asr r0
 d24:	00540001 	subseq	r0, r4, r1
	...
 d34:	2b000000 	blcs	d3c <__code_start__-0x72c4>
 d38:	01000000 	mrseq	r0, (UNDEF: 0)
 d3c:	002b5100 	eoreq	r5, fp, r0, lsl #2
 d40:	00540000 	subseq	r0, r4, r0
 d44:	00040000 	andeq	r0, r4, r0
 d48:	9f5101f3 	svcls	0x005101f3
	...
 d54:	00240000 	eoreq	r0, r4, r0
 d58:	00540000 	subseq	r0, r4, r0
 d5c:	00010000 	andeq	r0, r1, r0
 d60:	00000057 	andeq	r0, r0, r7, asr r0
 d64:	00000000 	andeq	r0, r0, r0
 d68:	2c000000 	stccs	0, cr0, [r0], {-0}
 d6c:	48000000 	stmdami	r0, {}	; <UNPREDICTABLE>
 d70:	01000000 	mrseq	r0, (UNDEF: 0)
 d74:	00005000 	andeq	r5, r0, r0
	...
 d80:	00000038 	andeq	r0, r0, r8, lsr r0
 d84:	00000054 	andeq	r0, r0, r4, asr r0
 d88:	00550001 	subseq	r0, r5, r1
	...
 d98:	0b000000 	bleq	da0 <__code_start__-0x7260>
 d9c:	01000000 	mrseq	r0, (UNDEF: 0)
 da0:	000b5000 	andeq	r5, fp, r0
 da4:	00140000 	andseq	r0, r4, r0
 da8:	00010000 	andeq	r0, r1, r0
 dac:	00000054 	andeq	r0, r0, r4, asr r0
	...
 dbc:	00001c00 	andeq	r1, r0, r0, lsl #24
 dc0:	51000100 	mrspl	r0, (UNDEF: 16)
 dc4:	0000001c 	andeq	r0, r0, ip, lsl r0
 dc8:	00000034 	andeq	r0, r0, r4, lsr r0
 dcc:	01f30004 	mvnseq	r0, r4
 dd0:	00009f51 	andeq	r9, r0, r1, asr pc
 dd4:	00000000 	andeq	r0, r0, r0
 dd8:	00020000 	andeq	r0, r2, r0
 ddc:	01000000 	mrseq	r0, (UNDEF: 0)
 de0:	00000001 	andeq	r0, r0, r1
 de4:	00000000 	andeq	r0, r0, r0
 de8:	00000004 	andeq	r0, r0, r4
 dec:	04500001 	ldrbeq	r0, [r0], #-1
 df0:	1c000000 	stcne	0, cr0, [r0], {-0}
 df4:	01000000 	mrseq	r0, (UNDEF: 0)
 df8:	001c5200 	andseq	r5, ip, r0, lsl #4
 dfc:	00240000 	eoreq	r0, r4, r0
 e00:	00010000 	andeq	r0, r1, r0
 e04:	00002453 	andeq	r2, r0, r3, asr r4
 e08:	00002800 	andeq	r2, r0, r0, lsl #16
 e0c:	73000300 	movwvc	r0, #768	; 0x300
 e10:	00289f01 	eoreq	r9, r8, r1, lsl #30
 e14:	00340000 	eorseq	r0, r4, r0
 e18:	00010000 	andeq	r0, r1, r0
 e1c:	00000053 	andeq	r0, r0, r3, asr r0
 e20:	00000000 	andeq	r0, r0, r0
 e24:	00000300 	andeq	r0, r0, r0, lsl #6
 e28:	00000000 	andeq	r0, r0, r0
 e2c:	00002400 	andeq	r2, r0, r0, lsl #8
 e30:	51000100 	mrspl	r0, (UNDEF: 16)
 e34:	00000024 	andeq	r0, r0, r4, lsr #32
 e38:	00000034 	andeq	r0, r0, r4, lsr r0
 e3c:	7f710003 	svcvc	0x00710003
 e40:	0000009f 	muleq	r0, pc, r0	; <UNPREDICTABLE>
	...
 e4c:	00001000 	andeq	r1, r0, r0
 e50:	00001c00 	andeq	r1, r0, r0, lsl #24
 e54:	5c000100 	stfpls	f0, [r0], {-0}
 e58:	00000024 	andeq	r0, r0, r4, lsr #32
 e5c:	00000034 	andeq	r0, r0, r4, lsr r0
 e60:	00520001 	subseq	r0, r2, r1
	...
 e6c:	a8000303 	stmdage	r0, {r0, r1, r8, r9}
 e70:	a800008d 	stmdage	r0, {r0, r2, r3, r7}
 e74:	0100008d 	smlabbeq	r0, sp, r0, r0
 e78:	8da85000 	stchi	0, cr5, [r8]
 e7c:	8dd40000 	ldclhi	0, cr0, [r4]
 e80:	00040000 	andeq	r0, r4, r0
 e84:	9f5001f3 	svcls	0x005001f3
	...
 e90:	00030300 	andeq	r0, r3, r0, lsl #6
 e94:	00008da8 	andeq	r8, r0, r8, lsr #27
 e98:	00008da8 	andeq	r8, r0, r8, lsr #27
 e9c:	a8510001 	ldmdage	r1, {r0}^
 ea0:	d400008d 	strle	r0, [r0], #-141	; 0xffffff73
 ea4:	0400008d 	streq	r0, [r0], #-141	; 0xffffff73
 ea8:	5101f300 	mrspl	pc, SP_irq	; <UNPREDICTABLE>
 eac:	0000009f 	muleq	r0, pc, r0	; <UNPREDICTABLE>
 eb0:	00000000 	andeq	r0, r0, r0
 eb4:	03030000 	movweq	r0, #12288	; 0x3000
 eb8:	a8000000 	stmdage	r0, {}	; <UNPREDICTABLE>
 ebc:	a800008d 	stmdage	r0, {r0, r2, r3, r7}
 ec0:	0100008d 	smlabbeq	r0, sp, r0, r0
 ec4:	8da85200 	sfmhi	f5, 4, [r8]
 ec8:	8db00000 	ldchi	0, cr0, [r0]
 ecc:	00010000 	andeq	r0, r1, r0
 ed0:	008db052 	addeq	fp, sp, r2, asr r0
 ed4:	008dd400 	addeq	sp, sp, r0, lsl #8
 ed8:	72000300 	andvc	r0, r0, #0, 6
 edc:	00009f01 	andeq	r9, r0, r1, lsl #30
 ee0:	00000000 	andeq	r0, r0, r0
 ee4:	01020000 	mrseq	r0, (UNDEF: 2)
 ee8:	00000001 	andeq	r0, r0, r1
 eec:	8da80000 	stchi	0, cr0, [r8]
 ef0:	8db40000 	ldchi	0, cr0, [r4]
 ef4:	00010000 	andeq	r0, r1, r0
 ef8:	008db450 	addeq	fp, sp, r0, asr r4
 efc:	008db800 	addeq	fp, sp, r0, lsl #16
 f00:	70000300 	andvc	r0, r0, r0, lsl #6
 f04:	8db89f01 	ldchi	15, cr9, [r8, #4]!
 f08:	8dc80000 	stclhi	0, cr0, [r8]
 f0c:	00010000 	andeq	r0, r1, r0
 f10:	008dcc50 	addeq	ip, sp, r0, asr ip
 f14:	008dd000 	addeq	sp, sp, r0
 f18:	50000100 	andpl	r0, r0, r0, lsl #2
	...
 f24:	00000002 	andeq	r0, r0, r2
 f28:	8da80000 	stchi	0, cr0, [r8]
 f2c:	8db80000 	ldchi	0, cr0, [r8]
 f30:	00010000 	andeq	r0, r1, r0
 f34:	008db851 	addeq	fp, sp, r1, asr r8
 f38:	008dbc00 	addeq	fp, sp, r0, lsl #24
 f3c:	71000300 	mrsvc	r0, LR_irq
 f40:	8dbc9f01 	ldchi	15, cr9, [ip, #4]!
 f44:	8dd40000 	ldclhi	0, cr0, [r4]
 f48:	00010000 	andeq	r0, r1, r0
 f4c:	00000051 	andeq	r0, r0, r1, asr r0
 f50:	00000000 	andeq	r0, r0, r0
	...

Disassembly of section .debug_aranges:

00000000 <.debug_aranges>:
   0:	0000001c 	andeq	r0, r0, ip, lsl r0
   4:	00000002 	andeq	r0, r0, r2
   8:	00040000 	andeq	r0, r4, r0
   c:	00000000 	andeq	r0, r0, r0
  10:	00008034 	andeq	r8, r0, r4, lsr r0
  14:	00000074 	andeq	r0, r0, r4, ror r0
	...
  20:	0000001c 	andeq	r0, r0, ip, lsl r0
  24:	02360002 	eorseq	r0, r6, #2, 0
  28:	00040000 	andeq	r0, r4, r0
  2c:	00000000 	andeq	r0, r0, r0
  30:	000080a8 	andeq	r8, r0, r8, lsr #1
  34:	000001b4 			; <UNDEFINED> instruction: 0x000001b4
	...
  40:	0000001c 	andeq	r0, r0, ip, lsl r0
  44:	06120002 	ldreq	r0, [r2], -r2
  48:	00040000 	andeq	r0, r4, r0
  4c:	00000000 	andeq	r0, r0, r0
  50:	0000825c 	andeq	r8, r0, ip, asr r2
  54:	00000058 	andeq	r0, r0, r8, asr r0
	...
  60:	0000001c 	andeq	r0, r0, ip, lsl r0
  64:	07b30002 	ldreq	r0, [r3, r2]!
  68:	00040000 	andeq	r0, r4, r0
  6c:	00000000 	andeq	r0, r0, r0
  70:	000082b4 			; <UNDEFINED> instruction: 0x000082b4
  74:	00000034 	andeq	r0, r0, r4, lsr r0
	...
  80:	0000001c 	andeq	r0, r0, ip, lsl r0
  84:	08aa0002 	stmiaeq	sl!, {r1}
  88:	00040000 	andeq	r0, r4, r0
  8c:	00000000 	andeq	r0, r0, r0
  90:	000082e8 	andeq	r8, r0, r8, ror #5
  94:	0000062c 	andeq	r0, r0, ip, lsr #12
	...
  a0:	0000001c 	andeq	r0, r0, ip, lsl r0
  a4:	11b20002 			; <UNDEFINED> instruction: 0x11b20002
  a8:	00040000 	andeq	r0, r4, r0
  ac:	00000000 	andeq	r0, r0, r0
  b0:	00008914 	andeq	r8, r0, r4, lsl r9
  b4:	0000002c 	andeq	r0, r0, ip, lsr #32
	...
  c0:	0000001c 	andeq	r0, r0, ip, lsl r0
  c4:	12e50002 	rscne	r0, r5, #2, 0
  c8:	00040000 	andeq	r0, r4, r0
  cc:	00000000 	andeq	r0, r0, r0
  d0:	00008940 	andeq	r8, r0, r0, asr #18
  d4:	00000030 	andeq	r0, r0, r0, lsr r0
	...
  e0:	0000001c 	andeq	r0, r0, ip, lsl r0
  e4:	14420002 	strbne	r0, [r2], #-2
  e8:	00040000 	andeq	r0, r4, r0
  ec:	00000000 	andeq	r0, r0, r0
  f0:	00008970 	andeq	r8, r0, r0, ror r9
  f4:	00000004 	andeq	r0, r0, r4
	...
 100:	0000001c 	andeq	r0, r0, ip, lsl r0
 104:	15140002 	ldrne	r0, [r4, #-2]
 108:	00040000 	andeq	r0, r4, r0
 10c:	00000000 	andeq	r0, r0, r0
 110:	00008974 	andeq	r8, r0, r4, ror r9
 114:	0000007c 	andeq	r0, r0, ip, ror r0
	...
 120:	0000001c 	andeq	r0, r0, ip, lsl r0
 124:	17380002 	ldrne	r0, [r8, -r2]!
 128:	00040000 	andeq	r0, r4, r0
 12c:	00000000 	andeq	r0, r0, r0
 130:	000089f0 	strdeq	r8, [r0], -r0
 134:	0000009c 	muleq	r0, ip, r0
	...
 140:	0000001c 	andeq	r0, r0, ip, lsl r0
 144:	19b40002 	ldmibne	r4!, {r1}
 148:	00040000 	andeq	r0, r4, r0
 14c:	00000000 	andeq	r0, r0, r0
 150:	00008aa4 	andeq	r8, r0, r4, lsr #21
 154:	000001ac 	andeq	r0, r0, ip, lsr #3
	...
 160:	0000001c 	andeq	r0, r0, ip, lsl r0
 164:	1f200002 	svcne	0x00200002
 168:	00040000 	andeq	r0, r4, r0
 16c:	00000000 	andeq	r0, r0, r0
 170:	00008c50 	andeq	r8, r0, r0, asr ip
 174:	000000e8 	andeq	r0, r0, r8, ror #1
	...
 180:	0000001c 	andeq	r0, r0, ip, lsl r0
 184:	22df0002 	sbcscs	r0, pc, #2, 0
 188:	00040000 	andeq	r0, r4, r0
 18c:	00000000 	andeq	r0, r0, r0
 190:	00008d38 	andeq	r8, r0, r8, lsr sp
 194:	0000003c 	andeq	r0, r0, ip, lsr r0
	...
 1a0:	0000001c 	andeq	r0, r0, ip, lsl r0
 1a4:	242c0002 	strtcs	r0, [ip], #-2
 1a8:	00040000 	andeq	r0, r4, r0
 1ac:	00000000 	andeq	r0, r0, r0
 1b0:	00008d74 	andeq	r8, r0, r4, ror sp
 1b4:	00000034 	andeq	r0, r0, r4, lsr r0
	...
 1c0:	0000001c 	andeq	r0, r0, ip, lsl r0
 1c4:	25670002 	strbcs	r0, [r7, #-2]!
 1c8:	00040000 	andeq	r0, r4, r0
 1cc:	00000000 	andeq	r0, r0, r0
 1d0:	00008da8 	andeq	r8, r0, r8, lsr #27
 1d4:	0000002c 	andeq	r0, r0, ip, lsr #32
	...

Disassembly of section .debug_line:

00000000 <.debug_line>:
       0:	000000f5 	strdeq	r0, [r0], -r5
       4:	00800003 	addeq	r0, r0, r3
       8:	01020000 	mrseq	r0, (UNDEF: 2)
       c:	000d0efb 	strdeq	r0, [sp], -fp
      10:	01010101 	tsteq	r1, r1, lsl #2
      14:	01000000 	mrseq	r0, (UNDEF: 0)
      18:	2f010000 	svccs	0x00010000
      1c:	72657355 	rsbvc	r7, r5, #1409286145	; 0x54000001
      20:	64612f73 	strbtvs	r2, [r1], #-3955	; 0xfffff08d
      24:	6e616972 			; <UNDEFINED> instruction: 0x6e616972
      28:	7472616d 	ldrbtvc	r6, [r2], #-365	; 0xfffffe93
      2c:	7a656e69 	bvc	195b9d8 <__bss_end__+0x1952648>
      30:	6f72702f 	svcvs	0x0072702f
      34:	7463656a 	strbtvc	r6, [r3], #-1386	; 0xfffffa96
      38:	73632f73 	cmnvc	r3, #460	; 0x1cc
      3c:	65303431 	ldrvs	r3, [r0, #-1073]!	; 0xfffffbcf
      40:	7331322d 	teqvc	r1, #-805306366	; 0xd0000002
      44:	6c2f7270 	sfmvs	f7, 4, [pc], #-448	; fffffe8c <__bss_end__+0xffff6afc>
      48:	69706269 	ldmdbvs	r0!, {r0, r3, r5, r6, r9, sp, lr}^
      4c:	636e692f 	cmnvs	lr, #770048	; 0xbc000
      50:	6564756c 	strbvs	r7, [r4, #-1388]!	; 0xfffffa94
      54:	002e2e00 	eoreq	r2, lr, r0, lsl #28
      58:	6f727000 	svcvs	0x00727000
      5c:	2d322d67 	ldccs	13, cr2, [r2, #-412]!	; 0xfffffe64
      60:	6e696c62 	cdpvs	12, 6, cr6, cr9, cr2, {3}
      64:	00632e6b 	rsbeq	r2, r3, fp, ror #28
      68:	72000000 	andvc	r0, r0, #0, 0
      6c:	682e6970 	stmdavs	lr!, {r4, r5, r6, r8, fp, sp, lr}
      70:	00000100 	andeq	r0, r0, r0, lsl #2
      74:	6f697067 	svcvs	0x00697067
      78:	0100682e 	tsteq	r0, lr, lsr #16
      7c:	72740000 	rsbsvc	r0, r4, #0, 0
      80:	2e656361 	cdpcs	3, 6, cr6, cr5, cr1, {3}
      84:	00020068 	andeq	r0, r2, r8, rrx
      88:	14050000 	strne	r0, [r5], #-0
      8c:	34020500 	strcc	r0, [r2], #-1280	; 0xfffffb00
      90:	16000080 	strne	r0, [r0], -r0, lsl #1
      94:	142f0505 	strtne	r0, [pc], #-1285	; 9c <__code_start__-0x7f64>
      98:	4c4b4c2f 	mcrrmi	12, 2, r4, fp, cr15
      9c:	05010905 	streq	r0, [r1, #-2309]	; 0xfffff6fb
      a0:	0501060d 	streq	r0, [r1, #-1549]	; 0xfffff9f3
      a4:	04020014 	streq	r0, [r2], #-20	; 0xffffffec
      a8:	052e0601 	streq	r0, [lr, #-1537]!	; 0xfffff9ff
      ac:	04020005 	streq	r0, [r2], #-5
      b0:	05010601 	streq	r0, [r1, #-1537]	; 0xfffff9ff
      b4:	04020009 	streq	r0, [r2], #-9
      b8:	004b0603 	subeq	r0, fp, r3, lsl #12
      bc:	4b030402 	blmi	c10cc <__bss_end__+0xb7d3c>
      c0:	03040200 	movweq	r0, #16896	; 0x4200
      c4:	0402004b 	streq	r0, [r2], #-75	; 0xffffffb5
      c8:	02006703 	andeq	r6, r0, #786432	; 0xc0000
      cc:	004b0304 	subeq	r0, fp, r4, lsl #6
      d0:	4b030402 	blmi	c10e0 <__bss_end__+0xb7d50>
      d4:	02001c05 	andeq	r1, r0, #1280	; 0x500
      d8:	7a030304 	bvc	c0cf0 <__bss_end__+0xb7960>
      dc:	001d054a 	andseq	r0, sp, sl, asr #10
      e0:	06030402 	streq	r0, [r3], -r2, lsl #8
      e4:	04020001 	streq	r0, [r2], #-1
      e8:	02002e03 	andeq	r2, r0, #3, 28	; 0x30
      ec:	052e0304 	streq	r0, [lr, #-772]!	; 0xfffffcfc
      f0:	2f1a0605 	svccs	0x001a0605
      f4:	01000402 	tsteq	r0, r2, lsl #8
      f8:	00020001 	andeq	r0, r2, r1
      fc:	d1000300 	mrsle	r0, LR_irq
     100:	02000000 	andeq	r0, r0, #0, 0
     104:	0d0efb01 	vstreq	d15, [lr, #-4]
     108:	01010100 	mrseq	r0, (UNDEF: 17)
     10c:	00000001 	andeq	r0, r0, r1
     110:	01000001 	tsteq	r0, r1
     114:	6573552f 	ldrbvs	r5, [r3, #-1327]!	; 0xfffffad1
     118:	612f7372 			; <UNDEFINED> instruction: 0x612f7372
     11c:	61697264 	cmnvs	r9, r4, ror #4
     120:	72616d6e 	rsbvc	r6, r1, #7040	; 0x1b80
     124:	656e6974 	strbvs	r6, [lr, #-2420]!	; 0xfffff68c
     128:	72702f7a 	rsbsvc	r2, r0, #488	; 0x1e8
     12c:	63656a6f 	cmnvs	r5, #454656	; 0x6f000
     130:	632f7374 			; <UNDEFINED> instruction: 0x632f7374
     134:	30343173 	eorscc	r3, r4, r3, ror r1
     138:	31322d65 	teqcc	r2, r5, ror #26
     13c:	2f727073 	svccs	0x00727073
     140:	7062696c 	rsbvc	r6, r2, ip, ror #18
     144:	6e692f69 	cdpvs	15, 6, cr2, cr9, cr9, {3}
     148:	64756c63 	ldrbtvs	r6, [r5], #-3171	; 0xfffff39d
     14c:	752f0065 	strvc	r0, [pc, #-101]!	; ef <__code_start__-0x7f11>
     150:	6c2f7273 	sfmvs	f7, 4, [pc], #-460	; ffffff8c <__bss_end__+0xffff6bfc>
     154:	6c61636f 	stclvs	3, cr6, [r1], #-444	; 0xfffffe44
     158:	6c65432f 	stclvs	3, cr4, [r5], #-188	; 0xffffff44
     15c:	2f72616c 	svccs	0x0072616c
     160:	2d6d7261 	sfmcs	f7, 2, [sp, #-388]!	; 0xfffffe7c
     164:	656e6f6e 	strbvs	r6, [lr, #-3950]!	; 0xfffff092
     168:	6261652d 	rsbvs	r6, r1, #188743680	; 0xb400000
     16c:	65742d69 	ldrbvs	r2, [r4, #-3433]!	; 0xfffff297
     170:	392f7473 	stmdbcc	pc!, {r0, r1, r4, r5, r6, sl, ip, sp, lr}	; <UNPREDICTABLE>
     174:	3130322d 	teqcc	r0, sp, lsr #4
     178:	2d347139 	ldfcss	f7, [r4, #-228]!	; 0xffffff1c
     17c:	30317363 	eorscc	r7, r1, r3, ror #6
     180:	6c2f6537 	cfstr32vs	mvfx6, [pc], #-220	; ac <__code_start__-0x7f54>
     184:	672f6269 	strvs	r6, [pc, -r9, ror #4]!
     188:	612f6363 			; <UNDEFINED> instruction: 0x612f6363
     18c:	6e2d6d72 	mcrvs	13, 1, r6, cr13, cr2, {3}
     190:	2d656e6f 	stclcs	14, cr6, [r5, #-444]!	; 0xfffffe44
     194:	69626165 	stmdbvs	r2!, {r0, r2, r5, r6, r8, sp, lr}^
     198:	322e392f 	eorcc	r3, lr, #770048	; 0xbc000
     19c:	692f312e 	stmdbvs	pc!, {r1, r2, r3, r5, r8, ip, sp}	; <UNPREDICTABLE>
     1a0:	756c636e 	strbvc	r6, [ip, #-878]!	; 0xfffffc92
     1a4:	00006564 	andeq	r6, r0, r4, ror #10
     1a8:	63617274 	cmnvs	r1, #116, 4	; 0x40000007
     1ac:	69732d65 	ldmdbvs	r3!, {r0, r2, r5, r6, r8, sl, fp, sp}^
     1b0:	656c706d 	strbvs	r7, [ip, #-109]!	; 0xffffff93
     1b4:	0000632e 	andeq	r6, r0, lr, lsr #6
     1b8:	70720000 	rsbsvc	r0, r2, r0
     1bc:	00682e69 	rsbeq	r2, r8, r9, ror #28
     1c0:	73000001 	movwvc	r0, #1
     1c4:	6e696474 	mcrvs	4, 3, r6, cr9, cr4, {3}
     1c8:	63672d74 	cmnvs	r7, #116, 26	; 0x1d00
     1cc:	00682e63 	rsbeq	r2, r8, r3, ror #28
     1d0:	00000002 	andeq	r0, r0, r2
     1d4:	05003505 	streq	r3, [r0, #-1285]	; 0xfffffafb
     1d8:	0080a802 	addeq	sl, r0, r2, lsl #16
     1dc:	013b0300 	teqeq	fp, r0, lsl #6
     1e0:	05050106 	streq	r0, [r5, #-262]	; 0xfffffefa
     1e4:	2e064b06 	vmlacs.f64	d4, d6, d6
     1e8:	2f01052e 	svccs	0x0001052e
     1ec:	4b063505 	blmi	18d608 <__bss_end__+0x184278>
     1f0:	05050106 	streq	r0, [r5, #-262]	; 0xfffffefa
     1f4:	2e064b06 	vmlacs.f64	d4, d6, d6
     1f8:	2f01052e 	svccs	0x0001052e
     1fc:	03062005 	movweq	r2, #24581	; 0x6005
     200:	05054a6d 	streq	r4, [r5, #-2669]	; 0xfffff593
     204:	02000113 	andeq	r0, r0, #-1073741820	; 0xc0000004
     208:	00820204 	addeq	r0, r2, r4, lsl #4
     20c:	01020402 	tsteq	r2, r2, lsl #8
     210:	02040200 	andeq	r0, r4, #0, 4
     214:	000b0513 	andeq	r0, fp, r3, lsl r5
     218:	06020402 	streq	r0, [r2], -r2, lsl #8
     21c:	00200501 	eoreq	r0, r0, r1, lsl #10
     220:	80010402 	andhi	r0, r1, r2, lsl #8
     224:	02000505 	andeq	r0, r0, #20971520	; 0x1400000
     228:	4b060104 	blmi	180640 <__bss_end__+0x1772b0>
     22c:	01040200 	mrseq	r0, R12_usr
     230:	04020001 	streq	r0, [r2], #-1
     234:	00ba0601 	adcseq	r0, sl, r1, lsl #12
     238:	06010402 	streq	r0, [r1], -r2, lsl #8
     23c:	c017052e 	andsgt	r0, r7, lr, lsr #10
     240:	01130505 	tsteq	r3, r5, lsl #10
     244:	02040200 	andeq	r0, r4, #0, 4
     248:	04020082 	streq	r0, [r2], #-130	; 0xffffff7e
     24c:	02000102 	andeq	r0, r0, #-2147483648	; 0x80000000
     250:	05130204 	ldreq	r0, [r3, #-516]	; 0xfffffdfc
     254:	0402000b 	streq	r0, [r2], #-11
     258:	05010602 	streq	r0, [r1, #-1538]	; 0xfffff9fe
     25c:	04020017 	streq	r0, [r2], #-23	; 0xffffffe9
     260:	05058001 	streq	r8, [r5, #-1]
     264:	01040200 	mrseq	r0, R12_usr
     268:	02004b06 	andeq	r4, r0, #6144	; 0x1800
     26c:	00010104 	andeq	r0, r1, r4, lsl #2
     270:	d6010402 	strle	r0, [r1], -r2, lsl #8
     274:	0e033005 	cdpeq	0, 0, cr3, cr3, cr5, {0}
     278:	050106ba 	streq	r0, [r1, #-1722]	; 0xfffff946
     27c:	05670605 	strbeq	r0, [r7, #-1541]!	; 0xfffff9fb
     280:	0501060f 	streq	r0, [r1, #-1551]	; 0xfffff9f1
     284:	05054a08 	streq	r4, [r5, #-2568]	; 0xfffff5f8
     288:	01054f06 	tsteq	r5, r6, lsl #30
     28c:	1e056706 	cdpne	7, 0, cr6, cr5, cr6, {0}
     290:	01040200 	mrseq	r0, R12_usr
     294:	052e7a03 	streq	r7, [lr, #-2563]!	; 0xfffff5fd
     298:	0402001b 	streq	r0, [r2], #-27	; 0xffffffe5
     29c:	09054a01 	stmdbeq	r5, {r0, r9, fp, lr}
     2a0:	21054b06 	tstcs	r5, r6, lsl #22
     2a4:	09050106 	stmdbeq	r5, {r1, r2, r8}
     2a8:	052f6706 	streq	r6, [pc, #-1798]!	; fffffbaa <__bss_end__+0xffff681a>
     2ac:	05010621 	streq	r0, [r1, #-1569]	; 0xfffff9df
     2b0:	06a40626 	strteq	r0, [r4], r6, lsr #12
     2b4:	06050501 	streq	r0, [r5], -r1, lsl #10
     2b8:	0612054b 	ldreq	r0, [r2], -fp, asr #10
     2bc:	05052e01 	streq	r2, [r5, #-3585]	; 0xfffff1ff
     2c0:	0f052f06 	svceq	0x00052f06
     2c4:	08050106 	stmdaeq	r5, {r1, r2, r8}
     2c8:	5001054a 	andpl	r0, r1, sl, asr #10
     2cc:	02001e05 	andeq	r1, r0, #80	; 0x50
     2d0:	7a030104 	bvc	c06e8 <__bss_end__+0xb7358>
     2d4:	001b054a 	andseq	r0, fp, sl, asr #10
     2d8:	4a010402 	bmi	412e8 <__bss_end__+0x37f58>
     2dc:	4b060905 	blmi	1826f8 <__bss_end__+0x179368>
     2e0:	01062105 	tsteq	r6, r5, lsl #2
     2e4:	67060905 	strvs	r0, [r6, -r5, lsl #18]
     2e8:	2f064a06 	svccs	0x00064a06
     2ec:	01062105 	tsteq	r6, r5, lsl #2
     2f0:	4c060505 	cfstr32mi	mvfx0, [r6], {5}
     2f4:	01060c05 	tsteq	r6, r5, lsl #24
     2f8:	01000602 	tsteq	r0, r2, lsl #12
     2fc:	00011b01 	andeq	r1, r1, r1, lsl #22
     300:	e9000300 	stmdb	r0, {r8, r9}
     304:	02000000 	andeq	r0, r0, #0, 0
     308:	0d0efb01 	vstreq	d15, [lr, #-4]
     30c:	01010100 	mrseq	r0, (UNDEF: 17)
     310:	00000001 	andeq	r0, r0, r1
     314:	01000001 	tsteq	r0, r1
     318:	6362696c 	cmnvs	r2, #108, 18	; 0x1b0000
     31c:	73752f00 	cmnvc	r5, #0, 30
     320:	6f6c2f72 	svcvs	0x006c2f72
     324:	2f6c6163 	svccs	0x006c6163
     328:	6c6c6543 	cfstr64vs	mvdx6, [ip], #-268	; 0xfffffef4
     32c:	612f7261 			; <UNDEFINED> instruction: 0x612f7261
     330:	6e2d6d72 	mcrvs	13, 1, r6, cr13, cr2, {3}
     334:	2d656e6f 	stclcs	14, cr6, [r5, #-444]!	; 0xfffffe44
     338:	69626165 	stmdbvs	r2!, {r0, r2, r5, r6, r8, sp, lr}^
     33c:	7365742d 	cmnvc	r5, #754974720	; 0x2d000000
     340:	2d392f74 	ldccs	15, cr2, [r9, #-464]!	; 0xfffffe30
     344:	39313032 	ldmdbcc	r1!, {r1, r4, r5, ip, sp}
     348:	632d3471 			; <UNDEFINED> instruction: 0x632d3471
     34c:	37303173 			; <UNDEFINED> instruction: 0x37303173
     350:	696c2f65 	stmdbvs	ip!, {r0, r2, r5, r6, r8, r9, sl, fp, sp}^
     354:	63672f62 	cmnvs	r7, #392	; 0x188
     358:	72612f63 	rsbvc	r2, r1, #396	; 0x18c
     35c:	6f6e2d6d 	svcvs	0x006e2d6d
     360:	652d656e 	strvs	r6, [sp, #-1390]!	; 0xfffffa92
     364:	2f696261 	svccs	0x00696261
     368:	2e322e39 	mrccs	14, 1, r2, cr2, cr9, {1}
     36c:	6e692f31 	mcrvs	15, 3, r2, cr9, cr1, {1}
     370:	64756c63 	ldrbtvs	r6, [r5], #-3171	; 0xfffff39d
     374:	552f0065 	strpl	r0, [pc, #-101]!	; 317 <__code_start__-0x7ce9>
     378:	73726573 	cmnvc	r2, #482344960	; 0x1cc00000
     37c:	7264612f 	rsbvc	r6, r4, #-1073741813	; 0xc000000b
     380:	6d6e6169 	stfvse	f6, [lr, #-420]!	; 0xfffffe5c
     384:	69747261 	ldmdbvs	r4!, {r0, r5, r6, r9, ip, sp, lr}^
     388:	2f7a656e 	svccs	0x007a656e
     38c:	6a6f7270 	bvs	1bdcd54 <__bss_end__+0x1bd39c4>
     390:	73746365 	cmnvc	r4, #-1811939327	; 0x94000001
     394:	3173632f 	cmncc	r3, pc, lsr #6
     398:	2d653034 	stclcs	0, cr3, [r5, #-208]!	; 0xffffff30
     39c:	70733132 	rsbsvc	r3, r3, r2, lsr r1
     3a0:	696c2f72 	stmdbvs	ip!, {r1, r4, r5, r6, r8, r9, sl, fp, sp}^
     3a4:	2f697062 	svccs	0x00697062
     3a8:	6c636e69 	stclvs	14, cr6, [r3], #-420	; 0xfffffe5c
     3ac:	00656475 	rsbeq	r6, r5, r5, ror r4
     3b0:	69727000 	ldmdbvs	r2!, {ip, sp, lr}^
     3b4:	2e6b746e 	cdpcs	4, 6, cr7, cr11, cr14, {3}
     3b8:	00010063 	andeq	r0, r1, r3, rrx
     3bc:	64747300 	ldrbtvs	r7, [r4], #-768	; 0xfffffd00
     3c0:	2e677261 	cdpcs	2, 6, cr7, cr7, cr1, {3}
     3c4:	00020068 	andeq	r0, r2, r8, rrx
     3c8:	69707200 	ldmdbvs	r0!, {r9, ip, sp, lr}^
     3cc:	0300682e 	movweq	r6, #2094	; 0x82e
     3d0:	623c0000 	eorsvs	r0, ip, #0, 0
     3d4:	746c6975 	strbtvc	r6, [ip], #-2421	; 0xfffff68b
     3d8:	3e6e692d 	vmulcc.f16	s13, s28, s27	; <UNPREDICTABLE>
     3dc:	00000000 	andeq	r0, r0, r0
     3e0:	702d6176 	eorvc	r6, sp, r6, ror r1
     3e4:	746e6972 	strbtvc	r6, [lr], #-2418	; 0xfffff68e
     3e8:	00682e6b 	rsbeq	r2, r8, fp, ror #28
     3ec:	00000001 	andeq	r0, r0, r1
     3f0:	05002205 	streq	r2, [r0, #-517]	; 0xfffffdfb
     3f4:	00825c02 	addeq	r5, r2, r2, lsl #24
     3f8:	01061700 	tsteq	r6, r0, lsl #14
     3fc:	68060505 	stmdavs	r6, {r0, r2, r8, sl}
     400:	09051413 	stmdbeq	r5, {r0, r1, r4, sl, ip}
     404:	0612054b 	ldreq	r0, [r2], -fp, asr #10
     408:	06050501 	streq	r0, [r5], -r1, lsl #10
     40c:	660616bb 			; <UNDEFINED> instruction: 0x660616bb
     410:	01053406 	tsteq	r5, r6, lsl #8
     414:	02661306 	rsbeq	r1, r6, #402653184	; 0x18000000
     418:	01010008 	tsteq	r1, r8
     41c:	000000b3 	strheq	r0, [r0], -r3
     420:	00650003 	rsbeq	r0, r5, r3
     424:	01020000 	mrseq	r0, (UNDEF: 2)
     428:	000d0efb 	strdeq	r0, [sp], -fp
     42c:	01010101 	tsteq	r1, r1, lsl #2
     430:	01000000 	mrseq	r0, (UNDEF: 0)
     434:	6c010000 	stcvs	0, cr0, [r1], {-0}
     438:	00636269 	rsbeq	r6, r3, r9, ror #4
     43c:	6573552f 	ldrbvs	r5, [r3, #-1327]!	; 0xfffffad1
     440:	612f7372 			; <UNDEFINED> instruction: 0x612f7372
     444:	61697264 	cmnvs	r9, r4, ror #4
     448:	72616d6e 	rsbvc	r6, r1, #7040	; 0x1b80
     44c:	656e6974 	strbvs	r6, [lr, #-2420]!	; 0xfffff68c
     450:	72702f7a 	rsbsvc	r2, r0, #488	; 0x1e8
     454:	63656a6f 	cmnvs	r5, #454656	; 0x6f000
     458:	632f7374 			; <UNDEFINED> instruction: 0x632f7374
     45c:	30343173 	eorscc	r3, r4, r3, ror r1
     460:	31322d65 	teqcc	r2, r5, ror #26
     464:	2f727073 	svccs	0x00727073
     468:	7062696c 	rsbvc	r6, r2, ip, ror #18
     46c:	6e692f69 	cdpvs	15, 6, cr2, cr9, cr9, {3}
     470:	64756c63 	ldrbtvs	r6, [r5], #-3171	; 0xfffff39d
     474:	70000065 	andvc	r0, r0, r5, rrx
     478:	2e6b7475 	mcrcs	4, 3, r7, cr11, cr5, {3}
     47c:	00010063 	andeq	r0, r1, r3, rrx
     480:	69707200 	ldmdbvs	r0!, {r9, ip, sp, lr}^
     484:	0200682e 	andeq	r6, r0, #3014656	; 0x2e0000
     488:	05000000 	streq	r0, [r0, #-0]
     48c:	02050022 	andeq	r0, r5, #34, 0	; 0x22
     490:	000082b4 			; <UNDEFINED> instruction: 0x000082b4
     494:	05010615 	streq	r0, [r1, #-1557]	; 0xfffff9eb
     498:	054b0605 	strbeq	r0, [fp, #-1541]	; 0xfffff9fb
     49c:	0402000b 	streq	r0, [r2], #-11
     4a0:	05050101 	streq	r0, [r5, #-257]	; 0xfffffeff
     4a4:	01040200 	mrseq	r0, R12_usr
     4a8:	09052e06 	stmdbeq	r5, {r1, r2, r9, sl, fp, sp}
     4ac:	02040200 	andeq	r0, r4, #0, 4
     4b0:	0f054b06 	svceq	0x00054b06
     4b4:	02040200 	andeq	r0, r4, #0, 4
     4b8:	00100565 	andseq	r0, r0, r5, ror #10
     4bc:	06020402 	streq	r0, [r2], -r2, lsl #8
     4c0:	04020001 	streq	r0, [r2], #-1
     4c4:	05052e02 	streq	r2, [r5, #-3586]	; 0xfffff1fe
     4c8:	01053206 	tsteq	r5, r6, lsl #4
     4cc:	06021306 	streq	r1, [r2], -r6, lsl #6
     4d0:	c5010100 	strgt	r0, [r1, #-256]	; 0xffffff00
     4d4:	03000005 	movweq	r0, #5
     4d8:	0000ff00 	andeq	pc, r0, r0, lsl #30
     4dc:	fb010200 	blx	40ce6 <__bss_end__+0x37956>
     4e0:	01000d0e 	tsteq	r0, lr, lsl #26
     4e4:	00010101 	andeq	r0, r1, r1, lsl #2
     4e8:	00010000 	andeq	r0, r1, r0
     4ec:	696c0100 	stmdbvs	ip!, {r8}^
     4f0:	2f006362 	svccs	0x00006362
     4f4:	2f727375 	svccs	0x00727375
     4f8:	61636f6c 	cmnvs	r3, ip, ror #30
     4fc:	65432f6c 	strbvs	r2, [r3, #-3948]	; 0xfffff094
     500:	72616c6c 	rsbvc	r6, r1, #108, 24	; 0x6c00
     504:	6d72612f 	ldfvse	f6, [r2, #-188]!	; 0xffffff44
     508:	6e6f6e2d 	cdpvs	14, 6, cr6, cr15, cr13, {1}
     50c:	61652d65 	cmnvs	r5, r5, ror #26
     510:	742d6962 	strtvc	r6, [sp], #-2402	; 0xfffff69e
     514:	2f747365 	svccs	0x00747365
     518:	30322d39 	eorscc	r2, r2, r9, lsr sp
     51c:	34713931 	ldrbtcc	r3, [r1], #-2353	; 0xfffff6cf
     520:	3173632d 	cmncc	r3, sp, lsr #6
     524:	2f653730 	svccs	0x00653730
     528:	2f62696c 	svccs	0x0062696c
     52c:	2f636367 	svccs	0x00636367
     530:	2d6d7261 	sfmcs	f7, 2, [sp, #-388]!	; 0xfffffe7c
     534:	656e6f6e 	strbvs	r6, [lr, #-3950]!	; 0xfffff092
     538:	6261652d 	rsbvs	r6, r1, #188743680	; 0xb400000
     53c:	2e392f69 	cdpcs	15, 3, cr2, cr9, cr9, {3}
     540:	2f312e32 	svccs	0x00312e32
     544:	6c636e69 	stclvs	14, cr6, [r3], #-420	; 0xfffffe5c
     548:	00656475 	rsbeq	r6, r5, r5, ror r4
     54c:	6573552f 	ldrbvs	r5, [r3, #-1327]!	; 0xfffffad1
     550:	612f7372 			; <UNDEFINED> instruction: 0x612f7372
     554:	61697264 	cmnvs	r9, r4, ror #4
     558:	72616d6e 	rsbvc	r6, r1, #7040	; 0x1b80
     55c:	656e6974 	strbvs	r6, [lr, #-2420]!	; 0xfffff68c
     560:	72702f7a 	rsbsvc	r2, r0, #488	; 0x1e8
     564:	63656a6f 	cmnvs	r5, #454656	; 0x6f000
     568:	632f7374 			; <UNDEFINED> instruction: 0x632f7374
     56c:	30343173 	eorscc	r3, r4, r3, ror r1
     570:	31322d65 	teqcc	r2, r5, ror #26
     574:	2f727073 	svccs	0x00727073
     578:	7062696c 	rsbvc	r6, r2, ip, ror #18
     57c:	6e692f69 	cdpvs	15, 6, cr2, cr9, cr9, {3}
     580:	64756c63 	ldrbtvs	r6, [r5], #-3171	; 0xfffff39d
     584:	76000065 	strvc	r0, [r0], -r5, rrx
     588:	72702d61 	rsbsvc	r2, r0, #6208	; 0x1840
     58c:	6b746e69 	blvs	1d1bf38 <__bss_end__+0x1d12ba8>
     590:	0100632e 	tsteq	r0, lr, lsr #6
     594:	74730000 	ldrbtvc	r0, [r3], #-0
     598:	746e6964 	strbtvc	r6, [lr], #-2404	; 0xfffff69c
     59c:	6363672d 	cmnvs	r3, #11796480	; 0xb40000
     5a0:	0200682e 	andeq	r6, r0, #3014656	; 0x2e0000
     5a4:	70720000 	rsbsvc	r0, r2, r0
     5a8:	00682e69 	rsbeq	r2, r8, r9, ror #28
     5ac:	72000003 	andvc	r0, r0, #3, 0
     5b0:	692d6970 	pushvs	{r4, r5, r6, r8, fp, sp, lr}
     5b4:	7265746e 	rsbvc	r7, r5, #1845493760	; 0x6e000000
     5b8:	2e6c616e 	powcsez	f6, f4, #0.5
     5bc:	00030068 	andeq	r0, r3, r8, rrx
     5c0:	64747300 	ldrbtvs	r7, [r4], #-768	; 0xfffffd00
     5c4:	2e677261 	cdpcs	2, 6, cr7, cr7, cr1, {3}
     5c8:	00020068 	andeq	r0, r2, r8, rrx
     5cc:	75623c00 	strbvc	r3, [r2, #-3072]!	; 0xfffff400
     5d0:	2d746c69 	ldclcs	12, cr6, [r4, #-420]!	; 0xfffffe5c
     5d4:	003e6e69 	eorseq	r6, lr, r9, ror #28
     5d8:	00000000 	andeq	r0, r0, r0
     5dc:	05001b05 	streq	r1, [r0, #-2821]	; 0xfffff4fb
     5e0:	0082e802 	addeq	lr, r2, r2, lsl #16
     5e4:	01260300 			; <UNDEFINED> instruction: 0x01260300
     5e8:	05011d05 	streq	r1, [r1, #-3333]	; 0xfffff2fb
     5ec:	0501062d 	streq	r0, [r1, #-1581]	; 0xfffff9d3
     5f0:	054a2e01 	strbeq	r2, [sl, #-3585]	; 0xfffff1ff
     5f4:	05510633 	ldrbeq	r0, [r1, #-1587]	; 0xfffff9cd
     5f8:	06051302 	streq	r1, [r5], -r2, lsl #6
     5fc:	02050106 	andeq	r0, r5, #-2147483647	; 0x80000001
     600:	08053006 	stmdaeq	r5, {r1, r2, ip, sp}
     604:	01040200 	mrseq	r0, R12_usr
     608:	00020501 	andeq	r0, r2, r1, lsl #10
     60c:	06010402 	streq	r0, [r1], -r2, lsl #8
     610:	00030501 	andeq	r0, r3, r1, lsl #10
     614:	06020402 	streq	r0, [r2], -r2, lsl #8
     618:	0008052f 	andeq	r0, r8, pc, lsr #10
     61c:	06020402 	streq	r0, [r2], -r2, lsl #8
     620:	00150501 	andseq	r0, r5, r1, lsl #10
     624:	06020402 	streq	r0, [r2], -r2, lsl #8
     628:	00180549 	andseq	r0, r8, r9, asr #10
     62c:	06020402 	streq	r0, [r2], -r2, lsl #8
     630:	04020001 	streq	r0, [r2], #-1
     634:	02052e02 	andeq	r2, r5, #2, 28
     638:	05053006 	streq	r3, [r5, #-6]
     63c:	02050106 	andeq	r0, r5, #-2147483647	; 0x80000001
     640:	01054b06 	tsteq	r5, r6, lsl #22
     644:	3e051306 	cdpcc	3, 0, cr1, cr5, cr6, {0}
     648:	02053106 	andeq	r3, r5, #-2147483647	; 0x80000001
     64c:	060e0514 			; <UNDEFINED> instruction: 0x060e0514
     650:	2e060501 	cfsh32cs	mvfx0, mvfx6, #1
     654:	2f060205 	svccs	0x00060205
     658:	01060405 	tsteq	r6, r5, lsl #8
     65c:	2f060305 	svccs	0x00060305
     660:	01061105 	tsteq	r6, r5, lsl #2
     664:	052e0905 	streq	r0, [lr, #-2309]!	; 0xfffff6fb
     668:	15300602 	ldrne	r0, [r0, #-1538]!	; 0xfffff9fe
     66c:	01060705 	tsteq	r6, r5, lsl #14
     670:	052e0205 	streq	r0, [lr, #-517]!	; 0xfffffdfb
     674:	0402000b 	streq	r0, [r2], #-11
     678:	052e0601 	streq	r0, [lr, #-1537]!	; 0xfffff9ff
     67c:	04020002 	streq	r0, [r2], #-2
     680:	05010601 	streq	r0, [r1, #-1537]	; 0xfffff9ff
     684:	04020003 	streq	r0, [r2], #-3
     688:	052f0603 	streq	r0, [pc, #-1539]!	; 8d <__code_start__-0x7f73>
     68c:	0402000c 	streq	r0, [r2], #-12
     690:	05010603 	streq	r0, [r1, #-1539]	; 0xfffff9fd
     694:	0402000a 	streq	r0, [r2], #-10
     698:	17052e03 	strne	r2, [r5, -r3, lsl #28]
     69c:	03040200 	movweq	r0, #16896	; 0x4200
     6a0:	02002d06 	andeq	r2, r0, #384	; 0x180
     6a4:	01060304 	tsteq	r6, r4, lsl #6
     6a8:	30060205 	andcc	r0, r6, r5, lsl #4
     6ac:	01060905 	tsteq	r6, r5, lsl #18
     6b0:	0602052e 	streq	r0, [r2], -lr, lsr #10
     6b4:	06010530 			; <UNDEFINED> instruction: 0x06010530
     6b8:	06490513 			; <UNDEFINED> instruction: 0x06490513
     6bc:	05010631 	streq	r0, [r1, #-1585]	; 0xfffff9cf
     6c0:	05a00602 	streq	r0, [r0, #1538]!	; 0x602
     6c4:	05010604 	streq	r0, [r1, #-1540]	; 0xfffff9fc
     6c8:	052f0603 	streq	r0, [pc, #-1539]!	; cd <__code_start__-0x7f33>
     6cc:	05010609 	streq	r0, [r1, #-1545]	; 0xfffff9f7
     6d0:	13300602 	teqne	r0, #2097152	; 0x200000
     6d4:	01060b05 	tsteq	r6, r5, lsl #22
     6d8:	30060205 	andcc	r0, r6, r5, lsl #4
     6dc:	04052e06 	streq	r2, [r5], #-3590	; 0xfffff1fa
     6e0:	15240206 	strne	r0, [r4, #-518]!	; 0xfffffdfa
     6e4:	060f0513 			; <UNDEFINED> instruction: 0x060f0513
     6e8:	06052e01 	streq	r2, [r5], -r1, lsl #28
     6ec:	0605054a 	streq	r0, [r5], -sl, asr #10
     6f0:	0905134b 	stmdbeq	r5, {r0, r1, r3, r6, r8, r9, ip}
     6f4:	05050106 	streq	r0, [r5, #-262]	; 0xfffffefa
     6f8:	0b052f06 	bleq	14c318 <__bss_end__+0x142f88>
     6fc:	0d051006 	stceq	0, cr1, [r5, #-24]	; 0xffffffe8
     700:	01040200 	mrseq	r0, R12_usr
     704:	0004052c 	andeq	r0, r4, ip, lsr #10
     708:	06010402 	streq	r0, [r1], -r2, lsl #8
     70c:	00050534 	andeq	r0, r5, r4, lsr r5
     710:	13010402 	movwne	r0, #5122	; 0x1402
     714:	02001b05 	andeq	r1, r0, #5120	; 0x1400
     718:	01060104 	tsteq	r6, r4, lsl #2
     71c:	02000705 	andeq	r0, r0, #1310720	; 0x140000
     720:	05d60104 	ldrbeq	r0, [r6, #260]	; 0x104
     724:	04020018 	streq	r0, [r2], #-24	; 0xffffffe8
     728:	0a052e01 	beq	14bf34 <__bss_end__+0x142ba4>
     72c:	01040200 	mrseq	r0, R12_usr
     730:	000b054a 	andeq	r0, fp, sl, asr #10
     734:	06010402 	streq	r0, [r1], -r2, lsl #8
     738:	000e052f 	andeq	r0, lr, pc, lsr #10
     73c:	06010402 	streq	r0, [r1], -r2, lsl #8
     740:	0004052e 	andeq	r0, r4, lr, lsr #10
     744:	2e010402 	cdpcs	4, 0, cr0, cr1, cr2, {0}
     748:	06054b06 	streq	r4, [r5], -r6, lsl #22
     74c:	05050106 	streq	r0, [r5, #-262]	; 0xfffffefa
     750:	0a052f06 	beq	14c370 <__bss_end__+0x142fe0>
     754:	07050106 	streq	r0, [r5, -r6, lsl #2]
     758:	0d052e4a 	stceq	14, cr2, [r5, #-296]	; 0xfffffed8
     75c:	4a2e7603 	bmi	b9df70 <__bss_end__+0xb94be0>
     760:	050d0b05 	streq	r0, [sp, #-2821]	; 0xfffff4fb
     764:	0402000d 	streq	r0, [r2], #-13
     768:	14030601 	strne	r0, [r3], #-1537	; 0xfffff9ff
     76c:	0011052e 	andseq	r0, r1, lr, lsr #10
     770:	13010402 	movwne	r0, #5122	; 0x1402
     774:	02002d05 	andeq	r2, r0, #320	; 0x140
     778:	01060104 	tsteq	r6, r4, lsl #2
     77c:	02002a05 	andeq	r2, r0, #20480	; 0x5000
     780:	052e0104 	streq	r0, [lr, #-260]!	; 0xfffffefc
     784:	04020016 	streq	r0, [r2], #-22	; 0xffffffea
     788:	14054a01 	strne	r4, [r5], #-2561	; 0xfffff5ff
     78c:	01040200 	mrseq	r0, R12_usr
     790:	0d054b06 	vstreq	d4, [r5, #-24]	; 0xffffffe8
     794:	01040200 	mrseq	r0, R12_usr
     798:	02000106 	andeq	r0, r0, #-2147483647	; 0x80000001
     79c:	064a0104 	strbeq	r0, [sl], -r4, lsl #2
     7a0:	0612052f 	ldreq	r0, [r2], -pc, lsr #10
     7a4:	0d054a01 	vstreq	s8, [r5, #-4]
     7a8:	12052f06 	andne	r2, r5, #6, 30
     7ac:	19050106 	stmdbne	r5, {r1, r2, r8}
     7b0:	04054b06 	streq	r4, [r5], #-2822	; 0xfffff4fa
     7b4:	02040200 	andeq	r0, r4, #0, 4
     7b8:	00011103 	andeq	r1, r1, r3, lsl #2
     7bc:	01020402 	tsteq	r2, r2, lsl #8
     7c0:	02000205 	andeq	r0, r0, #1342177280	; 0x50000000
     7c4:	05150204 	ldreq	r0, [r5, #-516]	; 0xfffffdfc
     7c8:	04020009 	streq	r0, [r2], #-9
     7cc:	00010602 	andeq	r0, r1, r2, lsl #12
     7d0:	4a020402 	bmi	817e0 <__bss_end__+0x78450>
     7d4:	02000105 	andeq	r0, r0, #1073741825	; 0x40000001
     7d8:	059f0204 	ldreq	r0, [pc, #516]	; 9e4 <__code_start__-0x761c>
     7dc:	6e030604 	cfmadd32vs	mvax0, mvfx0, mvfx3, mvfx4
     7e0:	0609054a 	streq	r0, [r9], -sl, asr #10
     7e4:	06040501 	streq	r0, [r4], -r1, lsl #10
     7e8:	0606052f 	streq	r0, [r6], -pc, lsr #10
     7ec:	2f040511 	svccs	0x00040511
     7f0:	63030b05 	movwvs	r0, #15109	; 0x3b05
     7f4:	0019052e 	andseq	r0, r9, lr, lsr #10
     7f8:	06010402 	streq	r0, [r1], -r2, lsl #8
     7fc:	052e2403 	streq	r2, [lr, #-1027]!	; 0xfffffbfd
     800:	0402001a 	streq	r0, [r2], #-26	; 0xffffffe6
     804:	28051301 	stmdacs	r5, {r0, r8, r9, ip}
     808:	01040200 	mrseq	r0, R12_usr
     80c:	25050106 	strcs	r0, [r5, #-262]	; 0xfffffefa
     810:	01040200 	mrseq	r0, R12_usr
     814:	001f052e 	andseq	r0, pc, lr, lsr #10
     818:	4a010402 	bmi	41828 <__bss_end__+0x38498>
     81c:	02000b05 	andeq	r0, r0, #5120	; 0x1400
     820:	4b060104 	blmi	180c38 <__bss_end__+0x1778a8>
     824:	02000405 	andeq	r0, r0, #83886080	; 0x5000000
     828:	01060104 	tsteq	r6, r4, lsl #2
     82c:	01040200 	mrseq	r0, R12_usr
     830:	0402004a 	streq	r0, [r2], #-74	; 0xffffffb6
     834:	004e0601 	subeq	r0, lr, r1, lsl #12
     838:	01010402 	tsteq	r1, r2, lsl #8
     83c:	01040200 	mrseq	r0, R12_usr
     840:	04020001 	streq	r0, [r2], #-1
     844:	02000101 	andeq	r0, r0, #1073741824	; 0x40000000
     848:	2e060104 	adfcss	f0, f6, f4
     84c:	01040200 	mrseq	r0, R12_usr
     850:	04020066 	streq	r0, [r2], #-102	; 0xffffff9a
     854:	02002e01 	andeq	r2, r0, #1, 28
     858:	4a060104 	bmi	180c70 <__bss_end__+0x1778e0>
     85c:	a6034805 	strge	r4, [r3], -r5, lsl #16
     860:	0520087f 	streq	r0, [r0, #-2175]!	; 0xfffff781
     864:	06011305 	streq	r1, [r1], -r5, lsl #6
     868:	0402002e 	streq	r0, [r2], #-46	; 0xffffffd2
     86c:	002e0602 	eoreq	r0, lr, r2, lsl #12
     870:	01020402 	tsteq	r2, r2, lsl #8
     874:	02040200 	andeq	r0, r4, #0, 4
     878:	00110513 	andseq	r0, r1, r3, lsl r5
     87c:	06020402 	streq	r0, [r2], -r2, lsl #8
     880:	00050501 	andeq	r0, r5, r1, lsl #10
     884:	06020402 	streq	r0, [r2], -r2, lsl #8
     888:	0007054b 	andeq	r0, r7, fp, asr #10
     88c:	06020402 	streq	r0, [r2], -r2, lsl #8
     890:	06090501 	streq	r0, [r9], -r1, lsl #10
     894:	060e054b 	streq	r0, [lr], -fp, asr #10
     898:	00480501 	subeq	r0, r8, r1, lsl #10
     89c:	62010402 	andvs	r0, r1, #33554432	; 0x2000000
     8a0:	02000505 	andeq	r0, r0, #20971520	; 0x1400000
     8a4:	4b060104 	blmi	180cbc <__bss_end__+0x17792c>
     8a8:	01040200 	mrseq	r0, R12_usr
     8ac:	04020001 	streq	r0, [r2], #-1
     8b0:	009e0601 	addseq	r0, lr, r1, lsl #12
     8b4:	2e010402 	cdpcs	4, 0, cr0, cr1, cr2, {0}
     8b8:	01040200 	mrseq	r0, R12_usr
     8bc:	40052e06 	andmi	r2, r5, r6, lsl #28
     8c0:	d600e103 	strle	lr, [r0], -r3, lsl #2
     8c4:	02050106 	andeq	r0, r5, #-2147483647	; 0x80000001
     8c8:	1e059f06 	cdpne	15, 0, cr9, cr5, cr6, {0}
     8cc:	12050106 	andne	r0, r5, #-2147483647	; 0x80000001
     8d0:	0605052e 	streq	r0, [r5], -lr, lsr #10
     8d4:	1402052f 	strne	r0, [r2], #-1327	; 0xfffffad1
     8d8:	01060905 	tsteq	r6, r5, lsl #18
     8dc:	4b060505 	blmi	181cf8 <__bss_end__+0x178968>
     8e0:	05130205 	ldreq	r0, [r3, #-517]	; 0xfffffdfb
     8e4:	050d0608 	streq	r0, [sp, #-1544]	; 0xfffff9f8
     8e8:	04053302 	streq	r3, [r5], #-770	; 0xfffffcfe
     8ec:	0f054c06 	svceq	0x00054c06
     8f0:	09050106 	stmdbeq	r5, {r1, r2, r8}
     8f4:	0608052e 	streq	r0, [r8], -lr, lsr #10
     8f8:	0602052c 	streq	r0, [r2], -ip, lsr #10
     8fc:	000d052e 	andeq	r0, sp, lr, lsr #10
     900:	4a010402 	bmi	41910 <__bss_end__+0x38580>
     904:	4b060305 	blmi	181520 <__bss_end__+0x178190>
     908:	01060505 	tsteq	r6, r5, lsl #10
     90c:	4d060805 	stcmi	8, cr0, [r6, #-20]	; 0xffffffec
     910:	01060e05 	tsteq	r6, r5, lsl #28
     914:	052e0a05 	streq	r0, [lr, #-2565]!	; 0xfffff5fb
     918:	052f0604 	streq	r0, [pc, #-1540]!	; 31c <__code_start__-0x7ce4>
     91c:	05010609 	streq	r0, [r1, #-1545]	; 0xfffff9f7
     920:	052f0604 	streq	r0, [pc, #-1540]!	; 324 <__code_start__-0x7cdc>
     924:	2e010607 	cfmadd32cs	mvax0, mvfx0, mvfx1, mvfx7
     928:	30060405 	andcc	r0, r6, r5, lsl #8
     92c:	01060705 	tsteq	r6, r5, lsl #14
     930:	30060405 	andcc	r0, r6, r5, lsl #8
     934:	0d051413 	cfstrseq	mvf1, [r5, #-76]	; 0xffffffb4
     938:	09051006 	stmdbeq	r5, {r1, r2, ip}
     93c:	12053006 	andne	r3, r5, #6, 0
     940:	0a050106 	beq	140d60 <__bss_end__+0x1379d0>
     944:	6609052e 	strvs	r0, [r9], -lr, lsr #10
     948:	4b060505 	blmi	181d64 <__bss_end__+0x1789d4>
     94c:	01061205 	tsteq	r6, r5, lsl #4
     950:	052e1605 	streq	r1, [lr, #-1541]!	; 0xfffff9fb
     954:	05052e0b 	streq	r2, [r5, #-3595]	; 0xfffff1f5
     958:	08052f06 	stmdaeq	r5, {r1, r2, r8, r9, sl, fp, sp}
     95c:	052e0106 	streq	r0, [lr, #-262]!	; 0xfffffefa
     960:	01300604 	teqeq	r0, r4, lsl #12
     964:	0015014a 	andseq	r0, r5, sl, asr #2
     968:	02010402 	andeq	r0, r1, #33554432	; 0x2000000
     96c:	02000f36 	andeq	r0, r0, #216	; 0xd8
     970:	00010104 	andeq	r0, r1, r4, lsl #2
     974:	d6010402 	strle	r0, [r1], -r2, lsl #8
     978:	01331105 	teqeq	r3, r5, lsl #2
     97c:	02040200 	andeq	r0, r4, #0, 4
     980:	040200ba 	streq	r0, [r2], #-186	; 0xffffff46
     984:	02000102 	andeq	r0, r0, #-2147483648	; 0x80000000
     988:	05130204 	ldreq	r0, [r3, #-516]	; 0xfffffdfc
     98c:	04020015 	streq	r0, [r2], #-21	; 0xffffffeb
     990:	05010602 	streq	r0, [r1, #-1538]	; 0xfffff9fe
     994:	04020011 	streq	r0, [r2], #-17	; 0xffffffef
     998:	052f0602 	streq	r0, [pc, #-1538]!	; 39e <__code_start__-0x7c62>
     99c:	0402001a 	streq	r0, [r2], #-26	; 0xffffffe6
     9a0:	05010602 	streq	r0, [r1, #-1538]	; 0xfffff9fe
     9a4:	04020011 	streq	r0, [r2], #-17	; 0xffffffef
     9a8:	00d70602 	sbcseq	r0, r7, r2, lsl #12
     9ac:	13020402 	movwne	r0, #9218	; 0x2402
     9b0:	02000505 	andeq	r0, r0, #20971520	; 0x1400000
     9b4:	05170204 	ldreq	r0, [r7, #-516]	; 0xfffffdfc
     9b8:	04020009 	streq	r0, [r2], #-9
     9bc:	00010602 	andeq	r0, r1, r2, lsl #12
     9c0:	d6020402 	strle	r0, [r2], -r2, lsl #8
     9c4:	02000505 	andeq	r0, r0, #20971520	; 0x1400000
     9c8:	30060204 	andcc	r0, r6, r4, lsl #4
     9cc:	02040200 	andeq	r0, r4, #0, 4
     9d0:	1105ba06 	tstne	r5, r6, lsl #20
     9d4:	02040200 	andeq	r0, r4, #0, 4
     9d8:	02002f06 	andeq	r2, r0, #6, 30
     9dc:	00670204 	rsbeq	r0, r7, r4, lsl #4
     9e0:	03010402 	movweq	r0, #5122	; 0x1402
     9e4:	02002e73 	andeq	r2, r0, #1840	; 0x730
     9e8:	00010104 	andeq	r0, r1, r4, lsl #2
     9ec:	d6010402 	strle	r0, [r1], -r2, lsl #8
     9f0:	12030505 	andne	r0, r3, #20971520	; 0x1400000
     9f4:	2e9e012e 	fmlcsep	f0, f6, #0.5
     9f8:	05010e03 	streq	r0, [r1, #-3587]	; 0xfffff1fd
     9fc:	05010609 	streq	r0, [r1, #-1545]	; 0xfffff9f7
     a00:	75080605 	strvc	r0, [r8, #-1541]	; 0xfffff9fb
     a04:	04050106 	streq	r0, [r5], #-262	; 0xfffffefa
     a08:	01180306 	tsteq	r8, r6, lsl #6
     a0c:	01060705 	tsteq	r6, r5, lsl #14
     a10:	31060405 	tstcc	r6, r5, lsl #8
     a14:	67030505 	strvs	r0, [r3, -r5, lsl #10]
     a18:	061c052e 	ldreq	r0, [ip], -lr, lsr #10
     a1c:	82090501 	andhi	r0, r9, #4194304	; 0x400000
     a20:	f3060505 	vrshl.u8	d0, d5, d6
     a24:	061c0531 			; <UNDEFINED> instruction: 0x061c0531
     a28:	82090501 	andhi	r0, r9, #4194304	; 0x400000
     a2c:	f3060505 	vrshl.u8	d0, d5, d6
     a30:	061b0530 			; <UNDEFINED> instruction: 0x061b0530
     a34:	82090501 	andhi	r0, r9, #4194304	; 0x400000
     a38:	f3060505 	vrshl.u8	d0, d5, d6
     a3c:	06070530 			; <UNDEFINED> instruction: 0x06070530
     a40:	06050501 	streq	r0, [r5], -r1, lsl #10
     a44:	09053083 	stmdbeq	r5, {r0, r1, r7, ip, sp}
     a48:	05050106 	streq	r0, [r5, #-262]	; 0xfffffefa
     a4c:	05750806 	ldrbeq	r0, [r5, #-2054]!	; 0xfffff7fa
     a50:	22053011 	andcs	r3, r5, #17, 0
     a54:	05050106 	streq	r0, [r5, #-262]	; 0xfffffefa
     a58:	11054b06 	tstne	r5, r6, lsl #22
     a5c:	83050583 	movwhi	r0, #21891	; 0x5583
     a60:	2e069e01 	cdpcs	14, 0, cr9, cr6, cr1, {0}
     a64:	0e051906 	vmlaeq.f16	s2, s10, s12	; <UNPREDICTABLE>
     a68:	0a050106 	beq	140e88 <__bss_end__+0x137af8>
     a6c:	052d062e 	streq	r0, [sp, #-1582]!	; 0xfffff9d2
     a70:	05010604 	streq	r0, [r1, #-1540]	; 0xfffff9fc
     a74:	04020013 	streq	r0, [r2], #-19	; 0xffffffed
     a78:	10054a01 	andne	r4, r5, r1, lsl #20
     a7c:	01040200 	mrseq	r0, R12_usr
     a80:	0402002e 	streq	r0, [r2], #-46	; 0xffffffd2
     a84:	02056601 	andeq	r6, r5, #1048576	; 0x100000
     a88:	07051606 	streq	r1, [r5, -r6, lsl #12]
     a8c:	02050106 	andeq	r0, r5, #-2147483647	; 0x80000001
     a90:	01054b06 	tsteq	r5, r6, lsl #22
     a94:	02661306 	rsbeq	r1, r6, #402653184	; 0x18000000
     a98:	01010014 	tsteq	r1, r4, lsl r0
     a9c:	0000008d 	andeq	r0, r0, sp, lsl #1
     aa0:	00720003 	rsbseq	r0, r2, r3
     aa4:	01020000 	mrseq	r0, (UNDEF: 2)
     aa8:	000d0efb 	strdeq	r0, [sp], -fp
     aac:	01010101 	tsteq	r1, r1, lsl #2
     ab0:	01000000 	mrseq	r0, (UNDEF: 0)
     ab4:	73010000 	movwvc	r0, #4096	; 0x1000
     ab8:	66666174 			; <UNDEFINED> instruction: 0x66666174
     abc:	6372732d 	cmnvs	r2, #-1275068416	; 0xb4000000
     ac0:	73552f00 	cmpvc	r5, #0, 30
     ac4:	2f737265 	svccs	0x00737265
     ac8:	69726461 	ldmdbvs	r2!, {r0, r5, r6, sl, sp, lr}^
     acc:	616d6e61 	cmnvs	sp, r1, ror #28
     ad0:	6e697472 	mcrvs	4, 3, r7, cr9, cr2, {3}
     ad4:	702f7a65 	eorvc	r7, pc, r5, ror #20
     ad8:	656a6f72 	strbvs	r6, [sl, #-3954]!	; 0xfffff08e
     adc:	2f737463 	svccs	0x00737463
     ae0:	34317363 	ldrtcc	r7, [r1], #-867	; 0xfffffc9d
     ae4:	322d6530 	eorcc	r6, sp, #48, 10	; 0xc000000
     ae8:	72707331 	rsbsvc	r7, r0, #-1006632960	; 0xc4000000
     aec:	62696c2f 	rsbvs	r6, r9, #12032	; 0x2f00
     af0:	692f6970 	stmdbvs	pc!, {r4, r5, r6, r8, fp, sp, lr}	; <UNPREDICTABLE>
     af4:	756c636e 	strbvc	r6, [ip, #-878]!	; 0xfffffc92
     af8:	00006564 	andeq	r6, r0, r4, ror #10
     afc:	61656c63 	cmnvs	r5, r3, ror #24
     b00:	65722d6e 	ldrbvs	r2, [r2, #-3438]!	; 0xfffff292
     b04:	746f6f62 	strbtvc	r6, [pc], #-3938	; b0c <__code_start__-0x74f4>
     b08:	0100632e 	tsteq	r0, lr, lsr #6
     b0c:	70720000 	rsbsvc	r0, r2, r0
     b10:	00682e69 	rsbeq	r2, r8, r9, ror #28
     b14:	00000002 	andeq	r0, r0, r2
     b18:	05001905 	streq	r1, [r0, #-2309]	; 0xfffff6fb
     b1c:	00891402 	addeq	r1, r9, r2, lsl #8
     b20:	05051500 	streq	r1, [r5, #-1280]	; 0xfffffb00
     b24:	4b2f832f 	blmi	be17e8 <__bss_end__+0xbd8458>
     b28:	01000602 	tsteq	r0, r2, lsl #12
     b2c:	0000a201 	andeq	sl, r0, r1, lsl #4
     b30:	6c000300 	stcvs	3, cr0, [r0], {-0}
     b34:	02000000 	andeq	r0, r0, #0, 0
     b38:	0d0efb01 	vstreq	d15, [lr, #-4]
     b3c:	01010100 	mrseq	r0, (UNDEF: 17)
     b40:	00000001 	andeq	r0, r0, r1
     b44:	01000001 	tsteq	r0, r1
     b48:	66617473 			; <UNDEFINED> instruction: 0x66617473
     b4c:	72732d66 	rsbsvc	r2, r3, #6528	; 0x1980
     b50:	552f0063 	strpl	r0, [pc, #-99]!	; af5 <__code_start__-0x750b>
     b54:	73726573 	cmnvc	r2, #482344960	; 0x1cc00000
     b58:	7264612f 	rsbvc	r6, r4, #-1073741813	; 0xc000000b
     b5c:	6d6e6169 	stfvse	f6, [lr, #-420]!	; 0xfffffe5c
     b60:	69747261 	ldmdbvs	r4!, {r0, r5, r6, r9, ip, sp, lr}^
     b64:	2f7a656e 	svccs	0x007a656e
     b68:	6a6f7270 	bvs	1bdd530 <__bss_end__+0x1bd41a0>
     b6c:	73746365 	cmnvc	r4, #-1811939327	; 0x94000001
     b70:	3173632f 	cmncc	r3, pc, lsr #6
     b74:	2d653034 	stclcs	0, cr3, [r5, #-208]!	; 0xffffff30
     b78:	70733132 	rsbsvc	r3, r3, r2, lsr r1
     b7c:	696c2f72 	stmdbvs	ip!, {r1, r4, r5, r6, r8, r9, sl, fp, sp}^
     b80:	2f697062 	svccs	0x00697062
     b84:	6c636e69 	stclvs	14, cr6, [r3], #-420	; 0xfffffe5c
     b88:	00656475 	rsbeq	r6, r5, r5, ror r4
     b8c:	74736300 	ldrbtvc	r6, [r3], #-768	; 0xfffffd00
     b90:	2e747261 	cdpcs	2, 7, cr7, cr4, cr1, {3}
     b94:	00010063 	andeq	r0, r1, r3, rrx
     b98:	69707200 	ldmdbvs	r0!, {r9, ip, sp, lr}^
     b9c:	0200682e 	andeq	r6, r0, #3014656	; 0x2e0000
     ba0:	05000000 	streq	r0, [r0, #-0]
     ba4:	02050010 	andeq	r0, r5, #16, 0
     ba8:	00008940 	andeq	r8, r0, r0, asr #18
     bac:	2f050514 	svccs	0x00050514
     bb0:	05130205 	ldreq	r0, [r3, #-517]	; 0xfffffdfb
     bb4:	13301405 	teqne	r0, #83886080	; 0x5000000
     bb8:	060a0514 			; <UNDEFINED> instruction: 0x060a0514
     bbc:	0531060f 	ldreq	r0, [r1, #-1551]!	; 0xfffff9f1
     bc0:	10054b09 	andne	r4, r5, r9, lsl #22
     bc4:	054a0106 	strbeq	r0, [sl, #-262]	; 0xfffffefa
     bc8:	05300605 	ldreq	r0, [r0, #-1541]!	; 0xfffff9fb
     bcc:	06022f02 	streq	r2, [r2], -r2, lsl #30
     bd0:	8b010100 	blhi	40fd8 <__bss_end__+0x37c48>
     bd4:	03000000 	movweq	r0, #0
     bd8:	00007300 	andeq	r7, r0, r0, lsl #6
     bdc:	fb010200 	blx	413e6 <__bss_end__+0x38056>
     be0:	01000d0e 	tsteq	r0, lr, lsl #26
     be4:	00010101 	andeq	r0, r1, r1, lsl #2
     be8:	00010000 	andeq	r0, r1, r0
     bec:	74730100 	ldrbtvc	r0, [r3], #-256	; 0xffffff00
     bf0:	2d666661 	stclcs	6, cr6, [r6, #-388]!	; 0xfffffe7c
     bf4:	00637273 	rsbeq	r7, r3, r3, ror r2
     bf8:	6573552f 	ldrbvs	r5, [r3, #-1327]!	; 0xfffffad1
     bfc:	612f7372 			; <UNDEFINED> instruction: 0x612f7372
     c00:	61697264 	cmnvs	r9, r4, ror #4
     c04:	72616d6e 	rsbvc	r6, r1, #7040	; 0x1b80
     c08:	656e6974 	strbvs	r6, [lr, #-2420]!	; 0xfffff68c
     c0c:	72702f7a 	rsbsvc	r2, r0, #488	; 0x1e8
     c10:	63656a6f 	cmnvs	r5, #454656	; 0x6f000
     c14:	632f7374 			; <UNDEFINED> instruction: 0x632f7374
     c18:	30343173 	eorscc	r3, r4, r3, ror r1
     c1c:	31322d65 	teqcc	r2, r5, ror #26
     c20:	2f727073 	svccs	0x00727073
     c24:	7062696c 	rsbvc	r6, r2, ip, ror #18
     c28:	6e692f69 	cdpvs	15, 6, cr2, cr9, cr9, {3}
     c2c:	64756c63 	ldrbtvs	r6, [r5], #-3171	; 0xfffff39d
     c30:	63000065 	movwvs	r0, #101	; 0x65
     c34:	6f747375 	svcvs	0x00747375
     c38:	6f6c2d6d 	svcvs	0x006c2d6d
     c3c:	72656461 	rsbvc	r6, r5, #1627389952	; 0x61000000
     c40:	0100632e 	tsteq	r0, lr, lsr #6
     c44:	70720000 	rsbsvc	r0, r2, r0
     c48:	00682e69 	rsbeq	r2, r8, r9, ror #28
     c4c:	00000002 	andeq	r0, r0, r2
     c50:	05001a05 	streq	r1, [r0, #-2565]	; 0xfffff5fb
     c54:	00897002 	addeq	r7, r9, r2
     c58:	01051500 	tsteq	r5, r0, lsl #10
     c5c:	00020214 	andeq	r0, r2, r4, lsl r2
     c60:	00dc0101 	sbcseq	r0, ip, r1, lsl #2
     c64:	00030000 	andeq	r0, r3, r0
     c68:	0000006c 	andeq	r0, r0, ip, rrx
     c6c:	0efb0102 	cdpeq	1, 15, cr0, cr11, cr2, {0}
     c70:	0101000d 	tsteq	r1, sp
     c74:	00000101 	andeq	r0, r0, r1, lsl #2
     c78:	00000100 	andeq	r0, r0, r0, lsl #2
     c7c:	61747301 	cmnvs	r4, r1, lsl #6
     c80:	732d6666 			; <UNDEFINED> instruction: 0x732d6666
     c84:	2f006372 	svccs	0x00006372
     c88:	72657355 	rsbvc	r7, r5, #1409286145	; 0x54000001
     c8c:	64612f73 	strbtvs	r2, [r1], #-3955	; 0xfffff08d
     c90:	6e616972 			; <UNDEFINED> instruction: 0x6e616972
     c94:	7472616d 	ldrbtvc	r6, [r2], #-365	; 0xfffffe93
     c98:	7a656e69 	bvc	195c644 <__bss_end__+0x19532b4>
     c9c:	6f72702f 	svcvs	0x0072702f
     ca0:	7463656a 	strbtvc	r6, [r3], #-1386	; 0xfffffa96
     ca4:	73632f73 	cmnvc	r3, #460	; 0x1cc
     ca8:	65303431 	ldrvs	r3, [r0, #-1073]!	; 0xfffffbcf
     cac:	7331322d 	teqvc	r1, #-805306366	; 0xd0000002
     cb0:	6c2f7270 	sfmvs	f7, 4, [pc], #-448	; af8 <__code_start__-0x7508>
     cb4:	69706269 	ldmdbvs	r0!, {r0, r3, r5, r6, r9, sp, lr}^
     cb8:	636e692f 	cmnvs	lr, #770048	; 0xbc000
     cbc:	6564756c 	strbvs	r7, [r4, #-1388]!	; 0xfffffa94
     cc0:	65720000 	ldrbvs	r0, [r2, #-0]!
     cc4:	746f6f62 	strbtvc	r6, [pc], #-3938	; ccc <__code_start__-0x7334>
     cc8:	0100632e 	tsteq	r0, lr, lsr #6
     ccc:	70720000 	rsbsvc	r0, r2, r0
     cd0:	00682e69 	rsbeq	r2, r8, r9, ror #28
     cd4:	00000002 	andeq	r0, r0, r2
     cd8:	05001905 	streq	r1, [r0, #-2309]	; 0xfffff6fb
     cdc:	00897402 	addeq	r7, r9, r2, lsl #8
     ce0:	010d0300 	mrseq	r0, SP_mon
     ce4:	13130505 	tstne	r3, #20971520	; 0x1400000
     ce8:	06130531 			; <UNDEFINED> instruction: 0x06130531
     cec:	2f010501 	svccs	0x00010501
     cf0:	85061b05 	strhi	r1, [r6, #-2821]	; 0xfffff4fb
     cf4:	14130505 	ldrne	r0, [r3], #-1285	; 0xfffffafb
     cf8:	052f0905 	streq	r0, [pc, #-2309]!	; 3fb <__code_start__-0x7c05>
     cfc:	05010616 	streq	r0, [r1, #-1558]	; 0xfffff9ea
     d00:	05052e0e 	streq	r2, [r5, #-3598]	; 0xfffff1f2
     d04:	01052f06 	tsteq	r5, r6, lsl #30
     d08:	17052f06 	strne	r2, [r5, -r6, lsl #30]
     d0c:	05053006 	streq	r3, [r5, #-6]
     d10:	0608052f 	streq	r0, [r8], -pc, lsr #10
     d14:	2e070501 	cfsh32cs	mvfx0, mvfx7, #1
     d18:	03060505 	movweq	r0, #25861	; 0x6505
     d1c:	4d2f4a0b 	vstmdbmi	pc!, {s8-s18}
     d20:	15131313 	ldrne	r1, [r3, #-787]	; 0xfffffced
     d24:	04020067 	streq	r0, [r2], #-103	; 0xffffff99
     d28:	0d056701 	stceq	7, cr6, [r5, #-4]
     d2c:	01040200 	mrseq	r0, R12_usr
     d30:	000a0501 	andeq	r0, sl, r1, lsl #10
     d34:	01010402 	tsteq	r1, r2, lsl #8
     d38:	6a030905 	bvs	c3154 <__bss_end__+0xb9dc4>
     d3c:	000c022e 	andeq	r0, ip, lr, lsr #4
     d40:	00fd0101 	rscseq	r0, sp, r1, lsl #2
     d44:	00030000 	andeq	r0, r3, r0
     d48:	0000006b 	andeq	r0, r0, fp, rrx
     d4c:	0efb0102 	cdpeq	1, 15, cr0, cr11, cr2, {0}
     d50:	0101000d 	tsteq	r1, sp
     d54:	00000101 	andeq	r0, r0, r1, lsl #2
     d58:	00000100 	andeq	r0, r0, r0, lsl #2
     d5c:	61747301 	cmnvs	r4, r1, lsl #6
     d60:	732d6666 			; <UNDEFINED> instruction: 0x732d6666
     d64:	2f006372 	svccs	0x00006372
     d68:	72657355 	rsbvc	r7, r5, #1409286145	; 0x54000001
     d6c:	64612f73 	strbtvs	r2, [r1], #-3955	; 0xfffff08d
     d70:	6e616972 			; <UNDEFINED> instruction: 0x6e616972
     d74:	7472616d 	ldrbtvc	r6, [r2], #-365	; 0xfffffe93
     d78:	7a656e69 	bvc	195c724 <__bss_end__+0x1953394>
     d7c:	6f72702f 	svcvs	0x0072702f
     d80:	7463656a 	strbtvc	r6, [r3], #-1386	; 0xfffffa96
     d84:	73632f73 	cmnvc	r3, #460	; 0x1cc
     d88:	65303431 	ldrvs	r3, [r0, #-1073]!	; 0xfffffbcf
     d8c:	7331322d 	teqvc	r1, #-805306366	; 0xd0000002
     d90:	6c2f7270 	sfmvs	f7, 4, [pc], #-448	; bd8 <__code_start__-0x7428>
     d94:	69706269 	ldmdbvs	r0!, {r0, r3, r5, r6, r9, sp, lr}^
     d98:	636e692f 	cmnvs	lr, #770048	; 0xbc000
     d9c:	6564756c 	strbvs	r7, [r4, #-1388]!	; 0xfffffa94
     da0:	69740000 	ldmdbvs	r4!, {}^	; <UNPREDICTABLE>
     da4:	2e72656d 	cdpcs	5, 7, cr6, cr2, cr13, {3}
     da8:	00010063 	andeq	r0, r1, r3, rrx
     dac:	69707200 	ldmdbvs	r0!, {r9, ip, sp, lr}^
     db0:	0200682e 	andeq	r6, r0, #3014656	; 0x2e0000
     db4:	05000000 	streq	r0, [r0, #-0]
     db8:	02050023 	andeq	r0, r5, #35, 0	; 0x23
     dbc:	000089f0 	strdeq	r8, [r0], -r0
     dc0:	14050516 	strne	r0, [r5], #-1302	; 0xfffffaea
     dc4:	05010a05 	streq	r0, [r1, #-2565]	; 0xfffff5fb
     dc8:	05010610 	streq	r0, [r1, #-1552]	; 0xfffff9f0
     dcc:	09052e0a 	stmdbeq	r5, {r1, r3, r9, sl, fp, sp}
     dd0:	10054b06 	andne	r4, r5, r6, lsl #22
     dd4:	23052d06 	movwcs	r2, #23814	; 0x5d06
     dd8:	4a0a0306 	bmi	2819f8 <__bss_end__+0x278668>
     ddc:	052f0505 	streq	r0, [pc, #-1285]!	; 8df <__code_start__-0x7721>
     de0:	0501060c 	streq	r0, [r1, #-1548]	; 0xfffff9f4
     de4:	1f054b01 	svcne	0x00054b01
     de8:	05054d06 	streq	r4, [r5, #-3334]	; 0xfffff2fa
     dec:	12052f31 	andne	r2, r5, #196	; 0xc4
     df0:	05050106 	streq	r0, [r5, #-262]	; 0xfffffefa
     df4:	052f4b06 	streq	r4, [pc, #-2822]!	; 2f6 <__code_start__-0x7d0a>
     df8:	05130601 	ldreq	r0, [r3, #-1537]	; 0xfffff9ff
     dfc:	064c061c 			; <UNDEFINED> instruction: 0x064c061c
     e00:	06050501 	streq	r0, [r5], -r1, lsl #10
     e04:	0613054b 	ldreq	r0, [r3], -fp, asr #10
     e08:	05052e01 	streq	r2, [r5, #-3585]	; 0xfffff1ff
     e0c:	09052f06 	stmdbeq	r5, {r1, r2, r8, r9, sl, fp, sp}
     e10:	06170513 			; <UNDEFINED> instruction: 0x06170513
     e14:	06090501 	streq	r0, [r9], -r1, lsl #10
     e18:	0611052f 	ldreq	r0, [r1], -pc, lsr #10
     e1c:	2e0c0501 	cfsh32cs	mvfx0, mvfx12, #1
     e20:	6b061c05 	blvs	187e3c <__bss_end__+0x17eaac>
     e24:	05050106 	streq	r0, [r5, #-262]	; 0xfffffefa
     e28:	4a062f06 	bmi	18ca48 <__bss_end__+0x1836b8>
     e2c:	054b0105 	strbeq	r0, [fp, #-261]	; 0xfffffefb
     e30:	062f061e 			; <UNDEFINED> instruction: 0x062f061e
     e34:	06050501 	streq	r0, [r5], -r1, lsl #10
     e38:	054a062f 	strbeq	r0, [sl, #-1583]	; 0xfffff9d1
     e3c:	02024b01 	andeq	r4, r2, #1024	; 0x400
     e40:	b5010100 	strlt	r0, [r1, #-256]	; 0xffffff00
     e44:	03000001 	movweq	r0, #1
     e48:	00009e00 	andeq	r9, r0, r0, lsl #28
     e4c:	fb010200 	blx	41656 <__bss_end__+0x382c6>
     e50:	01000d0e 	tsteq	r0, lr, lsl #26
     e54:	00010101 	andeq	r0, r1, r1, lsl #2
     e58:	00010000 	andeq	r0, r1, r0
     e5c:	682f0100 	stmdavs	pc!, {r8}	; <UNPREDICTABLE>
     e60:	2f656d6f 	svccs	0x00656d6f
     e64:	6c676e65 	stclvs	14, cr6, [r7], #-404	; 0xfffffe6c
     e68:	632f7265 			; <UNDEFINED> instruction: 0x632f7265
     e6c:	7373616c 	cmnvc	r3, #27
     e70:	3173632f 	cmncc	r3, pc, lsr #6
     e74:	2d653034 	stclcs	0, cr3, [r5, #-208]!	; 0xffffff30
     e78:	70733132 	rsbsvc	r3, r3, r2, lsr r1
     e7c:	6c2f2f72 	stcvs	15, cr2, [pc], #-456	; cbc <__code_start__-0x7344>
     e80:	69706269 	ldmdbvs	r0!, {r0, r3, r5, r6, r9, sp, lr}^
     e84:	636e692f 	cmnvs	lr, #770048	; 0xbc000
     e88:	6564756c 	strbvs	r7, [r4, #-1388]!	; 0xfffffa94
     e8c:	73752f00 	cmnvc	r5, #0, 30
     e90:	696c2f72 	stmdbvs	ip!, {r1, r4, r5, r6, r8, r9, sl, fp, sp}^
     e94:	63672f62 	cmnvs	r7, #392	; 0x188
     e98:	72612f63 	rsbvc	r2, r1, #396	; 0x18c
     e9c:	6f6e2d6d 	svcvs	0x006e2d6d
     ea0:	652d656e 	strvs	r6, [sp, #-1390]!	; 0xfffffa92
     ea4:	2f696261 	svccs	0x00696261
     ea8:	2e322e39 	mrccs	14, 1, r2, cr2, cr9, {1}
     eac:	6e692f31 	mcrvs	15, 3, r2, cr9, cr1, {1}
     eb0:	64756c63 	ldrbtvs	r6, [r5], #-3171	; 0xfffff39d
     eb4:	75000065 	strvc	r0, [r0, #-101]	; 0xffffff9b
     eb8:	2e747261 	cdpcs	2, 7, cr7, cr4, cr1, {3}
     ebc:	00000063 	andeq	r0, r0, r3, rrx
     ec0:	69707200 	ldmdbvs	r0!, {r9, ip, sp, lr}^
     ec4:	0100682e 	tsteq	r0, lr, lsr #16
     ec8:	61750000 	cmnvs	r5, r0
     ecc:	682e7472 	stmdavs	lr!, {r1, r4, r5, r6, sl, ip, sp, lr}
     ed0:	00000100 	andeq	r0, r0, r0, lsl #2
     ed4:	6f697067 	svcvs	0x00697067
     ed8:	0100682e 	tsteq	r0, lr, lsr #16
     edc:	74730000 	ldrbtvc	r0, [r3], #-0
     ee0:	746e6964 	strbtvc	r6, [lr], #-2404	; 0xfffff69c
     ee4:	0200682e 	andeq	r6, r0, #3014656	; 0x2e0000
     ee8:	05000000 	streq	r0, [r0, #-0]
     eec:	02050038 	andeq	r0, r5, #56, 0	; 0x38
     ef0:	00008aa4 	andeq	r8, r0, r4, lsr #21
     ef4:	06012d03 	streq	r2, [r1], -r3, lsl #26
     ef8:	06050501 	streq	r0, [r5], -r1, lsl #10
     efc:	06110567 	ldreq	r0, [r1], -r7, ror #10
     f00:	2e050501 	cfsh32cs	mvfx0, mvfx5, #1
     f04:	05670105 	strbeq	r0, [r7, #-261]!	; 0xfffffefb
     f08:	0b030616 	bleq	c2768 <__bss_end__+0xb93d8>
     f0c:	3505052e 	strcc	r0, [r5, #-1326]	; 0xfffffad2
     f10:	68356867 	ldmdavs	r5!, {r0, r1, r2, r5, r6, fp, sp, lr}
     f14:	852e0c03 	strhi	r0, [lr, #-3075]!	; 0xfffff3fd
     f18:	0369696b 	cmneq	r9, #1753088	; 0x1ac000
     f1c:	6b13660c 	blvs	4da754 <__bss_end__+0x4d13c4>
     f20:	06010567 	streq	r0, [r1], -r7, ror #10
     f24:	0619052f 	ldreq	r0, [r9], -pc, lsr #10
     f28:	05052508 	streq	r2, [r5, #-1288]	; 0xfffffaf8
     f2c:	060d0534 			; <UNDEFINED> instruction: 0x060d0534
     f30:	4c010501 	cfstr32mi	mvfx0, [r1], {1}
     f34:	67061905 	strvs	r1, [r6, -r5, lsl #18]
     f38:	05360505 	ldreq	r0, [r6, #-1285]!	; 0xfffffafb
     f3c:	0501060d 	streq	r0, [r1, #-1549]	; 0xfffff9f3
     f40:	01054a28 	tsteq	r5, r8, lsr #20
     f44:	06150530 			; <UNDEFINED> instruction: 0x06150530
     f48:	2f050587 	svccs	0x00050587
     f4c:	0009052f 	andeq	r0, r9, pc, lsr #10
     f50:	13010402 	movwne	r0, #5122	; 0x1402
     f54:	02000a05 	andeq	r0, r0, #20480	; 0x5000
     f58:	05110104 	ldreq	r0, [r1, #-260]	; 0xfffffefc
     f5c:	0402000c 	streq	r0, [r2], #-12
     f60:	05010601 	streq	r0, [r1, #-1537]	; 0xfffff9ff
     f64:	0402000a 	streq	r0, [r2], #-10
     f68:	05052e01 	streq	r2, [r5, #-3585]	; 0xfffff1ff
     f6c:	0e054c06 	cdpeq	12, 0, cr4, cr5, cr6, {0}
     f70:	09050106 	stmdbeq	r5, {r1, r2, r8}
     f74:	0605054a 	streq	r0, [r5], -sl, asr #10
     f78:	01052f2f 	tsteq	r5, pc, lsr #30
     f7c:	1c051306 	stcne	3, cr1, [r5], {6}
     f80:	01066706 	tsteq	r6, r6, lsl #14
     f84:	4b060505 	blmi	1823a0 <__bss_end__+0x179010>
     f88:	0009052f 	andeq	r0, r9, pc, lsr #10
     f8c:	13010402 	movwne	r0, #5122	; 0x1402
     f90:	02000a05 	andeq	r0, r0, #20480	; 0x5000
     f94:	05110104 	ldreq	r0, [r1, #-260]	; 0xfffffefc
     f98:	0402000c 	streq	r0, [r2], #-12
     f9c:	05010601 	streq	r0, [r1, #-1537]	; 0xfffff9ff
     fa0:	0402000a 	streq	r0, [r2], #-10
     fa4:	05052e01 	streq	r2, [r5, #-3585]	; 0xfffff1ff
     fa8:	05674c06 	strbeq	r4, [r7, #-3078]!	; 0xfffff3fa
     fac:	052f0601 	streq	r0, [pc, #-1537]!	; 9b3 <__code_start__-0x764d>
     fb0:	054c0619 	strbeq	r0, [ip, #-1561]	; 0xfffff9e7
     fb4:	2a052e1b 	bcs	14c828 <__bss_end__+0x143498>
     fb8:	0631052e 	ldrteq	r0, [r1], -lr, lsr #10
     fbc:	2e010501 	cfsh32cs	mvfx0, mvfx1, #1
     fc0:	31061c05 	tstcc	r6, r5, lsl #24
     fc4:	032f0505 			; <UNDEFINED> instruction: 0x032f0505
     fc8:	0e052e09 	cdpeq	14, 0, cr2, cr5, cr9, {0}
     fcc:	21050106 	tstcs	r5, r6, lsl #2
     fd0:	0301054a 	movweq	r0, #5450	; 0x154a
     fd4:	1a052e0a 	bne	14c804 <__bss_end__+0x143474>
     fd8:	09056806 	stmdbeq	r5, {r1, r2, fp, sp, lr}
     fdc:	01040200 	mrseq	r0, R12_usr
     fe0:	000a0530 	andeq	r0, sl, r0, lsr r5
     fe4:	11010402 	tstne	r1, r2, lsl #8
     fe8:	02000c05 	andeq	r0, r0, #1280	; 0x500
     fec:	01060104 	tsteq	r6, r4, lsl #2
     ff0:	02000a05 	andeq	r0, r0, #20480	; 0x5000
     ff4:	022e0104 	eoreq	r0, lr, #1
     ff8:	01010006 	tsteq	r1, r6
     ffc:	00000189 	andeq	r0, r0, r9, lsl #3
    1000:	00d70003 	sbcseq	r0, r7, r3
    1004:	01020000 	mrseq	r0, (UNDEF: 2)
    1008:	000d0efb 	strdeq	r0, [sp], -fp
    100c:	01010101 	tsteq	r1, r1, lsl #2
    1010:	01000000 	mrseq	r0, (UNDEF: 0)
    1014:	73010000 	movwvc	r0, #4096	; 0x1000
    1018:	2f006372 	svccs	0x00006372
    101c:	72657355 	rsbvc	r7, r5, #1409286145	; 0x54000001
    1020:	64612f73 	strbtvs	r2, [r1], #-3955	; 0xfffff08d
    1024:	6e616972 			; <UNDEFINED> instruction: 0x6e616972
    1028:	7472616d 	ldrbtvc	r6, [r2], #-365	; 0xfffffe93
    102c:	7a656e69 	bvc	195c9d8 <__bss_end__+0x1953648>
    1030:	6f72702f 	svcvs	0x0072702f
    1034:	7463656a 	strbtvc	r6, [r3], #-1386	; 0xfffffa96
    1038:	73632f73 	cmnvc	r3, #460	; 0x1cc
    103c:	65303431 	ldrvs	r3, [r0, #-1073]!	; 0xfffffbcf
    1040:	7331322d 	teqvc	r1, #-805306366	; 0xd0000002
    1044:	6c2f7270 	sfmvs	f7, 4, [pc], #-448	; e8c <__code_start__-0x7174>
    1048:	69706269 	ldmdbvs	r0!, {r0, r3, r5, r6, r9, sp, lr}^
    104c:	636e692f 	cmnvs	lr, #770048	; 0xbc000
    1050:	6564756c 	strbvs	r7, [r4, #-1388]!	; 0xfffffa94
    1054:	73752f00 	cmnvc	r5, #0, 30
    1058:	6f6c2f72 	svcvs	0x006c2f72
    105c:	2f6c6163 	svccs	0x006c6163
    1060:	6c6c6543 	cfstr64vs	mvdx6, [ip], #-268	; 0xfffffef4
    1064:	612f7261 			; <UNDEFINED> instruction: 0x612f7261
    1068:	6e2d6d72 	mcrvs	13, 1, r6, cr13, cr2, {3}
    106c:	2d656e6f 	stclcs	14, cr6, [r5, #-444]!	; 0xfffffe44
    1070:	69626165 	stmdbvs	r2!, {r0, r2, r5, r6, r8, sp, lr}^
    1074:	7365742d 	cmnvc	r5, #754974720	; 0x2d000000
    1078:	2d392f74 	ldccs	15, cr2, [r9, #-464]!	; 0xfffffe30
    107c:	39313032 	ldmdbcc	r1!, {r1, r4, r5, ip, sp}
    1080:	632d3471 			; <UNDEFINED> instruction: 0x632d3471
    1084:	37303173 			; <UNDEFINED> instruction: 0x37303173
    1088:	696c2f65 	stmdbvs	ip!, {r0, r2, r5, r6, r8, r9, sl, fp, sp}^
    108c:	63672f62 	cmnvs	r7, #392	; 0x188
    1090:	72612f63 	rsbvc	r2, r1, #396	; 0x18c
    1094:	6f6e2d6d 	svcvs	0x006e2d6d
    1098:	652d656e 	strvs	r6, [sp, #-1390]!	; 0xfffffa92
    109c:	2f696261 	svccs	0x00696261
    10a0:	2e322e39 	mrccs	14, 1, r2, cr2, cr9, {1}
    10a4:	6e692f31 	mcrvs	15, 3, r2, cr9, cr1, {1}
    10a8:	64756c63 	ldrbtvs	r6, [r5], #-3171	; 0xfffff39d
    10ac:	67000065 	strvs	r0, [r0, -r5, rrx]
    10b0:	2e6f6970 			; <UNDEFINED> instruction: 0x2e6f6970
    10b4:	00010063 	andeq	r0, r1, r3, rrx
    10b8:	69707200 	ldmdbvs	r0!, {r9, ip, sp, lr}^
    10bc:	0200682e 	andeq	r6, r0, #3014656	; 0x2e0000
    10c0:	74730000 	ldrbtvc	r0, [r3], #-0
    10c4:	746e6964 	strbtvc	r6, [lr], #-2404	; 0xfffff69c
    10c8:	6363672d 	cmnvs	r3, #11796480	; 0xb40000
    10cc:	0300682e 	movweq	r6, #2094	; 0x82e
    10d0:	70670000 	rsbvc	r0, r7, r0
    10d4:	682e6f69 	stmdavs	lr!, {r0, r3, r5, r6, r8, r9, sl, fp, sp, lr}
    10d8:	00000200 	andeq	r0, r0, r0, lsl #4
    10dc:	00360500 	eorseq	r0, r6, r0, lsl #10
    10e0:	8c500205 	lfmhi	f0, 2, [r0], {5}
    10e4:	13030000 	movwne	r0, #12288	; 0x3000
    10e8:	05010601 	streq	r0, [r1, #-1537]	; 0xfffff9ff
    10ec:	05670605 	strbeq	r0, [r7, #-1541]!	; 0xfffff9fb
    10f0:	05010628 	streq	r0, [r1, #-1576]	; 0xfffff9d8
    10f4:	0e056622 	cfmadd32eq	mvax1, mvfx6, mvfx5, mvfx2
    10f8:	0605054a 	streq	r0, [r5], -sl, asr #10
    10fc:	0618052f 	ldreq	r0, [r8], -pc, lsr #10
    1100:	05052e01 	streq	r2, [r5, #-3585]	; 0xfffff1ff
    1104:	1f052f06 	svcne	0x00052f06
    1108:	0e050106 	adfeqs	f0, f5, f6
    110c:	0605054a 	streq	r0, [r5], -sl, asr #10
    1110:	061d052f 	ldreq	r0, [sp], -pc, lsr #10
    1114:	4a050501 	bmi	142520 <__bss_end__+0x139190>
    1118:	2f01054a 	svccs	0x0001054a
    111c:	03062405 	movweq	r2, #25605	; 0x6405
    1120:	01064a0a 	tsteq	r6, sl, lsl #20
    1124:	2f060505 	svccs	0x00060505
    1128:	4b060105 	blmi	181544 <__bss_end__+0x1781b4>
    112c:	31062005 	tstcc	r6, r5
    1130:	05050106 	streq	r0, [r5, #-262]	; 0xfffffefa
    1134:	66062f06 	strvs	r2, [r6], -r6, lsl #30
    1138:	052f0105 	streq	r0, [pc, #-261]!	; 103b <__code_start__-0x6fc5>
    113c:	064d0621 	strbeq	r0, [sp], -r1, lsr #12
    1140:	06050501 	streq	r0, [r5], -r1, lsl #10
    1144:	0566062f 	strbeq	r0, [r6, #-1583]!	; 0xfffff9d1
    1148:	2b052f01 	blcs	14cd54 <__bss_end__+0x1439c4>
    114c:	01064d06 	tsteq	r6, r6, lsl #26
    1150:	2f060505 	svccs	0x00060505
    1154:	01060705 	tsteq	r6, r5, lsl #14
    1158:	4b060805 	blmi	183174 <__bss_end__+0x179de4>
    115c:	30062e06 	andcc	r2, r6, r6, lsl #28
    1160:	2f060105 	svccs	0x00060105
    1164:	35062305 	strcc	r2, [r6, #-773]	; 0xfffffcfb
    1168:	05050106 	streq	r0, [r5, #-262]	; 0xfffffefa
    116c:	01052f06 	tsteq	r5, r6, lsl #30
    1170:	1d054b06 	vstrne	d4, [r5, #-24]	; 0xffffffe8
    1174:	01063106 	tsteq	r6, r6, lsl #2
    1178:	4d060505 	cfstr32mi	mvfx0, [r6, #-20]	; 0xffffffec
    117c:	01060c05 	tsteq	r6, r5, lsl #24
    1180:	2f01052e 	svccs	0x0001052e
    1184:	01000802 	tsteq	r0, r2, lsl #16
    1188:	0000a601 	andeq	sl, r0, r1, lsl #12
    118c:	68000300 	stmdavs	r0, {r8, r9}
    1190:	02000000 	andeq	r0, r0, #0, 0
    1194:	0d0efb01 	vstreq	d15, [lr, #-4]
    1198:	01010100 	mrseq	r0, (UNDEF: 17)
    119c:	00000001 	andeq	r0, r0, r1
    11a0:	01000001 	tsteq	r0, r1
    11a4:	6362696c 	cmnvs	r2, #108, 18	; 0x1b0000
    11a8:	73552f00 	cmpvc	r5, #0, 30
    11ac:	2f737265 	svccs	0x00737265
    11b0:	69726461 	ldmdbvs	r2!, {r0, r5, r6, sl, sp, lr}^
    11b4:	616d6e61 	cmnvs	sp, r1, ror #28
    11b8:	6e697472 	mcrvs	4, 3, r7, cr9, cr2, {3}
    11bc:	702f7a65 	eorvc	r7, pc, r5, ror #20
    11c0:	656a6f72 	strbvs	r6, [sl, #-3954]!	; 0xfffff08e
    11c4:	2f737463 	svccs	0x00737463
    11c8:	34317363 	ldrtcc	r7, [r1], #-867	; 0xfffffc9d
    11cc:	322d6530 	eorcc	r6, sp, #48, 10	; 0xc000000
    11d0:	72707331 	rsbsvc	r7, r0, #-1006632960	; 0xc4000000
    11d4:	62696c2f 	rsbvs	r6, r9, #12032	; 0x2f00
    11d8:	692f6970 	stmdbvs	pc!, {r4, r5, r6, r8, fp, sp, lr}	; <UNPREDICTABLE>
    11dc:	756c636e 	strbvc	r6, [ip, #-878]!	; 0xfffffc92
    11e0:	00006564 	andeq	r6, r0, r4, ror #10
    11e4:	63747570 	cmnvs	r4, #112, 10	; 0x1c000000
    11e8:	2e726168 	rpwcssz	f6, f2, #0.0
    11ec:	00010063 	andeq	r0, r1, r3, rrx
    11f0:	69707200 	ldmdbvs	r0!, {r9, ip, sp, lr}^
    11f4:	0200682e 	andeq	r6, r0, #3014656	; 0x2e0000
    11f8:	05000000 	streq	r0, [r0, #-0]
    11fc:	02050024 	andeq	r0, r5, #36, 0	; 0x24
    1200:	00008d38 	andeq	r8, r0, r8, lsr sp
    1204:	05010614 	streq	r0, [r1, #-1556]	; 0xfffff9ec
    1208:	054a0626 	strbeq	r0, [sl, #-1574]	; 0xfffff9da
    120c:	01052e34 	tsteq	r5, r4, lsr lr
    1210:	1b050106 	blne	141630 <__bss_end__+0x1382a0>
    1214:	05054f06 	streq	r4, [r5, #-3846]	; 0xfffff0fa
    1218:	06110513 			; <UNDEFINED> instruction: 0x06110513
    121c:	67010501 	strvs	r0, [r1, -r1, lsl #10]
    1220:	67062305 	strvs	r2, [r6, -r5, lsl #6]
    1224:	05130505 	ldreq	r0, [r3, #-1285]	; 0xfffffafb
    1228:	05010611 	streq	r0, [r1, #-1553]	; 0xfffff9ef
    122c:	04024b01 	streq	r4, [r2], #-2817	; 0xfffff4ff
    1230:	f2010100 	vrhadd.s8	d0, d1, d0
    1234:	03000000 	movweq	r0, #0
    1238:	00006700 	andeq	r6, r0, r0, lsl #14
    123c:	fb010200 	blx	41a46 <__bss_end__+0x386b6>
    1240:	01000d0e 	tsteq	r0, lr, lsl #26
    1244:	00010101 	andeq	r0, r1, r1, lsl #2
    1248:	00010000 	andeq	r0, r1, r0
    124c:	696c0100 	stmdbvs	ip!, {r8}^
    1250:	2f006362 	svccs	0x00006362
    1254:	72657355 	rsbvc	r7, r5, #1409286145	; 0x54000001
    1258:	64612f73 	strbtvs	r2, [r1], #-3955	; 0xfffff08d
    125c:	6e616972 			; <UNDEFINED> instruction: 0x6e616972
    1260:	7472616d 	ldrbtvc	r6, [r2], #-365	; 0xfffffe93
    1264:	7a656e69 	bvc	195cc10 <__bss_end__+0x1953880>
    1268:	6f72702f 	svcvs	0x0072702f
    126c:	7463656a 	strbtvc	r6, [r3], #-1386	; 0xfffffa96
    1270:	73632f73 	cmnvc	r3, #460	; 0x1cc
    1274:	65303431 	ldrvs	r3, [r0, #-1073]!	; 0xfffffbcf
    1278:	7331322d 	teqvc	r1, #-805306366	; 0xd0000002
    127c:	6c2f7270 	sfmvs	f7, 4, [pc], #-448	; 10c4 <__code_start__-0x6f3c>
    1280:	69706269 	ldmdbvs	r0!, {r0, r3, r5, r6, r9, sp, lr}^
    1284:	636e692f 	cmnvs	lr, #770048	; 0xbc000
    1288:	6564756c 	strbvs	r7, [r4, #-1388]!	; 0xfffffa94
    128c:	74730000 	ldrbtvc	r0, [r3], #-0
    1290:	74616372 	strbtvc	r6, [r1], #-882	; 0xfffffc8e
    1294:	0100632e 	tsteq	r0, lr, lsr #6
    1298:	70720000 	rsbsvc	r0, r2, r0
    129c:	00682e69 	rsbeq	r2, r8, r9, ror #28
    12a0:	00000002 	andeq	r0, r0, r2
    12a4:	05002c05 	streq	r2, [r0, #-3077]	; 0xfffff3fb
    12a8:	008d7402 	addeq	r7, sp, r2, lsl #8
    12ac:	05051500 	streq	r1, [r5, #-1280]	; 0xfffffb00
    12b0:	0b051313 	bleq	145f04 <__bss_end__+0x13cb74>
    12b4:	05051106 	streq	r1, [r5, #-262]	; 0xfffffefa
    12b8:	01040200 	mrseq	r0, R12_usr
    12bc:	02003006 	andeq	r3, r0, #6, 0
    12c0:	05150104 	ldreq	r0, [r5, #-260]	; 0xfffffefc
    12c4:	04020009 	streq	r0, [r2], #-9
    12c8:	10051301 	andne	r1, r5, r1, lsl #6
    12cc:	01040200 	mrseq	r0, R12_usr
    12d0:	0b052e06 	bleq	14caf0 <__bss_end__+0x143760>
    12d4:	01040200 	mrseq	r0, R12_usr
    12d8:	0402002e 	streq	r0, [r2], #-46	; 0xffffffd2
    12dc:	052f0601 	streq	r0, [pc, #-1537]!	; ce3 <__code_start__-0x731d>
    12e0:	04020005 	streq	r0, [r2], #-5
    12e4:	06010601 	streq	r0, [r1], -r1, lsl #12
    12e8:	0608054e 	streq	r0, [r8], -lr, asr #10
    12ec:	00050501 	andeq	r0, r5, r1, lsl #10
    12f0:	06010402 	streq	r0, [r1], -r2, lsl #8
    12f4:	0009052f 	andeq	r0, r9, pc, lsr #10
    12f8:	13010402 	movwne	r0, #5122	; 0x1402
    12fc:	02000b05 	andeq	r0, r0, #5120	; 0x1400
    1300:	01060104 	tsteq	r6, r4, lsl #2
    1304:	02000905 	andeq	r0, r0, #81920	; 0x14000
    1308:	4b060104 	blmi	181720 <__bss_end__+0x178390>
    130c:	02000f05 	andeq	r0, r0, #5, 30
    1310:	01060104 	tsteq	r6, r4, lsl #2
    1314:	02000d05 	andeq	r0, r0, #320	; 0x140
    1318:	2f060104 	svccs	0x00060104
    131c:	02000505 	andeq	r0, r0, #20971520	; 0x1400000
    1320:	01060104 	tsteq	r6, r4, lsl #2
    1324:	01000602 	tsteq	r0, r2, lsl #12
    1328:	00010901 	andeq	r0, r1, r1, lsl #18
    132c:	cd000300 	stcgt	3, cr0, [r0, #-0]
    1330:	02000000 	andeq	r0, r0, #0, 0
    1334:	0d0efb01 	vstreq	d15, [lr, #-4]
    1338:	01010100 	mrseq	r0, (UNDEF: 17)
    133c:	00000001 	andeq	r0, r0, r1
    1340:	01000001 	tsteq	r0, r1
    1344:	6362696c 	cmnvs	r2, #108, 18	; 0x1b0000
    1348:	73552f00 	cmpvc	r5, #0, 30
    134c:	2f737265 	svccs	0x00737265
    1350:	69726461 	ldmdbvs	r2!, {r0, r5, r6, sl, sp, lr}^
    1354:	616d6e61 	cmnvs	sp, r1, ror #28
    1358:	6e697472 	mcrvs	4, 3, r7, cr9, cr2, {3}
    135c:	702f7a65 	eorvc	r7, pc, r5, ror #20
    1360:	656a6f72 	strbvs	r6, [sl, #-3954]!	; 0xfffff08e
    1364:	2f737463 	svccs	0x00737463
    1368:	34317363 	ldrtcc	r7, [r1], #-867	; 0xfffffc9d
    136c:	322d6530 	eorcc	r6, sp, #48, 10	; 0xc000000
    1370:	72707331 	rsbsvc	r7, r0, #-1006632960	; 0xc4000000
    1374:	62696c2f 	rsbvs	r6, r9, #12032	; 0x2f00
    1378:	692f6970 	stmdbvs	pc!, {r4, r5, r6, r8, fp, sp, lr}	; <UNPREDICTABLE>
    137c:	756c636e 	strbvc	r6, [ip, #-878]!	; 0xfffffc92
    1380:	2f006564 	svccs	0x00006564
    1384:	2f727375 	svccs	0x00727375
    1388:	61636f6c 	cmnvs	r3, ip, ror #30
    138c:	65432f6c 	strbvs	r2, [r3, #-3948]	; 0xfffff094
    1390:	72616c6c 	rsbvc	r6, r1, #108, 24	; 0x6c00
    1394:	6d72612f 	ldfvse	f6, [r2, #-188]!	; 0xffffff44
    1398:	6e6f6e2d 	cdpvs	14, 6, cr6, cr15, cr13, {1}
    139c:	61652d65 	cmnvs	r5, r5, ror #26
    13a0:	742d6962 	strtvc	r6, [sp], #-2402	; 0xfffff69e
    13a4:	2f747365 	svccs	0x00747365
    13a8:	30322d39 	eorscc	r2, r2, r9, lsr sp
    13ac:	34713931 	ldrbtcc	r3, [r1], #-2353	; 0xfffff6cf
    13b0:	3173632d 	cmncc	r3, sp, lsr #6
    13b4:	2f653730 	svccs	0x00653730
    13b8:	2f62696c 	svccs	0x0062696c
    13bc:	2f636367 	svccs	0x00636367
    13c0:	2d6d7261 	sfmcs	f7, 2, [sp, #-388]!	; 0xfffffe7c
    13c4:	656e6f6e 	strbvs	r6, [lr, #-3950]!	; 0xfffff092
    13c8:	6261652d 	rsbvs	r6, r1, #188743680	; 0xb400000
    13cc:	2e392f69 	cdpcs	15, 3, cr2, cr9, cr9, {3}
    13d0:	2f312e32 	svccs	0x00312e32
    13d4:	6c636e69 	stclvs	14, cr6, [r3], #-420	; 0xfffffe5c
    13d8:	00656475 	rsbeq	r6, r5, r5, ror r4
    13dc:	72747300 	rsbsvc	r7, r4, #0, 6
    13e0:	706d636e 	rsbvc	r6, sp, lr, ror #6
    13e4:	0100632e 	tsteq	r0, lr, lsr #6
    13e8:	70720000 	rsbsvc	r0, r2, r0
    13ec:	00682e69 	rsbeq	r2, r8, r9, ror #28
    13f0:	73000002 	movwvc	r0, #2
    13f4:	65646474 	strbvs	r6, [r4, #-1140]!	; 0xfffffb8c
    13f8:	00682e66 	rsbeq	r2, r8, r6, ror #28
    13fc:	00000003 	andeq	r0, r0, r3
    1400:	05003905 	streq	r3, [r0, #-2309]	; 0xfffff6fb
    1404:	008da802 	addeq	sl, sp, r2, lsl #16
    1408:	05051500 	streq	r1, [r5, #-1280]	; 0xfffffb00
    140c:	0a051313 	beq	146060 <__bss_end__+0x13ccd0>
    1410:	4a010601 	bmi	42c1c <__bss_end__+0x3988c>
    1414:	2f060905 	svccs	0x00060905
    1418:	01060c05 	tsteq	r6, r5, lsl #24
    141c:	052e1305 	streq	r1, [lr, #-773]!	; 0xfffffcfb
    1420:	0d052e0b 	stceq	14, cr2, [r5, #-44]	; 0xffffffd4
    1424:	1b054b06 	blne	154044 <__bss_end__+0x14acb4>
    1428:	052e0106 	streq	r0, [lr, #-262]!	; 0xfffffefa
    142c:	0105300c 	tsteq	r5, ip
    1430:	0002022f 	andeq	r0, r2, pc, lsr #4
    1434:	Address 0x0000000000001434 is out of bounds.


Disassembly of section .debug_str:

00000000 <.debug_str>:
   0:	616c6564 	cmnvs	ip, r4, ror #10
   4:	79635f79 	stmdbvc	r3!, {r0, r3, r4, r5, r6, r8, r9, sl, fp, ip, lr}^
   8:	73656c63 	cmnvc	r5, #25344	; 0x6300
   c:	61727400 	cmnvs	r2, r0, lsl #8
  10:	735f6563 	cmpvc	pc, #415236096	; 0x18c00000
  14:	00706f74 	rsbseq	r6, r0, r4, ror pc
  18:	6573552f 	ldrbvs	r5, [r3, #-1327]!	; 0xfffffad1
  1c:	612f7372 			; <UNDEFINED> instruction: 0x612f7372
  20:	61697264 	cmnvs	r9, r4, ror #4
  24:	72616d6e 	rsbvc	r6, r1, #7040	; 0x1b80
  28:	656e6974 	strbvs	r6, [lr, #-2420]!	; 0xfffff68c
  2c:	72702f7a 	rsbsvc	r2, r0, #488	; 0x1e8
  30:	63656a6f 	cmnvs	r5, #454656	; 0x6f000
  34:	632f7374 			; <UNDEFINED> instruction: 0x632f7374
  38:	30343173 	eorscc	r3, r4, r3, ror r1
  3c:	31322d65 	teqcc	r2, r5, ror #26
  40:	2f727073 	svccs	0x00727073
  44:	7362616c 	cmnvc	r2, #27
  48:	632d322f 			; <UNDEFINED> instruction: 0x632d322f
  4c:	73736f72 	cmnvc	r3, #456	; 0x1c8
  50:	6568632d 	strbvs	r6, [r8, #-813]!	; 0xfffffcd3
  54:	322f6b63 	eorcc	r6, pc, #101376	; 0x18c00
  58:	6172742d 	cmnvs	r2, sp, lsr #8
  5c:	742f6563 	strtvc	r6, [pc], #-1379	; 64 <__code_start__-0x7f9c>
  60:	73747365 	cmnvc	r4, #-1811939327	; 0x94000001
  64:	6f727000 	svcvs	0x00727000
  68:	2d322d67 	ldccs	13, cr2, [r2, #-412]!	; 0xfffffe64
  6c:	6e696c62 	cdpvs	12, 6, cr6, cr9, cr2, {3}
  70:	00632e6b 	rsbeq	r2, r3, fp, ror #28
  74:	69736e75 	ldmdbvs	r3!, {r0, r2, r4, r5, r6, r9, sl, fp, sp, lr}^
  78:	64656e67 	strbtvs	r6, [r5], #-3687	; 0xfffff199
  7c:	61686320 	cmnvs	r8, r0, lsr #6
  80:	6c630072 	stclvs	0, cr0, [r3], #-456	; 0xfffffe38
  84:	5f6e6165 	svcpl	0x006e6165
  88:	6f626572 	svcvs	0x00626572
  8c:	7400746f 	strvc	r7, [r0], #-1135	; 0xfffffb91
  90:	65636172 	strbvs	r6, [r3, #-370]!	; 0xfffffe8e
  94:	6174735f 	cmnvs	r4, pc, asr r3
  98:	73007472 	movwvc	r7, #1138	; 0x472
  9c:	74726f68 	ldrbtvc	r6, [r2], #-3944	; 0xfffff098
  a0:	736e7520 	cmnvc	lr, #32, 10	; 0x8000000
  a4:	656e6769 	strbvs	r6, [lr, #-1897]!	; 0xfffff897
  a8:	6e692064 	cdpvs	0, 6, cr2, cr9, cr4, {3}
  ac:	70670074 	rsbvc	r0, r7, r4, ror r0
  b0:	735f6f69 	cmpvc	pc, #420	; 0x1a4
  b4:	6f5f7465 	svcvs	0x005f7465
  b8:	67006666 	strvs	r6, [r0, -r6, ror #12]
  bc:	5f6f6970 	svcpl	0x006f6970
  c0:	5f746573 	svcpl	0x00746573
  c4:	7074756f 	rsbsvc	r7, r4, pc, ror #10
  c8:	75007475 	strvc	r7, [r0, #-1141]	; 0xfffffb8b
  cc:	5f747261 	svcpl	0x00747261
  d0:	74696e69 	strbtvc	r6, [r9], #-3689	; 0xfffff197
  d4:	64656c00 	strbtvs	r6, [r5], #-3072	; 0xfffff400
  d8:	656c0031 	strbvs	r0, [ip, #-49]!	; 0xffffffcf
  dc:	6c003264 	sfmvs	f3, 4, [r0], {100}	; 0x64
  e0:	20676e6f 	rsbcs	r6, r7, pc, ror #28
  e4:	676e6f6c 	strbvs	r6, [lr, -ip, ror #30]!
  e8:	736e7520 	cmnvc	lr, #32, 10	; 0x8000000
  ec:	656e6769 	strbvs	r6, [lr, #-1897]!	; 0xfffff897
  f0:	6e692064 	cdpvs	0, 6, cr2, cr9, cr4, {3}
  f4:	6f6c0074 	svcvs	0x006c0074
  f8:	6c20676e 	stcvs	7, cr6, [r0], #-440	; 0xfffffe48
  fc:	20676e6f 	rsbcs	r6, r7, pc, ror #28
 100:	00746e69 	rsbseq	r6, r4, r9, ror #28
 104:	5f697072 	svcpl	0x00697072
 108:	63747570 	cmnvs	r4, #112, 10	; 0x1c000000
 10c:	00726168 	rsbseq	r6, r2, r8, ror #2
 110:	726f6873 	rsbvc	r6, pc, #7536640	; 0x730000
 114:	6e692074 	mcrvs	0, 3, r2, cr9, cr4, {3}
 118:	4e470074 	mcrmi	0, 2, r0, cr7, cr4, {3}
 11c:	39432055 	stmdbcc	r3, {r0, r2, r4, r6, sp}^
 120:	2e392039 	mrccs	0, 1, r2, cr9, cr9, {1}
 124:	20312e32 	eorscs	r2, r1, r2, lsr lr
 128:	39313032 	ldmdbcc	r1!, {r1, r4, r5, ip, sp}
 12c:	35323031 	ldrcc	r3, [r2, #-49]!	; 0xffffffcf
 130:	65722820 	ldrbvs	r2, [r2, #-2080]!	; 0xfffff7e0
 134:	7361656c 	cmnvc	r1, #108, 10	; 0x1b000000
 138:	5b202965 	blpl	80a6d4 <__bss_end__+0x801344>
 13c:	2f4d5241 	svccs	0x004d5241
 140:	2d6d7261 	sfmcs	f7, 2, [sp, #-388]!	; 0xfffffe7c
 144:	72622d39 	rsbvc	r2, r2, #3648	; 0xe40
 148:	68636e61 	stmdavs	r3!, {r0, r5, r6, r9, sl, fp, sp, lr}^
 14c:	76657220 	strbtvc	r7, [r5], -r0, lsr #4
 150:	6f697369 	svcvs	0x00697369
 154:	3732206e 	ldrcc	r2, [r2, -lr, rrx]!
 158:	39393537 	ldmdbcc	r9!, {r0, r1, r2, r4, r5, r8, sl, ip, sp}
 15c:	6d2d205d 	stcvs	0, cr2, [sp, #-372]!	; 0xfffffe8c
 160:	3d757063 	ldclcc	0, cr7, [r5, #-396]!	; 0xfffffe74
 164:	316d7261 	cmncc	sp, r1, ror #4
 168:	6a363731 	bvs	d8de34 <__bss_end__+0xd84aa4>
 16c:	732d667a 			; <UNDEFINED> instruction: 0x732d667a
 170:	746d2d20 	strbtvc	r2, [sp], #-3360	; 0xfffff2e0
 174:	3d656e75 	stclcc	14, cr6, [r5, #-468]!	; 0xfffffe2c
 178:	316d7261 	cmncc	sp, r1, ror #4
 17c:	6a363731 	bvs	d8de48 <__bss_end__+0xd84ab8>
 180:	732d667a 			; <UNDEFINED> instruction: 0x732d667a
 184:	666d2d20 	strbtvs	r2, [sp], -r0, lsr #26
 188:	74616f6c 	strbtvc	r6, [r1], #-3948	; 0xfffff094
 18c:	6962612d 	stmdbvs	r2!, {r0, r2, r3, r5, r8, sp, lr}^
 190:	666f733d 			; <UNDEFINED> instruction: 0x666f733d
 194:	6d2d2074 	stcvs	0, cr2, [sp, #-464]!	; 0xfffffe30
 198:	206d7261 	rsbcs	r7, sp, r1, ror #4
 19c:	72616d2d 	rsbvc	r6, r1, #2880	; 0xb40
 1a0:	613d6863 	teqvs	sp, r3, ror #16
 1a4:	36766d72 			; <UNDEFINED> instruction: 0x36766d72
 1a8:	2d207a6b 	vstmdbcs	r0!, {s14-s120}
 1ac:	62646767 	rsbvs	r6, r4, #27000832	; 0x19c0000
 1b0:	674f2d20 	strbvs	r2, [pc, -r0, lsr #26]
 1b4:	74732d20 	ldrbtvc	r2, [r3], #-3360	; 0xfffff2e0
 1b8:	6e673d64 	cdpvs	13, 6, cr3, cr7, cr4, {3}
 1bc:	20393975 	eorscs	r3, r9, r5, ror r9
 1c0:	7266662d 	rsbvc	r6, r6, #47185920	; 0x2d00000
 1c4:	74736565 	ldrbtvc	r6, [r3], #-1381	; 0xfffffa9b
 1c8:	69646e61 	stmdbvs	r4!, {r0, r5, r6, r9, sl, fp, sp, lr}^
 1cc:	6e00676e 	cdpvs	7, 0, cr6, cr0, cr14, {3}
 1d0:	616d746f 	cmnvs	sp, pc, ror #8
 1d4:	67006e69 	strvs	r6, [r0, -r9, ror #28]
 1d8:	5f6f6970 	svcpl	0x006f6970
 1dc:	5f746573 	svcpl	0x00746573
 1e0:	5f006e6f 	svcpl	0x00006e6f
 1e4:	6165725f 	cmnvs	r5, pc, asr r2
 1e8:	45475f6c 	strbmi	r5, [r7, #-3948]	; 0xfffff094
 1ec:	00323354 	eorseq	r3, r2, r4, asr r3
 1f0:	74617473 	strbtvc	r7, [r1], #-1139	; 0xfffffb8d
 1f4:	6d650065 	stclvs	0, cr0, [r5, #-404]!	; 0xfffffe6c
 1f8:	675f7469 	ldrbvs	r7, [pc, -r9, ror #8]
 1fc:	32337465 	eorscc	r7, r3, #1694498816	; 0x65000000
 200:	696d6500 	stmdbvs	sp!, {r8, sl, sp, lr}^
 204:	75705f74 	ldrbvc	r5, [r0, #-3956]!	; 0xfffff08c
 208:	00323374 	eorseq	r3, r2, r4, ror r3
 20c:	72775f5f 	rsbsvc	r5, r7, #380	; 0x17c
 210:	505f7061 	subspl	r7, pc, r1, rrx
 214:	32335455 	eorscc	r5, r3, #1426063360	; 0x55000000
 218:	41525400 	cmpmi	r2, r0, lsl #8
 21c:	4f5f4543 	svcmi	0x005f4543
 220:	6461004e 	strbtvs	r0, [r1], #-78	; 0xffffffb2
 224:	62007264 	andvs	r7, r0, #100, 4	; 0x40000006
 228:	65666675 	strbvs	r6, [r6, #-1653]!	; 0xfffff98b
 22c:	00705f72 	rsbseq	r5, r0, r2, ror pc
 230:	55465f5f 	strbpl	r5, [r6, #-3935]	; 0xfffff0a1
 234:	4954434e 	ldmdbmi	r4, {r1, r2, r3, r6, r8, r9, lr}^
 238:	5f5f4e4f 	svcpl	0x005f4e4f
 23c:	725f5f00 	subsvc	r5, pc, #0, 30
 240:	5f6c6165 	svcpl	0x006c6165
 244:	33545550 	cmpcc	r4, #80, 10	; 0x14000000
 248:	5f5f0032 	svcpl	0x005f0032
 24c:	70617277 	rsbvc	r7, r1, r7, ror r2
 250:	5445475f 	strbpl	r4, [r5], #-1887	; 0xfffff8a1
 254:	74003233 	strvc	r3, [r0], #-563	; 0xfffffdcd
 258:	65636172 	strbvs	r6, [r3, #-370]!	; 0xfffffe8e
 25c:	6d69732d 	stclvs	3, cr7, [r9, #-180]!	; 0xffffff4c
 260:	2e656c70 	mcrcs	12, 3, r6, cr5, cr0, {3}
 264:	52540063 	subspl	r0, r4, #99, 0	; 0x63
 268:	5f454341 	svcpl	0x00454341
 26c:	0046464f 	subeq	r4, r6, pc, asr #12
 270:	746e6975 	strbtvc	r6, [lr], #-2421	; 0xfffff68b
 274:	745f3233 	ldrbvc	r3, [pc], #-563	; 27c <__code_start__-0x7d84>
 278:	74697700 	strbtvc	r7, [r9], #-1792	; 0xfffff900
 27c:	5f6e6968 	svcpl	0x006e6968
 280:	6e697270 	mcrvs	2, 3, r7, cr9, cr0, {3}
 284:	6f5f6b74 	svcvs	0x005f6b74
 288:	61726570 	cmnvs	r2, r0, ror r5
 28c:	6e6f6974 			; <UNDEFINED> instruction: 0x6e6f6974
 290:	73552f00 	cmpvc	r5, #0, 30
 294:	2f737265 	svccs	0x00737265
 298:	69726461 	ldmdbvs	r2!, {r0, r5, r6, sl, sp, lr}^
 29c:	616d6e61 	cmnvs	sp, r1, ror #28
 2a0:	6e697472 	mcrvs	4, 3, r7, cr9, cr2, {3}
 2a4:	702f7a65 	eorvc	r7, pc, r5, ror #20
 2a8:	656a6f72 	strbvs	r6, [sl, #-3954]!	; 0xfffff08e
 2ac:	2f737463 	svccs	0x00737463
 2b0:	34317363 	ldrtcc	r7, [r1], #-867	; 0xfffffc9d
 2b4:	322d6530 	eorcc	r6, sp, #48, 10	; 0xc000000
 2b8:	72707331 	rsbsvc	r7, r0, #-1006632960	; 0xc4000000
 2bc:	62616c2f 	rsbvs	r6, r1, #12032	; 0x2f00
 2c0:	2d322f73 	ldccs	15, cr2, [r2, #-460]!	; 0xfffffe34
 2c4:	736f7263 	cmnvc	pc, #805306374	; 0x30000006
 2c8:	68632d73 	stmdavs	r3!, {r0, r1, r4, r5, r6, r8, sl, fp, sp}^
 2cc:	2f6b6365 	svccs	0x006b6365
 2d0:	72742d32 	rsbsvc	r2, r4, #3200	; 0xc80
 2d4:	00656361 	rsbeq	r6, r5, r1, ror #6
 2d8:	43415254 	movtmi	r5, #4692	; 0x1254
 2dc:	4b535f45 	blmi	14d7ff8 <__bss_end__+0x14cec68>
 2e0:	61005049 	tstvs	r0, r9, asr #32
 2e4:	00736772 	rsbseq	r6, r3, r2, ror r7
 2e8:	705f6176 	subsvc	r6, pc, r6, ror r1	; <UNPREDICTABLE>
 2ec:	746e6972 	strbtvc	r6, [lr], #-2418	; 0xfffff68e
 2f0:	5f5f006b 	svcpl	0x005f006b
 2f4:	63756e67 	cmnvs	r5, #1648	; 0x670
 2f8:	5f61765f 	svcpl	0x0061765f
 2fc:	7473696c 	ldrbtvc	r6, [r3], #-2412	; 0xfffff694
 300:	62696c00 	rsbvs	r6, r9, #0, 24
 304:	72702f63 	rsbsvc	r2, r0, #396	; 0x18c
 308:	6b746e69 	blvs	1d1bcb4 <__bss_end__+0x1d12924>
 30c:	5f00632e 	svcpl	0x0000632e
 310:	0070615f 	rsbseq	r6, r0, pc, asr r1
 314:	61765f5f 	cmnvs	r6, pc, asr pc
 318:	73696c5f 	cmnvc	r9, #24320	; 0x5f00
 31c:	552f0074 	strpl	r0, [pc, #-116]!	; 2b0 <__code_start__-0x7d50>
 320:	73726573 	cmnvc	r2, #482344960	; 0x1cc00000
 324:	7264612f 	rsbvc	r6, r4, #-1073741813	; 0xc000000b
 328:	6d6e6169 	stfvse	f6, [lr, #-420]!	; 0xfffffe5c
 32c:	69747261 	ldmdbvs	r4!, {r0, r5, r6, r9, ip, sp, lr}^
 330:	2f7a656e 	svccs	0x007a656e
 334:	6a6f7270 	bvs	1bdccfc <__bss_end__+0x1bd396c>
 338:	73746365 	cmnvc	r4, #-1811939327	; 0x94000001
 33c:	3173632f 	cmncc	r3, pc, lsr #6
 340:	2d653034 	stclcs	0, cr3, [r5, #-208]!	; 0xffffff30
 344:	70733132 	rsbsvc	r3, r3, r2, lsr r1
 348:	696c2f72 	stmdbvs	ip!, {r1, r4, r5, r6, r8, r9, sl, fp, sp}^
 34c:	00697062 	rsbeq	r7, r9, r2, rrx
 350:	65746e69 	ldrbvs	r6, [r4, #-3689]!	; 0xfffff197
 354:	6c616e72 	stclvs	14, cr6, [r1], #-456	; 0xfffffe38
 358:	7475705f 	ldrbtvc	r7, [r5], #-95	; 0xffffffa1
 35c:	696c006b 	stmdbvs	ip!, {r0, r1, r3, r5, r6}^
 360:	702f6362 	eorvc	r6, pc, r2, ror #6
 364:	2e6b7475 	mcrcs	4, 3, r7, cr11, cr5, {3}
 368:	73690063 	cmnvc	r9, #99, 0	; 0x63
 36c:	69676964 	stmdbvs	r7!, {r2, r5, r6, r8, fp, sp, lr}^
 370:	69750074 	ldmdbvs	r5!, {r2, r4, r5, r6}^
 374:	3436746e 	ldrtcc	r7, [r6], #-1134	; 0xfffffb92
 378:	5f00745f 	svcpl	0x0000745f
 37c:	646f635f 	strbtvs	r6, [pc], #-863	; 384 <__code_start__-0x7c7c>
 380:	74735f65 	ldrbtvc	r5, [r3], #-3941	; 0xfffff09b
 384:	5f747261 	svcpl	0x00747261
 388:	5f5f005f 	svcpl	0x005f005f
 38c:	5f737362 	svcpl	0x00737362
 390:	72617473 	rsbvc	r7, r1, #1929379840	; 0x73000000
 394:	005f5f74 	subseq	r5, pc, r4, ror pc	; <UNPREDICTABLE>
 398:	74646977 	strbtvc	r6, [r4], #-2423	; 0xfffff689
 39c:	5f5f0068 	svcpl	0x005f0068
 3a0:	61746164 	cmnvs	r4, r4, ror #2
 3a4:	646e655f 	strbtvs	r6, [lr], #-1375	; 0xfffffaa1
 3a8:	70005f5f 	andvc	r5, r0, pc, asr pc
 3ac:	5f637475 	svcpl	0x00637475
 3b0:	5f007066 	svcpl	0x00007066
 3b4:	7373625f 	cmnvc	r3, #-268435451	; 0xf0000005
 3b8:	646e655f 	strbtvs	r6, [lr], #-1375	; 0xfffffaa1
 3bc:	5f005f5f 	svcpl	0x00005f5f
 3c0:	6165685f 	cmnvs	r5, pc, asr r8
 3c4:	74735f70 	ldrbtvc	r5, [r3], #-3952	; 0xfffff090
 3c8:	5f747261 	svcpl	0x00747261
 3cc:	7072005f 	rsbsvc	r0, r2, pc, asr r0
 3d0:	65735f69 	ldrbvs	r5, [r3, #-3945]!	; 0xfffff097
 3d4:	756f5f74 	strbvc	r5, [pc, #-3956]!	; fffff468 <__bss_end__+0xffff60d8>
 3d8:	74757074 	ldrbtvc	r7, [r5], #-116	; 0xffffff8c
 3dc:	746d6600 	strbtvc	r6, [sp], #-1536	; 0xfffffa00
 3e0:	6174735f 	cmnvs	r4, pc, asr r3
 3e4:	6c007472 	cfstrsvs	mvf7, [r0], {114}	; 0x72
 3e8:	2f636269 	svccs	0x00636269
 3ec:	702d6176 	eorvc	r6, sp, r6, ror r1
 3f0:	746e6972 	strbtvc	r6, [lr], #-2418	; 0xfffff68e
 3f4:	00632e6b 	rsbeq	r2, r3, fp, ror #28
 3f8:	63727473 	cmnvs	r2, #1929379840	; 0x73000000
 3fc:	6e007461 	cdpvs	4, 0, cr7, cr0, cr1, {3}
 400:	705f6765 	subsvc	r6, pc, r5, ror #14
 404:	635f5f00 	cmpvs	pc, #0, 30
 408:	5f65646f 	svcpl	0x0065646f
 40c:	5f646e65 	svcpl	0x00646e65
 410:	6d65005f 	stclvs	0, cr0, [r5, #-380]!	; 0xfffffe84
 414:	70007469 	andvc	r7, r0, r9, ror #8
 418:	5f737475 	svcpl	0x00737475
 41c:	72007066 	andvc	r7, r0, #102, 0	; 0x66
 420:	72657665 	rsbvc	r7, r5, #105906176	; 0x6500000
 424:	5f006573 	svcpl	0x00006573
 428:	7461645f 	strbtvc	r6, [r1], #-1119	; 0xfffffba1
 42c:	74735f61 	ldrbtvc	r5, [r3], #-3937	; 0xfffff09f
 430:	5f747261 	svcpl	0x00747261
 434:	5f5f005f 	svcpl	0x005f005f
 438:	676f7270 			; <UNDEFINED> instruction: 0x676f7270
 43c:	646e655f 	strbtvs	r6, [lr], #-1375	; 0xfffffaa1
 440:	6e005f5f 	mcrvs	15, 0, r5, cr0, cr15, {2}
 444:	00316d75 	eorseq	r6, r1, r5, ror sp
 448:	6e727473 	mrcvs	4, 3, r7, cr2, cr3, {3}
 44c:	00706d63 	rsbseq	r6, r0, r3, ror #26
 450:	65736162 	ldrbvs	r6, [r3, #-354]!	; 0xfffffe9e
 454:	67697300 	strbvs	r7, [r9, -r0, lsl #6]!
 458:	5f64656e 	svcpl	0x0064656e
 45c:	70720070 	rsbsvc	r0, r2, r0, ror r0
 460:	65725f69 	ldrbvs	r5, [r2, #-3945]!	; 0xfffff097
 464:	746f6f62 	strbtvc	r6, [pc], #-3938	; 46c <__code_start__-0x7b94>
 468:	6c656400 	cfstrdvs	mvd6, [r5], #-0
 46c:	6d5f7961 	vldrvs.16	s15, [pc, #-194]	; 3b2 <__code_start__-0x7c4e>	; <UNPREDICTABLE>
 470:	74730073 	ldrbtvc	r0, [r3], #-115	; 0xffffff8d
 474:	2d666661 	stclcs	6, cr6, [r6, #-388]!	; 0xfffffe7c
 478:	2f637273 	svccs	0x00637273
 47c:	61656c63 	cmnvs	r5, r3, ror #24
 480:	65722d6e 	ldrbvs	r2, [r2, #-3438]!	; 0xfffff292
 484:	746f6f62 	strbtvc	r6, [pc], #-3938	; 48c <__code_start__-0x7b74>
 488:	7500632e 	strvc	r6, [r0, #-814]	; 0xfffffcd2
 48c:	5f747261 	svcpl	0x00747261
 490:	73756c66 	cmnvc	r5, #26112	; 0x6600
 494:	78745f68 	ldmdavc	r4!, {r3, r5, r6, r8, r9, sl, fp, ip, lr}^
 498:	73635f00 	cmnvc	r3, #0, 30
 49c:	74726174 	ldrbtvc	r6, [r2], #-372	; 0xfffffe8c
 4a0:	73736200 	cmnvc	r3, #0, 4
 4a4:	646e655f 	strbtvs	r6, [lr], #-1375	; 0xfffffaa1
 4a8:	73756300 	cmnvc	r5, #0, 6
 4ac:	5f6d6f74 	svcpl	0x006d6f74
 4b0:	64616f6c 	strbtvs	r6, [r1], #-3948	; 0xfffff094
 4b4:	73007265 	movwvc	r7, #613	; 0x265
 4b8:	66666174 			; <UNDEFINED> instruction: 0x66666174
 4bc:	6372732d 	cmnvs	r2, #-1275068416	; 0xb4000000
 4c0:	7473632f 	ldrbtvc	r6, [r3], #-815	; 0xfffffcd1
 4c4:	2e747261 	cdpcs	2, 7, cr7, cr4, cr1, {3}
 4c8:	74730063 	ldrbtvc	r0, [r3], #-99	; 0xffffff9d
 4cc:	2d666661 	stclcs	6, cr6, [r6, #-388]!	; 0xfffffe7c
 4d0:	2f637273 	svccs	0x00637273
 4d4:	74737563 	ldrbtvc	r7, [r3], #-1379	; 0xfffffa9d
 4d8:	6c2d6d6f 	stcvs	13, cr6, [sp], #-444	; 0xfffffe44
 4dc:	6564616f 	strbvs	r6, [r4, #-367]!	; 0xfffffe91
 4e0:	00632e72 	rsbeq	r2, r3, r2, ror lr
 4e4:	575f4d50 			; <UNDEFINED> instruction: 0x575f4d50
 4e8:	00474f44 	subeq	r4, r7, r4, asr #30
 4ec:	5f746573 	svcpl	0x00746573
 4f0:	72657375 	rsbvc	r7, r5, #-738197503	; 0xd4000001
 4f4:	76656c5f 			; <UNDEFINED> instruction: 0x76656c5f
 4f8:	50006c65 	andpl	r6, r0, r5, ror #24
 4fc:	41505f4d 	cmpmi	r0, sp, asr #30
 500:	4f575353 	svcmi	0x00575353
 504:	61004452 	tstvs	r0, r2, asr r4
 508:	73755f74 	cmnvc	r5, #116, 30	; 0x1d0
 50c:	6c5f7265 	lfmvs	f7, 2, [pc], {101}	; 0x65
 510:	6c657665 	stclvs	6, cr7, [r5], #-404	; 0xfffffe6c
 514:	61747300 	cmnvs	r4, r0, lsl #6
 518:	732d6666 			; <UNDEFINED> instruction: 0x732d6666
 51c:	722f6372 	eorvc	r6, pc, #-939524095	; 0xc8000001
 520:	6f6f6265 	svcvs	0x006f6265
 524:	00632e74 	rsbeq	r2, r3, r4, ror lr
 528:	525f4d50 	subspl	r4, pc, #80, 26	; 0x1400
 52c:	00435453 	subeq	r5, r3, r3, asr r4
 530:	72737063 	rsbsvc	r7, r3, #99, 0	; 0x63
 534:	5f4d5000 	svcpl	0x004d5000
 538:	43545352 	cmpmi	r4, #1207959553	; 0x48000001
 53c:	4352575f 	cmpmi	r2, #24903680	; 0x17c0000
 540:	465f4746 	ldrbmi	r4, [pc], -r6, asr #14
 544:	5f4c4c55 	svcpl	0x004c4c55
 548:	45534552 	ldrbmi	r4, [r3, #-1362]	; 0xfffffaae
 54c:	65640054 	strbvs	r0, [r4, #-84]!	; 0xffffffac
 550:	61625f76 	smcvs	9718	; 0x25f6
 554:	65697272 	strbvs	r7, [r9, #-626]!	; 0xfffffd8e
 558:	69740072 	ldmdbvs	r4!, {r1, r4, r5, r6}^
 55c:	00736b63 	rsbseq	r6, r3, r3, ror #22
 560:	616c6564 	cmnvs	ip, r4, ror #10
 564:	65735f79 	ldrbvs	r5, [r3, #-3961]!	; 0xfffff087
 568:	69740063 	ldmdbvs	r4!, {r0, r1, r5, r6}^
 56c:	5f72656d 	svcpl	0x0072656d
 570:	5f746567 	svcpl	0x00746567
 574:	63657375 	cmnvs	r5, #-738197503	; 0xd4000001
 578:	6c656400 	cfstrdvs	mvd6, [r5], #-0
 57c:	755f7961 	ldrbvc	r7, [pc, #-2401]	; fffffc23 <__bss_end__+0xffff6893>
 580:	69740073 	ldmdbvs	r4!, {r0, r1, r4, r5, r6}^
 584:	5f72656d 	svcpl	0x0072656d
 588:	5f746567 	svcpl	0x00746567
 58c:	63657375 	cmnvs	r5, #-738197503	; 0xd4000001
 590:	7761725f 			; <UNDEFINED> instruction: 0x7761725f
 594:	61747300 	cmnvs	r4, r0, lsl #6
 598:	732d6666 			; <UNDEFINED> instruction: 0x732d6666
 59c:	742f6372 	strtvc	r6, [pc], #-882	; 5a4 <__code_start__-0x7a5c>
 5a0:	72656d69 	rsbvc	r6, r5, #6720	; 0x1a40
 5a4:	7500632e 	strvc	r6, [r0, #-814]	; 0xfffffcd2
 5a8:	5f747261 	svcpl	0x00747261
 5ac:	63747570 	cmnvs	r4, #112, 10	; 0x1c000000
 5b0:	61747300 	cmnvs	r4, r0, lsl #6
 5b4:	61750074 	cmnvs	r5, r4, ror r0
 5b8:	635f7472 	cmpvs	pc, #1912602624	; 0x72000000
 5bc:	675f6e61 	ldrbvs	r6, [pc, -r1, ror #28]
 5c0:	00637465 	rsbeq	r7, r3, r5, ror #8
 5c4:	4f495047 	svcmi	0x00495047
 5c8:	4e55465f 	mrcmi	6, 2, r4, cr5, cr15, {2}
 5cc:	554f5f43 	strbpl	r5, [pc, #-3907]	; fffff691 <__bss_end__+0xffff6301>
 5d0:	54555054 	ldrbpl	r5, [r5], #-84	; 0xffffffac
 5d4:	78756100 	ldmdavc	r5!, {r8, sp, lr}^
 5d8:	7265705f 	rsbvc	r7, r5, #95, 0	; 0x5f
 5dc:	73687069 	cmnvc	r8, #105, 0	; 0x69
 5e0:	72617500 	rsbvc	r7, r1, #0, 10
 5e4:	00632e74 	rsbeq	r2, r3, r4, ror lr
 5e8:	74726175 	ldrbtvc	r6, [r2], #-373	; 0xfffffe8b
 5ec:	6e61635f 	mcrvs	3, 3, r6, cr1, cr15, {2}
 5f0:	7475705f 	ldrbtvc	r7, [r5], #-95	; 0xffffffa1
 5f4:	682f0063 	stmdavs	pc!, {r0, r1, r5, r6}	; <UNPREDICTABLE>
 5f8:	2f656d6f 	svccs	0x00656d6f
 5fc:	6c676e65 	stclvs	14, cr6, [r7], #-404	; 0xfffffe6c
 600:	632f7265 			; <UNDEFINED> instruction: 0x632f7265
 604:	7373616c 	cmnvc	r3, #27
 608:	3173632f 	cmncc	r3, pc, lsr #6
 60c:	2d653034 	stclcs	0, cr3, [r5, #-208]!	; 0xffffff30
 610:	70733132 	rsbsvc	r3, r3, r2, lsr r1
 614:	696c2f72 	stmdbvs	ip!, {r1, r4, r5, r6, r8, r9, sl, fp, sp}^
 618:	2f697062 	svccs	0x00697062
 61c:	66617473 			; <UNDEFINED> instruction: 0x66617473
 620:	72702d66 	rsbsvc	r2, r0, #6528	; 0x1980
 624:	74617669 	strbtvc	r7, [r1], #-1641	; 0xfffff997
 628:	50470065 	subpl	r0, r7, r5, rrx
 62c:	465f4f49 	ldrbmi	r4, [pc], -r9, asr #30
 630:	5f434e55 	svcpl	0x00434e55
 634:	30544c41 	subscc	r4, r4, r1, asr #24
 638:	49504700 	ldmdbmi	r0, {r8, r9, sl, lr}^
 63c:	55465f4f 	strbpl	r5, [r6, #-3919]	; 0xfffff0b1
 640:	415f434e 	cmpmi	pc, lr, asr #6
 644:	0031544c 	eorseq	r5, r1, ip, asr #8
 648:	4f495047 	svcmi	0x00495047
 64c:	4e55465f 	mrcmi	6, 2, r4, cr5, cr15, {2}
 650:	4c415f43 	mcrrmi	15, 4, r5, r1, cr3
 654:	47003254 	smlsdmi	r0, r4, r2, r3
 658:	5f4f4950 	svcpl	0x004f4950
 65c:	434e5546 	movtmi	r5, #58694	; 0xe546
 660:	544c415f 	strbpl	r4, [ip], #-351	; 0xfffffea1
 664:	50470033 	subpl	r0, r7, r3, lsr r0
 668:	465f4f49 	ldrbmi	r4, [pc], -r9, asr #30
 66c:	5f434e55 	svcpl	0x00434e55
 670:	35544c41 	ldrbcc	r4, [r4, #-3137]	; 0xfffff3bf
 674:	75616200 	strbvc	r6, [r1, #-512]!	; 0xfffffe00
 678:	75610064 	strbvc	r0, [r1, #-100]!	; 0xffffff9c
 67c:	6e655f78 	mcrvs	15, 3, r5, cr5, cr8, {3}
 680:	656c6261 	strbvs	r6, [ip, #-609]!	; 0xfffffd9f
 684:	61750073 	cmnvs	r5, r3, ror r0
 688:	675f7472 			; <UNDEFINED> instruction: 0x675f7472
 68c:	00637465 	rsbeq	r7, r3, r5, ror #8
 690:	74726175 	ldrbtvc	r6, [r2], #-373	; 0xfffffe8b
 694:	5f78745f 	svcpl	0x0078745f
 698:	655f7369 	ldrbvs	r7, [pc, #-873]	; 337 <__code_start__-0x7cc9>
 69c:	7974706d 	ldmdbvc	r4!, {r0, r2, r3, r5, r6, ip, sp, lr}^
 6a0:	75616200 	strbvc	r6, [r1, #-512]!	; 0xfffffe00
 6a4:	61765f64 	cmnvs	r6, r4, ror #30
 6a8:	6e63006c 	cdpvs	0, 6, cr0, cr3, cr12, {3}
 6ac:	75006c74 	strvc	r6, [r0, #-3188]	; 0xfffff38c
 6b0:	5f747261 	svcpl	0x00747261
 6b4:	5f736168 	svcpl	0x00736168
 6b8:	61746164 	cmnvs	r4, r4, ror #2
 6bc:	49504700 	ldmdbmi	r0, {r8, r9, sl, lr}^
 6c0:	55465f4f 	strbpl	r5, [r6, #-3919]	; 0xfffff0b1
 6c4:	415f434e 	cmpmi	pc, lr, asr #6
 6c8:	0034544c 	eorseq	r5, r4, ip, asr #8
 6cc:	695f726f 	ldmdbvs	pc, {r0, r1, r2, r3, r5, r6, r9, ip, sp, lr}^	; <UNPREDICTABLE>
 6d0:	0032336e 	eorseq	r3, r2, lr, ror #6
 6d4:	61726373 	cmnvs	r2, r3, ror r3
 6d8:	00686374 	rsbeq	r6, r8, r4, ror r3
 6dc:	74726175 	ldrbtvc	r6, [r2], #-373	; 0xfffffe8b
 6e0:	49504700 	ldmdbmi	r0, {r8, r9, sl, lr}^
 6e4:	55465f4f 	strbpl	r5, [r6, #-3919]	; 0xfffff0b1
 6e8:	495f434e 	ldmdbmi	pc, {r1, r2, r3, r6, r8, r9, lr}^	; <UNPREDICTABLE>
 6ec:	5455504e 	ldrbpl	r5, [r5], #-78	; 0xffffffb2
 6f0:	69706700 	ldmdbvs	r0!, {r8, r9, sl, sp, lr}^
 6f4:	65735f6f 	ldrbvs	r5, [r3, #-3951]!	; 0xfffff091
 6f8:	75665f74 	strbvc	r5, [r6, #-3956]!	; 0xfffff08c
 6fc:	6974636e 	ldmdbvs	r4!, {r1, r2, r3, r5, r6, r8, r9, sp, lr}^
 700:	67006e6f 	strvs	r6, [r0, -pc, ror #28]
 704:	5f6f6970 	svcpl	0x006f6970
 708:	30726c63 	rsbscc	r6, r2, r3, ror #24
 70c:	69687300 	stmdbvs	r8!, {r8, r9, ip, sp, lr}^
 710:	67007466 	strvs	r7, [r0, -r6, ror #8]
 714:	5f6f6970 	svcpl	0x006f6970
 718:	30746573 	rsbscc	r6, r4, r3, ror r5
 71c:	72756300 	rsbsvc	r6, r5, #0, 6
 720:	746e6572 	strbtvc	r6, [lr], #-1394	; 0xfffffa8e
 724:	69706700 	ldmdbvs	r0!, {r8, r9, sl, sp, lr}^
 728:	72775f6f 	rsbsvc	r5, r7, #444	; 0x1bc
 72c:	00657469 	rsbeq	r7, r5, r9, ror #8
 730:	6f697067 	svcvs	0x00697067
 734:	6165725f 	cmnvs	r5, pc, asr r2
 738:	70670064 	rsbvc	r0, r7, r4, rrx
 73c:	735f6f69 	cmpvc	pc, #420	; 0x1a4
 740:	695f7465 	ldmdbvs	pc, {r0, r2, r5, r6, sl, ip, sp, lr}^	; <UNPREDICTABLE>
 744:	7475706e 	ldrbtvc	r7, [r5], #-110	; 0xffffff92
 748:	69706700 	ldmdbvs	r0!, {r8, r9, sl, sp, lr}^
 74c:	75665f6f 	strbvc	r5, [r6, #-3951]!	; 0xfffff091
 750:	745f636e 	ldrbvc	r6, [pc], #-878	; 758 <__code_start__-0x78a8>
 754:	64646100 	strbtvs	r6, [r4], #-256	; 0xffffff00
 758:	73736572 	cmnvc	r3, #478150656	; 0x1c800000
 75c:	69706700 	ldmdbvs	r0!, {r8, r9, sl, sp, lr}^
 760:	656c5f6f 	strbvs	r5, [ip, #-3951]!	; 0xfffff091
 764:	67003076 	smlsdxvs	r0, r6, r0, r3
 768:	5f6f6970 	svcpl	0x006f6970
 76c:	306c6573 	rsbcc	r6, ip, r3, ror r5
 770:	63727300 	cmnvs	r2, #0, 6
 774:	6970672f 	ldmdbvs	r0!, {r0, r1, r2, r3, r5, r8, r9, sl, sp, lr}^
 778:	00632e6f 	rsbeq	r2, r3, pc, ror #28
 77c:	65746e69 	ldrbvs	r6, [r4, #-3689]!	; 0xfffff197
 780:	6c616e72 	stclvs	14, cr6, [r1], #-456	; 0xfffffe38
 784:	7475705f 	ldrbtvc	r7, [r5], #-95	; 0xffffffa1
 788:	72616863 	rsbvc	r6, r1, #6488064	; 0x630000
 78c:	69707200 	ldmdbvs	r0!, {r9, ip, sp, lr}^
 790:	7465735f 	strbtvc	r7, [r5], #-863	; 0xfffffca1
 794:	7475705f 	ldrbtvc	r7, [r5], #-95	; 0xffffffa1
 798:	696c0063 	stmdbvs	ip!, {r0, r1, r5, r6}^
 79c:	702f6362 	eorvc	r6, pc, r2, ror #6
 7a0:	68637475 	stmdavs	r3!, {r0, r2, r4, r5, r6, sl, ip, sp, lr}^
 7a4:	632e7261 			; <UNDEFINED> instruction: 0x632e7261
 7a8:	69707200 	ldmdbvs	r0!, {r9, ip, sp, lr}^
 7ac:	7365725f 	cmnvc	r5, #-268435451	; 0xf0000005
 7b0:	705f7465 	subsvc	r7, pc, r5, ror #8
 7b4:	00637475 	rsbeq	r7, r3, r5, ror r4
 7b8:	6362696c 	cmnvs	r2, #108, 18	; 0x1b0000
 7bc:	7274732f 	rsbsvc	r7, r4, #-1140850688	; 0xbc000000
 7c0:	2e746163 	rpwcssz	f6, f4, f3
 7c4:	65640063 	strbvs	r0, [r4, #-99]!	; 0xffffff9d
 7c8:	73007473 	movwvc	r7, #1139	; 0x473
 7cc:	5f657a69 	svcpl	0x00657a69
 7d0:	696c0074 	stmdbvs	ip!, {r2, r4, r5, r6}^
 7d4:	732f6362 			; <UNDEFINED> instruction: 0x732f6362
 7d8:	636e7274 	cmnvs	lr, #116, 4	; 0x40000007
 7dc:	632e706d 			; <UNDEFINED> instruction: 0x632e706d
	...

Disassembly of section .debug_frame:

00000000 <.debug_frame>:
   0:	0000000c 	andeq	r0, r0, ip
   4:	ffffffff 			; <UNDEFINED> instruction: 0xffffffff
   8:	7c020001 	stcvc	0, cr0, [r2], {1}
   c:	000d0c0e 	andeq	r0, sp, lr, lsl #24
  10:	00000018 	andeq	r0, r0, r8, lsl r0
  14:	00000000 	andeq	r0, r0, r0
  18:	00008034 	andeq	r8, r0, r4, lsr r0
  1c:	00000074 	andeq	r0, r0, r4, ror r0
  20:	84100e42 	ldrhi	r0, [r0], #-3650	; 0xfffff1be
  24:	86038504 	strhi	r8, [r3], -r4, lsl #10
  28:	00018e02 	andeq	r8, r1, r2, lsl #28
  2c:	0000000c 	andeq	r0, r0, ip
  30:	ffffffff 			; <UNDEFINED> instruction: 0xffffffff
  34:	7c020001 	stcvc	0, cr0, [r2], {1}
  38:	000d0c0e 	andeq	r0, sp, lr, lsl #24
  3c:	00000014 	andeq	r0, r0, r4, lsl r0
  40:	0000002c 	andeq	r0, r0, ip, lsr #32
  44:	000080a8 	andeq	r8, r0, r8, lsr #1
  48:	0000001c 	andeq	r0, r0, ip, lsl r0
  4c:	84080e42 	strhi	r0, [r8], #-3650	; 0xfffff1be
  50:	00018e02 	andeq	r8, r1, r2, lsl #28
  54:	00000014 	andeq	r0, r0, r4, lsl r0
  58:	0000002c 	andeq	r0, r0, ip, lsr #32
  5c:	000080c4 	andeq	r8, r0, r4, asr #1
  60:	0000001c 	andeq	r0, r0, ip, lsl r0
  64:	84080e42 	strhi	r0, [r8], #-3650	; 0xfffff1be
  68:	00018e02 	andeq	r8, r1, r2, lsl #28
  6c:	00000014 	andeq	r0, r0, r4, lsl r0
  70:	0000002c 	andeq	r0, r0, ip, lsr #32
  74:	000080e0 	andeq	r8, r0, r0, ror #1
  78:	0000005c 	andeq	r0, r0, ip, asr r0
  7c:	8e040e52 	mcrhi	14, 0, r0, cr4, cr2, {2}
  80:	100e4201 	andne	r4, lr, r1, lsl #4
  84:	00000014 	andeq	r0, r0, r4, lsl r0
  88:	0000002c 	andeq	r0, r0, ip, lsr #32
  8c:	0000813c 	andeq	r8, r0, ip, lsr r1
  90:	0000005c 	andeq	r0, r0, ip, asr r0
  94:	8e040e52 	mcrhi	14, 0, r0, cr4, cr2, {2}
  98:	100e4201 	andne	r4, lr, r1, lsl #4
  9c:	00000018 	andeq	r0, r0, r8, lsl r0
  a0:	0000002c 	andeq	r0, r0, ip, lsr #32
  a4:	00008198 	muleq	r0, r8, r1
  a8:	00000060 	andeq	r0, r0, r0, rrx
  ac:	84100e42 	ldrhi	r0, [r0], #-3650	; 0xfffff1be
  b0:	86038504 	strhi	r8, [r3], -r4, lsl #10
  b4:	00018e02 	andeq	r8, r1, r2, lsl #28
  b8:	00000018 	andeq	r0, r0, r8, lsl r0
  bc:	0000002c 	andeq	r0, r0, ip, lsr #32
  c0:	000081f8 	strdeq	r8, [r0], -r8	; <UNPREDICTABLE>
  c4:	00000064 	andeq	r0, r0, r4, rrx
  c8:	84100e42 	ldrhi	r0, [r0], #-3650	; 0xfffff1be
  cc:	86038504 	strhi	r8, [r3], -r4, lsl #10
  d0:	00018e02 	andeq	r8, r1, r2, lsl #28
  d4:	0000000c 	andeq	r0, r0, ip
  d8:	ffffffff 			; <UNDEFINED> instruction: 0xffffffff
  dc:	7c020001 	stcvc	0, cr0, [r2], {1}
  e0:	000d0c0e 	andeq	r0, sp, lr, lsl #24
  e4:	00000034 	andeq	r0, r0, r4, lsr r0
  e8:	000000d4 	ldrdeq	r0, [r0], -r4
  ec:	0000825c 	andeq	r8, r0, ip, asr r2
  f0:	00000058 	andeq	r0, r0, r8, asr r0
  f4:	80100e42 	andshi	r0, r0, r2, asr #28
  f8:	82038104 	andhi	r8, r3, #1
  fc:	42018302 	andmi	r8, r1, #134217728	; 0x8000000
 100:	07841c0e 	streq	r1, [r4, lr, lsl #24]
 104:	058e0685 	streq	r0, [lr, #1669]	; 0x685
 108:	5c280e42 	stcpl	14, cr0, [r8], #-264	; 0xfffffef8
 10c:	ce421c0e 	cdpgt	12, 4, cr1, cr2, cr14, {0}
 110:	100ec4c5 	andne	ip, lr, r5, asr #9
 114:	c1c2c342 	bicgt	ip, r2, r2, asr #6
 118:	00000ec0 	andeq	r0, r0, r0, asr #29
 11c:	0000000c 	andeq	r0, r0, ip
 120:	ffffffff 			; <UNDEFINED> instruction: 0xffffffff
 124:	7c020001 	stcvc	0, cr0, [r2], {1}
 128:	000d0c0e 	andeq	r0, sp, lr, lsl #24
 12c:	00000014 	andeq	r0, r0, r4, lsl r0
 130:	0000011c 	andeq	r0, r0, ip, lsl r1
 134:	000082b4 			; <UNDEFINED> instruction: 0x000082b4
 138:	00000034 	andeq	r0, r0, r4, lsr r0
 13c:	84080e42 	strhi	r0, [r8], #-3650	; 0xfffff1be
 140:	00018e02 	andeq	r8, r1, r2, lsl #28
 144:	0000000c 	andeq	r0, r0, ip
 148:	ffffffff 			; <UNDEFINED> instruction: 0xffffffff
 14c:	7c020001 	stcvc	0, cr0, [r2], {1}
 150:	000d0c0e 	andeq	r0, sp, lr, lsl #24
 154:	0000000c 	andeq	r0, r0, ip
 158:	00000144 	andeq	r0, r0, r4, asr #2
 15c:	000082e8 	andeq	r8, r0, r8, ror #5
 160:	00000014 	andeq	r0, r0, r4, lsl r0
 164:	0000000c 	andeq	r0, r0, ip
 168:	00000144 	andeq	r0, r0, r4, asr #2
 16c:	000082fc 	strdeq	r8, [r0], -ip
 170:	00000024 	andeq	r0, r0, r4, lsr #32
 174:	0000000c 	andeq	r0, r0, ip
 178:	00000144 	andeq	r0, r0, r4, asr #2
 17c:	00008320 	andeq	r8, r0, r0, lsr #6
 180:	00000038 	andeq	r0, r0, r8, lsr r0
 184:	00000024 	andeq	r0, r0, r4, lsr #32
 188:	00000144 	andeq	r0, r0, r4, asr #2
 18c:	00008358 	andeq	r8, r0, r8, asr r3
 190:	000001b4 			; <UNDEFINED> instruction: 0x000001b4
 194:	84140e42 	ldrhi	r0, [r4], #-3650	; 0xfffff1be
 198:	86048505 	strhi	r8, [r4], -r5, lsl #10
 19c:	8e028703 	cdphi	7, 0, cr8, cr2, cr3, {0}
 1a0:	600e4201 	andvs	r4, lr, r1, lsl #4
 1a4:	0e0a9a02 	vmlaeq.f32	s18, s20, s4
 1a8:	000b4214 	andeq	r4, fp, r4, lsl r2
 1ac:	00000014 	andeq	r0, r0, r4, lsl r0
 1b0:	00000144 	andeq	r0, r0, r4, asr #2
 1b4:	0000850c 	andeq	r8, r0, ip, lsl #10
 1b8:	00000064 	andeq	r0, r0, r4, rrx
 1bc:	8e040e54 	mcrhi	14, 0, r0, cr4, cr4, {2}
 1c0:	100e4201 	andne	r4, lr, r1, lsl #4
 1c4:	0000002c 	andeq	r0, r0, ip, lsr #32
 1c8:	00000144 	andeq	r0, r0, r4, asr #2
 1cc:	00008570 	andeq	r8, r0, r0, ror r5
 1d0:	000003a4 	andeq	r0, r0, r4, lsr #7
 1d4:	84240e42 	strthi	r0, [r4], #-3650	; 0xfffff1be
 1d8:	86088509 	strhi	r8, [r8], -r9, lsl #10
 1dc:	88068707 	stmdahi	r6, {r0, r1, r2, r8, r9, sl, pc}
 1e0:	8a048905 	bhi	1225fc <__bss_end__+0x11926c>
 1e4:	8e028b03 	vmlahi.f64	d8, d2, d3
 1e8:	b80e4201 	stmdalt	lr, {r0, r9, lr}
 1ec:	01b80302 			; <UNDEFINED> instruction: 0x01b80302
 1f0:	0000240e 	andeq	r2, r0, lr, lsl #8
 1f4:	0000000c 	andeq	r0, r0, ip
 1f8:	ffffffff 			; <UNDEFINED> instruction: 0xffffffff
 1fc:	7c020001 	stcvc	0, cr0, [r2], {1}
 200:	000d0c0e 	andeq	r0, sp, lr, lsl #24
 204:	00000014 	andeq	r0, r0, r4, lsl r0
 208:	000001f4 	strdeq	r0, [r0], -r4
 20c:	00008914 	andeq	r8, r0, r4, lsl r9
 210:	0000002c 	andeq	r0, r0, ip, lsr #32
 214:	84080e42 	strhi	r0, [r8], #-3650	; 0xfffff1be
 218:	00018e02 	andeq	r8, r1, r2, lsl #28
 21c:	0000000c 	andeq	r0, r0, ip
 220:	ffffffff 			; <UNDEFINED> instruction: 0xffffffff
 224:	7c020001 	stcvc	0, cr0, [r2], {1}
 228:	000d0c0e 	andeq	r0, sp, lr, lsl #24
 22c:	00000014 	andeq	r0, r0, r4, lsl r0
 230:	0000021c 	andeq	r0, r0, ip, lsl r2
 234:	00008940 	andeq	r8, r0, r0, asr #18
 238:	00000030 	andeq	r0, r0, r0, lsr r0
 23c:	84080e42 	strhi	r0, [r8], #-3650	; 0xfffff1be
 240:	00018e02 	andeq	r8, r1, r2, lsl #28
 244:	0000000c 	andeq	r0, r0, ip
 248:	ffffffff 			; <UNDEFINED> instruction: 0xffffffff
 24c:	7c020001 	stcvc	0, cr0, [r2], {1}
 250:	000d0c0e 	andeq	r0, sp, lr, lsl #24
 254:	0000000c 	andeq	r0, r0, ip
 258:	00000244 	andeq	r0, r0, r4, asr #4
 25c:	00008970 	andeq	r8, r0, r0, ror r9
 260:	00000004 	andeq	r0, r0, r4
 264:	0000000c 	andeq	r0, r0, ip
 268:	ffffffff 			; <UNDEFINED> instruction: 0xffffffff
 26c:	7c020001 	stcvc	0, cr0, [r2], {1}
 270:	000d0c0e 	andeq	r0, sp, lr, lsl #24
 274:	0000000c 	andeq	r0, r0, ip
 278:	00000264 	andeq	r0, r0, r4, ror #4
 27c:	00008974 	andeq	r8, r0, r4, ror r9
 280:	00000018 	andeq	r0, r0, r8, lsl r0
 284:	0000000c 	andeq	r0, r0, ip
 288:	00000264 	andeq	r0, r0, r4, ror #4
 28c:	0000898c 	andeq	r8, r0, ip, lsl #19
 290:	00000014 	andeq	r0, r0, r4, lsl r0
 294:	00000014 	andeq	r0, r0, r4, lsl r0
 298:	00000264 	andeq	r0, r0, r4, ror #4
 29c:	000089a0 	andeq	r8, r0, r0, lsr #19
 2a0:	00000050 	andeq	r0, r0, r0, asr r0
 2a4:	84080e42 	strhi	r0, [r8], #-3650	; 0xfffff1be
 2a8:	00018e02 	andeq	r8, r1, r2, lsl #28
 2ac:	0000000c 	andeq	r0, r0, ip
 2b0:	ffffffff 			; <UNDEFINED> instruction: 0xffffffff
 2b4:	7c020001 	stcvc	0, cr0, [r2], {1}
 2b8:	000d0c0e 	andeq	r0, sp, lr, lsl #24
 2bc:	0000000c 	andeq	r0, r0, ip
 2c0:	000002ac 	andeq	r0, r0, ip, lsr #5
 2c4:	000089f0 	strdeq	r8, [r0], -r0
 2c8:	00000018 	andeq	r0, r0, r8, lsl r0
 2cc:	00000014 	andeq	r0, r0, r4, lsl r0
 2d0:	000002ac 	andeq	r0, r0, ip, lsr #5
 2d4:	00008a08 	andeq	r8, r0, r8, lsl #20
 2d8:	00000014 	andeq	r0, r0, r4, lsl r0
 2dc:	84080e42 	strhi	r0, [r8], #-3650	; 0xfffff1be
 2e0:	00018e02 	andeq	r8, r1, r2, lsl #28
 2e4:	00000014 	andeq	r0, r0, r4, lsl r0
 2e8:	000002ac 	andeq	r0, r0, ip, lsr #5
 2ec:	00008a1c 	andeq	r8, r0, ip, lsl sl
 2f0:	0000001c 	andeq	r0, r0, ip, lsl r0
 2f4:	84080e42 	strhi	r0, [r8], #-3650	; 0xfffff1be
 2f8:	00018e02 	andeq	r8, r1, r2, lsl #28
 2fc:	00000018 	andeq	r0, r0, r8, lsl r0
 300:	000002ac 	andeq	r0, r0, ip, lsr #5
 304:	00008a38 	andeq	r8, r0, r8, lsr sl
 308:	00000024 	andeq	r0, r0, r4, lsr #32
 30c:	84100e42 	ldrhi	r0, [r0], #-3650	; 0xfffff1be
 310:	86038504 	strhi	r8, [r3], -r4, lsl #10
 314:	00018e02 	andeq	r8, r1, r2, lsl #28
 318:	00000014 	andeq	r0, r0, r4, lsl r0
 31c:	000002ac 	andeq	r0, r0, ip, lsr #5
 320:	00008a5c 	andeq	r8, r0, ip, asr sl
 324:	00000018 	andeq	r0, r0, r8, lsl r0
 328:	84080e42 	strhi	r0, [r8], #-3650	; 0xfffff1be
 32c:	00018e02 	andeq	r8, r1, r2, lsl #28
 330:	00000014 	andeq	r0, r0, r4, lsl r0
 334:	000002ac 	andeq	r0, r0, ip, lsr #5
 338:	00008a74 	andeq	r8, r0, r4, ror sl
 33c:	00000018 	andeq	r0, r0, r8, lsl r0
 340:	84080e42 	strhi	r0, [r8], #-3650	; 0xfffff1be
 344:	00018e02 	andeq	r8, r1, r2, lsl #28
 348:	0000000c 	andeq	r0, r0, ip
 34c:	ffffffff 			; <UNDEFINED> instruction: 0xffffffff
 350:	7c020001 	stcvc	0, cr0, [r2], {1}
 354:	000d0c0e 	andeq	r0, sp, lr, lsl #24
 358:	00000018 	andeq	r0, r0, r8, lsl r0
 35c:	00000348 	andeq	r0, r0, r8, asr #6
 360:	00008aa4 	andeq	r8, r0, r4, lsr #21
 364:	00000020 	andeq	r0, r0, r0, lsr #32
 368:	84100e42 	ldrhi	r0, [r0], #-3650	; 0xfffff1be
 36c:	86038504 	strhi	r8, [r3], -r4, lsl #10
 370:	00018e02 	andeq	r8, r1, r2, lsl #28
 374:	00000014 	andeq	r0, r0, r4, lsl r0
 378:	00000348 	andeq	r0, r0, r8, asr #6
 37c:	00008ac4 	andeq	r8, r0, r4, asr #21
 380:	000000b0 	strheq	r0, [r0], -r0	; <UNPREDICTABLE>
 384:	84080e42 	strhi	r0, [r8], #-3650	; 0xfffff1be
 388:	00018e02 	andeq	r8, r1, r2, lsl #28
 38c:	00000014 	andeq	r0, r0, r4, lsl r0
 390:	00000348 	andeq	r0, r0, r8, asr #6
 394:	00008b74 	andeq	r8, r0, r4, ror fp
 398:	00000018 	andeq	r0, r0, r8, lsl r0
 39c:	84080e42 	strhi	r0, [r8], #-3650	; 0xfffff1be
 3a0:	00018e02 	andeq	r8, r1, r2, lsl #28
 3a4:	00000014 	andeq	r0, r0, r4, lsl r0
 3a8:	00000348 	andeq	r0, r0, r8, asr #6
 3ac:	00008b8c 	andeq	r8, r0, ip, lsl #23
 3b0:	00000020 	andeq	r0, r0, r0, lsr #32
 3b4:	84080e42 	strhi	r0, [r8], #-3650	; 0xfffff1be
 3b8:	00018e02 	andeq	r8, r1, r2, lsl #28
 3bc:	00000014 	andeq	r0, r0, r4, lsl r0
 3c0:	00000348 	andeq	r0, r0, r8, asr #6
 3c4:	00008bac 	andeq	r8, r0, ip, lsr #23
 3c8:	00000030 	andeq	r0, r0, r0, lsr r0
 3cc:	84080e42 	strhi	r0, [r8], #-3650	; 0xfffff1be
 3d0:	00018e02 	andeq	r8, r1, r2, lsl #28
 3d4:	00000014 	andeq	r0, r0, r4, lsl r0
 3d8:	00000348 	andeq	r0, r0, r8, asr #6
 3dc:	00008bdc 	ldrdeq	r8, [r0], -ip
 3e0:	00000030 	andeq	r0, r0, r0, lsr r0
 3e4:	84080e42 	strhi	r0, [r8], #-3650	; 0xfffff1be
 3e8:	00018e02 	andeq	r8, r1, r2, lsl #28
 3ec:	00000014 	andeq	r0, r0, r4, lsl r0
 3f0:	00000348 	andeq	r0, r0, r8, asr #6
 3f4:	00008c0c 	andeq	r8, r0, ip, lsl #24
 3f8:	00000010 	andeq	r0, r0, r0, lsl r0
 3fc:	84080e42 	strhi	r0, [r8], #-3650	; 0xfffff1be
 400:	00018e02 	andeq	r8, r1, r2, lsl #28
 404:	00000014 	andeq	r0, r0, r4, lsl r0
 408:	00000348 	andeq	r0, r0, r8, asr #6
 40c:	00008c1c 	andeq	r8, r0, ip, lsl ip
 410:	00000020 	andeq	r0, r0, r0, lsr #32
 414:	84080e42 	strhi	r0, [r8], #-3650	; 0xfffff1be
 418:	00018e02 	andeq	r8, r1, r2, lsl #28
 41c:	00000014 	andeq	r0, r0, r4, lsl r0
 420:	00000348 	andeq	r0, r0, r8, asr #6
 424:	00008c3c 	andeq	r8, r0, ip, lsr ip
 428:	00000014 	andeq	r0, r0, r4, lsl r0
 42c:	84080e42 	strhi	r0, [r8], #-3650	; 0xfffff1be
 430:	00018e02 	andeq	r8, r1, r2, lsl #28
 434:	0000000c 	andeq	r0, r0, ip
 438:	ffffffff 			; <UNDEFINED> instruction: 0xffffffff
 43c:	7c020001 	stcvc	0, cr0, [r2], {1}
 440:	000d0c0e 	andeq	r0, sp, lr, lsl #24
 444:	0000001c 	andeq	r0, r0, ip, lsl r0
 448:	00000434 	andeq	r0, r0, r4, lsr r4
 44c:	00008c50 	andeq	r8, r0, r0, asr ip
 450:	00000054 	andeq	r0, r0, r4, asr r0
 454:	84180e42 	ldrhi	r0, [r8], #-3650	; 0xfffff1be
 458:	86058506 	strhi	r8, [r5], -r6, lsl #10
 45c:	88038704 	stmdahi	r3, {r2, r8, r9, sl, pc}
 460:	00018e02 	andeq	r8, r1, r2, lsl #28
 464:	00000014 	andeq	r0, r0, r4, lsl r0
 468:	00000434 	andeq	r0, r0, r4, lsr r4
 46c:	00008ca4 	andeq	r8, r0, r4, lsr #25
 470:	00000010 	andeq	r0, r0, r0, lsl r0
 474:	84080e42 	strhi	r0, [r8], #-3650	; 0xfffff1be
 478:	00018e02 	andeq	r8, r1, r2, lsl #28
 47c:	00000014 	andeq	r0, r0, r4, lsl r0
 480:	00000434 	andeq	r0, r0, r4, lsr r4
 484:	00008cb4 			; <UNDEFINED> instruction: 0x00008cb4
 488:	0000001c 	andeq	r0, r0, ip, lsl r0
 48c:	84080e42 	strhi	r0, [r8], #-3650	; 0xfffff1be
 490:	00018e02 	andeq	r8, r1, r2, lsl #28
 494:	00000014 	andeq	r0, r0, r4, lsl r0
 498:	00000434 	andeq	r0, r0, r4, lsr r4
 49c:	00008cd0 	ldrdeq	r8, [r0], -r0
 4a0:	0000001c 	andeq	r0, r0, ip, lsl r0
 4a4:	84080e42 	strhi	r0, [r8], #-3650	; 0xfffff1be
 4a8:	00018e02 	andeq	r8, r1, r2, lsl #28
 4ac:	00000014 	andeq	r0, r0, r4, lsl r0
 4b0:	00000434 	andeq	r0, r0, r4, lsr r4
 4b4:	00008cec 	andeq	r8, r0, ip, ror #25
 4b8:	0000001c 	andeq	r0, r0, ip, lsl r0
 4bc:	84080e42 	strhi	r0, [r8], #-3650	; 0xfffff1be
 4c0:	00018e02 	andeq	r8, r1, r2, lsl #28
 4c4:	00000014 	andeq	r0, r0, r4, lsl r0
 4c8:	00000434 	andeq	r0, r0, r4, lsr r4
 4cc:	00008d08 	andeq	r8, r0, r8, lsl #26
 4d0:	00000010 	andeq	r0, r0, r0, lsl r0
 4d4:	84080e42 	strhi	r0, [r8], #-3650	; 0xfffff1be
 4d8:	00018e02 	andeq	r8, r1, r2, lsl #28
 4dc:	00000014 	andeq	r0, r0, r4, lsl r0
 4e0:	00000434 	andeq	r0, r0, r4, lsr r4
 4e4:	00008d18 	andeq	r8, r0, r8, lsl sp
 4e8:	00000020 	andeq	r0, r0, r0, lsr #32
 4ec:	84080e42 	strhi	r0, [r8], #-3650	; 0xfffff1be
 4f0:	00018e02 	andeq	r8, r1, r2, lsl #28
 4f4:	0000000c 	andeq	r0, r0, ip
 4f8:	ffffffff 			; <UNDEFINED> instruction: 0xffffffff
 4fc:	7c020001 	stcvc	0, cr0, [r2], {1}
 500:	000d0c0e 	andeq	r0, sp, lr, lsl #24
 504:	00000014 	andeq	r0, r0, r4, lsl r0
 508:	000004f4 	strdeq	r0, [r0], -r4
 50c:	00008d38 	andeq	r8, r0, r8, lsr sp
 510:	00000014 	andeq	r0, r0, r4, lsl r0
 514:	84080e42 	strhi	r0, [r8], #-3650	; 0xfffff1be
 518:	00018e02 	andeq	r8, r1, r2, lsl #28
 51c:	0000000c 	andeq	r0, r0, ip
 520:	000004f4 	strdeq	r0, [r0], -r4
 524:	00008d4c 	andeq	r8, r0, ip, asr #26
 528:	00000018 	andeq	r0, r0, r8, lsl r0
 52c:	0000000c 	andeq	r0, r0, ip
 530:	000004f4 	strdeq	r0, [r0], -r4
 534:	00008d64 	andeq	r8, r0, r4, ror #26
 538:	00000010 	andeq	r0, r0, r0, lsl r0
 53c:	0000000c 	andeq	r0, r0, ip
 540:	ffffffff 			; <UNDEFINED> instruction: 0xffffffff
 544:	7c020001 	stcvc	0, cr0, [r2], {1}
 548:	000d0c0e 	andeq	r0, sp, lr, lsl #24
 54c:	0000000c 	andeq	r0, r0, ip
 550:	0000053c 	andeq	r0, r0, ip, lsr r5
 554:	00008d74 	andeq	r8, r0, r4, ror sp
 558:	00000034 	andeq	r0, r0, r4, lsr r0
 55c:	0000000c 	andeq	r0, r0, ip
 560:	ffffffff 			; <UNDEFINED> instruction: 0xffffffff
 564:	7c020001 	stcvc	0, cr0, [r2], {1}
 568:	000d0c0e 	andeq	r0, sp, lr, lsl #24
 56c:	0000000c 	andeq	r0, r0, ip
 570:	0000055c 	andeq	r0, r0, ip, asr r5
 574:	00008da8 	andeq	r8, r0, r8, lsr #27
 578:	0000002c 	andeq	r0, r0, ip, lsr #32

Disassembly of section .debug_ranges:

00000000 <.debug_ranges>:
   0:	000003b8 			; <UNDEFINED> instruction: 0x000003b8
   4:	000004a4 	andeq	r0, r0, r4, lsr #9
   8:	000004ac 	andeq	r0, r0, ip, lsr #9
   c:	000005d0 	ldrdeq	r0, [r0], -r0	; <UNPREDICTABLE>
	...
  18:	00008974 	andeq	r8, r0, r4, ror r9
  1c:	000089f0 	strdeq	r8, [r0], -r0
	...
  28:	00008da8 	andeq	r8, r0, r8, lsr #27
  2c:	00008dd4 	ldrdeq	r8, [r0], -r4
	...
