
syscall.elf:     file format elf32-littlearm


Disassembly of section .text:

00008000 <__code_start__>:
    8000:	e3a00013 	mov	r0, #19, 0
    8004:	e3800080 	orr	r0, r0, #128, 0	; 0x80
    8008:	e129f000 	msr	CPSR_fc, r0
    800c:	e3a01000 	mov	r1, #0, 0
    8010:	ee071f95 	mcr	15, 0, r1, cr7, cr5, {4}
    8014:	e3a0d302 	mov	sp, #134217728	; 0x8000000
    8018:	e3a0b000 	mov	fp, #0, 0
    801c:	eb0002cd 	bl	8b58 <_cstart>
    8020:	eb0002e4 	bl	8bb8 <rpi_reboot>

00008024 <PUT32>:
    8024:	e5801000 	str	r1, [r0]
    8028:	e12fff1e 	bx	lr

0000802c <GET32>:
    802c:	e5900000 	ldr	r0, [r0]
    8030:	e12fff1e 	bx	lr

00008034 <interrupt_vector>:
    8034:	e92d4010 	push	{r4, lr}
    8038:	e3a0300c 	mov	r3, #12, 0
    803c:	e59f200c 	ldr	r2, [pc, #12]	; 8050 <interrupt_vector+0x1c>
    8040:	e59f100c 	ldr	r1, [pc, #12]	; 8054 <interrupt_vector+0x20>
    8044:	e59f000c 	ldr	r0, [pc, #12]	; 8058 <interrupt_vector+0x24>
    8048:	eb000109 	bl	8474 <printk>
    804c:	eb0002b6 	bl	8b2c <clean_reboot>
    8050:	00009290 	muleq	r0, r0, r2
    8054:	00009110 	andeq	r9, r0, r0, lsl r1
    8058:	0000911c 	andeq	r9, r0, ip, lsl r1

0000805c <syscall_vector>:
    805c:	e92d4070 	push	{r4, r5, r6, lr}
    8060:	e1a04001 	mov	r4, r1
    8064:	e5901000 	ldr	r1, [r0]
    8068:	e3c154ff 	bic	r5, r1, #-16777216	; 0xff000000
    806c:	e1a03004 	mov	r3, r4
    8070:	e1a02005 	mov	r2, r5
    8074:	e59f0030 	ldr	r0, [pc, #48]	; 80ac <syscall_vector+0x50>
    8078:	eb0000fd 	bl	8474 <printk>
    807c:	e3550001 	cmp	r5, #1, 0
    8080:	1a000004 	bne	8098 <syscall_vector+0x3c>
    8084:	e1a01004 	mov	r1, r4
    8088:	e59f0020 	ldr	r0, [pc, #32]	; 80b0 <syscall_vector+0x54>
    808c:	eb0000f8 	bl	8474 <printk>
    8090:	e3a00000 	mov	r0, #0, 0
    8094:	e8bd8070 	pop	{r4, r5, r6, pc}
    8098:	e1a01005 	mov	r1, r5
    809c:	e59f0010 	ldr	r0, [pc, #16]	; 80b4 <syscall_vector+0x58>
    80a0:	eb0000f3 	bl	8474 <printk>
    80a4:	e3e00000 	mvn	r0, #0, 0
    80a8:	e8bd8070 	pop	{r4, r5, r6, pc}
    80ac:	00009144 	andeq	r9, r0, r4, asr #2
    80b0:	00009164 	andeq	r9, r0, r4, ror #2
    80b4:	00009174 	andeq	r9, r0, r4, ror r1

000080b8 <notmain>:
    80b8:	e92d4010 	push	{r4, lr}
    80bc:	e24dd008 	sub	sp, sp, #8, 0
    80c0:	eb00030a 	bl	8cf0 <uart_init>
    80c4:	e1a0100d 	mov	r1, sp
    80c8:	e59f40c0 	ldr	r4, [pc, #192]	; 8190 <notmain+0xd8>
    80cc:	e1a00004 	mov	r0, r4
    80d0:	eb0000e7 	bl	8474 <printk>
    80d4:	e92d0003 	push	{r0, r1}
    80d8:	e1a0100d 	mov	r1, sp
    80dc:	e1a00004 	mov	r0, r4
    80e0:	eb0000e3 	bl	8474 <printk>
    80e4:	e8bd0003 	pop	{r0, r1}
    80e8:	e1a0100d 	mov	r1, sp
    80ec:	e1a00004 	mov	r0, r4
    80f0:	eb0000df 	bl	8474 <printk>
    80f4:	e59f0098 	ldr	r0, [pc, #152]	; 8194 <notmain+0xdc>
    80f8:	eb0000dd 	bl	8474 <printk>
    80fc:	eb000069 	bl	82a8 <int_init>
    8100:	e59f0090 	ldr	r0, [pc, #144]	; 8198 <notmain+0xe0>
    8104:	eb0000da 	bl	8474 <printk>
    8108:	e59f008c 	ldr	r0, [pc, #140]	; 819c <notmain+0xe4>
    810c:	eb00002b 	bl	81c0 <syscall_hello>
    8110:	e1a04000 	mov	r4, r0
    8114:	e1a01000 	mov	r1, r0
    8118:	e59f0080 	ldr	r0, [pc, #128]	; 81a0 <notmain+0xe8>
    811c:	eb0000d4 	bl	8474 <printk>
    8120:	e3540000 	cmp	r4, #0, 0
    8124:	0a000007 	beq	8148 <notmain+0x90>
    8128:	e59f3074 	ldr	r3, [pc, #116]	; 81a4 <notmain+0xec>
    812c:	e58d3000 	str	r3, [sp]
    8130:	e3a0303d 	mov	r3, #61, 0	; 0x3d
    8134:	e59f206c 	ldr	r2, [pc, #108]	; 81a8 <notmain+0xf0>
    8138:	e59f106c 	ldr	r1, [pc, #108]	; 81ac <notmain+0xf4>
    813c:	e59f006c 	ldr	r0, [pc, #108]	; 81b0 <notmain+0xf8>
    8140:	eb0000cb 	bl	8474 <printk>
    8144:	eb000278 	bl	8b2c <clean_reboot>
    8148:	e59f0064 	ldr	r0, [pc, #100]	; 81b4 <notmain+0xfc>
    814c:	eb0000c8 	bl	8474 <printk>
    8150:	eb00001e 	bl	81d0 <syscall_illegal>
    8154:	e1a04000 	mov	r4, r0
    8158:	e1a01000 	mov	r1, r0
    815c:	e59f0054 	ldr	r0, [pc, #84]	; 81b8 <notmain+0x100>
    8160:	eb0000c3 	bl	8474 <printk>
    8164:	e3740001 	cmn	r4, #1, 0
    8168:	0a000007 	beq	818c <notmain+0xd4>
    816c:	e59f3048 	ldr	r3, [pc, #72]	; 81bc <notmain+0x104>
    8170:	e58d3000 	str	r3, [sp]
    8174:	e3a03042 	mov	r3, #66, 0	; 0x42
    8178:	e59f2028 	ldr	r2, [pc, #40]	; 81a8 <notmain+0xf0>
    817c:	e59f1028 	ldr	r1, [pc, #40]	; 81ac <notmain+0xf4>
    8180:	e59f0028 	ldr	r0, [pc, #40]	; 81b0 <notmain+0xf8>
    8184:	eb0000ba 	bl	8474 <printk>
    8188:	eb000267 	bl	8b2c <clean_reboot>
    818c:	eb000266 	bl	8b2c <clean_reboot>
    8190:	00009190 	muleq	r0, r0, r1
    8194:	000091a8 	andeq	r9, r0, r8, lsr #3
    8198:	000091c4 	andeq	r9, r0, r4, asr #3
    819c:	000091e0 	andeq	r9, r0, r0, ror #3
    81a0:	000091ec 	andeq	r9, r0, ip, ror #3
    81a4:	00009224 	andeq	r9, r0, r4, lsr #4
    81a8:	000092a4 	andeq	r9, r0, r4, lsr #5
    81ac:	00009110 	andeq	r9, r0, r0, lsl r1
    81b0:	00009210 	andeq	r9, r0, r0, lsl r2
    81b4:	00009230 	andeq	r9, r0, r0, lsr r2
    81b8:	00009260 	andeq	r9, r0, r0, ror #4
    81bc:	00009284 	andeq	r9, r0, r4, lsl #5

000081c0 <syscall_hello>:
    81c0:	e52de004 	push	{lr}		; (str lr, [sp, #-4]!)
    81c4:	ef000001 	svc	0x00000001
    81c8:	e49de004 	pop	{lr}		; (ldr lr, [sp], #4)
    81cc:	e12fff1e 	bx	lr

000081d0 <syscall_illegal>:
    81d0:	e52de004 	push	{lr}		; (str lr, [sp, #-4]!)
    81d4:	ef000002 	svc	0x00000002
    81d8:	e49de004 	pop	{lr}		; (ldr lr, [sp], #4)
    81dc:	e12fff1e 	bx	lr

000081e0 <system_enable_interrupts>:
    81e0:	e10f0000 	mrs	r0, CPSR
    81e4:	e3c00080 	bic	r0, r0, #128, 0	; 0x80
    81e8:	e121f000 	msr	CPSR_c, r0
    81ec:	e12fff1e 	bx	lr

000081f0 <system_disable_interrupts>:
    81f0:	e10f0000 	mrs	r0, CPSR
    81f4:	e3800080 	orr	r0, r0, #128, 0	; 0x80
    81f8:	e121f000 	msr	CPSR_c, r0
    81fc:	e12fff1e 	bx	lr

00008200 <_interrupt_table>:
    8200:	e59ff030 	ldr	pc, [pc, #48]	; 8238 <_reset_asm>
    8204:	e59ff030 	ldr	pc, [pc, #48]	; 823c <_undefined_instruction_asm>
    8208:	e59ff030 	ldr	pc, [pc, #48]	; 8240 <_software_interrupt_asm>
    820c:	e59ff030 	ldr	pc, [pc, #48]	; 8244 <_prefetch_abort_asm>
    8210:	e59ff030 	ldr	pc, [pc, #48]	; 8248 <_data_abort_asm>
    8214:	e59ff01c 	ldr	pc, [pc, #28]	; 8238 <_reset_asm>
    8218:	e59ff02c 	ldr	pc, [pc, #44]	; 824c <_interrupt_asm>

0000821c <fast_interrupt_asm>:
    821c:	e24ee004 	sub	lr, lr, #4, 0
    8220:	e52de004 	push	{lr}		; (str lr, [sp, #-4]!)
    8224:	e92d1fff 	push	{r0, r1, r2, r3, r4, r5, r6, r7, r8, r9, sl, fp, ip}
    8228:	e1a0000e 	mov	r0, lr
    822c:	eb000036 	bl	830c <fast_interrupt_vector>
    8230:	e8bd1fff 	pop	{r0, r1, r2, r3, r4, r5, r6, r7, r8, r9, sl, fp, ip}
    8234:	e8fd8000 	ldm	sp!, {pc}^

00008238 <_reset_asm>:
    8238:	00008288 	andeq	r8, r0, r8, lsl #5

0000823c <_undefined_instruction_asm>:
    823c:	00008290 	muleq	r0, r0, r2

00008240 <_software_interrupt_asm>:
    8240:	0000826c 	andeq	r8, r0, ip, ror #4

00008244 <_prefetch_abort_asm>:
    8244:	00008298 	muleq	r0, r8, r2

00008248 <_data_abort_asm>:
    8248:	000082a0 	andeq	r8, r0, r0, lsr #5

0000824c <_interrupt_asm>:
    824c:	00008250 	andeq	r8, r0, r0, asr r2

00008250 <_interrupt_table_end>:
    8250:	e3a0d409 	mov	sp, #150994944	; 0x9000000
    8254:	e24ee004 	sub	lr, lr, #4, 0
    8258:	e92d5fff 	push	{r0, r1, r2, r3, r4, r5, r6, r7, r8, r9, sl, fp, ip, lr}
    825c:	e1a0000e 	mov	r0, lr
    8260:	ebffff73 	bl	8034 <interrupt_vector>
    8264:	e8bd5fff 	pop	{r0, r1, r2, r3, r4, r5, r6, r7, r8, r9, sl, fp, ip, lr}
    8268:	e1b0f00e 	movs	pc, lr

0000826c <software_interrupt_asm>:
    826c:	e92d5ffe 	push	{r1, r2, r3, r4, r5, r6, r7, r8, r9, sl, fp, ip, lr}
    8270:	e24ee004 	sub	lr, lr, #4, 0
    8274:	e1a01000 	mov	r1, r0
    8278:	e1a0000e 	mov	r0, lr
    827c:	ebffff76 	bl	805c <syscall_vector>
    8280:	e8bd5ffe 	pop	{r1, r2, r3, r4, r5, r6, r7, r8, r9, sl, fp, ip, lr}
    8284:	e1b0f00e 	movs	pc, lr

00008288 <reset_asm>:
    8288:	e24ee004 	sub	lr, lr, #4, 0
    828c:	eb00003c 	bl	8384 <reset_vector>

00008290 <undefined_instruction_asm>:
    8290:	e24ee004 	sub	lr, lr, #4, 0
    8294:	eb000049 	bl	83c0 <undefined_instruction_vector>

00008298 <prefetch_abort_asm>:
    8298:	e24ee004 	sub	lr, lr, #4, 0
    829c:	eb000056 	bl	83fc <prefetch_abort_vector>

000082a0 <data_abort_asm>:
    82a0:	e24ee004 	sub	lr, lr, #4, 0
    82a4:	eb000063 	bl	8438 <data_abort_vector>

000082a8 <int_init>:
    82a8:	e92d4010 	push	{r4, lr}
    82ac:	e3e01000 	mvn	r1, #0, 0
    82b0:	e59f0044 	ldr	r0, [pc, #68]	; 82fc <int_init+0x54>
    82b4:	ebffff5a 	bl	8024 <PUT32>
    82b8:	e3e01000 	mvn	r1, #0, 0
    82bc:	e59f003c 	ldr	r0, [pc, #60]	; 8300 <int_init+0x58>
    82c0:	ebffff57 	bl	8024 <PUT32>
    82c4:	eb000276 	bl	8ca4 <dev_barrier>
    82c8:	e59f0034 	ldr	r0, [pc, #52]	; 8304 <int_init+0x5c>
    82cc:	e59f3034 	ldr	r3, [pc, #52]	; 8308 <int_init+0x60>
    82d0:	e0400003 	sub	r0, r0, r3
    82d4:	e1a00140 	asr	r0, r0, #2
    82d8:	e3a03000 	mov	r3, #0, 0
    82dc:	e1530000 	cmp	r3, r0
    82e0:	28bd8010 	popcs	{r4, pc}
    82e4:	e1a02103 	lsl	r2, r3, #2
    82e8:	e59f1018 	ldr	r1, [pc, #24]	; 8308 <int_init+0x60>
    82ec:	e7911103 	ldr	r1, [r1, r3, lsl #2]
    82f0:	e5821000 	str	r1, [r2]
    82f4:	e2833001 	add	r3, r3, #1, 0
    82f8:	eafffff7 	b	82dc <int_init+0x34>
    82fc:	2000b21c 	andcs	fp, r0, ip, lsl r2
    8300:	2000b220 	andcs	fp, r0, r0, lsr #4
    8304:	00008250 	andeq	r8, r0, r0, asr r2
    8308:	00008200 	andeq	r8, r0, r0, lsl #4

0000830c <fast_interrupt_vector>:
    830c:	e52de004 	push	{lr}		; (str lr, [sp, #-4]!)
    8310:	e24dd00c 	sub	sp, sp, #12, 0
    8314:	e58d0004 	str	r0, [sp, #4]
    8318:	e59f3018 	ldr	r3, [pc, #24]	; 8338 <fast_interrupt_vector+0x2c>
    831c:	e58d3000 	str	r3, [sp]
    8320:	e3a03020 	mov	r3, #32, 0
    8324:	e59f2010 	ldr	r2, [pc, #16]	; 833c <fast_interrupt_vector+0x30>
    8328:	e59f1010 	ldr	r1, [pc, #16]	; 8340 <fast_interrupt_vector+0x34>
    832c:	e59f0010 	ldr	r0, [pc, #16]	; 8344 <fast_interrupt_vector+0x38>
    8330:	eb00004f 	bl	8474 <printk>
    8334:	eb0001fc 	bl	8b2c <clean_reboot>
    8338:	000092f8 	strdeq	r9, [r0], -r8
    833c:	00009354 	andeq	r9, r0, r4, asr r3
    8340:	000092ac 	andeq	r9, r0, ip, lsr #5
    8344:	000092bc 			; <UNDEFINED> instruction: 0x000092bc

00008348 <software_interrupt_vector>:
    8348:	e52de004 	push	{lr}		; (str lr, [sp, #-4]!)
    834c:	e24dd00c 	sub	sp, sp, #12, 0
    8350:	e58d0004 	str	r0, [sp, #4]
    8354:	e59f3018 	ldr	r3, [pc, #24]	; 8374 <software_interrupt_vector+0x2c>
    8358:	e58d3000 	str	r3, [sp]
    835c:	e3a03025 	mov	r3, #37, 0	; 0x25
    8360:	e59f2010 	ldr	r2, [pc, #16]	; 8378 <software_interrupt_vector+0x30>
    8364:	e59f1010 	ldr	r1, [pc, #16]	; 837c <software_interrupt_vector+0x34>
    8368:	e59f0010 	ldr	r0, [pc, #16]	; 8380 <software_interrupt_vector+0x38>
    836c:	eb000040 	bl	8474 <printk>
    8370:	eb0001ed 	bl	8b2c <clean_reboot>
    8374:	00009300 	andeq	r9, r0, r0, lsl #6
    8378:	0000936c 	andeq	r9, r0, ip, ror #6
    837c:	000092ac 	andeq	r9, r0, ip, lsr #5
    8380:	000092bc 			; <UNDEFINED> instruction: 0x000092bc

00008384 <reset_vector>:
    8384:	e52de004 	push	{lr}		; (str lr, [sp, #-4]!)
    8388:	e24dd00c 	sub	sp, sp, #12, 0
    838c:	e58d0004 	str	r0, [sp, #4]
    8390:	e59f3018 	ldr	r3, [pc, #24]	; 83b0 <reset_vector+0x2c>
    8394:	e58d3000 	str	r3, [sp]
    8398:	e3a03028 	mov	r3, #40, 0	; 0x28
    839c:	e59f2010 	ldr	r2, [pc, #16]	; 83b4 <reset_vector+0x30>
    83a0:	e59f1010 	ldr	r1, [pc, #16]	; 83b8 <reset_vector+0x34>
    83a4:	e59f0010 	ldr	r0, [pc, #16]	; 83bc <reset_vector+0x38>
    83a8:	eb000031 	bl	8474 <printk>
    83ac:	eb0001de 	bl	8b2c <clean_reboot>
    83b0:	00009310 	andeq	r9, r0, r0, lsl r3
    83b4:	00009388 	andeq	r9, r0, r8, lsl #7
    83b8:	000092ac 	andeq	r9, r0, ip, lsr #5
    83bc:	000092bc 			; <UNDEFINED> instruction: 0x000092bc

000083c0 <undefined_instruction_vector>:
    83c0:	e52de004 	push	{lr}		; (str lr, [sp, #-4]!)
    83c4:	e24dd00c 	sub	sp, sp, #12, 0
    83c8:	e58d0004 	str	r0, [sp, #4]
    83cc:	e59f3018 	ldr	r3, [pc, #24]	; 83ec <undefined_instruction_vector+0x2c>
    83d0:	e58d3000 	str	r3, [sp]
    83d4:	e3a0302b 	mov	r3, #43, 0	; 0x2b
    83d8:	e59f2010 	ldr	r2, [pc, #16]	; 83f0 <undefined_instruction_vector+0x30>
    83dc:	e59f1010 	ldr	r1, [pc, #16]	; 83f4 <undefined_instruction_vector+0x34>
    83e0:	e59f0010 	ldr	r0, [pc, #16]	; 83f8 <undefined_instruction_vector+0x38>
    83e4:	eb000022 	bl	8474 <printk>
    83e8:	eb0001cf 	bl	8b2c <clean_reboot>
    83ec:	00009320 	andeq	r9, r0, r0, lsr #6
    83f0:	00009398 	muleq	r0, r8, r3
    83f4:	000092ac 	andeq	r9, r0, ip, lsr #5
    83f8:	000092bc 			; <UNDEFINED> instruction: 0x000092bc

000083fc <prefetch_abort_vector>:
    83fc:	e52de004 	push	{lr}		; (str lr, [sp, #-4]!)
    8400:	e24dd00c 	sub	sp, sp, #12, 0
    8404:	e58d0004 	str	r0, [sp, #4]
    8408:	e59f3018 	ldr	r3, [pc, #24]	; 8428 <prefetch_abort_vector+0x2c>
    840c:	e58d3000 	str	r3, [sp]
    8410:	e3a0302e 	mov	r3, #46, 0	; 0x2e
    8414:	e59f2010 	ldr	r2, [pc, #16]	; 842c <prefetch_abort_vector+0x30>
    8418:	e59f1010 	ldr	r1, [pc, #16]	; 8430 <prefetch_abort_vector+0x34>
    841c:	e59f0010 	ldr	r0, [pc, #16]	; 8434 <prefetch_abort_vector+0x38>
    8420:	eb000013 	bl	8474 <printk>
    8424:	eb0001c0 	bl	8b2c <clean_reboot>
    8428:	00009338 	andeq	r9, r0, r8, lsr r3
    842c:	000093b8 			; <UNDEFINED> instruction: 0x000093b8
    8430:	000092ac 	andeq	r9, r0, ip, lsr #5
    8434:	000092bc 			; <UNDEFINED> instruction: 0x000092bc

00008438 <data_abort_vector>:
    8438:	e52de004 	push	{lr}		; (str lr, [sp, #-4]!)
    843c:	e24dd00c 	sub	sp, sp, #12, 0
    8440:	e58d0004 	str	r0, [sp, #4]
    8444:	e59f3018 	ldr	r3, [pc, #24]	; 8464 <data_abort_vector+0x2c>
    8448:	e58d3000 	str	r3, [sp]
    844c:	e3a03031 	mov	r3, #49, 0	; 0x31
    8450:	e59f2010 	ldr	r2, [pc, #16]	; 8468 <data_abort_vector+0x30>
    8454:	e59f1010 	ldr	r1, [pc, #16]	; 846c <data_abort_vector+0x34>
    8458:	e59f0010 	ldr	r0, [pc, #16]	; 8470 <data_abort_vector+0x38>
    845c:	eb000004 	bl	8474 <printk>
    8460:	eb0001b1 	bl	8b2c <clean_reboot>
    8464:	00009348 	andeq	r9, r0, r8, asr #6
    8468:	000093d0 	ldrdeq	r9, [r0], -r0
    846c:	000092ac 	andeq	r9, r0, ip, lsr #5
    8470:	000092bc 			; <UNDEFINED> instruction: 0x000092bc

00008474 <printk>:
    8474:	e92d000f 	push	{r0, r1, r2, r3}
    8478:	e92d4030 	push	{r4, r5, lr}
    847c:	e24dd00c 	sub	sp, sp, #12, 0
    8480:	e28d301c 	add	r3, sp, #28, 0
    8484:	e58d3004 	str	r3, [sp, #4]
    8488:	e59f5034 	ldr	r5, [pc, #52]	; 84c4 <printk+0x50>
    848c:	e59d2018 	ldr	r2, [sp, #24]
    8490:	e3a01b01 	mov	r1, #1024	; 0x400
    8494:	e1a00005 	mov	r0, r5
    8498:	eb0000ba 	bl	8788 <va_printk>
    849c:	e1a04000 	mov	r4, r0
    84a0:	e59f3020 	ldr	r3, [pc, #32]	; 84c8 <printk+0x54>
    84a4:	e5933000 	ldr	r3, [r3]
    84a8:	e1a00005 	mov	r0, r5
    84ac:	e12fff33 	blx	r3
    84b0:	e1a00004 	mov	r0, r4
    84b4:	e28dd00c 	add	sp, sp, #12, 0
    84b8:	e8bd4030 	pop	{r4, r5, lr}
    84bc:	e28dd010 	add	sp, sp, #16, 0
    84c0:	e12fff1e 	bx	lr
    84c4:	00009504 	andeq	r9, r0, r4, lsl #10
    84c8:	000094fc 	strdeq	r9, [r0], -ip

000084cc <internal_putk>:
    84cc:	e92d4010 	push	{r4, lr}
    84d0:	e1a04000 	mov	r4, r0
    84d4:	e5d40000 	ldrb	r0, [r4]
    84d8:	e3500000 	cmp	r0, #0, 0
    84dc:	0a000004 	beq	84f4 <internal_putk+0x28>
    84e0:	e59f3014 	ldr	r3, [pc, #20]	; 84fc <internal_putk+0x30>
    84e4:	e5933000 	ldr	r3, [r3]
    84e8:	e12fff33 	blx	r3
    84ec:	e2844001 	add	r4, r4, #1, 0
    84f0:	eafffff7 	b	84d4 <internal_putk+0x8>
    84f4:	e3a00001 	mov	r0, #1, 0
    84f8:	e8bd8010 	pop	{r4, pc}
    84fc:	00009500 	andeq	r9, r0, r0, lsl #10

00008500 <isdigit>:
    8500:	e2400030 	sub	r0, r0, #48, 0	; 0x30
    8504:	e3500009 	cmp	r0, #9, 0
    8508:	83a00000 	movhi	r0, #0, 0
    850c:	93a00001 	movls	r0, #1, 0
    8510:	e12fff1e 	bx	lr

00008514 <pad>:
    8514:	e0401001 	sub	r1, r0, r1
    8518:	e1510002 	cmp	r1, r2
    851c:	b3a03020 	movlt	r3, #32, 0
    8520:	b4c03001 	strblt	r3, [r0], #1
    8524:	b2811001 	addlt	r1, r1, #1, 0
    8528:	bafffffa 	blt	8518 <pad+0x4>
    852c:	e3a03000 	mov	r3, #0, 0
    8530:	e5c03000 	strb	r3, [r0]
    8534:	e12fff1e 	bx	lr

00008538 <reverse>:
    8538:	e042c003 	sub	ip, r2, r3
    853c:	e28cc001 	add	ip, ip, #1, 0
    8540:	e15c0001 	cmp	ip, r1
    8544:	c04cc001 	subgt	ip, ip, r1
    8548:	c083300c 	addgt	r3, r3, ip
    854c:	e2421001 	sub	r1, r2, #1, 0
    8550:	e1a02000 	mov	r2, r0
    8554:	e1510003 	cmp	r1, r3
    8558:	2451c001 	ldrbcs	ip, [r1], #-1
    855c:	24c2c001 	strbcs	ip, [r2], #1
    8560:	2afffffb 	bcs	8554 <reverse+0x1c>
    8564:	e3a03000 	mov	r3, #0, 0
    8568:	e5c23000 	strb	r3, [r2]
    856c:	e12fff1e 	bx	lr

00008570 <emit>:
    8570:	e92d40f0 	push	{r4, r5, r6, r7, lr}
    8574:	e24dd04c 	sub	sp, sp, #76, 0	; 0x4c
    8578:	e1a05001 	mov	r5, r1
    857c:	e1a04002 	mov	r4, r2
    8580:	e59d2060 	ldr	r2, [sp, #96]	; 0x60
    8584:	e1520004 	cmp	r2, r4
    8588:	c2442001 	subgt	r2, r4, #1, 0
    858c:	e1a0c003 	mov	ip, r3
    8590:	e2400002 	sub	r0, r0, #2, 0
    8594:	e350000e 	cmp	r0, #14, 0
    8598:	979ff100 	ldrls	pc, [pc, r0, lsl #2]
    859c:	ea000050 	b	86e4 <emit+0x174>
    85a0:	000086bc 			; <UNDEFINED> instruction: 0x000086bc
    85a4:	000086e4 	andeq	r8, r0, r4, ror #13
    85a8:	000086e4 	andeq	r8, r0, r4, ror #13
    85ac:	000086e4 	andeq	r8, r0, r4, ror #13
    85b0:	000086e4 	andeq	r8, r0, r4, ror #13
    85b4:	000086e4 	andeq	r8, r0, r4, ror #13
    85b8:	000086b0 			; <UNDEFINED> instruction: 0x000086b0
    85bc:	000086e4 	andeq	r8, r0, r4, ror #13
    85c0:	000085dc 	ldrdeq	r8, [r0], -ip
    85c4:	000086e4 	andeq	r8, r0, r4, ror #13
    85c8:	000086e4 	andeq	r8, r0, r4, ror #13
    85cc:	000086e4 	andeq	r8, r0, r4, ror #13
    85d0:	000086e4 	andeq	r8, r0, r4, ror #13
    85d4:	000086e4 	andeq	r8, r0, r4, ror #13
    85d8:	00008654 	andeq	r8, r0, r4, asr r6
    85dc:	e59d1064 	ldr	r1, [sp, #100]	; 0x64
    85e0:	e2511000 	subs	r1, r1, #0, 0
    85e4:	13a01001 	movne	r1, #1, 0
    85e8:	e0111fa3 	ands	r1, r1, r3, lsr #31
    85ec:	0a000016 	beq	864c <emit+0xdc>
    85f0:	e263c000 	rsb	ip, r3, #0, 0
    85f4:	e3a06001 	mov	r6, #1, 0
    85f8:	e28d0008 	add	r0, sp, #8, 0
    85fc:	e59f3100 	ldr	r3, [pc, #256]	; 8704 <emit+0x194>
    8600:	e0831c93 	umull	r1, r3, r3, ip
    8604:	e1a031a3 	lsr	r3, r3, #3
    8608:	e1a0e003 	mov	lr, r3
    860c:	e0833103 	add	r3, r3, r3, lsl #2
    8610:	e04c3083 	sub	r3, ip, r3, lsl #1
    8614:	e1a01000 	mov	r1, r0
    8618:	e2800001 	add	r0, r0, #1, 0
    861c:	e59f70e4 	ldr	r7, [pc, #228]	; 8708 <emit+0x198>
    8620:	e7d73003 	ldrb	r3, [r7, r3]
    8624:	e5c13000 	strb	r3, [r1]
    8628:	e1a0300c 	mov	r3, ip
    862c:	e1a0c00e 	mov	ip, lr
    8630:	e3530009 	cmp	r3, #9, 0
    8634:	8afffff0 	bhi	85fc <emit+0x8c>
    8638:	e3560000 	cmp	r6, #0, 0
    863c:	13a0302d 	movne	r3, #45, 0	; 0x2d
    8640:	15c03000 	strbne	r3, [r0]
    8644:	12810002 	addne	r0, r1, #2, 0
    8648:	ea00000f 	b	868c <emit+0x11c>
    864c:	e3a06000 	mov	r6, #0, 0
    8650:	eaffffe8 	b	85f8 <emit+0x88>
    8654:	e28d1008 	add	r1, sp, #8, 0
    8658:	e20c000f 	and	r0, ip, #15, 0
    865c:	e59fe0a8 	ldr	lr, [pc, #168]	; 870c <emit+0x19c>
    8660:	e7de0000 	ldrb	r0, [lr, r0]
    8664:	e5c10000 	strb	r0, [r1]
    8668:	e2811001 	add	r1, r1, #1, 0
    866c:	e35c000f 	cmp	ip, #15, 0
    8670:	e1a0c22c 	lsr	ip, ip, #4
    8674:	8afffff7 	bhi	8658 <emit+0xe8>
    8678:	e1a00001 	mov	r0, r1
    867c:	e3a03078 	mov	r3, #120, 0	; 0x78
    8680:	e4c03002 	strb	r3, [r0], #2
    8684:	e3a03030 	mov	r3, #48, 0	; 0x30
    8688:	e5c13001 	strb	r3, [r1, #1]
    868c:	e28d1008 	add	r1, sp, #8, 0
    8690:	ebffff9f 	bl	8514 <pad>
    8694:	e1a02000 	mov	r2, r0
    8698:	e28d3008 	add	r3, sp, #8, 0
    869c:	e1a01004 	mov	r1, r4
    86a0:	e1a00005 	mov	r0, r5
    86a4:	ebffffa3 	bl	8538 <reverse>
    86a8:	e28dd04c 	add	sp, sp, #76, 0	; 0x4c
    86ac:	e8bd80f0 	pop	{r4, r5, r6, r7, pc}
    86b0:	e5cd3008 	strb	r3, [sp, #8]
    86b4:	e28d0009 	add	r0, sp, #9, 0
    86b8:	eafffff3 	b	868c <emit+0x11c>
    86bc:	e28d0008 	add	r0, sp, #8, 0
    86c0:	e20c1001 	and	r1, ip, #1, 0
    86c4:	e59fe044 	ldr	lr, [pc, #68]	; 8710 <emit+0x1a0>
    86c8:	e7de1001 	ldrb	r1, [lr, r1]
    86cc:	e5c01000 	strb	r1, [r0]
    86d0:	e2800001 	add	r0, r0, #1, 0
    86d4:	e35c0001 	cmp	ip, #1, 0
    86d8:	e1a0c0ac 	lsr	ip, ip, #1
    86dc:	8afffff7 	bhi	86c0 <emit+0x150>
    86e0:	eaffffe9 	b	868c <emit+0x11c>
    86e4:	e59f3028 	ldr	r3, [pc, #40]	; 8714 <emit+0x1a4>
    86e8:	e58d3000 	str	r3, [sp]
    86ec:	e3a03079 	mov	r3, #121, 0	; 0x79
    86f0:	e59f2020 	ldr	r2, [pc, #32]	; 8718 <emit+0x1a8>
    86f4:	e59f1020 	ldr	r1, [pc, #32]	; 871c <emit+0x1ac>
    86f8:	e59f0020 	ldr	r0, [pc, #32]	; 8720 <emit+0x1b0>
    86fc:	ebffff5c 	bl	8474 <printk>
    8700:	eb000109 	bl	8b2c <clean_reboot>
    8704:	cccccccd 	stclgt	12, cr12, [ip], {205}	; 0xcd
    8708:	000093fc 	strdeq	r9, [r0], -ip
    870c:	00009408 	andeq	r9, r0, r8, lsl #8
    8710:	0000941c 	andeq	r9, r0, ip, lsl r4
    8714:	000093f8 	strdeq	r9, [r0], -r8
    8718:	000094cc 	andeq	r9, r0, ip, asr #9
    871c:	000093e4 	andeq	r9, r0, r4, ror #7
    8720:	00009210 	andeq	r9, r0, r0, lsl r2

00008724 <rpi_set_output>:
    8724:	e3500000 	cmp	r0, #0, 0
    8728:	0a000006 	beq	8748 <rpi_set_output+0x24>
    872c:	e59f303c 	ldr	r3, [pc, #60]	; 8770 <rpi_set_output+0x4c>
    8730:	e5830000 	str	r0, [r3]
    8734:	e3510000 	cmp	r1, #0, 0
    8738:	012fff1e 	bxeq	lr
    873c:	e59f3030 	ldr	r3, [pc, #48]	; 8774 <rpi_set_output+0x50>
    8740:	e5831000 	str	r1, [r3]
    8744:	e12fff1e 	bx	lr
    8748:	e52de004 	push	{lr}		; (str lr, [sp, #-4]!)
    874c:	e24dd00c 	sub	sp, sp, #12, 0
    8750:	e59f3020 	ldr	r3, [pc, #32]	; 8778 <rpi_set_output+0x54>
    8754:	e58d3000 	str	r3, [sp]
    8758:	e3a03020 	mov	r3, #32, 0
    875c:	e59f2018 	ldr	r2, [pc, #24]	; 877c <rpi_set_output+0x58>
    8760:	e59f1018 	ldr	r1, [pc, #24]	; 8780 <rpi_set_output+0x5c>
    8764:	e59f0018 	ldr	r0, [pc, #24]	; 8784 <rpi_set_output+0x60>
    8768:	ebffff41 	bl	8474 <printk>
    876c:	eb0000ee 	bl	8b2c <clean_reboot>
    8770:	00009500 	andeq	r9, r0, r0, lsl #10
    8774:	000094fc 	strdeq	r9, [r0], -ip
    8778:	00009420 	andeq	r9, r0, r0, lsr #8
    877c:	000094d4 	ldrdeq	r9, [r0], -r4
    8780:	000093e4 	andeq	r9, r0, r4, ror #7
    8784:	00009210 	andeq	r9, r0, r0, lsl r2

00008788 <va_printk>:
    8788:	e92d4ff0 	push	{r4, r5, r6, r7, r8, r9, sl, fp, lr}
    878c:	e24ddf45 	sub	sp, sp, #276	; 0x114
    8790:	e1a09000 	mov	r9, r0
    8794:	e58d2008 	str	r2, [sp, #8]
    8798:	e58d300c 	str	r3, [sp, #12]
    879c:	e2411001 	sub	r1, r1, #1, 0
    87a0:	e0808001 	add	r8, r0, r1
    87a4:	e3a03000 	mov	r3, #0, 0
    87a8:	e5c03000 	strb	r3, [r0]
    87ac:	e1a04000 	mov	r4, r0
    87b0:	e1a06002 	mov	r6, r2
    87b4:	ea000001 	b	87c0 <va_printk+0x38>
    87b8:	e2866001 	add	r6, r6, #1, 0
    87bc:	e4c43001 	strb	r3, [r4], #1
    87c0:	e5d63000 	ldrb	r3, [r6]
    87c4:	e3530000 	cmp	r3, #0, 0
    87c8:	0a0000c8 	beq	8af0 <va_printk+0x368>
    87cc:	e1540008 	cmp	r4, r8
    87d0:	2a0000c6 	bcs	8af0 <va_printk+0x368>
    87d4:	e3530025 	cmp	r3, #37, 0	; 0x25
    87d8:	1afffff6 	bne	87b8 <va_printk+0x30>
    87dc:	e5d62001 	ldrb	r2, [r6, #1]
    87e0:	e3520025 	cmp	r2, #37, 0	; 0x25
    87e4:	04c43001 	strbeq	r3, [r4], #1
    87e8:	02866002 	addeq	r6, r6, #2, 0
    87ec:	0afffff3 	beq	87c0 <va_printk+0x38>
    87f0:	e2866001 	add	r6, r6, #1, 0
    87f4:	e3a05000 	mov	r5, #0, 0
    87f8:	e5d67000 	ldrb	r7, [r6]
    87fc:	e1a0a007 	mov	sl, r7
    8800:	e1a00007 	mov	r0, r7
    8804:	ebffff3d 	bl	8500 <isdigit>
    8808:	e3500000 	cmp	r0, #0, 0
    880c:	0a000004 	beq	8824 <va_printk+0x9c>
    8810:	e0855105 	add	r5, r5, r5, lsl #2
    8814:	e0875085 	add	r5, r7, r5, lsl #1
    8818:	e2455030 	sub	r5, r5, #48, 0	; 0x30
    881c:	e2866001 	add	r6, r6, #1, 0
    8820:	eafffff4 	b	87f8 <va_printk+0x70>
    8824:	e355001f 	cmp	r5, #31, 0
    8828:	8a00001a 	bhi	8898 <va_printk+0x110>
    882c:	e2477062 	sub	r7, r7, #98, 0	; 0x62
    8830:	e3570016 	cmp	r7, #22, 0
    8834:	979ff107 	ldrls	pc, [pc, r7, lsl #2]
    8838:	ea000094 	b	8a90 <va_printk+0x308>
    883c:	00008a14 	andeq	r8, r0, r4, lsl sl
    8840:	00008a5c 	andeq	r8, r0, ip, asr sl
    8844:	00008974 	andeq	r8, r0, r4, ror r9
    8848:	00008a90 	muleq	r0, r0, sl
    884c:	0000895c 	andeq	r8, r0, ip, asr r9
    8850:	00008a90 	muleq	r0, r0, sl
    8854:	00008a90 	muleq	r0, r0, sl
    8858:	00008a90 	muleq	r0, r0, sl
    885c:	00008a90 	muleq	r0, r0, sl
    8860:	00008a90 	muleq	r0, r0, sl
    8864:	000088b8 			; <UNDEFINED> instruction: 0x000088b8
    8868:	00008a90 	muleq	r0, r0, sl
    886c:	00008a90 	muleq	r0, r0, sl
    8870:	00008a90 	muleq	r0, r0, sl
    8874:	000089e0 	andeq	r8, r0, r0, ror #19
    8878:	00008a90 	muleq	r0, r0, sl
    887c:	00008a90 	muleq	r0, r0, sl
    8880:	00008a48 	andeq	r8, r0, r8, asr #20
    8884:	00008a90 	muleq	r0, r0, sl
    8888:	000089ac 	andeq	r8, r0, ip, lsr #19
    888c:	00008a90 	muleq	r0, r0, sl
    8890:	00008a90 	muleq	r0, r0, sl
    8894:	000089e0 	andeq	r8, r0, r0, ror #19
    8898:	e59f3264 	ldr	r3, [pc, #612]	; 8b04 <va_printk+0x37c>
    889c:	e58d3000 	str	r3, [sp]
    88a0:	e3a03098 	mov	r3, #152, 0	; 0x98
    88a4:	e59f225c 	ldr	r2, [pc, #604]	; 8b08 <va_printk+0x380>
    88a8:	e59f125c 	ldr	r1, [pc, #604]	; 8b0c <va_printk+0x384>
    88ac:	e59f025c 	ldr	r0, [pc, #604]	; 8b10 <va_printk+0x388>
    88b0:	ebfffeef 	bl	8474 <printk>
    88b4:	eb00009c 	bl	8b2c <clean_reboot>
    88b8:	e3a02003 	mov	r2, #3, 0
    88bc:	e59f1250 	ldr	r1, [pc, #592]	; 8b14 <va_printk+0x38c>
    88c0:	e1a00006 	mov	r0, r6
    88c4:	eb000205 	bl	90e0 <strncmp>
    88c8:	e3500000 	cmp	r0, #0, 0
    88cc:	1a00001a 	bne	893c <va_printk+0x1b4>
    88d0:	e2866002 	add	r6, r6, #2, 0
    88d4:	e59d300c 	ldr	r3, [sp, #12]
    88d8:	e2833007 	add	r3, r3, #7, 0
    88dc:	e3c33007 	bic	r3, r3, #7, 0
    88e0:	e2832008 	add	r2, r3, #8, 0
    88e4:	e58d200c 	str	r2, [sp, #12]
    88e8:	e593b000 	ldr	fp, [r3]
    88ec:	e5933004 	ldr	r3, [r3, #4]
    88f0:	e3a0a000 	mov	sl, #0, 0
    88f4:	e58da004 	str	sl, [sp, #4]
    88f8:	e58d5000 	str	r5, [sp]
    88fc:	e3a02080 	mov	r2, #128, 0	; 0x80
    8900:	e28d1010 	add	r1, sp, #16, 0
    8904:	e3a00010 	mov	r0, #16, 0
    8908:	ebffff18 	bl	8570 <emit>
    890c:	e1a07000 	mov	r7, r0
    8910:	e58da004 	str	sl, [sp, #4]
    8914:	e58d5000 	str	r5, [sp]
    8918:	e1a0300b 	mov	r3, fp
    891c:	e3a02080 	mov	r2, #128, 0	; 0x80
    8920:	e28d1090 	add	r1, sp, #144, 0	; 0x90
    8924:	e3a00010 	mov	r0, #16, 0
    8928:	ebffff10 	bl	8570 <emit>
    892c:	e28d1092 	add	r1, sp, #146, 0	; 0x92
    8930:	e28d0010 	add	r0, sp, #16, 0
    8934:	eb0001dc 	bl	90ac <strcat>
    8938:	ea000019 	b	89a4 <va_printk+0x21c>
    893c:	e59f31d4 	ldr	r3, [pc, #468]	; 8b18 <va_printk+0x390>
    8940:	e58d3000 	str	r3, [sp]
    8944:	e3a0309d 	mov	r3, #157, 0	; 0x9d
    8948:	e59f21b8 	ldr	r2, [pc, #440]	; 8b08 <va_printk+0x380>
    894c:	e59f11b8 	ldr	r1, [pc, #440]	; 8b0c <va_printk+0x384>
    8950:	e59f01b8 	ldr	r0, [pc, #440]	; 8b10 <va_printk+0x388>
    8954:	ebfffec6 	bl	8474 <printk>
    8958:	eb000073 	bl	8b2c <clean_reboot>
    895c:	e3a030af 	mov	r3, #175, 0	; 0xaf
    8960:	e59f21a0 	ldr	r2, [pc, #416]	; 8b08 <va_printk+0x380>
    8964:	e59f11a0 	ldr	r1, [pc, #416]	; 8b0c <va_printk+0x384>
    8968:	e59f01ac 	ldr	r0, [pc, #428]	; 8b1c <va_printk+0x394>
    896c:	ebfffec0 	bl	8474 <printk>
    8970:	eb00006d 	bl	8b2c <clean_reboot>
    8974:	e59d300c 	ldr	r3, [sp, #12]
    8978:	e2832004 	add	r2, r3, #4, 0
    897c:	e58d200c 	str	r2, [sp, #12]
    8980:	e5933000 	ldr	r3, [r3]
    8984:	e3a02001 	mov	r2, #1, 0
    8988:	e58d2004 	str	r2, [sp, #4]
    898c:	e58d5000 	str	r5, [sp]
    8990:	e3a02080 	mov	r2, #128, 0	; 0x80
    8994:	e28d1010 	add	r1, sp, #16, 0
    8998:	e3a0000a 	mov	r0, #10, 0
    899c:	ebfffef3 	bl	8570 <emit>
    89a0:	e1a07000 	mov	r7, r0
    89a4:	e2866001 	add	r6, r6, #1, 0
    89a8:	ea00004a 	b	8ad8 <va_printk+0x350>
    89ac:	e59d300c 	ldr	r3, [sp, #12]
    89b0:	e2832004 	add	r2, r3, #4, 0
    89b4:	e58d200c 	str	r2, [sp, #12]
    89b8:	e5933000 	ldr	r3, [r3]
    89bc:	e3a02000 	mov	r2, #0, 0
    89c0:	e58d2004 	str	r2, [sp, #4]
    89c4:	e58d5000 	str	r5, [sp]
    89c8:	e3a02080 	mov	r2, #128, 0	; 0x80
    89cc:	e28d1010 	add	r1, sp, #16, 0
    89d0:	e3a0000a 	mov	r0, #10, 0
    89d4:	ebfffee5 	bl	8570 <emit>
    89d8:	e1a07000 	mov	r7, r0
    89dc:	eafffff0 	b	89a4 <va_printk+0x21c>
    89e0:	e59d300c 	ldr	r3, [sp, #12]
    89e4:	e2832004 	add	r2, r3, #4, 0
    89e8:	e58d200c 	str	r2, [sp, #12]
    89ec:	e5933000 	ldr	r3, [r3]
    89f0:	e3a02000 	mov	r2, #0, 0
    89f4:	e58d2004 	str	r2, [sp, #4]
    89f8:	e58d5000 	str	r5, [sp]
    89fc:	e3a02080 	mov	r2, #128, 0	; 0x80
    8a00:	e28d1010 	add	r1, sp, #16, 0
    8a04:	e3a00010 	mov	r0, #16, 0
    8a08:	ebfffed8 	bl	8570 <emit>
    8a0c:	e1a07000 	mov	r7, r0
    8a10:	eaffffe3 	b	89a4 <va_printk+0x21c>
    8a14:	e59d300c 	ldr	r3, [sp, #12]
    8a18:	e2832004 	add	r2, r3, #4, 0
    8a1c:	e58d200c 	str	r2, [sp, #12]
    8a20:	e5933000 	ldr	r3, [r3]
    8a24:	e3a02000 	mov	r2, #0, 0
    8a28:	e58d2004 	str	r2, [sp, #4]
    8a2c:	e58d5000 	str	r5, [sp]
    8a30:	e3a02080 	mov	r2, #128, 0	; 0x80
    8a34:	e28d1010 	add	r1, sp, #16, 0
    8a38:	e3a00002 	mov	r0, #2, 0
    8a3c:	ebfffecb 	bl	8570 <emit>
    8a40:	e1a07000 	mov	r7, r0
    8a44:	eaffffd6 	b	89a4 <va_printk+0x21c>
    8a48:	e59d300c 	ldr	r3, [sp, #12]
    8a4c:	e2832004 	add	r2, r3, #4, 0
    8a50:	e58d200c 	str	r2, [sp, #12]
    8a54:	e5937000 	ldr	r7, [r3]
    8a58:	eaffffd1 	b	89a4 <va_printk+0x21c>
    8a5c:	e59d300c 	ldr	r3, [sp, #12]
    8a60:	e2832004 	add	r2, r3, #4, 0
    8a64:	e58d200c 	str	r2, [sp, #12]
    8a68:	e5933000 	ldr	r3, [r3]
    8a6c:	e3a02000 	mov	r2, #0, 0
    8a70:	e58d2004 	str	r2, [sp, #4]
    8a74:	e58d5000 	str	r5, [sp]
    8a78:	e3a02080 	mov	r2, #128, 0	; 0x80
    8a7c:	e28d1010 	add	r1, sp, #16, 0
    8a80:	e3a00008 	mov	r0, #8, 0
    8a84:	ebfffeb9 	bl	8570 <emit>
    8a88:	e1a07000 	mov	r7, r0
    8a8c:	eaffffc4 	b	89a4 <va_printk+0x21c>
    8a90:	e3a03000 	mov	r3, #0, 0
    8a94:	e5c63001 	strb	r3, [r6, #1]
    8a98:	e1a0200a 	mov	r2, sl
    8a9c:	e1a0100a 	mov	r1, sl
    8aa0:	e59f0078 	ldr	r0, [pc, #120]	; 8b20 <va_printk+0x398>
    8aa4:	ebfffe72 	bl	8474 <printk>
    8aa8:	e59f3074 	ldr	r3, [pc, #116]	; 8b24 <va_printk+0x39c>
    8aac:	e5933000 	ldr	r3, [r3]
    8ab0:	e59d0008 	ldr	r0, [sp, #8]
    8ab4:	e12fff33 	blx	r3
    8ab8:	e3a030d3 	mov	r3, #211, 0	; 0xd3
    8abc:	e59f2044 	ldr	r2, [pc, #68]	; 8b08 <va_printk+0x380>
    8ac0:	e59f1044 	ldr	r1, [pc, #68]	; 8b0c <va_printk+0x384>
    8ac4:	e59f005c 	ldr	r0, [pc, #92]	; 8b28 <va_printk+0x3a0>
    8ac8:	ebfffe69 	bl	8474 <printk>
    8acc:	eb000016 	bl	8b2c <clean_reboot>
    8ad0:	e2877001 	add	r7, r7, #1, 0
    8ad4:	e4c43001 	strb	r3, [r4], #1
    8ad8:	e1540008 	cmp	r4, r8
    8adc:	2affff37 	bcs	87c0 <va_printk+0x38>
    8ae0:	e5d73000 	ldrb	r3, [r7]
    8ae4:	e3530000 	cmp	r3, #0, 0
    8ae8:	1afffff8 	bne	8ad0 <va_printk+0x348>
    8aec:	eaffff33 	b	87c0 <va_printk+0x38>
    8af0:	e3a03000 	mov	r3, #0, 0
    8af4:	e4c43001 	strb	r3, [r4], #1
    8af8:	e0440009 	sub	r0, r4, r9
    8afc:	e28ddf45 	add	sp, sp, #276	; 0x114
    8b00:	e8bd8ff0 	pop	{r4, r5, r6, r7, r8, r9, sl, fp, pc}
    8b04:	00009428 	andeq	r9, r0, r8, lsr #8
    8b08:	000094e4 	andeq	r9, r0, r4, ror #9
    8b0c:	000093e4 	andeq	r9, r0, r4, ror #7
    8b10:	00009210 	andeq	r9, r0, r0, lsl r2
    8b14:	00009434 	andeq	r9, r0, r4, lsr r4
    8b18:	00009438 	andeq	r9, r0, r8, lsr r4
    8b1c:	00009454 	andeq	r9, r0, r4, asr r4
    8b20:	0000947c 	andeq	r9, r0, ip, ror r4
    8b24:	000094fc 	strdeq	r9, [r0], -ip
    8b28:	000094ac 	andeq	r9, r0, ip, lsr #9

00008b2c <clean_reboot>:
    8b2c:	e92d4010 	push	{r4, lr}
    8b30:	e59f3018 	ldr	r3, [pc, #24]	; 8b50 <clean_reboot+0x24>
    8b34:	e5933000 	ldr	r3, [r3]
    8b38:	e59f0014 	ldr	r0, [pc, #20]	; 8b54 <clean_reboot+0x28>
    8b3c:	e12fff33 	blx	r3
    8b40:	eb00010b 	bl	8f74 <uart_flush_tx>
    8b44:	e3a0000a 	mov	r0, #10, 0
    8b48:	eb000049 	bl	8c74 <delay_ms>
    8b4c:	eb000019 	bl	8bb8 <rpi_reboot>
    8b50:	000094fc 	strdeq	r9, [r0], -ip
    8b54:	000094f0 	strdeq	r9, [r0], -r0

00008b58 <_cstart>:
    8b58:	e92d4010 	push	{r4, lr}
    8b5c:	eb000009 	bl	8b88 <custom_loader>
    8b60:	e59f3018 	ldr	r3, [pc, #24]	; 8b80 <_cstart+0x28>
    8b64:	e59f2018 	ldr	r2, [pc, #24]	; 8b84 <_cstart+0x2c>
    8b68:	e1530002 	cmp	r3, r2
    8b6c:	33a02000 	movcc	r2, #0, 0
    8b70:	34832004 	strcc	r2, [r3], #4
    8b74:	3afffffa 	bcc	8b64 <_cstart+0xc>
    8b78:	ebfffd4e 	bl	80b8 <notmain>
    8b7c:	ebffffea 	bl	8b2c <clean_reboot>
    8b80:	00009504 	andeq	r9, r0, r4, lsl #10
    8b84:	00009908 	andeq	r9, r0, r8, lsl #18

00008b88 <custom_loader>:
    8b88:	e12fff1e 	bx	lr

00008b8c <at_user_level>:
    8b8c:	e10f0000 	mrs	r0, CPSR
    8b90:	e200001f 	and	r0, r0, #31, 0
    8b94:	e3500010 	cmp	r0, #16, 0
    8b98:	13a00000 	movne	r0, #0, 0
    8b9c:	03a00001 	moveq	r0, #1, 0
    8ba0:	e12fff1e 	bx	lr

00008ba4 <set_user_level>:
    8ba4:	e10f3000 	mrs	r3, CPSR
    8ba8:	e3c3301f 	bic	r3, r3, #31, 0
    8bac:	e3833010 	orr	r3, r3, #16, 0
    8bb0:	e129f003 	msr	CPSR_fc, r3
    8bb4:	e12fff1e 	bx	lr

00008bb8 <rpi_reboot>:
    8bb8:	e92d4010 	push	{r4, lr}
    8bbc:	ebfffff2 	bl	8b8c <at_user_level>
    8bc0:	e3500000 	cmp	r0, #0, 0
    8bc4:	1a000009 	bne	8bf0 <rpi_reboot+0x38>
    8bc8:	eb0000e9 	bl	8f74 <uart_flush_tx>
    8bcc:	e3a0000a 	mov	r0, #10, 0
    8bd0:	eb000027 	bl	8c74 <delay_ms>
    8bd4:	e59f101c 	ldr	r1, [pc, #28]	; 8bf8 <rpi_reboot+0x40>
    8bd8:	e59f001c 	ldr	r0, [pc, #28]	; 8bfc <rpi_reboot+0x44>
    8bdc:	ebfffd10 	bl	8024 <PUT32>
    8be0:	e59f1018 	ldr	r1, [pc, #24]	; 8c00 <rpi_reboot+0x48>
    8be4:	e59f0018 	ldr	r0, [pc, #24]	; 8c04 <rpi_reboot+0x4c>
    8be8:	ebfffd0d 	bl	8024 <PUT32>
    8bec:	eafffffe 	b	8bec <rpi_reboot+0x34>
    8bf0:	ebffffeb 	bl	8ba4 <set_user_level>
    8bf4:	eafffff3 	b	8bc8 <rpi_reboot+0x10>
    8bf8:	5a000001 	bpl	8c04 <rpi_reboot+0x4c>
    8bfc:	20100024 	andscs	r0, r0, r4, lsr #32
    8c00:	5a000020 	bpl	8c88 <delay_ms+0x14>
    8c04:	2010001c 	andscs	r0, r0, ip, lsl r0

00008c08 <delay_cycles>:
    8c08:	e2403001 	sub	r3, r0, #1, 0
    8c0c:	e3500000 	cmp	r0, #0, 0
    8c10:	012fff1e 	bxeq	lr
    8c14:	e2811000 	add	r1, r1, #0, 0
    8c18:	e1a00003 	mov	r0, r3
    8c1c:	eafffff9 	b	8c08 <delay_cycles>

00008c20 <timer_get_usec_raw>:
    8c20:	e92d4010 	push	{r4, lr}
    8c24:	e59f0004 	ldr	r0, [pc, #4]	; 8c30 <timer_get_usec_raw+0x10>
    8c28:	ebfffcff 	bl	802c <GET32>
    8c2c:	e8bd8010 	pop	{r4, pc}
    8c30:	20003004 	andcs	r3, r0, r4

00008c34 <timer_get_usec>:
    8c34:	e92d4010 	push	{r4, lr}
    8c38:	eb000019 	bl	8ca4 <dev_barrier>
    8c3c:	ebfffff7 	bl	8c20 <timer_get_usec_raw>
    8c40:	e1a04000 	mov	r4, r0
    8c44:	eb000016 	bl	8ca4 <dev_barrier>
    8c48:	e1a00004 	mov	r0, r4
    8c4c:	e8bd8010 	pop	{r4, pc}

00008c50 <delay_us>:
    8c50:	e92d4070 	push	{r4, r5, r6, lr}
    8c54:	e1a05000 	mov	r5, r0
    8c58:	ebfffff5 	bl	8c34 <timer_get_usec>
    8c5c:	e1a04000 	mov	r4, r0
    8c60:	ebfffff3 	bl	8c34 <timer_get_usec>
    8c64:	e0400004 	sub	r0, r0, r4
    8c68:	e1500005 	cmp	r0, r5
    8c6c:	3afffffb 	bcc	8c60 <delay_us+0x10>
    8c70:	e8bd8070 	pop	{r4, r5, r6, pc}

00008c74 <delay_ms>:
    8c74:	e92d4010 	push	{r4, lr}
    8c78:	e0603280 	rsb	r3, r0, r0, lsl #5
    8c7c:	e0800103 	add	r0, r0, r3, lsl #2
    8c80:	e1a00180 	lsl	r0, r0, #3
    8c84:	ebfffff1 	bl	8c50 <delay_us>
    8c88:	e8bd8010 	pop	{r4, pc}

00008c8c <delay_sec>:
    8c8c:	e92d4010 	push	{r4, lr}
    8c90:	e0603280 	rsb	r3, r0, r0, lsl #5
    8c94:	e0800103 	add	r0, r0, r3, lsl #2
    8c98:	e1a00180 	lsl	r0, r0, #3
    8c9c:	ebfffff4 	bl	8c74 <delay_ms>
    8ca0:	e8bd8010 	pop	{r4, pc}

00008ca4 <dev_barrier>:
    8ca4:	ea000002 	b	8cb4 <dsb>

00008ca8 <dmb>:
    8ca8:	e3a00000 	mov	r0, #0, 0
    8cac:	ee070fba 	mcr	15, 0, r0, cr7, cr10, {5}
    8cb0:	e12fff1e 	bx	lr

00008cb4 <dsb>:
    8cb4:	ee070f9a 	mcr	15, 0, r0, cr7, cr10, {4}
    8cb8:	e12fff1e 	bx	lr

00008cbc <uart_can_getc>:
    8cbc:	e52de004 	push	{lr}		; (str lr, [sp, #-4]!)
    8cc0:	e24dd00c 	sub	sp, sp, #12, 0
    8cc4:	e59f3018 	ldr	r3, [pc, #24]	; 8ce4 <uart_can_getc+0x28>
    8cc8:	e59f2018 	ldr	r2, [pc, #24]	; 8ce8 <uart_can_getc+0x2c>
    8ccc:	e5832000 	str	r2, [r3]
    8cd0:	e59f0014 	ldr	r0, [pc, #20]	; 8cec <uart_can_getc+0x30>
    8cd4:	ebfffcd4 	bl	802c <GET32>
    8cd8:	e2000001 	and	r0, r0, #1, 0
    8cdc:	e28dd00c 	add	sp, sp, #12, 0
    8ce0:	e49df004 	pop	{pc}		; (ldr pc, [sp], #4)
    8ce4:	00009904 	andeq	r9, r0, r4, lsl #18
    8ce8:	20215000 	eorcs	r5, r1, r0
    8cec:	20215054 	eorcs	r5, r1, r4, asr r0

00008cf0 <uart_init>:
    8cf0:	e92d4070 	push	{r4, r5, r6, lr}
    8cf4:	e59f4150 	ldr	r4, [pc, #336]	; 8e4c <uart_init+0x15c>
    8cf8:	e59f3150 	ldr	r3, [pc, #336]	; 8e50 <uart_init+0x160>
    8cfc:	e5843000 	str	r3, [r4]
    8d00:	e3a01002 	mov	r1, #2, 0
    8d04:	e3a0000e 	mov	r0, #14, 0
    8d08:	eb00009e 	bl	8f88 <gpio_set_function>
    8d0c:	e3a01002 	mov	r1, #2, 0
    8d10:	e3a0000f 	mov	r0, #15, 0
    8d14:	eb00009b 	bl	8f88 <gpio_set_function>
    8d18:	e5945000 	ldr	r5, [r4]
    8d1c:	e2850004 	add	r0, r5, #4, 0
    8d20:	ebfffcc1 	bl	802c <GET32>
    8d24:	e5850004 	str	r0, [r5, #4]
    8d28:	e5943000 	ldr	r3, [r4]
    8d2c:	e5d32004 	ldrb	r2, [r3, #4]
    8d30:	e3822001 	orr	r2, r2, #1, 0
    8d34:	e1a00003 	mov	r0, r3
    8d38:	e5e02004 	strb	r2, [r0, #4]!
    8d3c:	e5931004 	ldr	r1, [r3, #4]
    8d40:	ebfffcb7 	bl	8024 <PUT32>
    8d44:	e5945000 	ldr	r5, [r4]
    8d48:	e2850060 	add	r0, r5, #96, 0	; 0x60
    8d4c:	ebfffcb6 	bl	802c <GET32>
    8d50:	e5850060 	str	r0, [r5, #96]	; 0x60
    8d54:	e5943000 	ldr	r3, [r4]
    8d58:	e5d32060 	ldrb	r2, [r3, #96]	; 0x60
    8d5c:	e20220fc 	and	r2, r2, #252, 0	; 0xfc
    8d60:	e1a00003 	mov	r0, r3
    8d64:	e5e02060 	strb	r2, [r0, #96]!	; 0x60
    8d68:	e5931060 	ldr	r1, [r3, #96]	; 0x60
    8d6c:	ebfffcac 	bl	8024 <PUT32>
    8d70:	e5945000 	ldr	r5, [r4]
    8d74:	e2850044 	add	r0, r5, #68, 0	; 0x44
    8d78:	ebfffcab 	bl	802c <GET32>
    8d7c:	e5850044 	str	r0, [r5, #68]	; 0x44
    8d80:	e5943000 	ldr	r3, [r4]
    8d84:	e5d32044 	ldrb	r2, [r3, #68]	; 0x44
    8d88:	e20220fc 	and	r2, r2, #252, 0	; 0xfc
    8d8c:	e1a00003 	mov	r0, r3
    8d90:	e5e02044 	strb	r2, [r0, #68]!	; 0x44
    8d94:	e5931044 	ldr	r1, [r3, #68]	; 0x44
    8d98:	ebfffca1 	bl	8024 <PUT32>
    8d9c:	e5945000 	ldr	r5, [r4]
    8da0:	e2850048 	add	r0, r5, #72, 0	; 0x48
    8da4:	ebfffca0 	bl	802c <GET32>
    8da8:	e5850048 	str	r0, [r5, #72]	; 0x48
    8dac:	e5943000 	ldr	r3, [r4]
    8db0:	e5d32048 	ldrb	r2, [r3, #72]	; 0x48
    8db4:	e3822006 	orr	r2, r2, #6, 0
    8db8:	e1a00003 	mov	r0, r3
    8dbc:	e5e02048 	strb	r2, [r0, #72]!	; 0x48
    8dc0:	e5931048 	ldr	r1, [r3, #72]	; 0x48
    8dc4:	ebfffc96 	bl	8024 <PUT32>
    8dc8:	e5945000 	ldr	r5, [r4]
    8dcc:	e2850068 	add	r0, r5, #104, 0	; 0x68
    8dd0:	ebfffc95 	bl	802c <GET32>
    8dd4:	e5850068 	str	r0, [r5, #104]	; 0x68
    8dd8:	e5943000 	ldr	r3, [r4]
    8ddc:	e1a00003 	mov	r0, r3
    8de0:	e59f206c 	ldr	r2, [pc, #108]	; 8e54 <uart_init+0x164>
    8de4:	e1e026b8 	strh	r2, [r0, #104]!	; 0x68
    8de8:	e5931068 	ldr	r1, [r3, #104]	; 0x68
    8dec:	ebfffc8c 	bl	8024 <PUT32>
    8df0:	e5945000 	ldr	r5, [r4]
    8df4:	e285004c 	add	r0, r5, #76, 0	; 0x4c
    8df8:	ebfffc8b 	bl	802c <GET32>
    8dfc:	e585004c 	str	r0, [r5, #76]	; 0x4c
    8e00:	e5943000 	ldr	r3, [r4]
    8e04:	e5d3204c 	ldrb	r2, [r3, #76]	; 0x4c
    8e08:	e3822001 	orr	r2, r2, #1, 0
    8e0c:	e1a00003 	mov	r0, r3
    8e10:	e5e0204c 	strb	r2, [r0, #76]!	; 0x4c
    8e14:	e593104c 	ldr	r1, [r3, #76]	; 0x4c
    8e18:	ebfffc81 	bl	8024 <PUT32>
    8e1c:	e5945000 	ldr	r5, [r4]
    8e20:	e2850060 	add	r0, r5, #96, 0	; 0x60
    8e24:	ebfffc80 	bl	802c <GET32>
    8e28:	e5850060 	str	r0, [r5, #96]	; 0x60
    8e2c:	e5943000 	ldr	r3, [r4]
    8e30:	e5d32060 	ldrb	r2, [r3, #96]	; 0x60
    8e34:	e3822003 	orr	r2, r2, #3, 0
    8e38:	e1a00003 	mov	r0, r3
    8e3c:	e5e02060 	strb	r2, [r0, #96]!	; 0x60
    8e40:	e5931060 	ldr	r1, [r3, #96]	; 0x60
    8e44:	ebfffc76 	bl	8024 <PUT32>
    8e48:	e8bd8070 	pop	{r4, r5, r6, pc}
    8e4c:	00009904 	andeq	r9, r0, r4, lsl #18
    8e50:	20215000 	eorcs	r5, r1, r0
    8e54:	0000010e 	andeq	r0, r0, lr, lsl #2

00008e58 <uart_getc>:
    8e58:	e92d4010 	push	{r4, lr}
    8e5c:	e59f3028 	ldr	r3, [pc, #40]	; 8e8c <uart_getc+0x34>
    8e60:	e59f2028 	ldr	r2, [pc, #40]	; 8e90 <uart_getc+0x38>
    8e64:	e5832000 	str	r2, [r3]
    8e68:	ebffff93 	bl	8cbc <uart_can_getc>
    8e6c:	e3500000 	cmp	r0, #0, 0
    8e70:	0afffffc 	beq	8e68 <uart_getc+0x10>
    8e74:	e59f3010 	ldr	r3, [pc, #16]	; 8e8c <uart_getc+0x34>
    8e78:	e5930000 	ldr	r0, [r3]
    8e7c:	e2800040 	add	r0, r0, #64, 0	; 0x40
    8e80:	ebfffc69 	bl	802c <GET32>
    8e84:	e6ef0070 	uxtb	r0, r0
    8e88:	e8bd8010 	pop	{r4, pc}
    8e8c:	00009904 	andeq	r9, r0, r4, lsl #18
    8e90:	20215000 	eorcs	r5, r1, r0

00008e94 <uart_can_putc>:
    8e94:	e52de004 	push	{lr}		; (str lr, [sp, #-4]!)
    8e98:	e24dd00c 	sub	sp, sp, #12, 0
    8e9c:	e59f3020 	ldr	r3, [pc, #32]	; 8ec4 <uart_can_putc+0x30>
    8ea0:	e59f2020 	ldr	r2, [pc, #32]	; 8ec8 <uart_can_putc+0x34>
    8ea4:	e5832000 	str	r2, [r3]
    8ea8:	e59f001c 	ldr	r0, [pc, #28]	; 8ecc <uart_can_putc+0x38>
    8eac:	ebfffc5e 	bl	802c <GET32>
    8eb0:	e6ef0070 	uxtb	r0, r0
    8eb4:	e1a002a0 	lsr	r0, r0, #5
    8eb8:	e2000001 	and	r0, r0, #1, 0
    8ebc:	e28dd00c 	add	sp, sp, #12, 0
    8ec0:	e49df004 	pop	{pc}		; (ldr pc, [sp], #4)
    8ec4:	00009904 	andeq	r9, r0, r4, lsl #18
    8ec8:	20215000 	eorcs	r5, r1, r0
    8ecc:	20215054 	eorcs	r5, r1, r4, asr r0

00008ed0 <uart_putc>:
    8ed0:	e92d4010 	push	{r4, lr}
    8ed4:	e1a04000 	mov	r4, r0
    8ed8:	e59f3028 	ldr	r3, [pc, #40]	; 8f08 <uart_putc+0x38>
    8edc:	e59f2028 	ldr	r2, [pc, #40]	; 8f0c <uart_putc+0x3c>
    8ee0:	e5832000 	str	r2, [r3]
    8ee4:	ebffffea 	bl	8e94 <uart_can_putc>
    8ee8:	e3500000 	cmp	r0, #0, 0
    8eec:	0afffffc 	beq	8ee4 <uart_putc+0x14>
    8ef0:	e59f3010 	ldr	r3, [pc, #16]	; 8f08 <uart_putc+0x38>
    8ef4:	e5930000 	ldr	r0, [r3]
    8ef8:	e1a01004 	mov	r1, r4
    8efc:	e2800040 	add	r0, r0, #64, 0	; 0x40
    8f00:	ebfffc47 	bl	8024 <PUT32>
    8f04:	e8bd8010 	pop	{r4, pc}
    8f08:	00009904 	andeq	r9, r0, r4, lsl #18
    8f0c:	20215000 	eorcs	r5, r1, r0

00008f10 <uart_has_data>:
    8f10:	e92d4010 	push	{r4, lr}
    8f14:	ebffff68 	bl	8cbc <uart_can_getc>
    8f18:	e8bd8010 	pop	{r4, pc}

00008f1c <uart_getc_async>:
    8f1c:	e92d4010 	push	{r4, lr}
    8f20:	ebfffffa 	bl	8f10 <uart_has_data>
    8f24:	e3500000 	cmp	r0, #0, 0
    8f28:	0a000001 	beq	8f34 <uart_getc_async+0x18>
    8f2c:	ebffffc9 	bl	8e58 <uart_getc>
    8f30:	e8bd8010 	pop	{r4, pc}
    8f34:	e3e00000 	mvn	r0, #0, 0
    8f38:	e8bd8010 	pop	{r4, pc}

00008f3c <uart_tx_is_empty>:
    8f3c:	e52de004 	push	{lr}		; (str lr, [sp, #-4]!)
    8f40:	e24dd00c 	sub	sp, sp, #12, 0
    8f44:	e59f301c 	ldr	r3, [pc, #28]	; 8f68 <uart_tx_is_empty+0x2c>
    8f48:	e59f201c 	ldr	r2, [pc, #28]	; 8f6c <uart_tx_is_empty+0x30>
    8f4c:	e5832000 	str	r2, [r3]
    8f50:	e59f0018 	ldr	r0, [pc, #24]	; 8f70 <uart_tx_is_empty+0x34>
    8f54:	ebfffc34 	bl	802c <GET32>
    8f58:	e1a00420 	lsr	r0, r0, #8
    8f5c:	e2000001 	and	r0, r0, #1, 0
    8f60:	e28dd00c 	add	sp, sp, #12, 0
    8f64:	e49df004 	pop	{pc}		; (ldr pc, [sp], #4)
    8f68:	00009904 	andeq	r9, r0, r4, lsl #18
    8f6c:	20215000 	eorcs	r5, r1, r0
    8f70:	20215064 	eorcs	r5, r1, r4, rrx

00008f74 <uart_flush_tx>:
    8f74:	e92d4010 	push	{r4, lr}
    8f78:	ebffffef 	bl	8f3c <uart_tx_is_empty>
    8f7c:	e3500000 	cmp	r0, #0, 0
    8f80:	0afffffc 	beq	8f78 <uart_flush_tx+0x4>
    8f84:	e8bd8010 	pop	{r4, pc}

00008f88 <gpio_set_function>:
    8f88:	e92d41f0 	push	{r4, r5, r6, r7, r8, lr}
    8f8c:	e1a04000 	mov	r4, r0
    8f90:	e1a06001 	mov	r6, r1
    8f94:	e59f503c 	ldr	r5, [pc, #60]	; 8fd8 <gpio_set_function+0x50>
    8f98:	e0853095 	umull	r3, r5, r5, r0
    8f9c:	e1a051a5 	lsr	r5, r5, #3
    8fa0:	e2857302 	add	r7, r5, #134217728	; 0x8000000
    8fa4:	e2877702 	add	r7, r7, #524288	; 0x80000
    8fa8:	e1a07107 	lsl	r7, r7, #2
    8fac:	e1a00007 	mov	r0, r7
    8fb0:	ebfffc1d 	bl	802c <GET32>
    8fb4:	e0855105 	add	r5, r5, r5, lsl #2
    8fb8:	e0445085 	sub	r5, r4, r5, lsl #1
    8fbc:	e0855085 	add	r5, r5, r5, lsl #1
    8fc0:	e3a01007 	mov	r1, #7, 0
    8fc4:	e1c01511 	bic	r1, r0, r1, lsl r5
    8fc8:	e1811516 	orr	r1, r1, r6, lsl r5
    8fcc:	e1a00007 	mov	r0, r7
    8fd0:	ebfffc13 	bl	8024 <PUT32>
    8fd4:	e8bd81f0 	pop	{r4, r5, r6, r7, r8, pc}
    8fd8:	cccccccd 	stclgt	12, cr12, [ip], {205}	; 0xcd

00008fdc <gpio_set_output>:
    8fdc:	e92d4010 	push	{r4, lr}
    8fe0:	e3a01001 	mov	r1, #1, 0
    8fe4:	ebffffe7 	bl	8f88 <gpio_set_function>
    8fe8:	e8bd8010 	pop	{r4, pc}

00008fec <gpio_set_on>:
    8fec:	e92d4010 	push	{r4, lr}
    8ff0:	e3a01001 	mov	r1, #1, 0
    8ff4:	e1a01011 	lsl	r1, r1, r0
    8ff8:	e59f0004 	ldr	r0, [pc, #4]	; 9004 <gpio_set_on+0x18>
    8ffc:	ebfffc08 	bl	8024 <PUT32>
    9000:	e8bd8010 	pop	{r4, pc}
    9004:	2020001c 	eorcs	r0, r0, ip, lsl r0

00009008 <gpio_set_off>:
    9008:	e92d4010 	push	{r4, lr}
    900c:	e3a01001 	mov	r1, #1, 0
    9010:	e1a01011 	lsl	r1, r1, r0
    9014:	e59f0004 	ldr	r0, [pc, #4]	; 9020 <gpio_set_off+0x18>
    9018:	ebfffc01 	bl	8024 <PUT32>
    901c:	e8bd8010 	pop	{r4, pc}
    9020:	20200028 	eorcs	r0, r0, r8, lsr #32

00009024 <gpio_write>:
    9024:	e92d4010 	push	{r4, lr}
    9028:	e3510000 	cmp	r1, #0, 0
    902c:	0a000001 	beq	9038 <gpio_write+0x14>
    9030:	ebffffed 	bl	8fec <gpio_set_on>
    9034:	e8bd8010 	pop	{r4, pc}
    9038:	ebfffff2 	bl	9008 <gpio_set_off>
    903c:	e8bd8010 	pop	{r4, pc}

00009040 <gpio_set_input>:
    9040:	e92d4010 	push	{r4, lr}
    9044:	e3a01000 	mov	r1, #0, 0
    9048:	ebffffce 	bl	8f88 <gpio_set_function>
    904c:	e8bd8010 	pop	{r4, pc}

00009050 <gpio_read>:
    9050:	e92d4010 	push	{r4, lr}
    9054:	e1a04000 	mov	r4, r0
    9058:	e59f000c 	ldr	r0, [pc, #12]	; 906c <gpio_read+0x1c>
    905c:	ebfffbf2 	bl	802c <GET32>
    9060:	e3a03001 	mov	r3, #1, 0
    9064:	e0000413 	and	r0, r0, r3, lsl r4
    9068:	e8bd8010 	pop	{r4, pc}
    906c:	20200034 	eorcs	r0, r0, r4, lsr r0

00009070 <internal_putchar>:
    9070:	e92d4010 	push	{r4, lr}
    9074:	e1a04000 	mov	r4, r0
    9078:	ebffff94 	bl	8ed0 <uart_putc>
    907c:	e1a00004 	mov	r0, r4
    9080:	e8bd8010 	pop	{r4, pc}

00009084 <rpi_reset_putc>:
    9084:	e59f3008 	ldr	r3, [pc, #8]	; 9094 <rpi_reset_putc+0x10>
    9088:	e59f2008 	ldr	r2, [pc, #8]	; 9098 <rpi_reset_putc+0x14>
    908c:	e5832000 	str	r2, [r3]
    9090:	e12fff1e 	bx	lr
    9094:	00009500 	andeq	r9, r0, r0, lsl #10
    9098:	00009070 	andeq	r9, r0, r0, ror r0

0000909c <rpi_set_putc>:
    909c:	e59f3004 	ldr	r3, [pc, #4]	; 90a8 <rpi_set_putc+0xc>
    90a0:	e5830000 	str	r0, [r3]
    90a4:	e12fff1e 	bx	lr
    90a8:	00009500 	andeq	r9, r0, r0, lsl #10

000090ac <strcat>:
    90ac:	e1a02000 	mov	r2, r0
    90b0:	e1a03002 	mov	r3, r2
    90b4:	e2822001 	add	r2, r2, #1, 0
    90b8:	e5d3c000 	ldrb	ip, [r3]
    90bc:	e35c0000 	cmp	ip, #0, 0
    90c0:	1afffffa 	bne	90b0 <strcat+0x4>
    90c4:	e2433001 	sub	r3, r3, #1, 0
    90c8:	e5d12000 	ldrb	r2, [r1]
    90cc:	e2811001 	add	r1, r1, #1, 0
    90d0:	e5e32001 	strb	r2, [r3, #1]!
    90d4:	e3520000 	cmp	r2, #0, 0
    90d8:	1afffffa 	bne	90c8 <strcat+0x1c>
    90dc:	e12fff1e 	bx	lr

000090e0 <strncmp>:
    90e0:	e3520000 	cmp	r2, #0, 0
    90e4:	e2422001 	sub	r2, r2, #1, 0
    90e8:	0a000005 	beq	9104 <strncmp+0x24>
    90ec:	e4d03001 	ldrb	r3, [r0], #1
    90f0:	e4d1c001 	ldrb	ip, [r1], #1
    90f4:	e153000c 	cmp	r3, ip
    90f8:	0afffff8 	beq	90e0 <strncmp>
    90fc:	e043000c 	sub	r0, r3, ip
    9100:	e12fff1e 	bx	lr
    9104:	e3a00000 	mov	r0, #0, 0
    9108:	e12fff1e 	bx	lr

0000910c <__code_end__>:
    910c:	00000000 	andeq	r0, r0, r0

Disassembly of section .rodata:

00009110 <__FUNCTION__.3955-0x180>:
    9110:	63737973 	cmnvs	r3, #1884160	; 0x1cc000
    9114:	2e6c6c61 	cdpcs	12, 6, cr6, cr12, cr1, {3}
    9118:	00000063 	andeq	r0, r0, r3, rrx
    911c:	494e4150 	stmdbmi	lr, {r4, r6, r8, lr}^
    9120:	73253a43 			; <UNDEFINED> instruction: 0x73253a43
    9124:	3a73253a 	bcc	1cd2614 <__bss_end__+0x1cc8d0c>
    9128:	733a6425 	teqvc	sl, #620756992	; 0x25000000
    912c:	6c756f68 	ldclvs	15, cr6, [r5], #-416	; 0xfffffe60
    9130:	6f6e2064 	svcvs	0x006e2064
    9134:	65622074 	strbvs	r2, [r2, #-116]!	; 0xffffff8c
    9138:	6c616320 	stclvs	3, cr6, [r1], #-128	; 0xffffff80
    913c:	0a64656c 	beq	19226f4 <__bss_end__+0x1918dec>
    9140:	0000000a 	andeq	r0, r0, sl
    9144:	74736e69 	ldrbtvc	r6, [r3], #-3689	; 0xfffff197
    9148:	7825203a 	stmdavc	r5!, {r1, r3, r4, r5, sp}
    914c:	7973202c 	ldmdbvc	r3!, {r2, r3, r5, sp}^
    9150:	756e5f73 	strbvc	r5, [lr, #-3955]!	; 0xfffff08d
    9154:	78253d6d 	stmdavc	r5!, {r0, r2, r3, r5, r6, r8, sl, fp, ip, sp}
    9158:	7261202c 	rsbvc	r2, r1, #44, 0	; 0x2c
    915c:	25203a67 	strcs	r3, [r0, #-2663]!	; 0xfffff599
    9160:	000a2073 	andeq	r2, sl, r3, ror r0
    9164:	63737973 	cmnvs	r3, #1884160	; 0x1cc000
    9168:	3a6c6c61 	bcc	1b242f4 <__bss_end__+0x1b1a9ec>
    916c:	73253c20 			; <UNDEFINED> instruction: 0x73253c20
    9170:	00000a3e 	andeq	r0, r0, lr, lsr sl
    9174:	656c6c69 	strbvs	r6, [ip, #-3177]!	; 0xfffff397
    9178:	206c6167 	rsbcs	r6, ip, r7, ror #2
    917c:	74737973 	ldrbtvc	r7, [r3], #-2419	; 0xfffff68d
    9180:	63206d65 			; <UNDEFINED> instruction: 0x63206d65
    9184:	206c6c61 	rsbcs	r6, ip, r1, ror #24
    9188:	7825203d 	stmdavc	r5!, {r0, r2, r3, r4, r5, sp}
    918c:	00000a21 	andeq	r0, r0, r1, lsr #20
    9190:	72727563 	rsbsvc	r7, r2, #415236096	; 0x18c00000
    9194:	20746e65 	rsbscs	r6, r4, r5, ror #28
    9198:	63617473 	cmnvs	r1, #1929379840	; 0x73000000
    919c:	7274706b 	rsbsvc	r7, r4, #107, 0	; 0x6b
    91a0:	25203d20 	strcs	r3, [r0, #-3360]!	; 0xfffff2e0
    91a4:	00000a78 	andeq	r0, r0, r8, ror sl
    91a8:	756f6261 	strbvc	r6, [pc, #-609]!	; 8f4f <uart_tx_is_empty+0x13>
    91ac:	6f742074 	svcvs	0x00742074
    91b0:	736e6920 	cmnvc	lr, #32, 18	; 0x80000
    91b4:	6c6c6174 	stfvse	f6, [ip], #-464	; 0xfffffe30
    91b8:	6e616820 	cdpvs	8, 6, cr6, cr1, cr0, {1}
    91bc:	72656c64 	rsbvc	r6, r5, #100, 24	; 0x6400
    91c0:	00000a73 	andeq	r0, r0, r3, ror sl
    91c4:	756f6261 	strbvc	r6, [pc, #-609]!	; 8f6b <uart_tx_is_empty+0x2f>
    91c8:	6f742074 	svcvs	0x00742074
    91cc:	6e757220 	cdpvs	2, 7, cr7, cr5, cr0, {1}
    91d0:	73797320 	cmnvc	r9, #32, 6	; 0x80000000
    91d4:	6c6c6163 	stfvse	f6, [ip], #-396	; 0xfffffe74
    91d8:	6c656820 	stclvs	8, cr6, [r5], #-128	; 0xffffff80
    91dc:	000a6f6c 	andeq	r6, sl, ip, ror #30
    91e0:	6c6c6568 	cfstr64vs	mvdx6, [ip], #-416	; 0xfffffe60
    91e4:	6f77206f 	svcvs	0x0077206f
    91e8:	00646c72 	rsbeq	r6, r4, r2, ror ip
    91ec:	75736572 	ldrbvc	r6, [r3, #-1394]!	; 0xfffffa8e
    91f0:	6f20746c 	svcvs	0x0020746c
    91f4:	61632066 	cmnvs	r3, r6, rrx
    91f8:	6e696c6c 	cdpvs	12, 6, cr6, cr9, cr12, {3}
    91fc:	79732067 	ldmdbvc	r3!, {r0, r1, r2, r5, r6, sp}^
    9200:	6d657473 	cfstrdvs	mvd7, [r5, #-460]!	; 0xfffffe34
    9204:	6c616320 	stclvs	3, cr6, [r1], #-128	; 0xffffff80
    9208:	3d31206c 	ldccc	0, cr2, [r1, #-432]!	; 0xfffffe50
    920c:	000a6425 	andeq	r6, sl, r5, lsr #8
    9210:	494e4150 	stmdbmi	lr, {r4, r6, r8, lr}^
    9214:	73253a43 			; <UNDEFINED> instruction: 0x73253a43
    9218:	3a73253a 	bcc	1cd2708 <__bss_end__+0x1cc8e00>
    921c:	253a6425 	ldrcs	r6, [sl, #-1061]!	; 0xfffffbdb
    9220:	00000a73 	andeq	r0, r0, r3, ror sl
    9224:	20736572 	rsbscs	r6, r3, r2, ror r5
    9228:	30203d3d 	eorcc	r3, r0, sp, lsr sp
    922c:	00000000 	andeq	r0, r0, r0
    9230:	756f6261 	strbvc	r6, [pc, #-609]!	; 8fd7 <gpio_set_function+0x4f>
    9234:	6f742074 	svcvs	0x00742074
    9238:	6c616320 	stclvs	3, cr6, [r1], #-128	; 0xffffff80
    923c:	6c69206c 	stclvs	0, cr2, [r9], #-432	; 0xfffffe50
    9240:	6167656c 	cmnvs	r7, ip, ror #10
    9244:	7973206c 	ldmdbvc	r3!, {r2, r3, r5, r6, sp}^
    9248:	6d657473 	cfstrdvs	mvd7, [r5, #-460]!	; 0xfffffe34
    924c:	6c616320 	stclvs	3, cr6, [r1], #-128	; 0xffffff80
    9250:	73203a6c 			; <UNDEFINED> instruction: 0x73203a6c
    9254:	6c756f68 	ldclvs	15, cr6, [r5], #-416	; 0xfffffe60
    9258:	69642064 	stmdbvs	r4!, {r2, r5, r6, sp}^
    925c:	00000a65 	andeq	r0, r0, r5, ror #20
    9260:	75736572 	ldrbvc	r6, [r3, #-1394]!	; 0xfffffa8e
    9264:	6f20746c 	svcvs	0x0020746c
    9268:	6c692066 	stclvs	0, cr2, [r9], #-408	; 0xfffffe68
    926c:	6167656c 	cmnvs	r7, ip, ror #10
    9270:	7973206c 	ldmdbvc	r3!, {r2, r3, r5, r6, sp}^
    9274:	6d657473 	cfstrdvs	mvd7, [r5, #-460]!	; 0xfffffe34
    9278:	6c616320 	stclvs	3, cr6, [r1], #-128	; 0xffffff80
    927c:	253d206c 	ldrcs	r2, [sp, #-108]!	; 0xffffff94
    9280:	00000a64 	andeq	r0, r0, r4, ror #20
    9284:	20736572 	rsbscs	r6, r3, r2, ror r5
    9288:	2d203d3d 	stccs	13, cr3, [r0, #-244]!	; 0xffffff0c
    928c:	00000031 	andeq	r0, r0, r1, lsr r0

00009290 <__FUNCTION__.3955>:
    9290:	65746e69 	ldrbvs	r6, [r4, #-3689]!	; 0xfffff197
    9294:	70757272 	rsbsvc	r7, r5, r2, ror r2
    9298:	65765f74 	ldrbvs	r5, [r6, #-3956]!	; 0xfffff08c
    929c:	726f7463 	rsbvc	r7, pc, #1660944384	; 0x63000000
    92a0:	00000000 	andeq	r0, r0, r0

000092a4 <__FUNCTION__.3968>:
    92a4:	6d746f6e 	ldclvs	15, cr6, [r4, #-440]!	; 0xfffffe48
    92a8:	006e6961 	rsbeq	r6, lr, r1, ror #18
    92ac:	65746e69 	ldrbvs	r6, [r4, #-3689]!	; 0xfffff197
    92b0:	70757272 	rsbsvc	r7, r5, r2, ror r2
    92b4:	632d7374 			; <UNDEFINED> instruction: 0x632d7374
    92b8:	0000632e 	andeq	r6, r0, lr, lsr #6
    92bc:	494e4150 	stmdbmi	lr, {r4, r6, r8, lr}^
    92c0:	73253a43 			; <UNDEFINED> instruction: 0x73253a43
    92c4:	3a73253a 	bcc	1cd27b4 <__bss_end__+0x1cc8eac>
    92c8:	453a6425 	ldrmi	r6, [sl, #-1061]!	; 0xfffffbdb
    92cc:	524f5252 	subpl	r5, pc, #536870917	; 0x20000005
    92d0:	6e75203a 	mrcvs	0, 3, r2, cr5, cr10, {1}
    92d4:	646e6168 	strbtvs	r6, [lr], #-360	; 0xfffffe98
    92d8:	2064656c 	rsbcs	r6, r4, ip, ror #10
    92dc:	65637865 	strbvs	r7, [r3, #-2149]!	; 0xfffff79b
    92e0:	6f697470 	svcvs	0x00697470
    92e4:	253c206e 	ldrcs	r2, [ip, #-110]!	; 0xffffff92
    92e8:	61203e73 			; <UNDEFINED> instruction: 0x61203e73
    92ec:	43502074 	cmpmi	r0, #116, 0	; 0x74
    92f0:	0a78253d 	beq	1e127ec <__bss_end__+0x1e08ee4>
    92f4:	0000000a 	andeq	r0, r0, sl
    92f8:	74736166 	ldrbtvc	r6, [r3], #-358	; 0xfffffe9a
    92fc:	00000000 	andeq	r0, r0, r0
    9300:	74666f73 	strbtvc	r6, [r6], #-3955	; 0xfffff08d
    9304:	746e6920 	strbtvc	r6, [lr], #-2336	; 0xfffff6e0
    9308:	75727265 	ldrbvc	r7, [r2, #-613]!	; 0xfffffd9b
    930c:	00007470 	andeq	r7, r0, r0, ror r4
    9310:	65736572 	ldrbvs	r6, [r3, #-1394]!	; 0xfffffa8e
    9314:	65762074 	ldrbvs	r2, [r6, #-116]!	; 0xffffff8c
    9318:	726f7463 	rsbvc	r7, pc, #1660944384	; 0x63000000
    931c:	00000000 	andeq	r0, r0, r0
    9320:	65646e75 	strbvs	r6, [r4, #-3701]!	; 0xfffff18b
    9324:	656e6966 	strbvs	r6, [lr, #-2406]!	; 0xfffff69a
    9328:	6e692064 	cdpvs	0, 6, cr2, cr9, cr4, {3}
    932c:	75727473 	ldrbvc	r7, [r2, #-1139]!	; 0xfffffb8d
    9330:	6f697463 	svcvs	0x00697463
    9334:	0000006e 	andeq	r0, r0, lr, rrx
    9338:	66657270 			; <UNDEFINED> instruction: 0x66657270
    933c:	68637465 	stmdavs	r3!, {r0, r2, r5, r6, sl, ip, sp, lr}^
    9340:	6f626120 	svcvs	0x00626120
    9344:	00007472 	andeq	r7, r0, r2, ror r4
    9348:	61746164 	cmnvs	r4, r4, ror #2
    934c:	6f626120 	svcvs	0x00626120
    9350:	00007472 	andeq	r7, r0, r2, ror r4

00009354 <__FUNCTION__.3965>:
    9354:	74736166 	ldrbtvc	r6, [r3], #-358	; 0xfffffe9a
    9358:	746e695f 	strbtvc	r6, [lr], #-2399	; 0xfffff6a1
    935c:	75727265 	ldrbvc	r7, [r2, #-613]!	; 0xfffffd9b
    9360:	765f7470 			; <UNDEFINED> instruction: 0x765f7470
    9364:	6f746365 	svcvs	0x00746365
    9368:	00000072 	andeq	r0, r0, r2, ror r0

0000936c <__FUNCTION__.3969>:
    936c:	74666f73 	strbtvc	r6, [r6], #-3955	; 0xfffff08d
    9370:	65726177 	ldrbvs	r6, [r2, #-375]!	; 0xfffffe89
    9374:	746e695f 	strbtvc	r6, [lr], #-2399	; 0xfffff6a1
    9378:	75727265 	ldrbvc	r7, [r2, #-613]!	; 0xfffffd9b
    937c:	765f7470 			; <UNDEFINED> instruction: 0x765f7470
    9380:	6f746365 	svcvs	0x00746365
    9384:	00000072 	andeq	r0, r0, r2, ror r0

00009388 <__FUNCTION__.3973>:
    9388:	65736572 	ldrbvs	r6, [r3, #-1394]!	; 0xfffffa8e
    938c:	65765f74 	ldrbvs	r5, [r6, #-3956]!	; 0xfffff08c
    9390:	726f7463 	rsbvc	r7, pc, #1660944384	; 0x63000000
    9394:	00000000 	andeq	r0, r0, r0

00009398 <__FUNCTION__.3977>:
    9398:	65646e75 	strbvs	r6, [r4, #-3701]!	; 0xfffff18b
    939c:	656e6966 	strbvs	r6, [lr, #-2406]!	; 0xfffff69a
    93a0:	6e695f64 	cdpvs	15, 6, cr5, cr9, cr4, {3}
    93a4:	75727473 	ldrbvc	r7, [r2, #-1139]!	; 0xfffffb8d
    93a8:	6f697463 	svcvs	0x00697463
    93ac:	65765f6e 	ldrbvs	r5, [r6, #-3950]!	; 0xfffff092
    93b0:	726f7463 	rsbvc	r7, pc, #1660944384	; 0x63000000
    93b4:	00000000 	andeq	r0, r0, r0

000093b8 <__FUNCTION__.3981>:
    93b8:	66657270 			; <UNDEFINED> instruction: 0x66657270
    93bc:	68637465 	stmdavs	r3!, {r0, r2, r5, r6, sl, ip, sp, lr}^
    93c0:	6f62615f 	svcvs	0x0062615f
    93c4:	765f7472 			; <UNDEFINED> instruction: 0x765f7472
    93c8:	6f746365 	svcvs	0x00746365
    93cc:	00000072 	andeq	r0, r0, r2, ror r0

000093d0 <__FUNCTION__.3985>:
    93d0:	61746164 	cmnvs	r4, r4, ror #2
    93d4:	6f62615f 	svcvs	0x0062615f
    93d8:	765f7472 			; <UNDEFINED> instruction: 0x765f7472
    93dc:	6f746365 	svcvs	0x00746365
    93e0:	00000072 	andeq	r0, r0, r2, ror r0
    93e4:	6362696c 	cmnvs	r2, #108, 18	; 0x1b0000
    93e8:	2d61762f 	stclcs	6, cr7, [r1, #-188]!	; 0xffffff44
    93ec:	6e697270 	mcrvs	2, 3, r7, cr9, cr0, {3}
    93f0:	632e6b74 			; <UNDEFINED> instruction: 0x632e6b74
    93f4:	00000000 	andeq	r0, r0, r0
    93f8:	00000030 	andeq	r0, r0, r0, lsr r0
    93fc:	33323130 	teqcc	r2, #12
    9400:	37363534 			; <UNDEFINED> instruction: 0x37363534
    9404:	00003938 	andeq	r3, r0, r8, lsr r9
    9408:	33323130 	teqcc	r2, #12
    940c:	37363534 			; <UNDEFINED> instruction: 0x37363534
    9410:	62613938 	rsbvs	r3, r1, #56, 18	; 0xe0000
    9414:	66656463 	strbtvs	r6, [r5], -r3, ror #8
    9418:	00000000 	andeq	r0, r0, r0
    941c:	00003130 	andeq	r3, r0, r0, lsr r1
    9420:	63747570 	cmnvs	r4, #112, 10	; 0x1c000000
    9424:	0070665f 	rsbseq	r6, r0, pc, asr r6
    9428:	74646977 	strbtvc	r6, [r4], #-2423	; 0xfffff689
    942c:	203c2068 	eorscs	r2, ip, r8, rrx
    9430:	00003233 	andeq	r3, r0, r3, lsr r2
    9434:	00786c6c 	rsbseq	r6, r8, ip, ror #24
    9438:	6e727473 	mrcvs	4, 3, r7, cr2, cr3, {3}
    943c:	28706d63 	ldmdacs	r0!, {r0, r1, r5, r6, r8, sl, fp, sp, lr}^
    9440:	2c746d66 	ldclcs	13, cr6, [r4], #-408	; 0xfffffe68
    9444:	6c6c2220 	sfmvs	f2, 2, [ip], #-128	; 0xffffff80
    9448:	202c2278 	eorcs	r2, ip, r8, ror r2
    944c:	3d202933 			; <UNDEFINED> instruction: 0x3d202933
    9450:	0030203d 	eorseq	r2, r0, sp, lsr r0
    9454:	494e4150 	stmdbmi	lr, {r4, r6, r8, lr}^
    9458:	73253a43 			; <UNDEFINED> instruction: 0x73253a43
    945c:	3a73253a 	bcc	1cd294c <__bss_end__+0x1cc9044>
    9460:	663a6425 	ldrtvs	r6, [sl], -r5, lsr #8
    9464:	74616f6c 	strbtvc	r6, [r1], #-3948	; 0xfffff094
    9468:	746f6e20 	strbtvc	r6, [pc], #-3616	; 9470 <__FUNCTION__.3985+0xa0>
    946c:	616e6520 	cmnvs	lr, r0, lsr #10
    9470:	64656c62 	strbtvs	r6, [r5], #-3170	; 0xfffff39e
    9474:	0a212121 	beq	851900 <__bss_end__+0x847ff8>
    9478:	00000000 	andeq	r0, r0, r0
    947c:	6e697270 	mcrvs	2, 3, r7, cr9, cr0, {3}
    9480:	203a6b74 	eorscs	r6, sl, r4, ror fp
    9484:	20746f6e 	rsbscs	r6, r4, lr, ror #30
    9488:	646e6168 	strbtvs	r6, [lr], #-360	; 0xfffffe98
    948c:	676e696c 	strbvs	r6, [lr, -ip, ror #18]!
    9490:	65707320 	ldrbvs	r7, [r0, #-800]!	; 0xfffffce0
    9494:	69666963 	stmdbvs	r6!, {r0, r1, r5, r6, r8, fp, sp, lr}^
    9498:	27207265 	strcs	r7, [r0, -r5, ror #4]!
    949c:	20276325 	eorcs	r6, r7, r5, lsr #6
    94a0:	63736128 	cmnvs	r3, #10
    94a4:	253d6969 	ldrcs	r6, [sp, #-2409]!	; 0xfffff697
    94a8:	000a2964 	andeq	r2, sl, r4, ror #18
    94ac:	494e4150 	stmdbmi	lr, {r4, r6, r8, lr}^
    94b0:	73253a43 			; <UNDEFINED> instruction: 0x73253a43
    94b4:	3a73253a 	bcc	1cd29a4 <__bss_end__+0x1cc909c>
    94b8:	703a6425 	eorsvc	r6, sl, r5, lsr #8
    94bc:	746e6972 	strbtvc	r6, [lr], #-2418	; 0xfffff68e
    94c0:	7265206b 	rsbvc	r2, r5, #107, 0	; 0x6b
    94c4:	0a726f72 	beq	1ca5294 <__bss_end__+0x1c9b98c>
    94c8:	0000000a 	andeq	r0, r0, sl

000094cc <__FUNCTION__.3978>:
    94cc:	74696d65 	strbtvc	r6, [r9], #-3429	; 0xfffff29b
    94d0:	00000000 	andeq	r0, r0, r0

000094d4 <__FUNCTION__.3926>:
    94d4:	5f697072 	svcpl	0x00697072
    94d8:	5f746573 	svcpl	0x00746573
    94dc:	7074756f 	rsbsvc	r7, r4, pc, ror #10
    94e0:	00007475 	andeq	r7, r0, r5, ror r4

000094e4 <__FUNCTION__.4004>:
    94e4:	705f6176 	subsvc	r6, pc, r6, ror r1	; <UNPREDICTABLE>
    94e8:	746e6972 	strbtvc	r6, [lr], #-2418	; 0xfffff68e
    94ec:	0000006b 	andeq	r0, r0, fp, rrx
    94f0:	454e4f44 	strbmi	r4, [lr, #-3908]	; 0xfffff0bc
    94f4:	0a212121 	beq	851980 <__bss_end__+0x848078>
	...

Disassembly of section .data:

000094fc <putk>:
    94fc:	000084cc 	andeq	r8, r0, ip, asr #9

00009500 <rpi_putchar>:
    9500:	00009070 	andeq	r9, r0, r0, ror r0

Disassembly of section .bss:

00009504 <__bss_start__>:
	...

00009904 <uart_registers>:
    9904:	00000000 	andeq	r0, r0, r0

Disassembly of section .ARM.attributes:

00000000 <.ARM.attributes>:
   0:	00002a41 	andeq	r2, r0, r1, asr #20
   4:	61656100 	cmnvs	r5, r0, lsl #2
   8:	01006962 	tsteq	r0, r2, ror #18
   c:	00000020 	andeq	r0, r0, r0, lsr #32
  10:	4b5a3605 	blmi	168d82c <__bss_end__+0x1683f24>
  14:	08070600 	stmdaeq	r7, {r9, sl}
  18:	12010901 	andne	r0, r1, #16384	; 0x4000
  1c:	15011404 	strne	r1, [r1, #-1028]	; 0xfffffbfc
  20:	18031701 	stmdane	r3, {r0, r8, r9, sl, ip}
  24:	22011a01 	andcs	r1, r1, #4096	; 0x1000
  28:	Address 0x0000000000000028 is out of bounds.


Disassembly of section .comment:

00000000 <.comment>:
   0:	3a434347 	bcc	10d0d24 <__bss_end__+0x10c741c>
   4:	4e472820 	cdpmi	8, 4, cr2, cr7, cr0, {1}
   8:	6f542055 	svcvs	0x00542055
   c:	20736c6f 	rsbscs	r6, r3, pc, ror #24
  10:	20726f66 	rsbscs	r6, r2, r6, ror #30
  14:	206d7241 	rsbcs	r7, sp, r1, asr #4
  18:	65626d45 	strbvs	r6, [r2, #-3397]!	; 0xfffff2bb
  1c:	64656464 	strbtvs	r6, [r5], #-1124	; 0xfffffb9c
  20:	6f725020 	svcvs	0x00725020
  24:	73736563 	cmnvc	r3, #415236096	; 0x18c00000
  28:	2073726f 	rsbscs	r7, r3, pc, ror #4
  2c:	30322d39 	eorscc	r2, r2, r9, lsr sp
  30:	712d3931 			; <UNDEFINED> instruction: 0x712d3931
  34:	616d2d34 	cmnvs	sp, r4, lsr sp
  38:	29726f6a 	ldmdbcs	r2!, {r1, r3, r5, r6, r8, r9, sl, fp, sp, lr}^
  3c:	322e3920 	eorcc	r3, lr, #32, 18	; 0x80000
  40:	3220312e 	eorcc	r3, r0, #-2147483637	; 0x8000000b
  44:	31393130 	teqcc	r9, r0, lsr r1
  48:	20353230 	eorscs	r3, r5, r0, lsr r2
  4c:	6c657228 	sfmvs	f7, 2, [r5], #-160	; 0xffffff60
  50:	65736165 	ldrbvs	r6, [r3, #-357]!	; 0xfffffe9b
  54:	415b2029 	cmpmi	fp, r9, lsr #32
  58:	612f4d52 			; <UNDEFINED> instruction: 0x612f4d52
  5c:	392d6d72 	pushcc	{r1, r4, r5, r6, r8, sl, fp, sp, lr}
  60:	6172622d 	cmnvs	r2, sp, lsr #4
  64:	2068636e 	rsbcs	r6, r8, lr, ror #6
  68:	69766572 	ldmdbvs	r6!, {r1, r4, r5, r6, r8, sl, sp, lr}^
  6c:	6e6f6973 			; <UNDEFINED> instruction: 0x6e6f6973
  70:	37373220 	ldrcc	r3, [r7, -r0, lsr #4]!
  74:	5d393935 			; <UNDEFINED> instruction: 0x5d393935
	...

Disassembly of section .debug_info:

00000000 <.debug_info>:
       0:	00000433 	andeq	r0, r0, r3, lsr r4
       4:	00000004 	andeq	r0, r0, r4
       8:	01040000 	mrseq	r0, (UNDEF: 4)
       c:	0000011c 	andeq	r0, r0, ip, lsl r1
      10:	0001d10c 	andeq	sp, r1, ip, lsl #2
      14:	00009700 	andeq	r9, r0, r0, lsl #14
      18:	00803400 	addeq	r3, r0, r0, lsl #8
      1c:	00018c00 	andeq	r8, r1, r0, lsl #24
      20:	00000000 	andeq	r0, r0, r0
      24:	05040200 	streq	r0, [r4, #-512]	; 0xfffffe00
      28:	00746e69 	rsbseq	r6, r4, r9, ror #28
      2c:	8a070403 	bhi	1c1040 <__bss_end__+0x1b7738>
      30:	03000000 	movweq	r0, #0
      34:	003a0601 	eorseq	r0, sl, r1, lsl #12
      38:	02030000 	andeq	r0, r3, #0, 0
      3c:	00010905 	andeq	r0, r1, r5, lsl #18
      40:	05040300 	streq	r0, [r4, #-768]	; 0xfffffd00
      44:	000000f4 	strdeq	r0, [r0], -r4
      48:	ef050803 	svc	0x00050803
      4c:	03000000 	movweq	r0, #0
      50:	00380801 	eorseq	r0, r8, r1, lsl #16
      54:	02030000 	andeq	r0, r3, #0, 0
      58:	00005307 	andeq	r5, r0, r7, lsl #6
      5c:	01130400 	tsteq	r3, r0, lsl #8
      60:	34040000 	strcc	r0, [r4], #-0
      64:	00006919 	andeq	r6, r0, r9, lsl r9
      68:	07040300 	streq	r0, [r4, -r0, lsl #6]
      6c:	00000085 	andeq	r0, r0, r5, lsl #1
      70:	80070803 	andhi	r0, r7, r3, lsl #16
      74:	05000000 	streq	r0, [r0, #-0]
      78:	00000025 	andeq	r0, r0, r5, lsr #32
      7c:	00000086 	andeq	r0, r0, r6, lsl #1
      80:	00002506 	andeq	r2, r0, r6, lsl #10
      84:	fd070000 	stc2	0, cr0, [r7, #-0]
      88:	02000000 	andeq	r0, r0, #0, 0
      8c:	00920e1c 	addseq	r0, r2, ip, lsl lr
      90:	04080000 	streq	r0, [r8], #-0
      94:	00000077 	andeq	r0, r0, r7, ror r0
      98:	00002505 	andeq	r2, r0, r5, lsl #10
      9c:	0000a700 	andeq	sl, r0, r0, lsl #14
      a0:	00a70600 	adceq	r0, r7, r0, lsl #12
      a4:	08000000 	stmdaeq	r0, {}	; <UNPREDICTABLE>
      a8:	0000b404 	andeq	fp, r0, r4, lsl #8
      ac:	08010300 	stmdaeq	r1, {r8, r9}
      b0:	00000041 	andeq	r0, r0, r1, asr #32
      b4:	0000ad09 	andeq	sl, r0, r9, lsl #26
      b8:	03bc0700 			; <UNDEFINED> instruction: 0x03bc0700
      bc:	21020000 	mrscs	r0, (UNDEF: 2)
      c0:	0000c50e 	andeq	ip, r0, lr, lsl #10
      c4:	98040800 	stmdals	r4, {fp}
      c8:	0a000000 	beq	d0 <__code_start__-0x7f30>
      cc:	00000026 	andeq	r0, r0, r6, lsr #32
      d0:	b8062501 	stmdalt	r6, {r0, r8, sl, sp}
      d4:	08000080 	stmdaeq	r0, {r7}
      d8:	01000001 	tsteq	r0, r1
      dc:	0002929c 	muleq	r2, ip, r2
      e0:	70730b00 	rsbsvc	r0, r3, r0, lsl #22
      e4:	0e280100 	sufeqe	f0, f0, f0
      e8:	0000002c 	andeq	r0, r0, ip, lsr #32
      ec:	00000006 	andeq	r0, r0, r6
      f0:	00000000 	andeq	r0, r0, r0
      f4:	7365720b 	cmnvc	r5, #-1342177280	; 0xb0000000
      f8:	093b0100 	ldmdbeq	fp!, {r8}
      fc:	00000025 	andeq	r0, r0, r5, lsr #32
     100:	0000003b 	andeq	r0, r0, fp, lsr r0
     104:	0000002f 	andeq	r0, r0, pc, lsr #32
     108:	0000730c 	andeq	r7, r0, ip, lsl #6
     10c:	0002a200 	andeq	sl, r2, r0, lsl #4
     110:	a4030500 	strge	r0, [r3], #-1280	; 0xfffffb00
     114:	0d000092 	stceq	0, cr0, [r0, #-584]	; 0xfffffdb8
     118:	000080c4 	andeq	r8, r0, r4, asr #1
     11c:	000003ee 	andeq	r0, r0, lr, ror #7
     120:	0080d40e 	addeq	sp, r0, lr, lsl #8
     124:	0003fa00 	andeq	pc, r3, r0, lsl #20
     128:	00013400 	andeq	r3, r1, r0, lsl #8
     12c:	50010f00 	andpl	r0, r1, r0, lsl #30
     130:	00007402 	andeq	r7, r0, r2, lsl #8
     134:	0080e40e 	addeq	lr, r0, lr, lsl #8
     138:	0003fa00 	andeq	pc, r3, r0, lsl #20
     13c:	00014800 	andeq	r4, r1, r0, lsl #16
     140:	50010f00 	andpl	r0, r1, r0, lsl #30
     144:	00007402 	andeq	r7, r0, r2, lsl #8
     148:	0080f40e 	addeq	pc, r0, lr, lsl #8
     14c:	0003fa00 	andeq	pc, r3, r0, lsl #20
     150:	00015c00 	andeq	r5, r1, r0, lsl #24
     154:	50010f00 	andpl	r0, r1, r0, lsl #30
     158:	00007402 	andeq	r7, r0, r2, lsl #8
     15c:	0080fc0e 	addeq	pc, r0, lr, lsl #24
     160:	0003fa00 	andeq	pc, r3, r0, lsl #20
     164:	00017300 	andeq	r7, r1, r0, lsl #6
     168:	50010f00 	andpl	r0, r1, r0, lsl #30
     16c:	91a80305 			; <UNDEFINED> instruction: 0x91a80305
     170:	0d000000 	stceq	0, cr0, [r0, #-0]
     174:	00008100 	andeq	r8, r0, r0, lsl #2
     178:	00000406 	andeq	r0, r0, r6, lsl #8
     17c:	0081080e 	addeq	r0, r1, lr, lsl #16
     180:	0003fa00 	andeq	pc, r3, r0, lsl #20
     184:	00019300 	andeq	r9, r1, r0, lsl #6
     188:	50010f00 	andpl	r0, r1, r0, lsl #30
     18c:	91c40305 	bicls	r0, r4, r5, lsl #6
     190:	0e000000 	cdpeq	0, 0, cr0, cr0, cr0, {0}
     194:	00008110 	andeq	r8, r0, r0, lsl r1
     198:	00000412 	andeq	r0, r0, r2, lsl r4
     19c:	000001aa 	andeq	r0, r0, sl, lsr #3
     1a0:	0550010f 	ldrbeq	r0, [r0, #-271]	; 0xfffffef1
     1a4:	0091e003 	addseq	lr, r1, r3
     1a8:	200e0000 	andcs	r0, lr, r0
     1ac:	fa000081 	blx	3b8 <__code_start__-0x7c48>
     1b0:	c7000003 	strgt	r0, [r0, -r3]
     1b4:	0f000001 	svceq	0x00000001
     1b8:	03055001 	movweq	r5, #20481	; 0x5001
     1bc:	000091ec 	andeq	r9, r0, ip, ror #3
     1c0:	0251010f 	subseq	r0, r1, #-1073741821	; 0xc0000003
     1c4:	0e000074 	mcreq	0, 0, r0, cr0, cr4, {3}
     1c8:	00008144 	andeq	r8, r0, r4, asr #2
     1cc:	000003fa 	strdeq	r0, [r0], -sl
     1d0:	00000200 	andeq	r0, r0, r0, lsl #4
     1d4:	0550010f 	ldrbeq	r0, [r0, #-271]	; 0xfffffef1
     1d8:	00921003 	addseq	r1, r2, r3
     1dc:	51010f00 	tstpl	r1, r0, lsl #30
     1e0:	91100305 	tstls	r0, r5, lsl #6
     1e4:	010f0000 	mrseq	r0, CPSR
     1e8:	a4030552 	strge	r0, [r3], #-1362	; 0xfffffaae
     1ec:	0f000092 	svceq	0x00000092
     1f0:	08025301 	stmdaeq	r2, {r0, r8, r9, ip, lr}
     1f4:	7d020f3d 	stcvc	15, cr0, [r2, #-244]	; 0xffffff0c
     1f8:	24030500 	strcs	r0, [r3], #-1280	; 0xfffffb00
     1fc:	00000092 	muleq	r0, r2, r0
     200:	0081480d 	addeq	r4, r1, sp, lsl #16
     204:	00041e00 	andeq	r1, r4, r0, lsl #28
     208:	81500e00 	cmphi	r0, r0, lsl #28
     20c:	03fa0000 	mvnseq	r0, #0, 0
     210:	02200000 	eoreq	r0, r0, #0, 0
     214:	010f0000 	mrseq	r0, CPSR
     218:	30030550 	andcc	r0, r3, r0, asr r5
     21c:	00000092 	muleq	r0, r2, r0
     220:	0081540d 	addeq	r5, r1, sp, lsl #8
     224:	00042a00 	andeq	r2, r4, r0, lsl #20
     228:	81640e00 	cmnhi	r4, r0, lsl #28
     22c:	03fa0000 	mvnseq	r0, #0, 0
     230:	02460000 	subeq	r0, r6, #0, 0
     234:	010f0000 	mrseq	r0, CPSR
     238:	60030550 	andvs	r0, r3, r0, asr r5
     23c:	0f000092 	svceq	0x00000092
     240:	74025101 	strvc	r5, [r2], #-257	; 0xfffffeff
     244:	880e0000 	stmdahi	lr, {}	; <UNPREDICTABLE>
     248:	fa000081 	blx	454 <__code_start__-0x7bac>
     24c:	7f000003 	svcvc	0x00000003
     250:	0f000002 	svceq	0x00000002
     254:	03055001 	movweq	r5, #20481	; 0x5001
     258:	00009210 	andeq	r9, r0, r0, lsl r2
     25c:	0551010f 	ldrbeq	r0, [r1, #-271]	; 0xfffffef1
     260:	00911003 	addseq	r1, r1, r3
     264:	52010f00 	andpl	r0, r1, #0, 30
     268:	92a40305 	adcls	r0, r4, #335544320	; 0x14000000
     26c:	010f0000 	mrseq	r0, CPSR
     270:	42080253 	andmi	r0, r8, #805306373	; 0x30000005
     274:	007d020f 	rsbseq	r0, sp, pc, lsl #4
     278:	92840305 	addls	r0, r4, #335544320	; 0x14000000
     27c:	0d000000 	stceq	0, cr0, [r0, #-0]
     280:	0000818c 	andeq	r8, r0, ip, lsl #3
     284:	0000041e 	andeq	r0, r0, lr, lsl r4
     288:	0081900d 	addeq	r9, r1, sp
     28c:	00041e00 	andeq	r1, r4, r0, lsl #28
     290:	b4100000 	ldrlt	r0, [r0], #-0
     294:	a2000000 	andge	r0, r0, #0, 0
     298:	11000002 	tstne	r0, r2
     29c:	0000002c 	andeq	r0, r0, ip, lsr #32
     2a0:	92090007 	andls	r0, r9, #7, 0
     2a4:	12000002 	andne	r0, r0, #2, 0
     2a8:	00000009 	andeq	r0, r0, r9
     2ac:	25051301 	strcs	r1, [r5, #-769]	; 0xfffffcff
     2b0:	5c000000 	stcpl	0, cr0, [r0], {-0}
     2b4:	5c000080 	stcpl	0, cr0, [r0], {128}	; 0x80
     2b8:	01000000 	mrseq	r0, (UNDEF: 0)
     2bc:	0003699c 	muleq	r3, ip, r9
     2c0:	63701300 	cmnvs	r0, #0, 6
     2c4:	1d130100 	ldfnes	f0, [r3, #-0]
     2c8:	0000002c 	andeq	r0, r0, ip, lsr #32
     2cc:	00000089 	andeq	r0, r0, r9, lsl #1
     2d0:	00000085 	andeq	r0, r0, r5, lsl #1
     2d4:	00307213 	eorseq	r7, r0, r3, lsl r2
     2d8:	5d2a1301 	stcpl	3, cr1, [sl, #-4]!
     2dc:	ae000000 	cdpge	0, 0, cr0, cr0, cr0, {0}
     2e0:	aa000000 	bge	2e8 <__code_start__-0x7d18>
     2e4:	14000000 	strne	r0, [r0], #-0
     2e8:	00000066 	andeq	r0, r0, r6, rrx
     2ec:	5d0e1401 	cfstrspl	mvf1, [lr, #-4]
     2f0:	ce000000 	cdpgt	0, 0, cr0, cr0, cr0, {0}
     2f4:	cc000000 	stcgt	0, cr0, [r0], {-0}
     2f8:	14000000 	strne	r0, [r0], #-0
     2fc:	0000006b 	andeq	r0, r0, fp, rrx
     300:	5d141401 	cfldrspl	mvf1, [r4, #-4]
     304:	e3000000 	movw	r0, #0
     308:	e1000000 	mrs	r0, (UNDEF: 0)
     30c:	0e000000 	cdpeq	0, 0, cr0, cr0, cr0, {0}
     310:	0000807c 	andeq	r8, r0, ip, ror r0
     314:	000003fa 	strdeq	r0, [r0], -sl
     318:	00000332 	andeq	r0, r0, r2, lsr r3
     31c:	0550010f 	ldrbeq	r0, [r0, #-271]	; 0xfffffef1
     320:	00914403 	addseq	r4, r1, r3, lsl #8
     324:	52010f00 	andpl	r0, r1, #0, 30
     328:	0f007502 	svceq	0x00007502
     32c:	74025301 	strvc	r5, [r2], #-769	; 0xfffffcff
     330:	900e0000 	andls	r0, lr, r0
     334:	fa000080 	blx	53c <__code_start__-0x7ac4>
     338:	4f000003 	svcmi	0x00000003
     33c:	0f000003 	svceq	0x00000003
     340:	03055001 	movweq	r5, #20481	; 0x5001
     344:	00009164 	andeq	r9, r0, r4, ror #2
     348:	0251010f 	subseq	r0, r1, #-1073741821	; 0xc0000003
     34c:	15000074 	strne	r0, [r0, #-116]	; 0xffffff8c
     350:	000080a4 	andeq	r8, r0, r4, lsr #1
     354:	000003fa 	strdeq	r0, [r0], -sl
     358:	0550010f 	ldrbeq	r0, [r0, #-271]	; 0xfffffef1
     35c:	00917403 	addseq	r7, r1, r3, lsl #8
     360:	51010f00 	tstpl	r1, r0, lsl #30
     364:	00007502 	andeq	r7, r0, r2, lsl #10
     368:	02f20a00 	rscseq	r0, r2, #0, 20
     36c:	0b010000 	bleq	40374 <__bss_end__+0x36a6c>
     370:	00803406 	addeq	r3, r0, r6, lsl #8
     374:	00002800 	andeq	r2, r0, r0, lsl #16
     378:	d99c0100 	ldmible	ip, {r8}
     37c:	13000003 	movwne	r0, #3
     380:	01006370 	tsteq	r0, r0, ror r3
     384:	002c200b 	eoreq	r2, ip, fp
     388:	00fa0000 	rscseq	r0, sl, r0
     38c:	00f60000 	rscseq	r0, r6, r0
     390:	730c0000 	movwvc	r0, #49152	; 0xc000
     394:	e9000000 	stmdb	r0, {}	; <UNPREDICTABLE>
     398:	05000003 	streq	r0, [r0, #-3]
     39c:	00929003 	addseq	r9, r2, r3
     3a0:	804c0e00 	subhi	r0, ip, r0, lsl #28
     3a4:	03fa0000 	mvnseq	r0, #0, 0
     3a8:	03cf0000 	biceq	r0, pc, #0, 0
     3ac:	010f0000 	mrseq	r0, CPSR
     3b0:	1c030550 	cfstr32ne	mvfx0, [r3], {80}	; 0x50
     3b4:	0f000091 	svceq	0x00000091
     3b8:	03055101 	movweq	r5, #20737	; 0x5101
     3bc:	00009110 	andeq	r9, r0, r0, lsl r1
     3c0:	0552010f 	ldrbeq	r0, [r2, #-271]	; 0xfffffef1
     3c4:	00929003 	addseq	r9, r2, r3
     3c8:	53010f00 	movwpl	r0, #7936	; 0x1f00
     3cc:	0d003c01 	stceq	12, cr3, [r0, #-4]
     3d0:	00008050 	andeq	r8, r0, r0, asr r0
     3d4:	0000041e 	andeq	r0, r0, lr, lsl r4
     3d8:	00b41000 	adcseq	r1, r4, r0
     3dc:	03e90000 	mvneq	r0, #0, 0
     3e0:	2c110000 	ldccs	0, cr0, [r1], {-0}
     3e4:	10000000 	andne	r0, r0, r0
     3e8:	03d90900 	bicseq	r0, r9, #0, 18
     3ec:	2e160000 	cdpcs	0, 1, cr0, cr6, cr0, {0}
     3f0:	2e000000 	cdpcs	0, 0, cr0, cr0, cr0, {0}
     3f4:	02000000 	andeq	r0, r0, #0, 0
     3f8:	4e160639 	mrcmi	6, 0, r0, cr6, cr9, {1}
     3fc:	4e000003 	cdpmi	0, 0, cr0, cr0, cr3, {0}
     400:	02000003 	andeq	r0, r0, #3, 0
     404:	00160628 	andseq	r0, r6, r8, lsr #12
     408:	00000000 	andeq	r0, r0, r0
     40c:	03000000 	movweq	r0, #0
     410:	18160639 	ldmdane	r6, {r0, r3, r4, r5, r9, sl}
     414:	18000000 	stmdane	r0, {}	; <UNPREDICTABLE>
     418:	01000000 	mrseq	r0, (UNDEF: 0)
     41c:	46160507 	ldrmi	r0, [r6], -r7, lsl #10
     420:	46000000 	strmi	r0, [r0], -r0
     424:	02000000 	andeq	r0, r0, #0, 0
     428:	df160667 	svcle	0x00160667
     42c:	df000000 	svcle	0x00000000
     430:	01000000 	mrseq	r0, (UNDEF: 0)
     434:	9c000508 	cfstr32ls	mvfx0, [r0], {8}
     438:	04000005 	streq	r0, [r0], #-5
     43c:	00014500 	andeq	r4, r1, r0, lsl #10
     440:	1c010400 	cfstrsne	mvf0, [r1], {-0}
     444:	0c000001 	stceq	0, cr0, [r0], {1}
     448:	000002cd 	andeq	r0, r0, sp, asr #5
     44c:	00000097 	muleq	r0, r7, r0
     450:	000082a8 	andeq	r8, r0, r8, lsr #5
     454:	000001cc 	andeq	r0, r0, ip, asr #3
     458:	000001bb 			; <UNDEFINED> instruction: 0x000001bb
     45c:	69050402 	stmdbvs	r5, {r1, sl}
     460:	0300746e 	movweq	r7, #1134	; 0x46e
     464:	008a0704 	addeq	r0, sl, r4, lsl #14
     468:	01030000 	mrseq	r0, (UNDEF: 3)
     46c:	00003a06 	andeq	r3, r0, r6, lsl #20
     470:	05020300 	streq	r0, [r2, #-768]	; 0xfffffd00
     474:	00000109 	andeq	r0, r0, r9, lsl #2
     478:	f4050403 	vst3.8	{d0-d2}, [r5], r3
     47c:	03000000 	movweq	r0, #0
     480:	00ef0508 	rsceq	r0, pc, r8, lsl #10
     484:	01030000 	mrseq	r0, (UNDEF: 3)
     488:	00003808 	andeq	r3, r0, r8, lsl #16
     48c:	07020300 	streq	r0, [r2, -r0, lsl #6]
     490:	00000053 	andeq	r0, r0, r3, asr r0
     494:	85070403 	strhi	r0, [r7, #-1027]	; 0xfffffbfd
     498:	03000000 	movweq	r0, #0
     49c:	00800708 	addeq	r0, r0, r8, lsl #14
     4a0:	25040000 	strcs	r0, [r4, #-0]
     4a4:	7a000000 	bvc	4ac <__code_start__-0x7b54>
     4a8:	05000000 	streq	r0, [r0, #-0]
     4ac:	00000025 	andeq	r0, r0, r5, lsr #32
     4b0:	00fd0600 	rscseq	r0, sp, r0, lsl #12
     4b4:	1c020000 	stcne	0, cr0, [r2], {-0}
     4b8:	0000860e 	andeq	r8, r0, lr, lsl #12
     4bc:	6b040700 	blvs	1020c4 <__bss_end__+0xf87bc>
     4c0:	04000000 	streq	r0, [r0], #-0
     4c4:	00000025 	andeq	r0, r0, r5, lsr #32
     4c8:	0000009b 	muleq	r0, fp, r0
     4cc:	00009b05 	andeq	r9, r0, r5, lsl #22
     4d0:	04070000 	streq	r0, [r7], #-0
     4d4:	000000a8 	andeq	r0, r0, r8, lsr #1
     4d8:	41080103 	tstmi	r8, r3, lsl #2
     4dc:	08000000 	stmdaeq	r0, {}	; <UNPREDICTABLE>
     4e0:	000000a1 	andeq	r0, r0, r1, lsr #1
     4e4:	0003bc06 	andeq	fp, r3, r6, lsl #24
     4e8:	0e210200 	cdpeq	2, 2, cr0, cr1, cr0, {0}
     4ec:	000000b9 	strheq	r0, [r0], -r9
     4f0:	008c0407 	addeq	r0, ip, r7, lsl #8
     4f4:	07090000 	streq	r0, [r9, -r0]
     4f8:	00002c04 	andeq	r2, r0, r4, lsl #24
     4fc:	06140300 	ldreq	r0, [r4], -r0, lsl #6
     500:	00000131 	andeq	r0, r0, r1, lsr r1
     504:	00033d0a 	andeq	r3, r3, sl, lsl #26
     508:	00b20000 	adcseq	r0, r2, r0
     50c:	01db0a20 	bicseq	r0, fp, r0, lsr #20
     510:	b2000000 	andlt	r0, r0, #0, 0
     514:	680a2000 	stmdavs	sl, {sp}
     518:	04000002 	streq	r0, [r0], #-2
     51c:	0a2000b2 	beq	8007ec <__bss_end__+0x7f6ee4>
     520:	0000028b 	andeq	r0, r0, fp, lsl #5
     524:	2000b208 	andcs	fp, r0, r8, lsl #4
     528:	00021d0a 	andeq	r1, r2, sl, lsl #26
     52c:	00b20c00 	adcseq	r0, r2, r0, lsl #24
     530:	024c0a20 	subeq	r0, ip, #32, 20	; 0x20000
     534:	b2100000 	andslt	r0, r0, #0, 0
     538:	5a0a2000 	bpl	288540 <__bss_end__+0x27ec38>
     53c:	14000002 	strne	r0, [r0], #-2
     540:	0a2000b2 	beq	800810 <__bss_end__+0x7f6f08>
     544:	0000023a 	andeq	r0, r0, sl, lsr r2
     548:	2000b218 	andcs	fp, r0, r8, lsl r2
     54c:	0003090a 	andeq	r0, r3, sl, lsl #18
     550:	00b21c00 	adcseq	r1, r2, r0, lsl #24
     554:	03180a20 	tsteq	r8, #32, 20	; 0x20000
     558:	b2200000 	eorlt	r0, r0, #0, 0
     55c:	0a0a2000 	beq	288564 <__bss_end__+0x27ec5c>
     560:	24000002 	strcs	r0, [r0], #-2
     564:	002000b2 	strhteq	r0, [r0], -r2
     568:	0002a50b 	andeq	sl, r2, fp, lsl #10
     56c:	06300100 	ldrteq	r0, [r0], -r0, lsl #2
     570:	00008438 	andeq	r8, r0, r8, lsr r4
     574:	0000003c 	andeq	r0, r0, ip, lsr r0
     578:	01b49c01 			; <UNDEFINED> instruction: 0x01b49c01
     57c:	700c0000 	andvc	r0, ip, r0
     580:	30010063 	andcc	r0, r1, r3, rrx
     584:	00002c21 	andeq	r2, r0, r1, lsr #24
     588:	00012100 	andeq	r2, r1, r0, lsl #2
     58c:	00011b00 	andeq	r1, r1, r0, lsl #22
     590:	00730d00 	rsbseq	r0, r3, r0, lsl #26
     594:	01c40000 	biceq	r0, r4, r0
     598:	03050000 	movweq	r0, #20480	; 0x5000
     59c:	000093d0 	ldrdeq	r9, [r0], -r0
     5a0:	0084600e 	addeq	r6, r4, lr
     5a4:	00056f00 	andeq	r6, r5, r0, lsl #30
     5a8:	0001aa00 	andeq	sl, r1, r0, lsl #20
     5ac:	50010f00 	andpl	r0, r1, r0, lsl #30
     5b0:	92bc0305 	adcsls	r0, ip, #335544320	; 0x14000000
     5b4:	010f0000 	mrseq	r0, CPSR
     5b8:	ac030551 	cfstr32ge	mvfx0, [r3], {81}	; 0x51
     5bc:	0f000092 	svceq	0x00000092
     5c0:	03055201 	movweq	r5, #20993	; 0x5201
     5c4:	000093d0 	ldrdeq	r9, [r0], -r0
     5c8:	0253010f 	subseq	r0, r3, #-1073741821	; 0xc0000003
     5cc:	020f3108 	andeq	r3, pc, #2
     5d0:	0305007d 	movweq	r0, #20605	; 0x507d
     5d4:	00009348 	andeq	r9, r0, r8, asr #6
     5d8:	047d020f 	ldrbteq	r0, [sp], #-527	; 0xfffffdf1
     5dc:	5001f303 	andpl	pc, r1, r3, lsl #6
     5e0:	84641000 	strbthi	r1, [r4], #-0
     5e4:	057b0000 	ldrbeq	r0, [fp, #-0]!
     5e8:	11000000 	mrsne	r0, (UNDEF: 0)
     5ec:	000000a8 	andeq	r0, r0, r8, lsr #1
     5f0:	000001c4 	andeq	r0, r0, r4, asr #3
     5f4:	00002c12 	andeq	r2, r0, r2, lsl ip
     5f8:	08001100 	stmdaeq	r0, {r8, ip}
     5fc:	000001b4 			; <UNDEFINED> instruction: 0x000001b4
     600:	0002b70b 	andeq	fp, r2, fp, lsl #14
     604:	062d0100 	strteq	r0, [sp], -r0, lsl #2
     608:	000083fc 	strdeq	r8, [r0], -ip
     60c:	0000003c 	andeq	r0, r0, ip, lsr r0
     610:	024c9c01 	subeq	r9, ip, #256	; 0x100
     614:	700c0000 	andvc	r0, ip, r0
     618:	2d010063 	stccs	0, cr0, [r1, #-396]	; 0xfffffe74
     61c:	00002c25 	andeq	r2, r0, r5, lsr #24
     620:	00015400 	andeq	r5, r1, r0, lsl #8
     624:	00014e00 	andeq	r4, r1, r0, lsl #28
     628:	00730d00 	rsbseq	r0, r3, r0, lsl #26
     62c:	025c0000 	subseq	r0, ip, #0, 0
     630:	03050000 	movweq	r0, #20480	; 0x5000
     634:	000093b8 			; <UNDEFINED> instruction: 0x000093b8
     638:	0084240e 	addeq	r2, r4, lr, lsl #8
     63c:	00056f00 	andeq	r6, r5, r0, lsl #30
     640:	00024200 	andeq	r4, r2, r0, lsl #4
     644:	50010f00 	andpl	r0, r1, r0, lsl #30
     648:	92bc0305 	adcsls	r0, ip, #335544320	; 0x14000000
     64c:	010f0000 	mrseq	r0, CPSR
     650:	ac030551 	cfstr32ge	mvfx0, [r3], {81}	; 0x51
     654:	0f000092 	svceq	0x00000092
     658:	03055201 	movweq	r5, #20993	; 0x5201
     65c:	000093b8 			; <UNDEFINED> instruction: 0x000093b8
     660:	0253010f 	subseq	r0, r3, #-1073741821	; 0xc0000003
     664:	020f2e08 	andeq	r2, pc, #8, 28	; 0x80
     668:	0305007d 	movweq	r0, #20605	; 0x507d
     66c:	00009338 	andeq	r9, r0, r8, lsr r3
     670:	047d020f 	ldrbteq	r0, [sp], #-527	; 0xfffffdf1
     674:	5001f303 	andpl	pc, r1, r3, lsl #6
     678:	84281000 	strthi	r1, [r8], #-0
     67c:	057b0000 	ldrbeq	r0, [fp, #-0]!
     680:	11000000 	mrsne	r0, (UNDEF: 0)
     684:	000000a8 	andeq	r0, r0, r8, lsr #1
     688:	0000025c 	andeq	r0, r0, ip, asr r2
     68c:	00002c12 	andeq	r2, r0, r2, lsl ip
     690:	08001500 	stmdaeq	r0, {r8, sl, ip}
     694:	0000024c 	andeq	r0, r0, ip, asr #4
     698:	0001ed0b 	andeq	lr, r1, fp, lsl #26
     69c:	062a0100 	strteq	r0, [sl], -r0, lsl #2
     6a0:	000083c0 	andeq	r8, r0, r0, asr #7
     6a4:	0000003c 	andeq	r0, r0, ip, lsr r0
     6a8:	02e49c01 	rsceq	r9, r4, #256	; 0x100
     6ac:	700c0000 	andvc	r0, ip, r0
     6b0:	2a010063 	bcs	40844 <__bss_end__+0x36f3c>
     6b4:	00002c2c 	andeq	r2, r0, ip, lsr #24
     6b8:	00018700 	andeq	r8, r1, r0, lsl #14
     6bc:	00018100 	andeq	r8, r1, r0, lsl #2
     6c0:	00730d00 	rsbseq	r0, r3, r0, lsl #26
     6c4:	02f40000 	rscseq	r0, r4, #0, 0
     6c8:	03050000 	movweq	r0, #20480	; 0x5000
     6cc:	00009398 	muleq	r0, r8, r3
     6d0:	0083e80e 	addeq	lr, r3, lr, lsl #16
     6d4:	00056f00 	andeq	r6, r5, r0, lsl #30
     6d8:	0002da00 	andeq	sp, r2, r0, lsl #20
     6dc:	50010f00 	andpl	r0, r1, r0, lsl #30
     6e0:	92bc0305 	adcsls	r0, ip, #335544320	; 0x14000000
     6e4:	010f0000 	mrseq	r0, CPSR
     6e8:	ac030551 	cfstr32ge	mvfx0, [r3], {81}	; 0x51
     6ec:	0f000092 	svceq	0x00000092
     6f0:	03055201 	movweq	r5, #20993	; 0x5201
     6f4:	00009398 	muleq	r0, r8, r3
     6f8:	0253010f 	subseq	r0, r3, #-1073741821	; 0xc0000003
     6fc:	020f2b08 	andeq	r2, pc, #8, 22	; 0x2000
     700:	0305007d 	movweq	r0, #20605	; 0x507d
     704:	00009320 	andeq	r9, r0, r0, lsr #6
     708:	047d020f 	ldrbteq	r0, [sp], #-527	; 0xfffffdf1
     70c:	5001f303 	andpl	pc, r1, r3, lsl #6
     710:	83ec1000 	mvnhi	r1, #0, 0
     714:	057b0000 	ldrbeq	r0, [fp, #-0]!
     718:	11000000 	mrsne	r0, (UNDEF: 0)
     71c:	000000a8 	andeq	r0, r0, r8, lsr #1
     720:	000002f4 	strdeq	r0, [r0], -r4
     724:	00002c12 	andeq	r2, r0, r2, lsl ip
     728:	08001c00 	stmdaeq	r0, {sl, fp, ip}
     72c:	000002e4 	andeq	r0, r0, r4, ror #5
     730:	0002dc0b 	andeq	sp, r2, fp, lsl #24
     734:	06270100 	strteq	r0, [r7], -r0, lsl #2
     738:	00008384 	andeq	r8, r0, r4, lsl #7
     73c:	0000003c 	andeq	r0, r0, ip, lsr r0
     740:	037c9c01 	cmneq	ip, #256	; 0x100
     744:	700c0000 	andvc	r0, ip, r0
     748:	27010063 	strcs	r0, [r1, -r3, rrx]
     74c:	00002c1c 	andeq	r2, r0, ip, lsl ip
     750:	0001ba00 	andeq	fp, r1, r0, lsl #20
     754:	0001b400 	andeq	fp, r1, r0, lsl #8
     758:	00730d00 	rsbseq	r0, r3, r0, lsl #26
     75c:	038c0000 	orreq	r0, ip, #0, 0
     760:	03050000 	movweq	r0, #20480	; 0x5000
     764:	00009388 	andeq	r9, r0, r8, lsl #7
     768:	0083ac0e 	addeq	sl, r3, lr, lsl #24
     76c:	00056f00 	andeq	r6, r5, r0, lsl #30
     770:	00037200 	andeq	r7, r3, r0, lsl #4
     774:	50010f00 	andpl	r0, r1, r0, lsl #30
     778:	92bc0305 	adcsls	r0, ip, #335544320	; 0x14000000
     77c:	010f0000 	mrseq	r0, CPSR
     780:	ac030551 	cfstr32ge	mvfx0, [r3], {81}	; 0x51
     784:	0f000092 	svceq	0x00000092
     788:	03055201 	movweq	r5, #20993	; 0x5201
     78c:	00009388 	andeq	r9, r0, r8, lsl #7
     790:	0253010f 	subseq	r0, r3, #-1073741821	; 0xc0000003
     794:	020f2808 	andeq	r2, pc, #8, 16	; 0x80000
     798:	0305007d 	movweq	r0, #20605	; 0x507d
     79c:	00009310 	andeq	r9, r0, r0, lsl r3
     7a0:	047d020f 	ldrbteq	r0, [sp], #-527	; 0xfffffdf1
     7a4:	5001f303 	andpl	pc, r1, r3, lsl #6
     7a8:	83b01000 	movshi	r1, #0, 0
     7ac:	057b0000 	ldrbeq	r0, [fp, #-0]!
     7b0:	11000000 	mrsne	r0, (UNDEF: 0)
     7b4:	000000a8 	andeq	r0, r0, r8, lsr #1
     7b8:	0000038c 	andeq	r0, r0, ip, lsl #7
     7bc:	00002c12 	andeq	r2, r0, r2, lsl ip
     7c0:	08000c00 	stmdaeq	r0, {sl, fp}
     7c4:	0000037c 	andeq	r0, r0, ip, ror r3
     7c8:	0002e90b 	andeq	lr, r2, fp, lsl #18
     7cc:	06240100 	strteq	r0, [r4], -r0, lsl #2
     7d0:	00008348 	andeq	r8, r0, r8, asr #6
     7d4:	0000003c 	andeq	r0, r0, ip, lsr r0
     7d8:	04149c01 	ldreq	r9, [r4], #-3073	; 0xfffff3ff
     7dc:	700c0000 	andvc	r0, ip, r0
     7e0:	24010063 	strcs	r0, [r1], #-99	; 0xffffff9d
     7e4:	00002c29 	andeq	r2, r0, r9, lsr #24
     7e8:	0001ed00 	andeq	lr, r1, r0, lsl #26
     7ec:	0001e700 	andeq	lr, r1, r0, lsl #14
     7f0:	00730d00 	rsbseq	r0, r3, r0, lsl #26
     7f4:	04240000 	strteq	r0, [r4], #-0
     7f8:	03050000 	movweq	r0, #20480	; 0x5000
     7fc:	0000936c 	andeq	r9, r0, ip, ror #6
     800:	0083700e 	addeq	r7, r3, lr
     804:	00056f00 	andeq	r6, r5, r0, lsl #30
     808:	00040a00 	andeq	r0, r4, r0, lsl #20
     80c:	50010f00 	andpl	r0, r1, r0, lsl #30
     810:	92bc0305 	adcsls	r0, ip, #335544320	; 0x14000000
     814:	010f0000 	mrseq	r0, CPSR
     818:	ac030551 	cfstr32ge	mvfx0, [r3], {81}	; 0x51
     81c:	0f000092 	svceq	0x00000092
     820:	03055201 	movweq	r5, #20993	; 0x5201
     824:	0000936c 	andeq	r9, r0, ip, ror #6
     828:	0253010f 	subseq	r0, r3, #-1073741821	; 0xc0000003
     82c:	020f2508 	andeq	r2, pc, #8, 10	; 0x2000000
     830:	0305007d 	movweq	r0, #20605	; 0x507d
     834:	00009300 	andeq	r9, r0, r0, lsl #6
     838:	047d020f 	ldrbteq	r0, [sp], #-527	; 0xfffffdf1
     83c:	5001f303 	andpl	pc, r1, r3, lsl #6
     840:	83741000 	cmnhi	r4, #0, 0
     844:	057b0000 	ldrbeq	r0, [fp, #-0]!
     848:	11000000 	mrsne	r0, (UNDEF: 0)
     84c:	000000a8 	andeq	r0, r0, r8, lsr #1
     850:	00000424 	andeq	r0, r0, r4, lsr #8
     854:	00002c12 	andeq	r2, r0, r2, lsl ip
     858:	08001900 	stmdaeq	r0, {r8, fp, ip}
     85c:	00000414 	andeq	r0, r0, r4, lsl r4
     860:	0003270b 	andeq	r2, r3, fp, lsl #14
     864:	061f0100 	ldreq	r0, [pc], -r0, lsl #2
     868:	0000830c 	andeq	r8, r0, ip, lsl #6
     86c:	0000003c 	andeq	r0, r0, ip, lsr r0
     870:	04ac9c01 	strteq	r9, [ip], #3073	; 0xc01
     874:	700c0000 	andvc	r0, ip, r0
     878:	1f010063 	svcne	0x00010063
     87c:	00002c25 	andeq	r2, r0, r5, lsr #24
     880:	00022000 	andeq	r2, r2, r0
     884:	00021a00 	andeq	r1, r2, r0, lsl #20
     888:	00730d00 	rsbseq	r0, r3, r0, lsl #26
     88c:	025c0000 	subseq	r0, ip, #0, 0
     890:	03050000 	movweq	r0, #20480	; 0x5000
     894:	00009354 	andeq	r9, r0, r4, asr r3
     898:	0083340e 	addeq	r3, r3, lr, lsl #8
     89c:	00056f00 	andeq	r6, r5, r0, lsl #30
     8a0:	0004a200 	andeq	sl, r4, r0, lsl #4
     8a4:	50010f00 	andpl	r0, r1, r0, lsl #30
     8a8:	92bc0305 	adcsls	r0, ip, #335544320	; 0x14000000
     8ac:	010f0000 	mrseq	r0, CPSR
     8b0:	ac030551 	cfstr32ge	mvfx0, [r3], {81}	; 0x51
     8b4:	0f000092 	svceq	0x00000092
     8b8:	03055201 	movweq	r5, #20993	; 0x5201
     8bc:	00009354 	andeq	r9, r0, r4, asr r3
     8c0:	0253010f 	subseq	r0, r3, #-1073741821	; 0xc0000003
     8c4:	020f2008 	andeq	r2, pc, #8, 0
     8c8:	0305007d 	movweq	r0, #20605	; 0x507d
     8cc:	000092f8 	strdeq	r9, [r0], -r8
     8d0:	047d020f 	ldrbteq	r0, [sp], #-527	; 0xfffffdf1
     8d4:	5001f303 	andpl	pc, r1, r3, lsl #6
     8d8:	83381000 	teqhi	r8, #0, 0
     8dc:	057b0000 	ldrbeq	r0, [fp, #-0]!
     8e0:	0b000000 	bleq	8e8 <__code_start__-0x7718>
     8e4:	00000000 	andeq	r0, r0, r0
     8e8:	a8060501 	stmdage	r6, {r0, r8, sl}
     8ec:	64000082 	strvs	r0, [r0], #-130	; 0xffffff7e
     8f0:	01000000 	mrseq	r0, (UNDEF: 0)
     8f4:	0005699c 	muleq	r5, ip, r9
     8f8:	02290600 	eoreq	r0, r9, #0, 12
     8fc:	11010000 	mrsne	r0, (UNDEF: 1)
     900:	00002c15 	andeq	r2, r0, r5, lsl ip
     904:	02760600 	rsbseq	r0, r6, #0, 12
     908:	12010000 	andne	r0, r1, #0, 0
     90c:	00002c15 	andeq	r2, r0, r5, lsl ip
     910:	73641300 	cmnvc	r4, #0, 6
     914:	16010074 			; <UNDEFINED> instruction: 0x16010074
     918:	0005690f 	andeq	r6, r5, pc, lsl #18
     91c:	73140000 	tstvc	r4, #0, 0
     920:	01006372 	tsteq	r0, r2, ror r3
     924:	05691317 	strbeq	r1, [r9, #-791]!	; 0xfffffce9
     928:	6e150000 	cdpvs	0, 1, cr0, cr5, cr0, {0}
     92c:	12180100 	andsne	r0, r8, #0
     930:	0000002c 	andeq	r0, r0, ip, lsr #32
     934:	0000024f 	andeq	r0, r0, pc, asr #4
     938:	0000024d 	andeq	r0, r0, sp, asr #4
     93c:	0082d816 	addeq	sp, r2, r6, lsl r8
     940:	00003400 	andeq	r3, r0, r0, lsl #8
     944:	00052500 	andeq	r2, r5, r0, lsl #10
     948:	00691500 	rsbeq	r1, r9, r0, lsl #10
     94c:	250d1901 	strcs	r1, [sp, #-2305]	; 0xfffff6ff
     950:	66000000 	strvs	r0, [r0], -r0
     954:	62000002 	andvs	r0, r0, #2, 0
     958:	00000002 	andeq	r0, r0, r2
     95c:	0082b80e 	addeq	fp, r2, lr, lsl #16
     960:	00058700 	andeq	r8, r5, r0, lsl #14
     964:	00054200 	andeq	r4, r5, r0, lsl #4
     968:	50010f00 	andpl	r0, r1, r0, lsl #30
     96c:	b21c0c05 	andslt	r0, ip, #1280	; 0x500
     970:	010f2000 	mrseq	r2, CPSR
     974:	ff090251 			; <UNDEFINED> instruction: 0xff090251
     978:	82c40e00 	sbchi	r0, r4, #0, 28
     97c:	05870000 	streq	r0, [r7]
     980:	055f0000 	ldrbeq	r0, [pc, #-0]	; 988 <__code_start__-0x7678>
     984:	010f0000 	mrseq	r0, CPSR
     988:	200c0550 	andcs	r0, ip, r0, asr r5
     98c:	0f2000b2 	svceq	0x002000b2
     990:	09025101 	stmdbeq	r2, {r0, r8, ip, lr}
     994:	c81000ff 	ldmdagt	r0, {r0, r1, r2, r3, r4, r5, r6, r7}
     998:	93000082 	movwls	r0, #130	; 0x82
     99c:	00000005 	andeq	r0, r0, r5
     9a0:	002c0407 	eoreq	r0, ip, r7, lsl #8
     9a4:	4e170000 	cdpmi	0, 1, cr0, cr7, cr0, {0}
     9a8:	4e000003 	cdpmi	0, 0, cr0, cr0, cr3, {0}
     9ac:	02000003 	andeq	r0, r0, #3, 0
     9b0:	46170628 	ldrmi	r0, [r7], -r8, lsr #12
     9b4:	46000000 	strmi	r0, [r0], -r0
     9b8:	02000000 	andeq	r0, r0, #0, 0
     9bc:	03170667 	tsteq	r7, #108003328	; 0x6700000
     9c0:	03000003 	movweq	r0, #3
     9c4:	02000003 	andeq	r0, r0, #3, 0
     9c8:	991706a1 	ldmdbls	r7, {r0, r5, r7, r9, sl}
     9cc:	99000002 	stmdbls	r0, {r1}
     9d0:	02000002 	andeq	r0, r0, #2, 0
     9d4:	9d000690 	stcls	6, cr0, [r0, #-576]	; 0xfffffdc0
     9d8:	04000001 	streq	r0, [r0], #-1
     9dc:	00028500 	andeq	r8, r2, r0, lsl #10
     9e0:	1c010400 	cfstrsne	mvf0, [r1], {-0}
     9e4:	0c000001 	stceq	0, cr0, [r0], {1}
     9e8:	00000364 	andeq	r0, r0, r4, ror #6
     9ec:	00000381 	andeq	r0, r0, r1, lsl #7
     9f0:	00008474 	andeq	r8, r0, r4, ror r4
     9f4:	00000058 	andeq	r0, r0, r8, asr r0
     9f8:	000002f8 	strdeq	r0, [r0], -r8
     9fc:	00035502 	andeq	r5, r3, r2, lsl #10
     a00:	1b280200 	blne	a01208 <__bss_end__+0x9f7900>
     a04:	00000031 	andeq	r0, r0, r1, lsr r0
     a08:	00037703 	andeq	r7, r3, r3, lsl #14
     a0c:	00040400 	andeq	r0, r4, r0, lsl #8
     a10:	00000048 	andeq	r0, r0, r8, asr #32
     a14:	00037204 	andeq	r7, r3, r4, lsl #4
     a18:	00004800 	andeq	r4, r0, r0, lsl #16
     a1c:	05000000 	streq	r0, [r0, #-0]
     a20:	03790204 	cmneq	r9, #4, 4	; 0x40000000
     a24:	63020000 	movwvs	r0, #8192	; 0x2000
     a28:	00002518 	andeq	r2, r0, r8, lsl r5
     a2c:	05040600 	streq	r0, [r4, #-1536]	; 0xfffffa00
     a30:	00746e69 	rsbseq	r6, r4, r9, ror #28
     a34:	8a070407 	bhi	1c1a58 <__bss_end__+0x1b8150>
     a38:	07000000 	streq	r0, [r0, -r0]
     a3c:	003a0601 	eorseq	r0, sl, r1, lsl #12
     a40:	02070000 	andeq	r0, r7, #0, 0
     a44:	00010905 	andeq	r0, r1, r5, lsl #18
     a48:	05040700 	streq	r0, [r4, #-1792]	; 0xfffff900
     a4c:	000000f4 	strdeq	r0, [r0], -r4
     a50:	ef050807 	svc	0x00050807
     a54:	07000000 	streq	r0, [r0, -r0]
     a58:	00380801 	eorseq	r0, r8, r1, lsl #16
     a5c:	02070000 	andeq	r0, r7, #0, 0
     a60:	00005307 	andeq	r5, r0, r7, lsl #6
     a64:	07040700 	streq	r0, [r4, -r0, lsl #14]
     a68:	00000085 	andeq	r0, r0, r5, lsl #1
     a6c:	80070807 	andhi	r0, r7, r7, lsl #16
     a70:	08000000 	stmdaeq	r0, {}	; <UNPREDICTABLE>
     a74:	00000056 	andeq	r0, r0, r6, asr r0
     a78:	000000ab 	andeq	r0, r0, fp, lsr #1
     a7c:	00005609 	andeq	r5, r0, r9, lsl #12
     a80:	fd0a0000 	stc2	0, cr0, [sl, #-0]
     a84:	03000000 	movweq	r0, #0
     a88:	00b70e1c 	adcseq	r0, r7, ip, lsl lr
     a8c:	040b0000 	streq	r0, [fp], #-0
     a90:	0000009c 	muleq	r0, ip, r0
     a94:	00005608 	andeq	r5, r0, r8, lsl #12
     a98:	0000cc00 	andeq	ip, r0, r0, lsl #24
     a9c:	00cc0900 	sbceq	r0, ip, r0, lsl #18
     aa0:	0b000000 	bleq	aa8 <__code_start__-0x7558>
     aa4:	0000d904 	andeq	sp, r0, r4, lsl #18
     aa8:	08010700 	stmdaeq	r1, {r8, r9, sl}
     aac:	00000041 	andeq	r0, r0, r1, asr #32
     ab0:	0000d20c 	andeq	sp, r0, ip, lsl #4
     ab4:	03bc0a00 			; <UNDEFINED> instruction: 0x03bc0a00
     ab8:	21030000 	mrscs	r0, (UNDEF: 3)
     abc:	0000ea0e 	andeq	lr, r0, lr, lsl #20
     ac0:	bd040b00 	vstrlt	d0, [r4, #-0]
     ac4:	0d000000 	stceq	0, cr0, [r0, #-0]
     ac8:	0000034e 	andeq	r0, r0, lr, asr #6
     acc:	56050601 	strpl	r0, [r5], -r1, lsl #12
     ad0:	74000000 	strvc	r0, [r0], #-0
     ad4:	58000084 	stmdapl	r0, {r2, r7}
     ad8:	01000000 	mrseq	r0, (UNDEF: 0)
     adc:	0001839c 	muleq	r1, ip, r3
     ae0:	6d660e00 	stclvs	14, cr0, [r6, #-0]
     ae4:	06010074 			; <UNDEFINED> instruction: 0x06010074
     ae8:	0000cc18 	andeq	ip, r0, r8, lsl ip
     aec:	70910200 	addsvc	r0, r1, r0, lsl #4
     af0:	7562100f 	strbvc	r1, [r2, #-15]!
     af4:	08010066 	stmdaeq	r1, {r1, r2, r5, r6}
     af8:	00018311 	andeq	r8, r1, r1, lsl r3
     afc:	04030500 	streq	r0, [r3], #-1280	; 0xfffffb00
     b00:	11000095 	swpne	r0, r5, [r0]	; <UNPREDICTABLE>
     b04:	00000346 	andeq	r0, r0, r6, asr #6
     b08:	4a0d0901 	bmi	342f14 <__bss_end__+0x33960c>
     b0c:	02000000 	andeq	r0, r0, #0, 0
     b10:	73125c91 	tstvc	r2, #37120	; 0x9100
     b14:	0c01007a 	stceq	0, cr0, [r1], {122}	; 0x7a
     b18:	0000560d 	andeq	r5, r0, sp, lsl #12
     b1c:	00028b00 	andeq	r8, r2, r0, lsl #22
     b20:	00028500 	andeq	r8, r2, r0, lsl #10
     b24:	849c1300 	ldrhi	r1, [ip], #768	; 0x300
     b28:	01940000 	orrseq	r0, r4, r0
     b2c:	01760000 	cmneq	r6, r0
     b30:	01140000 	tsteq	r4, r0
     b34:	00750250 	rsbseq	r0, r5, r0, asr r2
     b38:	03510114 	cmpeq	r1, #5
     b3c:	1404000a 	strne	r0, [r4], #-10
     b40:	91035201 	tstls	r3, r1, lsl #4
     b44:	01140648 	tsteq	r4, r8, asr #12
     b48:	4c910253 	lfmmi	f0, 4, [r1], {83}	; 0x53
     b4c:	84b01500 	ldrthi	r1, [r0], #1280	; 0x500
     b50:	01140000 	tsteq	r4, r0
     b54:	00750250 	rsbseq	r0, r5, r0, asr r2
     b58:	d2160000 	andsle	r0, r6, #0, 0
     b5c:	94000000 	strls	r0, [r0], #-0
     b60:	17000001 	strne	r0, [r0, -r1]
     b64:	0000005d 	andeq	r0, r0, sp, asr r0
     b68:	180003ff 	stmdane	r0, {r0, r1, r2, r3, r4, r5, r6, r7, r8, r9}
     b6c:	0000034b 	andeq	r0, r0, fp, asr #6
     b70:	0000034b 	andeq	r0, r0, fp, asr #6
     b74:	00050205 	andeq	r0, r5, r5, lsl #4
     b78:	000000f3 	strdeq	r0, [r0], -r3
     b7c:	03c70004 	biceq	r0, r7, #4, 0
     b80:	01040000 	mrseq	r0, (UNDEF: 4)
     b84:	0000011c 	andeq	r0, r0, ip, lsl r1
     b88:	0003c10c 	andeq	ip, r3, ip, lsl #2
     b8c:	00038100 	andeq	r8, r3, r0, lsl #2
     b90:	0084cc00 	addeq	ip, r4, r0, lsl #24
     b94:	00003400 	andeq	r3, r0, r0, lsl #8
     b98:	00041700 	andeq	r1, r4, r0, lsl #14
     b9c:	05040200 	streq	r0, [r4, #-512]	; 0xfffffe00
     ba0:	00746e69 	rsbseq	r6, r4, r9, ror #28
     ba4:	8a070403 	bhi	1c1bb8 <__bss_end__+0x1b82b0>
     ba8:	03000000 	movweq	r0, #0
     bac:	003a0601 	eorseq	r0, sl, r1, lsl #12
     bb0:	02030000 	andeq	r0, r3, #0, 0
     bb4:	00010905 	andeq	r0, r1, r5, lsl #18
     bb8:	05040300 	streq	r0, [r4, #-768]	; 0xfffffd00
     bbc:	000000f4 	strdeq	r0, [r0], -r4
     bc0:	ef050803 	svc	0x00050803
     bc4:	03000000 	movweq	r0, #0
     bc8:	00380801 	eorseq	r0, r8, r1, lsl #16
     bcc:	02030000 	andeq	r0, r3, #0, 0
     bd0:	00005307 	andeq	r5, r0, r7, lsl #6
     bd4:	07040300 	streq	r0, [r4, -r0, lsl #6]
     bd8:	00000085 	andeq	r0, r0, r5, lsl #1
     bdc:	80070803 	andhi	r0, r7, r3, lsl #16
     be0:	04000000 	streq	r0, [r0], #-0
     be4:	00000025 	andeq	r0, r0, r5, lsr #32
     be8:	0000007a 	andeq	r0, r0, sl, ror r0
     bec:	00002505 	andeq	r2, r0, r5, lsl #10
     bf0:	fd060000 	stc2	0, cr0, [r6, #-0]
     bf4:	02000000 	andeq	r0, r0, #0, 0
     bf8:	00860e1c 	addeq	r0, r6, ip, lsl lr
     bfc:	04070000 	streq	r0, [r7], #-0
     c00:	0000006b 	andeq	r0, r0, fp, rrx
     c04:	00002504 	andeq	r2, r0, r4, lsl #10
     c08:	00009b00 	andeq	r9, r0, r0, lsl #22
     c0c:	009b0500 	addseq	r0, fp, r0, lsl #10
     c10:	07000000 	streq	r0, [r0, -r0]
     c14:	0000a804 	andeq	sl, r0, r4, lsl #16
     c18:	08010300 	stmdaeq	r1, {r8, r9}
     c1c:	00000041 	andeq	r0, r0, r1, asr #32
     c20:	0000a108 	andeq	sl, r0, r8, lsl #2
     c24:	03bc0600 			; <UNDEFINED> instruction: 0x03bc0600
     c28:	21020000 	mrscs	r0, (UNDEF: 2)
     c2c:	0000b90e 	andeq	fp, r0, lr, lsl #18
     c30:	8c040700 	stchi	7, cr0, [r4], {-0}
     c34:	09000000 	stmdbeq	r0, {}	; <UNPREDICTABLE>
     c38:	000000ad 	andeq	r0, r0, sp, lsr #1
     c3c:	05070c01 	streq	r0, [r7, #-3073]	; 0xfffff3ff
     c40:	0094fc03 	addseq	pc, r4, r3, lsl #24
     c44:	03b30a00 			; <UNDEFINED> instruction: 0x03b30a00
     c48:	04010000 	streq	r0, [r1], #-0
     c4c:	00002505 	andeq	r2, r0, r5, lsl #10
     c50:	0084cc00 	addeq	ip, r4, r0, lsl #24
     c54:	00003400 	andeq	r3, r0, r0, lsl #8
     c58:	0b9c0100 	bleq	fe701060 <__bss_end__+0xfe6f7758>
     c5c:	04010070 	streq	r0, [r1], #-112	; 0xffffff90
     c60:	00009b1f 	andeq	r9, r0, pc, lsl fp
     c64:	0002b800 	andeq	fp, r2, r0, lsl #16
     c68:	0002b400 	andeq	fp, r2, r0, lsl #8
     c6c:	04000000 	streq	r0, [r0], #-0
     c70:	04000009 	streq	r0, [r0], #-9
     c74:	00046500 	andeq	r6, r4, r0, lsl #10
     c78:	1c010400 	cfstrsne	mvf0, [r1], {-0}
     c7c:	0c000001 	stceq	0, cr0, [r0], {1}
     c80:	0000044a 	andeq	r0, r0, sl, asr #8
     c84:	00000381 	andeq	r0, r0, r1, lsl #7
     c88:	00008500 	andeq	r8, r0, r0, lsl #10
     c8c:	0000062c 	andeq	r0, r0, ip, lsr #12
     c90:	000004ce 	andeq	r0, r0, lr, asr #9
     c94:	69050402 	stmdbvs	r5, {r1, sl}
     c98:	0300746e 	movweq	r7, #1134	; 0x46e
     c9c:	008a0704 	addeq	r0, sl, r4, lsl #14
     ca0:	01030000 	mrseq	r0, (UNDEF: 3)
     ca4:	00003a06 	andeq	r3, r0, r6, lsl #20
     ca8:	05020300 	streq	r0, [r2, #-768]	; 0xfffffd00
     cac:	00000109 	andeq	r0, r0, r9, lsl #2
     cb0:	f4050403 	vst3.8	{d0-d2}, [r5], r3
     cb4:	03000000 	movweq	r0, #0
     cb8:	00ef0508 	rsceq	r0, pc, r8, lsl #10
     cbc:	01030000 	mrseq	r0, (UNDEF: 3)
     cc0:	00003808 	andeq	r3, r0, r8, lsl #16
     cc4:	07020300 	streq	r0, [r2, -r0, lsl #6]
     cc8:	00000053 	andeq	r0, r0, r3, asr r0
     ccc:	00011304 	andeq	r1, r1, r4, lsl #6
     cd0:	19340200 	ldmdbne	r4!, {r9}
     cd4:	00000069 	andeq	r0, r0, r9, rrx
     cd8:	85070403 	strhi	r0, [r7, #-1027]	; 0xfffffbfd
     cdc:	04000000 	streq	r0, [r0], #-0
     ce0:	000003d5 	ldrdeq	r0, [r0], -r5
     ce4:	7c193702 	ldcvc	7, cr3, [r9], {2}
     ce8:	03000000 	movweq	r0, #0
     cec:	00800708 	addeq	r0, r0, r8, lsl #14
     cf0:	25050000 	strcs	r0, [r5, #-0]
     cf4:	92000000 	andls	r0, r0, #0, 0
     cf8:	06000000 	streq	r0, [r0], -r0
     cfc:	00000025 	andeq	r0, r0, r5, lsr #32
     d00:	00fd0700 	rscseq	r0, sp, r0, lsl #14
     d04:	1c030000 	stcne	0, cr0, [r3], {-0}
     d08:	00009e0e 	andeq	r9, r0, lr, lsl #28
     d0c:	83040800 	movwhi	r0, #18432	; 0x4800
     d10:	05000000 	streq	r0, [r0, #-0]
     d14:	00000025 	andeq	r0, r0, r5, lsr #32
     d18:	000000b3 	strheq	r0, [r0], -r3
     d1c:	0000b306 	andeq	fp, r0, r6, lsl #6
     d20:	04080000 	streq	r0, [r8], #-0
     d24:	000000c0 	andeq	r0, r0, r0, asr #1
     d28:	41080103 	tstmi	r8, r3, lsl #2
     d2c:	09000000 	stmdbeq	r0, {}	; <UNPREDICTABLE>
     d30:	000000b9 	strheq	r0, [r0], -r9
     d34:	0003bc07 	andeq	fp, r3, r7, lsl #24
     d38:	0e210300 	cdpeq	3, 2, cr0, cr1, cr0, {0}
     d3c:	000000d1 	ldrdeq	r0, [r0], -r1
     d40:	00a40408 	adceq	r0, r4, r8, lsl #8
     d44:	de070000 	cdple	0, 0, cr0, cr7, cr0, {0}
     d48:	04000003 	streq	r0, [r0], #-3
     d4c:	00b90d0b 	adcseq	r0, r9, fp, lsl #26
     d50:	68070000 	stmdavs	r7, {}	; <UNPREDICTABLE>
     d54:	04000004 	streq	r0, [r0], #-4
     d58:	00b90d0c 	adcseq	r0, r9, ip, lsl #26
     d5c:	ed070000 	stc	0, cr0, [r7, #-0]
     d60:	04000003 	streq	r0, [r0], #-3
     d64:	00b90d0d 	adcseq	r0, r9, sp, lsl #26
     d68:	16070000 	strne	r0, [r7], -r0
     d6c:	04000004 	streq	r0, [r0], #-4
     d70:	00b90d0e 	adcseq	r0, r9, lr, lsl #26
     d74:	8a070000 	bhi	1c0d7c <__bss_end__+0x1b7474>
     d78:	04000004 	streq	r0, [r0], #-4
     d7c:	00b90d0f 	adcseq	r0, r9, pc, lsl #26
     d80:	01070000 	mrseq	r0, (UNDEF: 7)
     d84:	04000004 	streq	r0, [r0], #-4
     d88:	00b90d10 	adcseq	r0, r9, r0, lsl sp
     d8c:	99070000 	stmdbls	r7, {}	; <UNPREDICTABLE>
     d90:	04000004 	streq	r0, [r0], #-4
     d94:	00b90d11 	adcseq	r0, r9, r1, lsl sp
     d98:	22070000 	andcs	r0, r7, #0, 0
     d9c:	04000004 	streq	r0, [r0], #-4
     da0:	00b90d12 	adcseq	r0, r9, r2, lsl sp
     da4:	55040000 	strpl	r0, [r4, #-0]
     da8:	05000003 	streq	r0, [r0, #-3]
     dac:	01431b28 	cmpeq	r3, r8, lsr #22
     db0:	770a0000 	strvc	r0, [sl, -r0]
     db4:	04000003 	streq	r0, [r0], #-3
     db8:	015a0006 	cmpeq	sl, r6
     dbc:	720b0000 	andvc	r0, fp, #0, 0
     dc0:	5a000003 	bpl	dd4 <__code_start__-0x722c>
     dc4:	00000001 	andeq	r0, r0, r1
     dc8:	04040c00 	streq	r0, [r4], #-3072	; 0xfffff400
     dcc:	00000379 	andeq	r0, r0, r9, ror r3
     dd0:	37186305 	ldrcc	r6, [r8, -r5, lsl #6]
     dd4:	0d000001 	stceq	0, cr0, [r0, #-4]
     dd8:	0000034b 	andeq	r0, r0, fp, asr #6
     ddc:	25058101 	strcs	r8, [r5, #-257]	; 0xfffffeff
     de0:	88000000 	stmdahi	r0, {}	; <UNPREDICTABLE>
     de4:	a4000087 	strge	r0, [r0], #-135	; 0xffffff79
     de8:	01000003 	tsteq	r0, r3
     dec:	00055c9c 	muleq	r5, ip, ip
     df0:	75620e00 	strbvc	r0, [r2, #-3584]!	; 0xfffff200
     df4:	81010066 	tsthi	r1, r6, rrx
     df8:	00055c15 	andeq	r5, r5, r5, lsl ip
     dfc:	0002dc00 	andeq	sp, r2, r0, lsl #24
     e00:	0002d600 	andeq	sp, r2, r0, lsl #12
     e04:	006e0e00 	rsbeq	r0, lr, r0, lsl #28
     e08:	251e8101 	ldrcs	r8, [lr, #-257]	; 0xfffffeff
     e0c:	0e000000 	cdpeq	0, 0, cr0, cr0, cr0, {0}
     e10:	08000003 	stmdaeq	r0, {r0, r1}
     e14:	0e000003 	cdpeq	0, 0, cr0, cr0, cr3, {0}
     e18:	00746d66 	rsbseq	r6, r4, r6, ror #26
     e1c:	b32d8101 			; <UNDEFINED> instruction: 0xb32d8101
     e20:	40000000 	andmi	r0, r0, r0
     e24:	3c000003 	stccc	0, cr0, [r0], {3}
     e28:	0f000003 	svceq	0x00000003
     e2c:	00000346 	andeq	r0, r0, r6, asr #6
     e30:	5c3a8101 	ldfpld	f0, [sl], #-4
     e34:	03000001 	movweq	r0, #1
     e38:	107dd491 			; <UNDEFINED> instruction: 0x107dd491
     e3c:	82010070 	andhi	r0, r1, #112, 0	; 0x70
     e40:	00055c08 	andeq	r5, r5, r8, lsl #24
     e44:	00037200 	andeq	r7, r3, r0, lsl #4
     e48:	00035e00 	andeq	r5, r3, r0, lsl #28
     e4c:	00651000 	rsbeq	r1, r5, r0
     e50:	5c128201 	lfmpl	f0, 1, [r2], {1}
     e54:	f4000005 	vst4.8	{d0-d3}, [r0], r5
     e58:	f0000003 			; <UNDEFINED> instruction: 0xf0000003
     e5c:	10000003 	andne	r0, r0, r3
     e60:	01003078 	tsteq	r0, r8, ror r0
     e64:	005d0e83 	subseq	r0, sp, r3, lsl #29
     e68:	041d0000 	ldreq	r0, [sp], #-0
     e6c:	041b0000 	ldreq	r0, [fp], #-0
     e70:	78110000 	ldmdavc	r1, {}	; <UNPREDICTABLE>
     e74:	83010031 	movwhi	r0, #4145	; 0x1031
     e78:	00005d11 	andeq	r5, r0, r1, lsl sp
     e7c:	04401200 	strbeq	r1, [r0], #-512	; 0xfffffe00
     e80:	86010000 	strhi	r0, [r1], -r0
     e84:	0000b311 	andeq	fp, r0, r1, lsl r3
     e88:	00043400 	andeq	r3, r4, r0, lsl #8
     e8c:	00043000 	andeq	r3, r4, r0
     e90:	00731300 	rsbseq	r1, r3, r0, lsl #6
     e94:	05720000 	ldrbeq	r0, [r2, #-0]!
     e98:	03050000 	movweq	r0, #20480	; 0x5000
     e9c:	000094e4 	andeq	r9, r0, r4, ror #9
     ea0:	0087f014 	addeq	pc, r7, r4, lsl r0	; <UNPREDICTABLE>
     ea4:	00030000 	andeq	r0, r3, r0
     ea8:	00731000 	rsbseq	r1, r3, r0
     eac:	5c0a9101 	stfpld	f1, [sl], {1}
     eb0:	66000005 	strvs	r0, [r0], -r5
     eb4:	54000004 	strpl	r0, [r0], #-4
     eb8:	15000004 	strne	r0, [r0, #-4]
     ebc:	006d756e 	rsbeq	r7, sp, lr, ror #10
     ec0:	770d9101 	strvc	r9, [sp, -r1, lsl #2]
     ec4:	03000005 	movweq	r0, #5
     ec8:	167dd891 			; <UNDEFINED> instruction: 0x167dd891
     ecc:	000004a6 	andeq	r0, r0, r6, lsr #9
     ed0:	77179101 	ldrvc	r9, [r7, -r1, lsl #2]
     ed4:	03000005 	movweq	r0, #5
     ed8:	127ed891 	rsbsne	sp, lr, #9502720	; 0x910000
     edc:	000003fb 	strdeq	r0, [r0], -fp
     ee0:	2c0d9201 	sfmcs	f1, 1, [sp], {1}
     ee4:	d7000000 	strle	r0, [r0, -r0]
     ee8:	d1000004 	tstle	r0, r4
     eec:	17000004 	strne	r0, [r0, -r4]
     ef0:	00000000 	andeq	r0, r0, r0
     ef4:	00000504 	andeq	r0, r0, r4, lsl #10
     ef8:	00787815 	rsbseq	r7, r8, r5, lsl r8
     efc:	701a9f01 	andsvc	r9, sl, r1, lsl #30
     f00:	06000000 	streq	r0, [r0], -r0
     f04:	5304935b 	movwpl	r9, #17243	; 0x435b
     f08:	c8180493 	ldmdagt	r8, {r0, r1, r4, r7, sl}
     f0c:	d7000088 	strle	r0, [r0, -r8, lsl #1]
     f10:	bd000008 	stclt	0, cr0, [r0, #-32]	; 0xffffffe0
     f14:	19000002 	stmdbne	r0, {r1}
     f18:	76025001 	strvc	r5, [r2], -r1
     f1c:	51011900 	tstpl	r1, r0, lsl #18
     f20:	94340305 	ldrtls	r0, [r4], #-773	; 0xfffffcfb
     f24:	01190000 	tsteq	r9, r0
     f28:	00330152 	eorseq	r0, r3, r2, asr r1
     f2c:	00890c18 	addeq	r0, r9, r8, lsl ip
     f30:	00058700 	andeq	r8, r5, r0, lsl #14
     f34:	0002eb00 	andeq	lr, r2, r0, lsl #22
     f38:	50011900 	andpl	r1, r1, r0, lsl #18
     f3c:	01194001 	tsteq	r9, r1
     f40:	d0910351 	addsle	r0, r1, r1, asr r3
     f44:	5201197d 	andpl	r1, r1, #2048000	; 0x1f4000
     f48:	19800802 	stmibne	r0, {r1, fp}
     f4c:	02007d02 	andeq	r7, r0, #128	; 0x80
     f50:	02190075 	andseq	r0, r9, #117, 0	; 0x75
     f54:	7a02047d 	bvc	82150 <__bss_end__+0x78848>
     f58:	2c180000 	ldccs	0, cr0, [r8], {-0}
     f5c:	87000089 	strhi	r0, [r0, -r9, lsl #1]
     f60:	1f000005 	svcne	0x00000005
     f64:	19000003 	stmdbne	r0, {r0, r1}
     f68:	40015001 	andmi	r5, r1, r1
     f6c:	03510119 	cmpeq	r1, #1073741830	; 0x40000006
     f70:	197ed091 	ldmdbne	lr!, {r0, r4, r7, ip, lr, pc}^
     f74:	08025201 	stmdaeq	r2, {r0, r9, ip, lr}
     f78:	53011980 	movwpl	r1, #6528	; 0x1980
     f7c:	19007b02 	stmdbne	r0, {r1, r8, r9, fp, ip, sp, lr}
     f80:	02007d02 	andeq	r7, r0, #128	; 0x80
     f84:	02190075 	andseq	r0, r9, #117, 0	; 0x75
     f88:	7a02047d 	bvc	82184 <__bss_end__+0x7887c>
     f8c:	38180000 	ldmdacc	r8, {}	; <UNPREDICTABLE>
     f90:	e3000089 	movw	r0, #137	; 0x89
     f94:	3b000008 	blcc	fbc <__code_start__-0x7044>
     f98:	19000003 	stmdbne	r0, {r0, r1}
     f9c:	91035001 	tstls	r3, r1
     fa0:	01197dd0 			; <UNDEFINED> instruction: 0x01197dd0
     fa4:	d2910351 	addsle	r0, r1, #1140850689	; 0x44000001
     fa8:	5818007e 	ldmdapl	r8, {r1, r2, r3, r4, r5, r6}
     fac:	ef000089 	svc	0x00000089
     fb0:	74000008 	strvc	r0, [r0], #-8
     fb4:	19000003 	stmdbne	r0, {r0, r1}
     fb8:	03055001 	movweq	r5, #20481	; 0x5001
     fbc:	00009210 	andeq	r9, r0, r0, lsl r2
     fc0:	05510119 	ldrbeq	r0, [r1, #-281]	; 0xfffffee7
     fc4:	0093e403 	addseq	lr, r3, r3, lsl #8
     fc8:	52011900 	andpl	r1, r1, #0, 18
     fcc:	94e40305 	strbtls	r0, [r4], #773	; 0x305
     fd0:	01190000 	tsteq	r9, r0
     fd4:	9d080253 	sfmls	f0, 4, [r8, #-332]	; 0xfffffeb4
     fd8:	007d0219 	rsbseq	r0, sp, r9, lsl r2
     fdc:	94380305 	ldrtls	r0, [r8], #-773	; 0xfffffcfb
     fe0:	1a000000 	bne	fe8 <__code_start__-0x7018>
     fe4:	0000895c 	andeq	r8, r0, ip, asr r9
     fe8:	000008fb 	strdeq	r0, [r0], -fp
     fec:	00897018 	addeq	r7, r9, r8, lsl r0
     ff0:	0008ef00 	andeq	lr, r8, r0, lsl #30
     ff4:	0003ac00 	andeq	sl, r3, r0, lsl #24
     ff8:	50011900 	andpl	r1, r1, r0, lsl #18
     ffc:	94540305 	ldrbls	r0, [r4], #-773	; 0xfffffcfb
    1000:	01190000 	tsteq	r9, r0
    1004:	e4030551 	str	r0, [r3], #-1361	; 0xfffffaaf
    1008:	19000093 	stmdbne	r0, {r0, r1, r4, r7}
    100c:	03055201 	movweq	r5, #20993	; 0x5201
    1010:	000094e4 	andeq	r9, r0, r4, ror #9
    1014:	02530119 	subseq	r0, r3, #1073741830	; 0x40000006
    1018:	1a00af08 	bne	2cc40 <__bss_end__+0x23338>
    101c:	00008974 	andeq	r8, r0, r4, ror r9
    1020:	000008fb 	strdeq	r0, [r0], -fp
    1024:	0089a018 	addeq	sl, r9, r8, lsl r0
    1028:	00058700 	andeq	r8, r5, r0, lsl #14
    102c:	0003e200 	andeq	lr, r3, r0, lsl #4
    1030:	50011900 	andpl	r1, r1, r0, lsl #18
    1034:	01193a01 	tsteq	r9, r1, lsl #20
    1038:	d0910351 	addsle	r0, r1, r1, asr r3
    103c:	5201197d 	andpl	r1, r1, #2048000	; 0x1f4000
    1040:	19800802 	stmibne	r0, {r1, fp}
    1044:	02007d02 	andeq	r7, r0, #128	; 0x80
    1048:	02190075 	andseq	r0, r9, #117, 0	; 0x75
    104c:	3101047d 	tstcc	r1, sp, ror r4
    1050:	89d81800 	ldmibhi	r8, {fp, ip}^
    1054:	05870000 	streq	r0, [r7]
    1058:	040f0000 	streq	r0, [pc], #-0	; 1060 <__code_start__-0x6fa0>
    105c:	01190000 	tsteq	r9, r0
    1060:	193a0150 	ldmdbne	sl!, {r4, r6, r8}
    1064:	91035101 	tstls	r3, r1, lsl #2
    1068:	01197dd0 			; <UNDEFINED> instruction: 0x01197dd0
    106c:	80080252 	andhi	r0, r8, r2, asr r2
    1070:	007d0219 	rsbseq	r0, sp, r9, lsl r2
    1074:	19007502 	stmdbne	r0, {r1, r8, sl, ip, sp, lr}
    1078:	01047d02 	tsteq	r4, r2, lsl #26
    107c:	0c180030 	ldceq	0, cr0, [r8], {48}	; 0x30
    1080:	8700008a 	strhi	r0, [r0, -sl, lsl #1]
    1084:	3c000005 	stccc	0, cr0, [r0], {5}
    1088:	19000004 	stmdbne	r0, {r2}
    108c:	40015001 	andmi	r5, r1, r1
    1090:	03510119 	cmpeq	r1, #1073741830	; 0x40000006
    1094:	197dd091 	ldmdbne	sp!, {r0, r4, r7, ip, lr, pc}^
    1098:	08025201 	stmdaeq	r2, {r0, r9, ip, lr}
    109c:	7d021980 	vstrvc.16	s2, [r2, #-256]	; 0xffffff00	; <UNPREDICTABLE>
    10a0:	00750200 	rsbseq	r0, r5, r0, lsl #4
    10a4:	047d0219 	ldrbteq	r0, [sp], #-537	; 0xfffffde7
    10a8:	18003001 	stmdane	r0, {r0, ip, sp}
    10ac:	00008a40 	andeq	r8, r0, r0, asr #20
    10b0:	00000587 	andeq	r0, r0, r7, lsl #11
    10b4:	00000469 	andeq	r0, r0, r9, ror #8
    10b8:	01500119 	cmpeq	r0, r9, lsl r1
    10bc:	51011932 	tstpl	r1, r2, lsr r9
    10c0:	7dd09103 	ldfvcp	f1, [r0, #12]
    10c4:	02520119 	subseq	r0, r2, #1073741830	; 0x40000006
    10c8:	02198008 	andseq	r8, r9, #8, 0
    10cc:	7502007d 	strvc	r0, [r2, #-125]	; 0xffffff83
    10d0:	7d021900 	vstrvc.16	s2, [r2, #-0]	; <UNPREDICTABLE>
    10d4:	00300104 	eorseq	r0, r0, r4, lsl #2
    10d8:	008a8818 	addeq	r8, sl, r8, lsl r8
    10dc:	00058700 	andeq	r8, r5, r0, lsl #14
    10e0:	00049600 	andeq	r9, r4, r0, lsl #12
    10e4:	50011900 	andpl	r1, r1, r0, lsl #18
    10e8:	01193801 	tsteq	r9, r1, lsl #16
    10ec:	d0910351 	addsle	r0, r1, r1, asr r3
    10f0:	5201197d 	andpl	r1, r1, #2048000	; 0x1f4000
    10f4:	19800802 	stmibne	r0, {r1, fp}
    10f8:	02007d02 	andeq	r7, r0, #128	; 0x80
    10fc:	02190075 	andseq	r0, r9, #117, 0	; 0x75
    1100:	3001047d 	andcc	r0, r1, sp, ror r4
    1104:	8aa81800 	bhi	fea0710c <__bss_end__+0xfe9fd804>
    1108:	08ef0000 	stmiaeq	pc!, {}^	; <UNPREDICTABLE>
    110c:	04b90000 	ldrteq	r0, [r9], #0
    1110:	01190000 	tsteq	r9, r0
    1114:	7c030550 	cfstr32vc	mvfx0, [r3], {80}	; 0x50
    1118:	19000094 	stmdbne	r0, {r2, r4, r7}
    111c:	7a025101 	bvc	95528 <__bss_end__+0x8bc20>
    1120:	52011900 	andpl	r1, r1, #0, 18
    1124:	00007a02 	andeq	r7, r0, r2, lsl #20
    1128:	008ab81b 	addeq	fp, sl, fp, lsl r8
    112c:	0004cb00 	andeq	ip, r4, r0, lsl #22
    1130:	50011900 	andpl	r1, r1, r0, lsl #18
    1134:	7dc89104 	stfvcp	f1, [r8, #16]
    1138:	cc180006 	ldcgt	0, cr0, [r8], {6}
    113c:	ef00008a 	svc	0x0000008a
    1140:	fa000008 	blx	1168 <__code_start__-0x6e98>
    1144:	19000004 	stmdbne	r0, {r2}
    1148:	03055001 	movweq	r5, #20481	; 0x5001
    114c:	000094ac 	andeq	r9, r0, ip, lsr #9
    1150:	05510119 	ldrbeq	r0, [r1, #-281]	; 0xfffffee7
    1154:	0093e403 	addseq	lr, r3, r3, lsl #8
    1158:	52011900 	andpl	r1, r1, #0, 18
    115c:	94e40305 	strbtls	r0, [r4], #773	; 0x305
    1160:	01190000 	tsteq	r9, r0
    1164:	d3080253 	movwle	r0, #33363	; 0x8253
    1168:	8ad01a00 	bhi	ff407970 <__bss_end__+0xff3fe068>
    116c:	08fb0000 	ldmeq	fp!, {}^	; <UNPREDICTABLE>
    1170:	18000000 	stmdane	r0, {}	; <UNPREDICTABLE>
    1174:	00008808 	andeq	r8, r0, r8, lsl #16
    1178:	00000805 	andeq	r0, r0, r5, lsl #16
    117c:	00000518 	andeq	r0, r0, r8, lsl r5
    1180:	02500119 	subseq	r0, r0, #1073741830	; 0x40000006
    1184:	18000077 	stmdane	r0, {r0, r1, r2, r4, r5, r6}
    1188:	000088b4 			; <UNDEFINED> instruction: 0x000088b4
    118c:	000008ef 	andeq	r0, r0, pc, ror #17
    1190:	00000551 	andeq	r0, r0, r1, asr r5
    1194:	05500119 	ldrbeq	r0, [r0, #-281]	; 0xfffffee7
    1198:	00921003 	addseq	r1, r2, r3
    119c:	51011900 	tstpl	r1, r0, lsl #18
    11a0:	93e40305 	mvnls	r0, #335544320	; 0x14000000
    11a4:	01190000 	tsteq	r9, r0
    11a8:	e4030552 	str	r0, [r3], #-1362	; 0xfffffaae
    11ac:	19000094 	stmdbne	r0, {r2, r4, r7}
    11b0:	08025301 	stmdaeq	r2, {r0, r8, r9, ip, lr}
    11b4:	7d021998 	vstrvc.16	s2, [r2, #-304]	; 0xfffffed0	; <UNPREDICTABLE>
    11b8:	28030500 	stmdacs	r3, {r8, sl}
    11bc:	00000094 	muleq	r0, r4, r0
    11c0:	0088b81a 	addeq	fp, r8, sl, lsl r8
    11c4:	0008fb00 	andeq	pc, r8, r0, lsl #22
    11c8:	08000000 	stmdaeq	r0, {}	; <UNPREDICTABLE>
    11cc:	0000b904 	andeq	fp, r0, r4, lsl #18
    11d0:	00c01c00 	sbceq	r1, r0, r0, lsl #24
    11d4:	05720000 	ldrbeq	r0, [r2, #-0]!
    11d8:	2c1d0000 	ldccs	0, cr0, [sp], {-0}
    11dc:	09000000 	stmdbeq	r0, {}	; <UNPREDICTABLE>
    11e0:	05620900 	strbeq	r0, [r2, #-2304]!	; 0xfffff700
    11e4:	b91c0000 	ldmdblt	ip, {}	; <UNPREDICTABLE>
    11e8:	87000000 	strhi	r0, [r0, -r0]
    11ec:	1d000005 	stcne	0, cr0, [r0, #-20]	; 0xffffffec
    11f0:	0000002c 	andeq	r0, r0, ip, lsr #32
    11f4:	751e007f 	ldrvc	r0, [lr, #-127]	; 0xffffff81
    11f8:	01000004 	tsteq	r0, r4
    11fc:	055c0149 	ldrbeq	r0, [ip, #-329]	; 0xfffffeb7
    1200:	85700000 	ldrbhi	r0, [r0, #-0]!
    1204:	01b40000 			; <UNDEFINED> instruction: 0x01b40000
    1208:	9c010000 	stcls	0, cr0, [r1], {-0}
    120c:	000006f0 	strdeq	r0, [r0], -r0	; <UNPREDICTABLE>
    1210:	0004b31f 	andeq	fp, r4, pc, lsl r3
    1214:	0f490100 	svceq	0x00490100
    1218:	0000002c 	andeq	r0, r0, ip, lsr #32
    121c:	00000507 	andeq	r0, r0, r7, lsl #10
    1220:	00000501 	andeq	r0, r0, r1, lsl #10
    1224:	7473640e 	ldrbtvc	r6, [r3], #-1038	; 0xfffffbf2
    1228:	1b490100 	blne	1241630 <__bss_end__+0x1237d28>
    122c:	0000055c 	andeq	r0, r0, ip, asr r5
    1230:	00000545 	andeq	r0, r0, r5, asr #10
    1234:	00000535 	andeq	r0, r0, r5, lsr r5
    1238:	01006e0e 	tsteq	r0, lr, lsl #28
    123c:	00252449 	eoreq	r2, r5, r9, asr #8
    1240:	05a90000 	streq	r0, [r9, #0]!
    1244:	05a50000 	streq	r0, [r5, #0]!
    1248:	760e0000 	strvc	r0, [lr], -r0
    124c:	01006c61 	tsteq	r0, r1, ror #24
    1250:	00252b49 	eoreq	r2, r5, r9, asr #22
    1254:	05d30000 	ldrbeq	r0, [r3]
    1258:	05c70000 	strbeq	r0, [r7]
    125c:	fb1f0000 	blx	7c1266 <__bss_end__+0x7b795e>
    1260:	01000003 	tsteq	r0, r3
    1264:	00253449 	eoreq	r3, r5, r9, asr #8
    1268:	06290000 	strteq	r0, [r9], -r0
    126c:	06230000 	strteq	r0, [r3], -r0
    1270:	b80f0000 	stmdalt	pc, {}	; <UNPREDICTABLE>
    1274:	01000004 	tsteq	r0, r4
    1278:	00253f49 	eoreq	r3, r5, r9, asr #30
    127c:	91020000 	mrsls	r0, (UNDEF: 2)
    1280:	75621504 	strbvc	r1, [r2, #-1284]!	; 0xfffffafc
    1284:	4e010066 	cdpmi	0, 0, cr0, cr1, cr6, {3}
    1288:	0006f007 	andeq	pc, r6, r7
    128c:	a8910300 	ldmge	r1, {r8, r9}
    1290:	0070107f 	rsbseq	r1, r0, pc, ror r0
    1294:	5c114e01 	ldcpl	14, cr4, [r1], {1}
    1298:	73000005 	movwvc	r0, #5
    129c:	53000006 	movwpl	r0, #6
    12a0:	10000006 	andne	r0, r0, r6
    12a4:	4f010075 	svcmi	0x00010075
    12a8:	00002c0b 	andeq	r2, r0, fp, lsl #24
    12ac:	00075900 	andeq	r5, r7, r0, lsl #18
    12b0:	00074500 	andeq	r4, r7, r0, lsl #10
    12b4:	00731300 	rsbseq	r1, r3, r0, lsl #6
    12b8:	07100000 	ldreq	r0, [r0, -r0]
    12bc:	03050000 	movweq	r0, #20480	; 0x5000
    12c0:	000094cc 	andeq	r9, r0, ip, asr #9
    12c4:	0085dc20 	addeq	sp, r5, r0, lsr #24
    12c8:	00007800 	andeq	r7, r0, r0, lsl #16
    12cc:	00067700 	andeq	r7, r6, r0, lsl #14
    12d0:	04621200 	strbteq	r1, [r2], #-512	; 0xfffffe00
    12d4:	54010000 	strpl	r0, [r1], #-0
    12d8:	00002c0d 	andeq	r2, r0, sp, lsl #24
    12dc:	0007da00 	andeq	sp, r7, r0, lsl #20
    12e0:	0007d200 	andeq	sp, r7, r0, lsl #4
    12e4:	94180000 	ldrls	r0, [r8], #-0
    12e8:	a2000086 	andge	r0, r0, #134, 0	; 0x86
    12ec:	8c000007 	stchi	0, cr0, [r0], {7}
    12f0:	19000006 	stmdbne	r0, {r1, r2}
    12f4:	91035101 	tstls	r3, r1, lsl #2
    12f8:	18007fa0 	stmdane	r0, {r5, r7, r8, r9, sl, fp, ip, sp, lr}
    12fc:	000086a8 	andeq	r8, r0, r8, lsr #13
    1300:	00000715 	andeq	r0, r0, r5, lsl r7
    1304:	000006ad 	andeq	r0, r0, sp, lsr #13
    1308:	02500119 	subseq	r0, r0, #1073741830	; 0x40000006
    130c:	01190075 	tsteq	r9, r5, ror r0
    1310:	00740251 	rsbseq	r0, r4, r1, asr r2
    1314:	03530119 	cmpeq	r3, #1073741830	; 0x40000006
    1318:	007fa091 			; <UNDEFINED> instruction: 0x007fa091
    131c:	00870018 	addeq	r0, r7, r8, lsl r0
    1320:	0008ef00 	andeq	lr, r8, r0, lsl #30
    1324:	0006e600 	andeq	lr, r6, r0, lsl #12
    1328:	50011900 	andpl	r1, r1, r0, lsl #18
    132c:	92100305 	andsls	r0, r0, #335544320	; 0x14000000
    1330:	01190000 	tsteq	r9, r0
    1334:	e4030551 	str	r0, [r3], #-1361	; 0xfffffaaf
    1338:	19000093 	stmdbne	r0, {r0, r1, r4, r7}
    133c:	03055201 	movweq	r5, #20993	; 0x5201
    1340:	000094cc 	andeq	r9, r0, ip, asr #9
    1344:	02530119 	subseq	r0, r3, #1073741830	; 0x40000006
    1348:	02197908 	andseq	r7, r9, #8, 18	; 0x20000
    134c:	0305007d 	movweq	r0, #20605	; 0x507d
    1350:	000093f8 	strdeq	r9, [r0], -r8
    1354:	87041a00 	strhi	r1, [r4, -r0, lsl #20]
    1358:	08fb0000 	ldmeq	fp!, {}^	; <UNPREDICTABLE>
    135c:	1c000000 	stcne	0, cr0, [r0], {-0}
    1360:	000000b9 	strheq	r0, [r0], -r9
    1364:	00000700 	andeq	r0, r0, r0, lsl #14
    1368:	00002c1d 	andeq	r2, r0, sp, lsl ip
    136c:	1c003f00 	stcne	15, cr3, [r0], {-0}
    1370:	000000c0 	andeq	r0, r0, r0, asr #1
    1374:	00000710 	andeq	r0, r0, r0, lsl r7
    1378:	00002c1d 	andeq	r2, r0, sp, lsl ip
    137c:	09000400 	stmdbeq	r0, {sl}
    1380:	00000700 	andeq	r0, r0, r0, lsl #14
    1384:	0004821e 	andeq	r8, r4, lr, lsl r2
    1388:	0e380100 	rsfeqe	f0, f0, f0
    138c:	0000055c 	andeq	r0, r0, ip, asr r5
    1390:	00008538 	andeq	r8, r0, r8, lsr r5
    1394:	00000038 	andeq	r0, r0, r8, lsr r0
    1398:	07a29c01 	streq	r9, [r2, r1, lsl #24]!
    139c:	640e0000 	strvs	r0, [lr], #-0
    13a0:	01007473 	tsteq	r0, r3, ror r4
    13a4:	055c1c38 	ldrbeq	r1, [ip, #-3128]	; 0xfffff3c8
    13a8:	081b0000 	ldmdaeq	fp, {}	; <UNPREDICTABLE>
    13ac:	08110000 	ldmdaeq	r1, {}	; <UNPREDICTABLE>
    13b0:	6e0e0000 	cdpvs	0, 0, cr0, cr14, cr0, {0}
    13b4:	25380100 	ldrcs	r0, [r8, #-256]!	; 0xffffff00
    13b8:	00000025 	andeq	r0, r0, r5, lsr #32
    13bc:	00000862 	andeq	r0, r0, r2, ror #16
    13c0:	0000085e 	andeq	r0, r0, lr, asr r8
    13c4:	0100700e 	tsteq	r0, lr
    13c8:	055c2e38 	ldrbeq	r2, [ip, #-3640]	; 0xfffff1c8
    13cc:	088b0000 	stmeq	fp, {}	; <UNPREDICTABLE>
    13d0:	08830000 	stmeq	r3, {}	; <UNPREDICTABLE>
    13d4:	441f0000 	ldrmi	r0, [pc], #-0	; 13dc <__code_start__-0x6c24>
    13d8:	01000004 	tsteq	r0, r4
    13dc:	055c3738 	ldrbeq	r3, [ip, #-1848]	; 0xfffff8c8
    13e0:	08c50000 	stmiaeq	r5, {}^	; <UNPREDICTABLE>
    13e4:	08c10000 	stmiaeq	r1, {}^	; <UNPREDICTABLE>
    13e8:	6c100000 	ldcvs	0, cr0, [r0], {-0}
    13ec:	01006e65 	tsteq	r0, r5, ror #28
    13f0:	0025063a 	eoreq	r0, r5, sl, lsr r6
    13f4:	08eb0000 	stmiaeq	fp!, {}^	; <UNPREDICTABLE>
    13f8:	08e30000 	stmiaeq	r3!, {}^	; <UNPREDICTABLE>
    13fc:	73100000 	tstvc	r0, #0, 0
    1400:	083e0100 	ldmdaeq	lr!, {r8}
    1404:	0000055c 	andeq	r0, r0, ip, asr r5
    1408:	00000939 	andeq	r0, r0, r9, lsr r9
    140c:	00000937 	andeq	r0, r0, r7, lsr r9
    1410:	61702100 	cmnvs	r0, r0, lsl #2
    1414:	2e010064 	cdpcs	0, 0, cr0, cr1, cr4, {3}
    1418:	00055c0e 	andeq	r5, r5, lr, lsl #24
    141c:	00851400 	addeq	r1, r5, r0, lsl #8
    1420:	00002400 	andeq	r2, r0, r0, lsl #8
    1424:	059c0100 	ldreq	r0, [ip, #256]	; 0x100
    1428:	0e000008 	cdpeq	0, 0, cr0, cr0, cr8, {0}
    142c:	2e010070 	mcrcs	0, 0, r0, cr1, cr0, {3}
    1430:	00055c18 	andeq	r5, r5, r8, lsl ip
    1434:	00095200 	andeq	r5, r9, r0, lsl #4
    1438:	00094c00 	andeq	r4, r9, r0, lsl #24
    143c:	04b31f00 	ldrteq	r1, [r3], #3840	; 0xf00
    1440:	2e010000 	cdpcs	0, 0, cr0, cr1, cr0, {0}
    1444:	00055c22 	andeq	r5, r5, r2, lsr #24
    1448:	00098100 	andeq	r8, r9, r0, lsl #2
    144c:	00097d00 	andeq	r7, r9, r0, lsl #26
    1450:	03fb0f00 	mvnseq	r0, #0, 30
    1454:	2e010000 	cdpcs	0, 0, cr0, cr1, cr0, {0}
    1458:	0000252c 	andeq	r2, r0, ip, lsr #10
    145c:	10520100 	subsne	r0, r2, r0, lsl #2
    1460:	006e656c 	rsbeq	r6, lr, ip, ror #10
    1464:	25062f01 	strcs	r2, [r6, #-3841]	; 0xfffff0ff
    1468:	a4000000 	strge	r0, [r0], #-0
    146c:	a2000009 	andge	r0, r0, #9, 0
    1470:	00000009 	andeq	r0, r0, r9
    1474:	0003cd1e 	andeq	ip, r3, lr, lsl sp
    1478:	0c270100 	stfeqs	f0, [r7], #-0
    147c:	00000025 	andeq	r0, r0, r5, lsr #32
    1480:	00008500 	andeq	r8, r0, r0, lsl #10
    1484:	00000014 	andeq	r0, r0, r4, lsl r0
    1488:	08329c01 	ldmdaeq	r2!, {r0, sl, fp, ip, pc}
    148c:	630e0000 	movwvs	r0, #57344	; 0xe000
    1490:	18270100 	stmdane	r7!, {r8}
    1494:	00000025 	andeq	r0, r0, r5, lsr #32
    1498:	000009bd 			; <UNDEFINED> instruction: 0x000009bd
    149c:	000009b7 			; <UNDEFINED> instruction: 0x000009b7
    14a0:	04312200 	ldrteq	r2, [r1], #-512	; 0xfffffe00
    14a4:	1f010000 	svcne	0x00010000
    14a8:	00872406 	addeq	r2, r7, r6, lsl #8
    14ac:	00006400 	andeq	r6, r0, r0, lsl #8
    14b0:	c29c0100 	addsgt	r0, ip, #0
    14b4:	1f000008 	svcne	0x00000008
    14b8:	0000040e 	andeq	r0, r0, lr, lsl #8
    14bc:	9e1b1f01 	cdpls	15, 1, cr1, cr11, cr1, {0}
    14c0:	ef000000 	svc	0x00000000
    14c4:	eb000009 	bl	14f0 <__code_start__-0x6b10>
    14c8:	1f000009 	svcne	0x00000009
    14cc:	0000047a 	andeq	r0, r0, sl, ror r4
    14d0:	d1301f01 	teqle	r0, r1, lsl #30
    14d4:	14000000 	strne	r0, [r0], #-0
    14d8:	1000000a 	andne	r0, r0, sl
    14dc:	1300000a 	movwne	r0, #10
    14e0:	00000073 	andeq	r0, r0, r3, ror r0
    14e4:	000008d2 	ldrdeq	r0, [r0], -r2
    14e8:	94d40305 	ldrbls	r0, [r4], #773	; 0x305
    14ec:	6c180000 	ldcvs	0, cr0, [r8], {-0}
    14f0:	ef000087 	svc	0x00000087
    14f4:	b8000008 	stmdalt	r0, {r3}
    14f8:	19000008 	stmdbne	r0, {r3}
    14fc:	03055001 	movweq	r5, #20481	; 0x5001
    1500:	00009210 	andeq	r9, r0, r0, lsl r2
    1504:	05510119 	ldrbeq	r0, [r1, #-281]	; 0xfffffee7
    1508:	0093e403 	addseq	lr, r3, r3, lsl #8
    150c:	52011900 	andpl	r1, r1, #0, 18
    1510:	94d40305 	ldrbls	r0, [r4], #773	; 0x305
    1514:	01190000 	tsteq	r9, r0
    1518:	20080253 	andcs	r0, r8, r3, asr r2
    151c:	007d0219 	rsbseq	r0, sp, r9, lsl r2
    1520:	94200305 	strtls	r0, [r0], #-773	; 0xfffffcfb
    1524:	1a000000 	bne	152c <__code_start__-0x6ad4>
    1528:	00008770 	andeq	r8, r0, r0, ror r7
    152c:	000008fb 	strdeq	r0, [r0], -fp
    1530:	00c01c00 	sbceq	r1, r0, r0, lsl #24
    1534:	08d20000 	ldmeq	r2, {}^	; <UNPREDICTABLE>
    1538:	2c1d0000 	ldccs	0, cr0, [sp], {-0}
    153c:	0e000000 	cdpeq	0, 0, cr0, cr0, cr0, {0}
    1540:	08c20900 	stmiaeq	r2, {r8, fp}^
    1544:	ab230000 	blge	8c154c <__bss_end__+0x8b7c44>
    1548:	ab000004 	blge	1560 <__code_start__-0x6aa0>
    154c:	03000004 	movweq	r0, #4
    1550:	5b2305d6 	blpl	8c2cb0 <__bss_end__+0x8b93a8>
    1554:	5b000004 	blpl	156c <__code_start__-0x6a94>
    1558:	03000004 	movweq	r0, #4
    155c:	4e2307d9 	mcrmi	7, 1, r0, cr3, cr9, {6}
    1560:	4e000003 	cdpmi	0, 0, cr0, cr0, cr3, {0}
    1564:	03000003 	movweq	r0, #3
    1568:	46230628 	strtmi	r0, [r3], -r8, lsr #12
    156c:	46000000 	strmi	r0, [r0], -r0
    1570:	03000000 	movweq	r0, #0
    1574:	2f000667 	svccs	0x00000667
    1578:	04000001 	streq	r0, [r0], #-1
    157c:	00067800 	andeq	r7, r6, r0, lsl #16
    1580:	1c010400 	cfstrsne	mvf0, [r1], {-0}
    1584:	0c000001 	stceq	0, cr0, [r0], {1}
    1588:	000004d5 	ldrdeq	r0, [r0], -r5
    158c:	00000381 	andeq	r0, r0, r1, lsl #7
    1590:	00008b2c 	andeq	r8, r0, ip, lsr #22
    1594:	0000002c 	andeq	r0, r0, ip, lsr #32
    1598:	00000a97 	muleq	r0, r7, sl
    159c:	69050402 	stmdbvs	r5, {r1, sl}
    15a0:	0300746e 	movweq	r7, #1134	; 0x46e
    15a4:	008a0704 	addeq	r0, sl, r4, lsl #14
    15a8:	01030000 	mrseq	r0, (UNDEF: 3)
    15ac:	00003a06 	andeq	r3, r0, r6, lsl #20
    15b0:	05020300 	streq	r0, [r2, #-768]	; 0xfffffd00
    15b4:	00000109 	andeq	r0, r0, r9, lsl #2
    15b8:	f4050403 	vst3.8	{d0-d2}, [r5], r3
    15bc:	03000000 	movweq	r0, #0
    15c0:	00ef0508 	rsceq	r0, pc, r8, lsl #10
    15c4:	01030000 	mrseq	r0, (UNDEF: 3)
    15c8:	00003808 	andeq	r3, r0, r8, lsl #16
    15cc:	07020300 	streq	r0, [r2, -r0, lsl #6]
    15d0:	00000053 	andeq	r0, r0, r3, asr r0
    15d4:	85070403 	strhi	r0, [r7, #-1027]	; 0xfffffbfd
    15d8:	03000000 	movweq	r0, #0
    15dc:	00800708 	addeq	r0, r0, r8, lsl #14
    15e0:	25040000 	strcs	r0, [r4, #-0]
    15e4:	7a000000 	bvc	15ec <__code_start__-0x6a14>
    15e8:	05000000 	streq	r0, [r0, #-0]
    15ec:	00000025 	andeq	r0, r0, r5, lsr #32
    15f0:	00fd0600 	rscseq	r0, sp, r0, lsl #12
    15f4:	1c020000 	stcne	0, cr0, [r2], {-0}
    15f8:	0000860e 	andeq	r8, r0, lr, lsl #12
    15fc:	6b040700 	blvs	103204 <__bss_end__+0xf98fc>
    1600:	04000000 	streq	r0, [r0], #-0
    1604:	00000025 	andeq	r0, r0, r5, lsr #32
    1608:	0000009b 	muleq	r0, fp, r0
    160c:	00009b05 	andeq	r9, r0, r5, lsl #22
    1610:	04070000 	streq	r0, [r7], #-0
    1614:	000000a8 	andeq	r0, r0, r8, lsr #1
    1618:	41080103 	tstmi	r8, r3, lsl #2
    161c:	08000000 	stmdaeq	r0, {}	; <UNPREDICTABLE>
    1620:	000000a1 	andeq	r0, r0, r1, lsr #1
    1624:	0003bc06 	andeq	fp, r3, r6, lsl #24
    1628:	0e210200 	cdpeq	2, 2, cr0, cr1, cr0, {0}
    162c:	000000b9 	strheq	r0, [r0], -r9
    1630:	008c0407 	addeq	r0, ip, r7, lsl #8
    1634:	46090000 	strmi	r0, [r9], -r0
    1638:	01000000 	mrseq	r0, (UNDEF: 0)
    163c:	8b2c0604 	blhi	b02e54 <__bss_end__+0xaf954c>
    1640:	002c0000 	eoreq	r0, ip, r0
    1644:	9c010000 	stcls	0, cr0, [r1], {-0}
    1648:	0000010e 	andeq	r0, r0, lr, lsl #2
    164c:	008b400a 	addeq	r4, fp, sl
    1650:	0000e800 	andeq	lr, r0, r0, lsl #16
    1654:	50010b00 	andpl	r0, r1, r0, lsl #22
    1658:	94f00305 	ldrbtls	r0, [r0], #773	; 0x305
    165c:	0c000000 	stceq	0, cr0, [r0], {-0}
    1660:	00008b44 	andeq	r8, r0, r4, asr #22
    1664:	0000010e 	andeq	r0, r0, lr, lsl #2
    1668:	008b4c0d 	addeq	r4, fp, sp, lsl #24
    166c:	00011a00 	andeq	r1, r1, r0, lsl #20
    1670:	00010400 	andeq	r0, r1, r0, lsl #8
    1674:	50010b00 	andpl	r0, r1, r0, lsl #22
    1678:	0c003a01 			; <UNDEFINED> instruction: 0x0c003a01
    167c:	00008b50 	andeq	r8, r0, r0, asr fp
    1680:	00000126 	andeq	r0, r0, r6, lsr #2
    1684:	04ee0e00 	strbteq	r0, [lr], #3584	; 0xe00
    1688:	04ee0000 	strbteq	r0, [lr], #0
    168c:	46020000 	strmi	r0, [r2], -r0
    1690:	04cc0e06 	strbeq	r0, [ip], #3590	; 0xe06
    1694:	04cc0000 	strbeq	r0, [ip], #0
    1698:	51020000 	mrspl	r0, (UNDEF: 2)
    169c:	04c10e06 	strbeq	r0, [r1], #3590	; 0xe06
    16a0:	04c10000 	strbeq	r0, [r1], #0
    16a4:	64020000 	strvs	r0, [r2], #-0
    16a8:	01590006 	cmpeq	r9, r6
    16ac:	00040000 	andeq	r0, r4, r0
    16b0:	00000738 	andeq	r0, r0, r8, lsr r7
    16b4:	011c0104 	tsteq	ip, r4, lsl #2
    16b8:	1a0c0000 	bne	3016c0 <__bss_end__+0x2f7db8>
    16bc:	81000005 	tsthi	r0, r5
    16c0:	58000003 	stmdapl	r0, {r0, r1}
    16c4:	3000008b 	andcc	r0, r0, fp, lsl #1
    16c8:	28000000 	stmdacs	r0, {}	; <UNPREDICTABLE>
    16cc:	0200000b 	andeq	r0, r0, #11, 0
    16d0:	6e690504 	cdpvs	5, 6, cr0, cr9, cr4, {0}
    16d4:	04030074 	streq	r0, [r3], #-116	; 0xffffff8c
    16d8:	00008a07 	andeq	r8, r0, r7, lsl #20
    16dc:	06010300 	streq	r0, [r1], -r0, lsl #6
    16e0:	0000003a 	andeq	r0, r0, sl, lsr r0
    16e4:	09050203 	stmdbeq	r5, {r0, r1, r9}
    16e8:	03000001 	movweq	r0, #1
    16ec:	00f40504 	rscseq	r0, r4, r4, lsl #10
    16f0:	08030000 	stmdaeq	r3, {}	; <UNPREDICTABLE>
    16f4:	0000ef05 	andeq	lr, r0, r5, lsl #30
    16f8:	08010300 	stmdaeq	r1, {r8, r9}
    16fc:	00000038 	andeq	r0, r0, r8, lsr r0
    1700:	53070203 	movwpl	r0, #29187	; 0x7203
    1704:	03000000 	movweq	r0, #0
    1708:	00850704 	addeq	r0, r5, r4, lsl #14
    170c:	08030000 	stmdaeq	r3, {}	; <UNPREDICTABLE>
    1710:	00008007 	andeq	r8, r0, r7
    1714:	00250400 	eoreq	r0, r5, r0, lsl #8
    1718:	007a0000 	rsbseq	r0, sl, r0
    171c:	25050000 	strcs	r0, [r5, #-0]
    1720:	00000000 	andeq	r0, r0, r0
    1724:	0000fd06 	andeq	pc, r0, r6, lsl #26
    1728:	0e1c0200 	cdpeq	2, 1, cr0, cr12, cr0, {0}
    172c:	00000086 	andeq	r0, r0, r6, lsl #1
    1730:	006b0407 	rsbeq	r0, fp, r7, lsl #8
    1734:	25040000 	strcs	r0, [r4, #-0]
    1738:	9b000000 	blls	1740 <__code_start__-0x68c0>
    173c:	05000000 	streq	r0, [r0, #-0]
    1740:	0000009b 	muleq	r0, fp, r0
    1744:	a8040700 	stmdage	r4, {r8, r9, sl}
    1748:	03000000 	movweq	r0, #0
    174c:	00410801 	subeq	r0, r1, r1, lsl #16
    1750:	a1080000 	mrsge	r0, (UNDEF: 8)
    1754:	06000000 	streq	r0, [r0], -r0
    1758:	000003bc 			; <UNDEFINED> instruction: 0x000003bc
    175c:	b90e2102 	stmdblt	lr, {r1, r8, sp}
    1760:	07000000 	streq	r0, [r0, -r0]
    1764:	00008c04 	andeq	r8, r0, r4, lsl #24
    1768:	04fc0900 	ldrbteq	r0, [ip], #2304	; 0x900
    176c:	03010000 	movweq	r0, #4096	; 0x1000
    1770:	008b5806 	addeq	r5, fp, r6, lsl #16
    1774:	00003000 	andeq	r3, r0, r0
    1778:	319c0100 	orrscc	r0, ip, r0, lsl #2
    177c:	06000001 	streq	r0, [r0], -r1
    1780:	000003ed 	andeq	r0, r0, sp, ror #7
    1784:	25100401 	ldrcs	r0, [r0, #-1025]	; 0xfffffbff
    1788:	06000000 	streq	r0, [r0], -r0
    178c:	00000416 	andeq	r0, r0, r6, lsl r4
    1790:	251f0401 	ldrcs	r0, [pc, #-1025]	; 1397 <__code_start__-0x6c69>
    1794:	0a000000 	beq	179c <__code_start__-0x6864>
    1798:	00000026 	andeq	r0, r0, r6, lsr #32
    179c:	0b070501 	bleq	1c2ba8 <__bss_end__+0x1b92a0>
    17a0:	00737362 	rsbseq	r7, r3, r2, ror #6
    17a4:	310a0901 	tstcc	sl, r1, lsl #18
    17a8:	3b000001 	blcc	17b4 <__code_start__-0x684c>
    17ac:	3500000a 	strcc	r0, [r0, #-10]
    17b0:	0c00000a 	stceq	0, cr0, [r0], {10}
    17b4:	00000504 	andeq	r0, r0, r4, lsl #10
    17b8:	310a0a01 	tstcc	sl, r1, lsl #20
    17bc:	0d000001 	stceq	0, cr0, [r0, #-4]
    17c0:	00008b60 	andeq	r8, r0, r0, ror #22
    17c4:	00000137 	andeq	r0, r0, r7, lsr r1
    17c8:	008b7c0d 	addeq	r7, fp, sp, lsl #24
    17cc:	00014400 	andeq	r4, r1, r0, lsl #8
    17d0:	8b800d00 	blhi	fe004bd8 <__bss_end__+0xfdffb2d0>
    17d4:	01500000 	cmpeq	r0, r0
    17d8:	07000000 	streq	r0, [r0, -r0]
    17dc:	00002504 	andeq	r2, r0, r4, lsl #10
    17e0:	050c0e00 	streq	r0, [ip, #-3584]	; 0xfffff200
    17e4:	050c0000 	streq	r0, [ip, #-0]
    17e8:	17020000 	strne	r0, [r2, -r0]
    17ec:	260f0601 	strcs	r0, [pc], -r1, lsl #12
    17f0:	26000000 	strcs	r0, [r0], -r0
    17f4:	02000000 	andeq	r0, r0, #0, 0
    17f8:	460f06eb 	strmi	r0, [pc], -fp, ror #13
    17fc:	46000000 	strmi	r0, [r0], -r0
    1800:	02000000 	andeq	r0, r0, #0, 0
    1804:	ce000667 	cfmadd32gt	mvax3, mvfx0, mvfx0, mvfx7
    1808:	04000000 	streq	r0, [r0], #-0
    180c:	00081800 	andeq	r1, r8, r0, lsl #16
    1810:	1c010400 	cfstrsne	mvf0, [r1], {-0}
    1814:	0c000001 	stceq	0, cr0, [r0], {1}
    1818:	0000052d 	andeq	r0, r0, sp, lsr #10
    181c:	00000381 	andeq	r0, r0, r1, lsl #7
    1820:	00008b88 	andeq	r8, r0, r8, lsl #23
    1824:	00000004 	andeq	r0, r0, r4
    1828:	00000bce 	andeq	r0, r0, lr, asr #23
    182c:	69050402 	stmdbvs	r5, {r1, sl}
    1830:	0300746e 	movweq	r7, #1134	; 0x46e
    1834:	008a0704 	addeq	r0, sl, r4, lsl #14
    1838:	01030000 	mrseq	r0, (UNDEF: 3)
    183c:	00003a06 	andeq	r3, r0, r6, lsl #20
    1840:	05020300 	streq	r0, [r2, #-768]	; 0xfffffd00
    1844:	00000109 	andeq	r0, r0, r9, lsl #2
    1848:	f4050403 	vst3.8	{d0-d2}, [r5], r3
    184c:	03000000 	movweq	r0, #0
    1850:	00ef0508 	rsceq	r0, pc, r8, lsl #10
    1854:	01030000 	mrseq	r0, (UNDEF: 3)
    1858:	00003808 	andeq	r3, r0, r8, lsl #16
    185c:	07020300 	streq	r0, [r2, -r0, lsl #6]
    1860:	00000053 	andeq	r0, r0, r3, asr r0
    1864:	85070403 	strhi	r0, [r7, #-1027]	; 0xfffffbfd
    1868:	03000000 	movweq	r0, #0
    186c:	00800708 	addeq	r0, r0, r8, lsl #14
    1870:	25040000 	strcs	r0, [r4, #-0]
    1874:	7a000000 	bvc	187c <__code_start__-0x6784>
    1878:	05000000 	streq	r0, [r0, #-0]
    187c:	00000025 	andeq	r0, r0, r5, lsr #32
    1880:	00fd0600 	rscseq	r0, sp, r0, lsl #12
    1884:	1c020000 	stcne	0, cr0, [r2], {-0}
    1888:	0000860e 	andeq	r8, r0, lr, lsl #12
    188c:	6b040700 	blvs	103494 <__bss_end__+0xf9b8c>
    1890:	04000000 	streq	r0, [r0], #-0
    1894:	00000025 	andeq	r0, r0, r5, lsr #32
    1898:	0000009b 	muleq	r0, fp, r0
    189c:	00009b05 	andeq	r9, r0, r5, lsl #22
    18a0:	04070000 	streq	r0, [r7], #-0
    18a4:	000000a8 	andeq	r0, r0, r8, lsr #1
    18a8:	41080103 	tstmi	r8, r3, lsl #2
    18ac:	08000000 	stmdaeq	r0, {}	; <UNPREDICTABLE>
    18b0:	000000a1 	andeq	r0, r0, r1, lsr #1
    18b4:	0003bc06 	andeq	fp, r3, r6, lsl #24
    18b8:	0e210200 	cdpeq	2, 2, cr0, cr1, cr0, {0}
    18bc:	000000b9 	strheq	r0, [r0], -r9
    18c0:	008c0407 	addeq	r0, ip, r7, lsl #8
    18c4:	0c090000 	stceq	0, cr0, [r9], {-0}
    18c8:	01000005 	tsteq	r0, r5
    18cc:	8b880604 	blhi	fe2030e4 <__bss_end__+0xfe1f97dc>
    18d0:	00040000 	andeq	r0, r4, r0
    18d4:	9c010000 	stcls	0, cr0, [r1], {-0}
    18d8:	00022000 	andeq	r2, r2, r0
    18dc:	91000400 	tstls	r0, r0, lsl #8
    18e0:	04000008 	streq	r0, [r0], #-8
    18e4:	00011c01 	andeq	r1, r1, r1, lsl #24
    18e8:	05780c00 	ldrbeq	r0, [r8, #-3072]!	; 0xfffff400
    18ec:	03810000 	orreq	r0, r1, #0, 0
    18f0:	00180000 	andseq	r0, r8, r0
    18f4:	00000000 	andeq	r0, r0, r0
    18f8:	0c5d0000 	mraeq	r0, sp, acc0
    18fc:	04020000 	streq	r0, [r2], #-0
    1900:	746e6905 	strbtvc	r6, [lr], #-2309	; 0xfffff6fb
    1904:	00250300 	eoreq	r0, r5, r0, lsl #6
    1908:	04040000 	streq	r0, [r4], #-0
    190c:	00008a07 	andeq	r8, r0, r7, lsl #20
    1910:	06010400 	streq	r0, [r1], -r0, lsl #8
    1914:	0000003a 	andeq	r0, r0, sl, lsr r0
    1918:	09050204 	stmdbeq	r5, {r2, r9}
    191c:	04000001 	streq	r0, [r0], #-1
    1920:	00f40504 	rscseq	r0, r4, r4, lsl #10
    1924:	08040000 	stmdaeq	r4, {}	; <UNPREDICTABLE>
    1928:	0000ef05 	andeq	lr, r0, r5, lsl #30
    192c:	08010400 	stmdaeq	r1, {sl}
    1930:	00000038 	andeq	r0, r0, r8, lsr r0
    1934:	53070204 	movwpl	r0, #29188	; 0x7204
    1938:	04000000 	streq	r0, [r0], #-0
    193c:	00850704 	addeq	r0, r5, r4, lsl #14
    1940:	08040000 	stmdaeq	r4, {}	; <UNPREDICTABLE>
    1944:	00008007 	andeq	r8, r0, r7
    1948:	00250500 	eoreq	r0, r5, r0, lsl #10
    194c:	007f0000 	rsbseq	r0, pc, r0
    1950:	25060000 	strcs	r0, [r6, #-0]
    1954:	00000000 	andeq	r0, r0, r0
    1958:	0000fd07 	andeq	pc, r0, r7, lsl #26
    195c:	0e1c0200 	cdpeq	2, 1, cr0, cr12, cr0, {0}
    1960:	0000008b 	andeq	r0, r0, fp, lsl #1
    1964:	00700408 	rsbseq	r0, r0, r8, lsl #8
    1968:	25050000 	strcs	r0, [r5, #-0]
    196c:	a0000000 	andge	r0, r0, r0
    1970:	06000000 	streq	r0, [r0], -r0
    1974:	000000a0 	andeq	r0, r0, r0, lsr #1
    1978:	ad040800 	stcge	8, cr0, [r4, #-0]
    197c:	04000000 	streq	r0, [r0], #-0
    1980:	00410801 	subeq	r0, r1, r1, lsl #16
    1984:	a6030000 	strge	r0, [r3], -r0
    1988:	07000000 	streq	r0, [r0, -r0]
    198c:	000003bc 			; <UNDEFINED> instruction: 0x000003bc
    1990:	be0e2102 	adflte	f2, f6, f2
    1994:	08000000 	stmdaeq	r0, {}	; <UNPREDICTABLE>
    1998:	00009104 	andeq	r9, r0, r4, lsl #2
    199c:	056d0900 	strbeq	r0, [sp, #-2304]!	; 0xfffff700
    19a0:	0d010000 	stceq	0, cr0, [r1, #-0]
    19a4:	00003111 	andeq	r3, r0, r1, lsl r1
    19a8:	04c10a00 	strbeq	r0, [r1], #2560	; 0xa00
    19ac:	1f010000 	svcne	0x00010000
    19b0:	008bb806 	addeq	fp, fp, r6, lsl #16
    19b4:	00005000 	andeq	r5, r0, r0
    19b8:	a59c0100 	ldrge	r0, [ip, #256]	; 0x100
    19bc:	0b000001 	bleq	19c8 <__code_start__-0x6638>
    19c0:	0000058b 	andeq	r0, r0, fp, lsl #11
    19c4:	2c0f2f01 	stccs	15, cr2, [pc], {1}
    19c8:	68000000 	stmdavs	r0, {}	; <UNPREDICTABLE>
    19cc:	6600000a 	strvs	r0, [r0], -sl
    19d0:	0b00000a 	bleq	1a00 <__code_start__-0x6600>
    19d4:	00000547 	andeq	r0, r0, r7, asr #10
    19d8:	2c0f3001 	stccs	0, cr3, [pc], {1}
    19dc:	82000000 	andhi	r0, r0, #0, 0
    19e0:	8000000a 	andhi	r0, r0, sl
    19e4:	0b00000a 	bleq	1a14 <__code_start__-0x65ec>
    19e8:	0000055e 	andeq	r0, r0, lr, asr r5
    19ec:	2c0f3101 	stfcss	f3, [pc], {1}
    19f0:	9c000000 	stcls	0, cr0, [r0], {-0}
    19f4:	9a00000a 	bls	1a24 <__code_start__-0x65dc>
    19f8:	0b00000a 	bleq	1a28 <__code_start__-0x65d8>
    19fc:	00000598 	muleq	r0, r8, r5
    1a00:	2c0f3201 	sfmcs	f3, 4, [pc], {1}
    1a04:	b5000000 	strlt	r0, [r0, #-0]
    1a08:	b300000a 	movwlt	r0, #10
    1a0c:	0c00000a 	stceq	0, cr0, [r0], {10}
    1a10:	00008bc0 	andeq	r8, r0, r0, asr #23
    1a14:	000001d0 	ldrdeq	r0, [r0], -r0	; <UNPREDICTABLE>
    1a18:	008bcc0c 	addeq	ip, fp, ip, lsl #24
    1a1c:	0001ff00 	andeq	pc, r1, r0, lsl #30
    1a20:	8bd40d00 	blhi	ff504e28 <__bss_end__+0xff4fb520>
    1a24:	020b0000 	andeq	r0, fp, #0, 0
    1a28:	015b0000 	cmpeq	fp, r0
    1a2c:	010e0000 	mrseq	r0, (UNDEF: 14)
    1a30:	003a0150 	eorseq	r0, sl, r0, asr r1
    1a34:	008be00d 	addeq	lr, fp, sp
    1a38:	00021700 	andeq	r1, r2, r0, lsl #14
    1a3c:	00017b00 	andeq	r7, r1, r0, lsl #22
    1a40:	50010e00 	andpl	r0, r1, r0, lsl #28
    1a44:	00240c05 	eoreq	r0, r4, r5, lsl #24
    1a48:	010e2010 	tsteq	lr, r0, lsl r0
    1a4c:	010c0551 	tsteq	ip, r1, asr r5
    1a50:	005a0000 	subseq	r0, sl, r0
    1a54:	008bec0d 	addeq	lr, fp, sp, lsl #24
    1a58:	00021700 	andeq	r1, r2, r0, lsl #14
    1a5c:	00019b00 	andeq	r9, r1, r0, lsl #22
    1a60:	50010e00 	andpl	r0, r1, r0, lsl #28
    1a64:	001c0c05 	andseq	r0, ip, r5, lsl #24
    1a68:	010e2010 	tsteq	lr, r0, lsl r0
    1a6c:	200c0551 	andcs	r0, ip, r1, asr r5
    1a70:	005a0000 	subseq	r0, sl, r0
    1a74:	008bf40c 	addeq	pc, fp, ip, lsl #8
    1a78:	0001a500 	andeq	sl, r1, r0, lsl #10
    1a7c:	4f0f0000 	svcmi	0x000f0000
    1a80:	01000005 	tsteq	r0, r5
    1a84:	8ba40617 	blhi	fe9032e8 <__bss_end__+0xfe8f99e0>
    1a88:	00140000 	andseq	r0, r4, r0
    1a8c:	9c010000 	stcls	0, cr0, [r1], {-0}
    1a90:	000001d0 	ldrdeq	r0, [r0], -r0	; <UNPREDICTABLE>
    1a94:	0005930b 	andeq	r9, r5, fp, lsl #6
    1a98:	0e180100 	mufeqe	f0, f0, f0
    1a9c:	00000031 	andeq	r0, r0, r1, lsr r0
    1aa0:	00000ad0 	ldrdeq	r0, [r0], -r0	; <UNPREDICTABLE>
    1aa4:	00000aca 	andeq	r0, r0, sl, asr #21
    1aa8:	056a1000 	strbeq	r1, [sl, #-0]!
    1aac:	0e010000 	cdpeq	0, 0, cr0, cr1, cr0, {0}
    1ab0:	00002505 	andeq	r2, r0, r5, lsl #10
    1ab4:	008b8c00 	addeq	r8, fp, r0, lsl #24
    1ab8:	00001800 	andeq	r1, r0, r0, lsl #16
    1abc:	ff9c0100 			; <UNDEFINED> instruction: 0xff9c0100
    1ac0:	0b000001 	bleq	1acc <__code_start__-0x6534>
    1ac4:	00000593 	muleq	r0, r3, r5
    1ac8:	310e0f01 	tstcc	lr, r1, lsl #30
    1acc:	fe000000 	cdp2	0, 0, cr0, cr0, cr0, {0}
    1ad0:	fa00000a 	blx	1b00 <__code_start__-0x6500>
    1ad4:	0000000a 	andeq	r0, r0, sl
    1ad8:	0004ee11 	andeq	lr, r4, r1, lsl lr
    1adc:	0004ee00 	andeq	lr, r4, r0, lsl #28
    1ae0:	06460200 	strbeq	r0, [r6], -r0, lsl #4
    1ae4:	0004cc11 	andeq	ip, r4, r1, lsl ip
    1ae8:	0004cc00 	andeq	ip, r4, r0, lsl #24
    1aec:	06510200 	ldrbeq	r0, [r1], -r0, lsl #4
    1af0:	00030311 	andeq	r0, r3, r1, lsl r3
    1af4:	00030300 	andeq	r0, r3, r0, lsl #6
    1af8:	06a10200 	strteq	r0, [r1], r0, lsl #4
    1afc:	00027800 	andeq	r7, r2, r0, lsl #16
    1b00:	a3000400 	movwge	r0, #1024	; 0x400
    1b04:	04000009 	streq	r0, [r0], #-9
    1b08:	00011c01 	andeq	r1, r1, r1, lsl #24
    1b0c:	05ff0c00 	ldrbeq	r0, [pc, #3072]!	; 2714 <__code_start__-0x58ec>
    1b10:	03810000 	orreq	r0, r1, #0, 0
    1b14:	8c080000 	stchi	0, cr0, [r8], {-0}
    1b18:	009c0000 	addseq	r0, ip, r0
    1b1c:	0d3d0000 	ldceq	0, cr0, [sp, #-0]
    1b20:	04020000 	streq	r0, [r2], #-0
    1b24:	746e6905 	strbtvc	r6, [lr], #-2309	; 0xfffff6fb
    1b28:	07040300 	streq	r0, [r4, -r0, lsl #6]
    1b2c:	0000008a 	andeq	r0, r0, sl, lsl #1
    1b30:	3a060103 	bcc	181f44 <__bss_end__+0x17863c>
    1b34:	03000000 	movweq	r0, #0
    1b38:	01090502 	tsteq	r9, r2, lsl #10
    1b3c:	04030000 	streq	r0, [r3], #-0
    1b40:	0000f405 	andeq	pc, r0, r5, lsl #8
    1b44:	05080300 	streq	r0, [r8, #-768]	; 0xfffffd00
    1b48:	000000ef 	andeq	r0, r0, pc, ror #1
    1b4c:	38080103 	stmdacc	r8, {r0, r1, r8}
    1b50:	03000000 	movweq	r0, #0
    1b54:	00530702 	subseq	r0, r3, r2, lsl #14
    1b58:	04030000 	streq	r0, [r3], #-0
    1b5c:	00008507 	andeq	r8, r0, r7, lsl #10
    1b60:	07080300 	streq	r0, [r8, -r0, lsl #6]
    1b64:	00000080 	andeq	r0, r0, r0, lsl #1
    1b68:	00002504 	andeq	r2, r0, r4, lsl #10
    1b6c:	00007a00 	andeq	r7, r0, r0, lsl #20
    1b70:	00250500 	eoreq	r0, r5, r0, lsl #10
    1b74:	06000000 	streq	r0, [r0], -r0
    1b78:	000000fd 	strdeq	r0, [r0], -sp
    1b7c:	860e1c02 	strhi	r1, [lr], -r2, lsl #24
    1b80:	07000000 	streq	r0, [r0, -r0]
    1b84:	00006b04 	andeq	r6, r0, r4, lsl #22
    1b88:	00250400 	eoreq	r0, r5, r0, lsl #8
    1b8c:	009b0000 	addseq	r0, fp, r0
    1b90:	9b050000 	blls	141b98 <__bss_end__+0x138290>
    1b94:	00000000 	andeq	r0, r0, r0
    1b98:	00a80407 	adceq	r0, r8, r7, lsl #8
    1b9c:	01030000 	mrseq	r0, (UNDEF: 3)
    1ba0:	00004108 	andeq	r4, r0, r8, lsl #2
    1ba4:	00a10800 	adceq	r0, r1, r0, lsl #16
    1ba8:	bc060000 	stclt	0, cr0, [r6], {-0}
    1bac:	02000003 	andeq	r0, r0, #3, 0
    1bb0:	00b90e21 	adcseq	r0, r9, r1, lsr #28
    1bb4:	04070000 	streq	r0, [r7], #-0
    1bb8:	0000008c 	andeq	r0, r0, ip, lsl #1
    1bbc:	0005c409 	andeq	ip, r5, r9, lsl #8
    1bc0:	062b0100 	strteq	r0, [fp], -r0, lsl #2
    1bc4:	00008c8c 	andeq	r8, r0, ip, lsl #25
    1bc8:	00000018 	andeq	r0, r0, r8, lsl r0
    1bcc:	01099c01 	tsteq	r9, r1, lsl #24
    1bd0:	730a0000 	movwvc	r0, #40960	; 0xa000
    1bd4:	01006365 	tsteq	r0, r5, ror #6
    1bd8:	002c192b 	eoreq	r1, ip, fp, lsr #18
    1bdc:	0b210000 	bleq	841be4 <__bss_end__+0x8382dc>
    1be0:	0b1d0000 	bleq	741be8 <__bss_end__+0x7382e0>
    1be4:	a00b0000 	andge	r0, fp, r0
    1be8:	0900008c 	stmdbeq	r0, {r2, r3, r7}
    1bec:	0c000001 	stceq	0, cr0, [r0], {1}
    1bf0:	f3115001 	vhadd.u16	d5, d1, d1
    1bf4:	24355001 	ldrtcs	r5, [r5], #-1
    1bf8:	1c5001f3 	ldfnee	f0, [r0], {243}	; 0xf3
    1bfc:	01f32432 	mvnseq	r2, r2, lsr r4
    1c00:	24332250 	ldrtcs	r2, [r3], #-592	; 0xfffffdb0
    1c04:	cc090000 	stcgt	0, cr0, [r9], {-0}
    1c08:	01000004 	tsteq	r0, r4
    1c0c:	8c740628 	ldclhi	6, cr0, [r4], #-160	; 0xffffff60
    1c10:	00180000 	andseq	r0, r8, r0
    1c14:	9c010000 	stcls	0, cr0, [r1], {-0}
    1c18:	00000152 	andeq	r0, r0, r2, asr r1
    1c1c:	00736d0a 	rsbseq	r6, r3, sl, lsl #26
    1c20:	2c182801 	ldccs	8, cr2, [r8], {1}
    1c24:	46000000 	strmi	r0, [r0], -r0
    1c28:	4200000b 	andmi	r0, r0, #11, 0
    1c2c:	0b00000b 	bleq	1c60 <__code_start__-0x63a0>
    1c30:	00008c88 	andeq	r8, r0, r8, lsl #25
    1c34:	00000152 	andeq	r0, r0, r2, asr r1
    1c38:	1150010c 	cmpne	r0, ip, lsl #2
    1c3c:	355001f3 	ldrbcc	r0, [r0, #-499]	; 0xfffffe0d
    1c40:	5001f324 	andpl	pc, r1, r4, lsr #6
    1c44:	f324321c 	vqsub.u32	d3, d4, d12
    1c48:	33225001 			; <UNDEFINED> instruction: 0x33225001
    1c4c:	09000024 	stmdbeq	r0, {r2, r5}
    1c50:	000005e3 	andeq	r0, r0, r3, ror #11
    1c54:	50061f01 	andpl	r1, r6, r1, lsl #30
    1c58:	2400008c 	strcs	r0, [r0], #-140	; 0xffffff74
    1c5c:	01000000 	mrseq	r0, (UNDEF: 0)
    1c60:	0001c29c 	muleq	r1, ip, r2
    1c64:	73750a00 	cmnvc	r5, #0, 20
    1c68:	181f0100 	ldmdane	pc, {r8}	; <UNPREDICTABLE>
    1c6c:	0000002c 	andeq	r0, r0, ip, lsr #32
    1c70:	00000b6b 	andeq	r0, r0, fp, ror #22
    1c74:	00000b67 	andeq	r0, r0, r7, ror #22
    1c78:	0062720d 	rsbeq	r7, r2, sp, lsl #4
    1c7c:	2c0e2001 	stccs	0, cr2, [lr], {1}
    1c80:	8b000000 	blhi	1c88 <__code_start__-0x6378>
    1c84:	8900000b 	stmdbhi	r0, {r0, r1, r3}
    1c88:	0e00000b 	cdpeq	0, 0, cr0, cr0, cr11, {0}
    1c8c:	00008c60 	andeq	r8, r0, r0, ror #24
    1c90:	00000014 	andeq	r0, r0, r4, lsl r0
    1c94:	000001b8 			; <UNDEFINED> instruction: 0x000001b8
    1c98:	0061720d 	rsbeq	r7, r1, sp, lsl #4
    1c9c:	2c122201 	lfmcs	f2, 4, [r2], {1}
    1ca0:	a0000000 	andge	r0, r0, r0
    1ca4:	9e00000b 	cdpls	0, 0, cr0, cr0, cr11, {0}
    1ca8:	0f00000b 	svceq	0x0000000b
    1cac:	00008c64 	andeq	r8, r0, r4, ror #24
    1cb0:	000001c2 	andeq	r0, r0, r2, asr #3
    1cb4:	8c5c0f00 	mrrchi	15, 0, r0, ip, cr0
    1cb8:	01c20000 	biceq	r0, r2, r0
    1cbc:	10000000 	andne	r0, r0, r0
    1cc0:	000005d4 	ldrdeq	r0, [r0], -r4
    1cc4:	2c0a1601 	stccs	6, cr1, [sl], {1}
    1cc8:	34000000 	strcc	r0, [r0], #-0
    1ccc:	1c00008c 	stcne	0, cr0, [r0], {140}	; 0x8c
    1cd0:	01000000 	mrseq	r0, (UNDEF: 0)
    1cd4:	00020a9c 	muleq	r2, ip, sl
    1cd8:	00750d00 	rsbseq	r0, r5, r0, lsl #26
    1cdc:	2c0e1a01 			; <UNDEFINED> instruction: 0x2c0e1a01
    1ce0:	b7000000 	strlt	r0, [r0, -r0]
    1ce4:	b300000b 	movwlt	r0, #11
    1ce8:	0f00000b 	svceq	0x0000000b
    1cec:	00008c3c 	andeq	r8, r0, ip, lsr ip
    1cf0:	00000263 	andeq	r0, r0, r3, ror #4
    1cf4:	008c400f 	addeq	r4, ip, pc
    1cf8:	00020a00 	andeq	r0, r2, r0, lsl #20
    1cfc:	8c480f00 	mcrrhi	15, 0, r0, r8, cr0
    1d00:	02630000 	rsbeq	r0, r3, #0, 0
    1d04:	10000000 	andne	r0, r0, r0
    1d08:	000005ec 	andeq	r0, r0, ip, ror #11
    1d0c:	2c0a1101 	stfcss	f1, [sl], {1}
    1d10:	20000000 	andcs	r0, r0, r0
    1d14:	1400008c 	strne	r0, [r0], #-140	; 0xffffff74
    1d18:	01000000 	mrseq	r0, (UNDEF: 0)
    1d1c:	0002389c 	muleq	r2, ip, r8
    1d20:	8c2c0b00 			; <UNDEFINED> instruction: 0x8c2c0b00
    1d24:	026f0000 	rsbeq	r0, pc, #0, 0
    1d28:	010c0000 	mrseq	r0, (UNDEF: 12)
    1d2c:	040c0550 	streq	r0, [ip], #-1360	; 0xfffffab0
    1d30:	00200030 	eoreq	r0, r0, r0, lsr r0
    1d34:	05b10900 	ldreq	r0, [r1, #2304]!	; 0x900
    1d38:	05010000 	streq	r0, [r1, #-0]
    1d3c:	008c0806 	addeq	r0, ip, r6, lsl #16
    1d40:	00001800 	andeq	r1, r0, r0, lsl #16
    1d44:	639c0100 	orrsvs	r0, ip, #0
    1d48:	11000002 	tstne	r0, r2
    1d4c:	000005be 			; <UNDEFINED> instruction: 0x000005be
    1d50:	2c1c0501 	cfldr32cs	mvfx0, [ip], {1}
    1d54:	d9000000 	stmdble	r0, {}	; <UNPREDICTABLE>
    1d58:	d500000b 	strle	r0, [r0, #-11]
    1d5c:	0000000b 	andeq	r0, r0, fp
    1d60:	00029912 	andeq	r9, r2, r2, lsl r9
    1d64:	00029900 	andeq	r9, r2, r0, lsl #18
    1d68:	06900200 	ldreq	r0, [r0], r0, lsl #4
    1d6c:	0005ce12 	andeq	ip, r5, r2, lsl lr
    1d70:	0005ce00 	andeq	ip, r5, r0, lsl #28
    1d74:	0aad0200 	beq	feb4257c <__bss_end__+0xfeb38c74>
    1d78:	00099e00 	andeq	r9, r9, r0, lsl #28
    1d7c:	b8000400 	stmdalt	r0, {sl}
    1d80:	0400000a 	streq	r0, [r0], #-10
    1d84:	00011c01 	andeq	r1, r1, r1, lsl #24
    1d88:	064b0c00 	strbeq	r0, [fp], -r0, lsl #24
    1d8c:	03810000 	orreq	r0, r1, #0, 0
    1d90:	8cbc0000 	ldchi	0, cr0, [ip]
    1d94:	02cc0000 	sbceq	r0, ip, #0, 0
    1d98:	0e3e0000 	cdpeq	0, 3, cr0, cr14, cr0, {0}
    1d9c:	04020000 	streq	r0, [r2], #-0
    1da0:	746e6905 	strbtvc	r6, [lr], #-2309	; 0xfffff6fb
    1da4:	07040300 	streq	r0, [r4, -r0, lsl #6]
    1da8:	0000008a 	andeq	r0, r0, sl, lsl #1
    1dac:	00002c04 	andeq	r2, r0, r4, lsl #24
    1db0:	06010300 	streq	r0, [r1], -r0, lsl #6
    1db4:	0000003a 	andeq	r0, r0, sl, lsr r0
    1db8:	09050203 	stmdbeq	r5, {r0, r1, r9}
    1dbc:	03000001 	movweq	r0, #1
    1dc0:	00f40504 	rscseq	r0, r4, r4, lsl #10
    1dc4:	08030000 	stmdaeq	r3, {}	; <UNPREDICTABLE>
    1dc8:	0000ef05 	andeq	lr, r0, r5, lsl #30
    1dcc:	07650500 	strbeq	r0, [r5, -r0, lsl #10]!
    1dd0:	2e030000 	cdpcs	0, 0, cr0, cr3, cr0, {0}
    1dd4:	00006018 	andeq	r6, r0, r8, lsl r0
    1dd8:	08010300 	stmdaeq	r1, {r8, r9}
    1ddc:	00000038 	andeq	r0, r0, r8, lsr r0
    1de0:	53070203 	movwpl	r0, #29187	; 0x7203
    1de4:	03000000 	movweq	r0, #0
    1de8:	00850704 	addeq	r0, r5, r4, lsl #14
    1dec:	08030000 	stmdaeq	r3, {}	; <UNPREDICTABLE>
    1df0:	00008007 	andeq	r8, r0, r7
    1df4:	00250600 	eoreq	r0, r5, r0, lsl #12
    1df8:	008b0000 	addeq	r0, fp, r0
    1dfc:	25070000 	strcs	r0, [r7, #-0]
    1e00:	00000000 	andeq	r0, r0, r0
    1e04:	0000fd08 	andeq	pc, r0, r8, lsl #26
    1e08:	0e1c0200 	cdpeq	2, 1, cr0, cr12, cr0, {0}
    1e0c:	00000097 	muleq	r0, r7, r0
    1e10:	007c0409 	rsbseq	r0, ip, r9, lsl #8
    1e14:	25060000 	strcs	r0, [r6, #-0]
    1e18:	ac000000 	stcge	0, cr0, [r0], {-0}
    1e1c:	07000000 	streq	r0, [r0, -r0]
    1e20:	000000ac 	andeq	r0, r0, ip, lsr #1
    1e24:	b9040900 	stmdblt	r4, {r8, fp}
    1e28:	03000000 	movweq	r0, #0
    1e2c:	00410801 	subeq	r0, r1, r1, lsl #16
    1e30:	b2040000 	andlt	r0, r4, #0, 0
    1e34:	08000000 	stmdaeq	r0, {}	; <UNPREDICTABLE>
    1e38:	000003bc 			; <UNDEFINED> instruction: 0x000003bc
    1e3c:	ca0e2102 	bgt	38a24c <__bss_end__+0x380944>
    1e40:	09000000 	stmdbeq	r0, {}	; <UNPREDICTABLE>
    1e44:	00009d04 	andeq	r9, r0, r4, lsl #26
    1e48:	01070a00 	tsteq	r7, r0, lsl #20
    1e4c:	00000060 	andeq	r0, r0, r0, rrx
    1e50:	0f0e0c04 	svceq	0x000e0c04
    1e54:	0b000001 	bleq	1e60 <__code_start__-0x61a0>
    1e58:	0000084f 	andeq	r0, r0, pc, asr #16
    1e5c:	06a20b00 	strteq	r0, [r2], r0, lsl #22
    1e60:	0b010000 	bleq	41e68 <__bss_end__+0x38560>
    1e64:	000006fd 	strdeq	r0, [r0], -sp
    1e68:	070c0b04 	streq	r0, [ip, -r4, lsl #22]
    1e6c:	0b050000 	bleq	141e74 <__bss_end__+0x13856c>
    1e70:	0000071b 	andeq	r0, r0, fp, lsl r7
    1e74:	072a0b06 	streq	r0, [sl, -r6, lsl #22]!
    1e78:	0b070000 	bleq	1c1e80 <__bss_end__+0x1b8578>
    1e7c:	00000739 	andeq	r0, r0, r9, lsr r7
    1e80:	07480b03 	strbeq	r0, [r8, -r3, lsl #22]
    1e84:	00020000 	andeq	r0, r2, r0
    1e88:	0009800c 	andeq	r8, r9, ip
    1e8c:	17130100 	ldrne	r0, [r3, -r0, lsl #2]
    1e90:	00000033 	andeq	r0, r0, r3, lsr r0
    1e94:	20215000 	eorcs	r5, r1, r0
    1e98:	0008480d 	andeq	r4, r8, sp, lsl #16
    1e9c:	17010400 	strne	r0, [r1, -r0, lsl #8]
    1ea0:	00014d10 	andeq	r4, r1, r0, lsl sp
    1ea4:	06790e00 	ldrbteq	r0, [r9], -r0, lsl #28
    1ea8:	18010000 	stmdane	r1, {}	; <UNPREDICTABLE>
    1eac:	00002c0e 	andeq	r2, r0, lr, lsl #24
    1eb0:	1f010400 	svcne	0x00010400
    1eb4:	09200e00 	stmdbeq	r0!, {r9, sl, fp}
    1eb8:	19010000 	stmdbne	r1, {}	; <UNPREDICTABLE>
    1ebc:	00002c0e 	andeq	r2, r0, lr, lsl #24
    1ec0:	001f0400 	andseq	r0, pc, r0, lsl #8
    1ec4:	9c0d0000 	stcls	0, cr0, [sp], {-0}
    1ec8:	04000009 	streq	r0, [r0], #-9
    1ecc:	7b101e01 	blvc	4096d8 <__bss_end__+0x3ffdd0>
    1ed0:	0e000001 	cdpeq	0, 0, cr0, cr0, cr1, {0}
    1ed4:	00000672 	andeq	r0, r0, r2, ror r6
    1ed8:	2c0e1f01 	stccs	15, cr1, [lr], {1}
    1edc:	04000000 	streq	r0, [r0], #-0
    1ee0:	0e001f01 	cdpeq	15, 0, cr1, cr0, cr1, {0}
    1ee4:	000007a8 	andeq	r0, r0, r8, lsr #15
    1ee8:	2c0e2001 	stccs	0, cr2, [lr], {1}
    1eec:	04000000 	streq	r0, [r0], #-0
    1ef0:	0000001f 	andeq	r0, r0, pc, lsl r0
    1ef4:	00096d0d 	andeq	r6, r9, sp, lsl #26
    1ef8:	26010400 	strcs	r0, [r1], -r0, lsl #8
    1efc:	0001a910 	andeq	sl, r1, r0, lsl r9
    1f00:	087f0e00 	ldmdaeq	pc!, {r9, sl, fp}^	; <UNPREDICTABLE>
    1f04:	27010000 	strcs	r0, [r1, -r0]
    1f08:	00002c0e 	andeq	r2, r0, lr, lsl #24
    1f0c:	18080400 	stmdane	r8, {sl}
    1f10:	09b20e00 	ldmibeq	r2!, {r9, sl, fp}
    1f14:	28010000 	stmdacs	r1, {}	; <UNPREDICTABLE>
    1f18:	00002c0e 	andeq	r2, r0, lr, lsl #24
    1f1c:	00180400 	andseq	r0, r8, r0, lsl #8
    1f20:	8f050000 	svchi	0x00050000
    1f24:	01000007 	tsteq	r0, r7
    1f28:	017b0329 	cmneq	fp, r9, lsr #6
    1f2c:	6d0d0000 	stcvs	0, cr0, [sp, #-0]
    1f30:	04000007 	streq	r0, [r0], #-7
    1f34:	f3102d01 	vpadd.f16	d2, d0, d1
    1f38:	0e000001 	cdpeq	0, 0, cr0, cr0, cr1, {0}
    1f3c:	00000774 	andeq	r0, r0, r4, ror r7
    1f40:	2c0e2e01 	stccs	14, cr2, [lr], {1}
    1f44:	04000000 	streq	r0, [r0], #-0
    1f48:	0e001f01 	cdpeq	15, 0, cr1, cr0, cr1, {0}
    1f4c:	000008de 	ldrdeq	r0, [r0], -lr
    1f50:	2c0e2f01 	stccs	15, cr2, [lr], {1}
    1f54:	04000000 	streq	r0, [r0], #-0
    1f58:	0e001e01 	cdpeq	14, 0, cr1, cr0, cr1, {0}
    1f5c:	000007eb 	andeq	r0, r0, fp, ror #15
    1f60:	2c0e3001 	stccs	0, cr3, [lr], {1}
    1f64:	04000000 	streq	r0, [r0], #-0
    1f68:	0000001e 	andeq	r0, r0, lr, lsl r0
    1f6c:	0008b10d 	andeq	fp, r8, sp, lsl #2
    1f70:	35010400 	strcc	r0, [r1, #-1024]	; 0xfffffc00
    1f74:	00025110 	andeq	r5, r2, r0, lsl r1
    1f78:	0a450e00 	beq	1145780 <__bss_end__+0x113be78>
    1f7c:	36010000 	strcc	r0, [r1], -r0
    1f80:	00002c0e 	andeq	r2, r0, lr, lsl #24
    1f84:	1f010400 	svcne	0x00010400
    1f88:	08360e00 	ldmdaeq	r6!, {r9, sl, fp}
    1f8c:	37010000 	strcc	r0, [r1, -r0]
    1f90:	00002c0e 	andeq	r2, r0, lr, lsl #24
    1f94:	1e010400 	cfcpysne	mvf0, mvf1
    1f98:	086d0e00 	stmdaeq	sp!, {r9, sl, fp}^
    1f9c:	38010000 	stmdacc	r1, {}	; <UNPREDICTABLE>
    1fa0:	00002c0e 	andeq	r2, r0, lr, lsl #24
    1fa4:	1d010400 	cfstrsne	mvf0, [r1, #-0]
    1fa8:	07970e00 	ldreq	r0, [r7, r0, lsl #28]
    1fac:	39010000 	stmdbcc	r1, {}	; <UNPREDICTABLE>
    1fb0:	00002c0e 	andeq	r2, r0, lr, lsl #24
    1fb4:	18050400 	stmdane	r5, {sl}
    1fb8:	09600e00 	stmdbeq	r0!, {r9, sl, fp}^
    1fbc:	3a010000 	bcc	41fc4 <__bss_end__+0x386bc>
    1fc0:	00002c0e 	andeq	r2, r0, lr, lsl #24
    1fc4:	00180400 	andseq	r0, r8, r0, lsl #8
    1fc8:	590d0000 	stmdbpl	sp, {}	; <UNPREDICTABLE>
    1fcc:	04000009 	streq	r0, [r0], #-9
    1fd0:	7f103f01 	svcvc	0x00103f01
    1fd4:	0e000002 	cdpeq	0, 0, cr0, cr0, cr2, {0}
    1fd8:	0000068d 	andeq	r0, r0, sp, lsl #13
    1fdc:	2c0e4001 	stccs	0, cr4, [lr], {1}
    1fe0:	04000000 	streq	r0, [r0], #-0
    1fe4:	0e001f01 	cdpeq	15, 0, cr1, cr0, cr1, {0}
    1fe8:	00000a28 	andeq	r0, r0, r8, lsr #20
    1fec:	2c0e4101 	stfcss	f4, [lr], {1}
    1ff0:	04000000 	streq	r0, [r0], #-0
    1ff4:	0000001f 	andeq	r0, r0, pc, lsl r0
    1ff8:	00069b0d 	andeq	r9, r6, sp, lsl #22
    1ffc:	47010400 	strmi	r0, [r1, -r0, lsl #8]
    2000:	0002ed10 	andeq	lr, r2, r0, lsl sp
    2004:	09e50e00 	stmibeq	r5!, {r9, sl, fp}^
    2008:	48010000 	stmdami	r1, {}	; <UNPREDICTABLE>
    200c:	00002c0e 	andeq	r2, r0, lr, lsl #24
    2010:	1f010400 	svcne	0x00010400
    2014:	067e0e00 	ldrbteq	r0, [lr], -r0, lsl #28
    2018:	49010000 	stmdbmi	r1, {}	; <UNPREDICTABLE>
    201c:	00002c0e 	andeq	r2, r0, lr, lsl #24
    2020:	1e010400 	cfcpysne	mvf0, mvf1
    2024:	082e0e00 	stmdaeq	lr!, {r9, sl, fp}
    2028:	4a010000 	bmi	42030 <__bss_end__+0x38728>
    202c:	00002c0e 	andeq	r2, r0, lr, lsl #24
    2030:	1b030400 	blne	c3038 <__bss_end__+0xb9730>
    2034:	080e0e00 	stmdaeq	lr, {r9, sl, fp}
    2038:	4b010000 	blmi	42040 <__bss_end__+0x38738>
    203c:	00002c0e 	andeq	r2, r0, lr, lsl #24
    2040:	1a010400 	bne	43048 <__bss_end__+0x39740>
    2044:	08cf0e00 	stmiaeq	pc, {r9, sl, fp}^	; <UNPREDICTABLE>
    2048:	4c010000 	stcmi	0, cr0, [r1], {-0}
    204c:	00002c0e 	andeq	r2, r0, lr, lsl #24
    2050:	19010400 	stmdbne	r1, {sl}
    2054:	0a050e00 	beq	14585c <__bss_end__+0x13bf54>
    2058:	4d010000 	stcmi	0, cr0, [r1, #-0]
    205c:	00002c0e 	andeq	r2, r0, lr, lsl #24
    2060:	00190400 	andseq	r0, r9, r0, lsl #8
    2064:	12050000 	andne	r0, r5, #0, 0
    2068:	0100000a 	tsteq	r0, sl
    206c:	027f034e 	rsbseq	r0, pc, #939524097	; 0x38000001
    2070:	b60d0000 	strlt	r0, [sp], -r0
    2074:	04000007 	streq	r0, [r0], #-7
    2078:	37105201 	ldrcc	r5, [r0, -r1, lsl #4]
    207c:	0e000003 	cdpeq	0, 0, cr0, cr0, cr3, {0}
    2080:	0000061a 	andeq	r0, r0, sl, lsl r6
    2084:	2c0e5301 	stccs	3, cr5, [lr], {1}
    2088:	04000000 	streq	r0, [r0], #-0
    208c:	0e001f01 	cdpeq	15, 0, cr1, cr0, cr1, {0}
    2090:	00000656 	andeq	r0, r0, r6, asr r6
    2094:	2c0e5401 	cfstrscs	mvf5, [lr], {1}
    2098:	04000000 	streq	r0, [r0], #-0
    209c:	0e001e01 	cdpeq	14, 0, cr1, cr0, cr1, {0}
    20a0:	0000092e 	andeq	r0, r0, lr, lsr #18
    20a4:	2c0e5501 	cfstr32cs	mvfx5, [lr], {1}
    20a8:	04000000 	streq	r0, [r0], #-0
    20ac:	0000001e 	andeq	r0, r0, lr, lsl r0
    20b0:	0007be0d 	andeq	fp, r7, sp, lsl #28
    20b4:	5a010400 	bpl	430bc <__bss_end__+0x397b4>
    20b8:	0003f510 	andeq	pc, r3, r0, lsl r5	; <UNPREDICTABLE>
    20bc:	06c10e00 	strbeq	r0, [r1], r0, lsl #28
    20c0:	5b010000 	blpl	420c8 <__bss_end__+0x387c0>
    20c4:	00002c0e 	andeq	r2, r0, lr, lsl #24
    20c8:	1f010400 	svcne	0x00010400
    20cc:	06390e00 	ldrteq	r0, [r9], -r0, lsl #28
    20d0:	5c010000 	stcpl	0, cr0, [r1], {-0}
    20d4:	00002c0e 	andeq	r2, r0, lr, lsl #24
    20d8:	1e010400 	cfcpysne	mvf0, mvf1
    20dc:	09010e00 	stmdbeq	r1, {r9, sl, fp}
    20e0:	5d010000 	stcpl	0, cr0, [r1, #-0]
    20e4:	00002c0e 	andeq	r2, r0, lr, lsl #24
    20e8:	1d010400 	cfstrsne	mvf0, [r1, #-0]
    20ec:	06650e00 	strbteq	r0, [r5], -r0, lsl #28
    20f0:	5e010000 	cdppl	0, 0, cr0, cr1, cr0, {0}
    20f4:	00002c0e 	andeq	r2, r0, lr, lsl #24
    20f8:	1c010400 	cfstrsne	mvf0, [r1], {-0}
    20fc:	0a350e00 	beq	d45904 <__bss_end__+0xd3bffc>
    2100:	5f010000 	svcpl	0x00010000
    2104:	00002c0e 	andeq	r2, r0, lr, lsl #24
    2108:	1b010400 	blne	43110 <__bss_end__+0x39808>
    210c:	07d40e00 	ldrbeq	r0, [r4, r0, lsl #28]
    2110:	60010000 	andvs	r0, r1, r0
    2114:	00002c0e 	andeq	r2, r0, lr, lsl #24
    2118:	1a010400 	bne	43120 <__bss_end__+0x39818>
    211c:	06110e00 	ldreq	r0, [r1], -r0, lsl #28
    2120:	61010000 	mrsvs	r0, (UNDEF: 1)
    2124:	00002c0e 	andeq	r2, r0, lr, lsl #24
    2128:	19010400 	stmdbne	r1, {sl}
    212c:	079f0e00 	ldreq	r0, [pc, r0, lsl #28]
    2130:	62010000 	andvs	r0, r1, #0, 0
    2134:	00002c0e 	andeq	r2, r0, lr, lsl #24
    2138:	18010400 	stmdane	r1, {sl}
    213c:	09d70e00 	ldmibeq	r7, {r9, sl, fp}^
    2140:	63010000 	movwvs	r0, #4096	; 0x1000
    2144:	00002c0e 	andeq	r2, r0, lr, lsl #24
    2148:	17010400 	strne	r0, [r1, -r0, lsl #8]
    214c:	09730e00 	ldmdbeq	r3!, {r9, sl, fp}^
    2150:	64010000 	strvs	r0, [r1], #-0
    2154:	00002c0e 	andeq	r2, r0, lr, lsl #24
    2158:	16010400 	strne	r0, [r1], -r0, lsl #8
    215c:	06d30e00 	ldrbeq	r0, [r3], r0, lsl #28
    2160:	65010000 	strvs	r0, [r1, #-0]
    2164:	00002c0e 	andeq	r2, r0, lr, lsl #24
    2168:	00160400 	andseq	r0, r6, r0, lsl #8
    216c:	f6050000 			; <UNDEFINED> instruction: 0xf6050000
    2170:	01000007 	tsteq	r0, r7
    2174:	03370366 	teqeq	r7, #-1744830463	; 0x98000001
    2178:	b80d0000 	stmdalt	sp, {}	; <UNPREDICTABLE>
    217c:	04000008 	streq	r0, [r0], #-8
    2180:	2f106a01 	svccs	0x00106a01
    2184:	0e000004 	cdpeq	0, 0, cr0, cr0, cr4, {0}
    2188:	00000785 	andeq	r0, r0, r5, lsl #15
    218c:	2c0e6b01 			; <UNDEFINED> instruction: 0x2c0e6b01
    2190:	04000000 	streq	r0, [r0], #-0
    2194:	0e001010 	mcreq	0, 0, r1, cr0, cr0, {0}
    2198:	00000800 	andeq	r0, r0, r0, lsl #16
    219c:	2c0e6c01 	stccs	12, cr6, [lr], {1}
    21a0:	04000000 	streq	r0, [r0], #-0
    21a4:	00000010 	andeq	r0, r0, r0, lsl r0
    21a8:	7001040f 	andvc	r0, r1, pc, lsl #8
    21ac:	00045105 	andeq	r5, r4, r5, lsl #2
    21b0:	08481000 	stmdaeq	r8, {ip}^
    21b4:	71010000 	mrsvc	r0, (UNDEF: 1)
    21b8:	00002c12 	andeq	r2, r0, r2, lsl ip
    21bc:	085f1000 	ldmdaeq	pc, {ip}^	; <UNPREDICTABLE>
    21c0:	72010000 	andvc	r0, r1, #0, 0
    21c4:	00011f17 	andeq	r1, r1, r7, lsl pc
    21c8:	040f0000 	streq	r0, [pc], #-0	; 21d0 <__code_start__-0x5e30>
    21cc:	73057401 	movwvc	r7, #21505	; 0x5401
    21d0:	10000004 	andne	r0, r0, r4
    21d4:	0000099c 	muleq	r0, ip, r9
    21d8:	2c127501 	cfldr32cs	mvfx7, [r2], {1}
    21dc:	10000000 	andne	r0, r0, r0
    21e0:	00000820 	andeq	r0, r0, r0, lsr #16
    21e4:	4d177601 	ldcmi	6, cr7, [r7, #-4]
    21e8:	00000001 	andeq	r0, r0, r1
    21ec:	7a01040f 	bvc	43230 <__bss_end__+0x39928>
    21f0:	00049505 	andeq	r9, r4, r5, lsl #10
    21f4:	096d1000 	stmdbeq	sp!, {ip}^
    21f8:	7b010000 	blvc	42200 <__bss_end__+0x388f8>
    21fc:	00002c12 	andeq	r2, r0, r2, lsl ip
    2200:	0a1b1000 	beq	6c6208 <__bss_end__+0x6bc900>
    2204:	7c010000 	stcvc	0, cr0, [r1], {-0}
    2208:	00017b16 	andeq	r7, r1, r6, lsl fp
    220c:	040f0000 	streq	r0, [pc], #-0	; 2214 <__code_start__-0x5dec>
    2210:	b7057e01 	strlt	r7, [r5, -r1, lsl #28]
    2214:	10000004 	andne	r0, r0, r4
    2218:	0000076d 	andeq	r0, r0, sp, ror #14
    221c:	2c127f01 	ldccs	15, cr7, [r2], {1}
    2220:	10000000 	andne	r0, r0, r0
    2224:	000009f7 	strdeq	r0, [r0], -r7
    2228:	b5178001 	ldrlt	r8, [r7, #-1]
    222c:	00000001 	andeq	r0, r0, r1
    2230:	8201040f 	andhi	r0, r1, #251658240	; 0xf000000
    2234:	0004d905 	andeq	sp, r4, r5, lsl #18
    2238:	08b11000 	ldmeq	r1!, {ip}
    223c:	83010000 	movwhi	r0, #4096	; 0x1000
    2240:	00002c12 	andeq	r2, r0, r2, lsl ip
    2244:	07c61000 	strbeq	r1, [r6, r0]
    2248:	84010000 	strhi	r0, [r1], #-0
    224c:	0001f317 	andeq	pc, r1, r7, lsl r3	; <UNPREDICTABLE>
    2250:	040f0000 	streq	r0, [pc], #-0	; 2258 <__code_start__-0x5da8>
    2254:	fb058601 	blx	163a62 <__bss_end__+0x15a15a>
    2258:	10000004 	andne	r0, r0, r4
    225c:	00000959 	andeq	r0, r0, r9, asr r9
    2260:	2c128701 	ldccs	7, cr8, [r2], {1}
    2264:	10000000 	andne	r0, r0, r0
    2268:	000006b3 			; <UNDEFINED> instruction: 0x000006b3
    226c:	51178801 	tstpl	r7, r1, lsl #16
    2270:	00000002 	andeq	r0, r0, r2
    2274:	8a01040f 	bhi	432b8 <__bss_end__+0x399b0>
    2278:	00051105 	andeq	r1, r5, r5, lsl #2
    227c:	08871000 	stmeq	r7, {ip}
    2280:	8b010000 	blhi	42288 <__bss_end__+0x38980>
    2284:	00002c12 	andeq	r2, r0, r2, lsl ip
    2288:	040f0000 	streq	r0, [pc], #-0	; 2290 <__code_start__-0x5d70>
    228c:	33058d01 	movwcc	r8, #23809	; 0x5d01
    2290:	10000005 	andne	r0, r0, r5
    2294:	0000069b 	muleq	r0, fp, r6
    2298:	2c128e01 	ldccs	14, cr8, [r2], {1}
    229c:	10000000 	andne	r0, r0, r0
    22a0:	000006df 	ldrdeq	r0, [r0], -pc	; <UNPREDICTABLE>
    22a4:	7f178f01 	svcvc	0x00178f01
    22a8:	00000002 	andeq	r0, r0, r2
    22ac:	9101040f 	tstls	r1, pc, lsl #8
    22b0:	00054905 	andeq	r4, r5, r5, lsl #18
    22b4:	08a31000 	stmiaeq	r3!, {ip}
    22b8:	92010000 	andls	r0, r1, #0, 0
    22bc:	00002c12 	andeq	r2, r0, r2, lsl ip
    22c0:	040f0000 	streq	r0, [pc], #-0	; 22c8 <__code_start__-0x5d38>
    22c4:	5f059401 	svcpl	0x00059401
    22c8:	10000005 	andne	r0, r0, r5
    22cc:	0000098a 	andeq	r0, r0, sl, lsl #19
    22d0:	2c129501 	cfldr32cs	mvfx9, [r2], {1}
    22d4:	00000000 	andeq	r0, r0, r0
    22d8:	9701040f 	strls	r0, [r1, -pc, lsl #8]
    22dc:	00058105 	andeq	r8, r5, r5, lsl #2
    22e0:	07b61000 	ldreq	r1, [r6, r0]!
    22e4:	98010000 	stmdals	r1, {}	; <UNPREDICTABLE>
    22e8:	00002c12 	andeq	r2, r0, r2, lsl ip
    22ec:	09be1000 	ldmibeq	lr!, {ip}
    22f0:	99010000 	stmdbls	r1, {}	; <UNPREDICTABLE>
    22f4:	0002f918 	andeq	pc, r2, r8, lsl r9	; <UNPREDICTABLE>
    22f8:	040f0000 	streq	r0, [pc], #-0	; 2300 <__code_start__-0x5d00>
    22fc:	a3059b01 	movwge	r9, #23297	; 0x5b01
    2300:	10000005 	andne	r0, r0, r5
    2304:	000007be 			; <UNDEFINED> instruction: 0x000007be
    2308:	2c129c01 	ldccs	12, cr9, [r2], {1}
    230c:	10000000 	andne	r0, r0, r0
    2310:	000008c0 	andeq	r0, r0, r0, asr #17
    2314:	37189d01 	ldrcc	r9, [r8, -r1, lsl #26]
    2318:	00000003 	andeq	r0, r0, r3
    231c:	9f01040f 	svcls	0x0001040f
    2320:	0005c505 	andeq	ip, r5, r5, lsl #10
    2324:	08b81000 	ldmeq	r8!, {ip}
    2328:	a0010000 	andge	r0, r1, r0
    232c:	00002c12 	andeq	r2, r0, r2, lsl ip
    2330:	09a31000 	stmibeq	r3!, {ip}
    2334:	a1010000 	mrsge	r0, (UNDEF: 1)
    2338:	00040118 	andeq	r0, r4, r8, lsl r1
    233c:	290d0000 	stmdbcs	sp, {}	; <UNPREDICTABLE>
    2340:	6c000006 	stcvs	0, cr0, [r0], {6}
    2344:	2e106f01 	cdpcs	15, 1, cr6, cr0, cr1, {0}
    2348:	11000006 	tstne	r0, r6
    234c:	0000042f 	andeq	r0, r0, pc, lsr #8
    2350:	04511100 	ldrbeq	r1, [r1], #-256	; 0xffffff00
    2354:	12040000 	andne	r0, r4, #0, 0
    2358:	00706167 	rsbseq	r6, r0, r7, ror #2
    235c:	2e0d7901 	vmlacs.f16	s14, s26, s2	; <UNPREDICTABLE>
    2360:	08000006 	stmdaeq	r0, {r1, r2}
    2364:	00047311 	andeq	r7, r4, r1, lsl r3
    2368:	95114000 	ldrls	r4, [r1, #-0]
    236c:	44000004 	strmi	r0, [r0], #-4
    2370:	0004b711 	andeq	fp, r4, r1, lsl r7
    2374:	d9114800 	ldmdble	r1, {fp, lr}
    2378:	4c000004 	stcmi	0, cr0, [r0], {4}
    237c:	0004fb11 	andeq	pc, r4, r1, lsl fp	; <UNPREDICTABLE>
    2380:	11115000 	tstne	r1, r0
    2384:	54000005 	strpl	r0, [r0], #-5
    2388:	00053311 	andeq	r3, r5, r1, lsl r3
    238c:	49115800 	ldmdbmi	r1, {fp, ip, lr}
    2390:	5c000005 	stcpl	0, cr0, [r0], {5}
    2394:	00055f11 	andeq	r5, r5, r1, lsl pc
    2398:	81116000 	tsthi	r1, r0
    239c:	64000005 	strvs	r0, [r0], #-5
    23a0:	0005a311 	andeq	sl, r5, r1, lsl r3
    23a4:	13006800 	movwne	r6, #2048	; 0x800
    23a8:	00000054 	andeq	r0, r0, r4, asr r0
    23ac:	0000063e 	andeq	r0, r0, lr, lsr r6
    23b0:	00002c14 	andeq	r2, r0, r4, lsl ip
    23b4:	05003700 	streq	r3, [r0, #-1792]	; 0xfffff900
    23b8:	0000090e 	andeq	r0, r0, lr, lsl #18
    23bc:	c503a301 	strgt	sl, [r3, #-769]	; 0xfffffcff
    23c0:	15000005 	strne	r0, [r0, #-5]
    23c4:	0000062a 	andeq	r0, r0, sl, lsr #12
    23c8:	5c1ba601 	ldcpl	6, cr10, [fp], {1}
    23cc:	05000006 	streq	r0, [r0, #-6]
    23d0:	00990403 	addseq	r0, r9, r3, lsl #8
    23d4:	3e040900 	vmlacc.f16	s0, s8, s0	; <UNPREDICTABLE>
    23d8:	16000006 	strne	r0, [r0], -r6
    23dc:	000004ee 	andeq	r0, r0, lr, ror #9
    23e0:	06011801 	streq	r1, [r1], -r1, lsl #16
    23e4:	00008f74 	andeq	r8, r0, r4, ror pc
    23e8:	00000014 	andeq	r0, r0, r4, lsl r0
    23ec:	06839c01 	streq	r9, [r3], r1, lsl #24
    23f0:	7c170000 	ldcvc	0, cr0, [r7], {-0}
    23f4:	8300008f 	movwhi	r0, #143	; 0x8f
    23f8:	00000006 	andeq	r0, r0, r6
    23fc:	00094818 	andeq	r4, r9, r8, lsl r8
    2400:	01110100 	tsteq	r1, r0, lsl #2
    2404:	00002505 	andeq	r2, r0, r5, lsl #10
    2408:	008f3c00 	addeq	r3, pc, r0, lsl #24
    240c:	00003800 	andeq	r3, r0, r0, lsl #16
    2410:	d59c0100 	ldrle	r0, [ip, #256]	; 0x100
    2414:	19000006 	stmdbne	r0, {r1, r2}
    2418:	13010076 	movwne	r0, #4214	; 0x1076
    241c:	002c0e01 	eoreq	r0, ip, r1, lsl #28
    2420:	91020000 	mrsls	r0, (UNDEF: 2)
    2424:	07be1a74 			; <UNDEFINED> instruction: 0x07be1a74
    2428:	14010000 	strne	r0, [r1], #-0
    242c:	06d51001 	ldrbeq	r1, [r5], r1
    2430:	0bf90000 	bleq	ffe42438 <__bss_end__+0xffe38b30>
    2434:	0bf70000 	bleq	ffdc243c <__bss_end__+0xffdb8b34>
    2438:	581b0000 	ldmdapl	fp, {}	; <UNPREDICTABLE>
    243c:	7d00008f 	stcvc	0, cr0, [r0, #-572]	; 0xfffffdc4
    2440:	1c000009 	stcne	0, cr0, [r0], {9}
    2444:	0c055001 	stceq	0, cr5, [r5], {1}
    2448:	20215064 	eorcs	r5, r1, r4, rrx
    244c:	04090000 	streq	r0, [r9], #-0
    2450:	000003f5 	strdeq	r0, [r0], -r5
    2454:	0006ed18 	andeq	lr, r6, r8, lsl sp
    2458:	010a0100 	mrseq	r0, (UNDEF: 26)
    245c:	00002505 	andeq	r2, r0, r5, lsl #10
    2460:	008f1c00 	addeq	r1, pc, r0, lsl #24
    2464:	00002000 	andeq	r2, r0, r0
    2468:	099c0100 	ldmibeq	ip, {r8}
    246c:	17000007 	strne	r0, [r0, -r7]
    2470:	00008f24 	andeq	r8, r0, r4, lsr #30
    2474:	00000709 	andeq	r0, r0, r9, lsl #14
    2478:	008f3017 	addeq	r3, pc, r7, lsl r0	; <UNPREDICTABLE>
    247c:	0007c500 	andeq	ip, r7, r0, lsl #10
    2480:	95180000 	ldrls	r0, [r8, #-0]
    2484:	01000008 	tsteq	r0, r8
    2488:	25050105 	strcs	r0, [r5, #-261]	; 0xfffffefb
    248c:	10000000 	andne	r0, r0, r0
    2490:	0c00008f 	stceq	0, cr0, [r0], {143}	; 0x8f
    2494:	01000000 	mrseq	r0, (UNDEF: 0)
    2498:	00072e9c 	muleq	r7, ip, lr
    249c:	8f181700 	svchi	0x00181700
    24a0:	08160000 	ldmdaeq	r6, {}	; <UNPREDICTABLE>
    24a4:	1d000000 	stcne	0, cr0, [r0, #-0]
    24a8:	000009cd 	andeq	r0, r0, sp, asr #19
    24ac:	d006fb01 	andle	pc, r6, r1, lsl #22
    24b0:	4000008e 	andmi	r0, r0, lr, lsl #1
    24b4:	01000000 	mrseq	r0, (UNDEF: 0)
    24b8:	0007709c 	muleq	r7, ip, r0
    24bc:	00631e00 	rsbeq	r1, r3, r0, lsl #28
    24c0:	2c19fb01 			; <UNDEFINED> instruction: 0x2c19fb01
    24c4:	12000000 	andne	r0, r0, #0, 0
    24c8:	0e00000c 	cdpeq	0, 0, cr0, cr0, cr12, {0}
    24cc:	1700000c 	strne	r0, [r0, -ip]
    24d0:	00008ee8 	andeq	r8, r0, r8, ror #29
    24d4:	00000770 	andeq	r0, r0, r0, ror r7
    24d8:	008f041b 	addeq	r0, pc, fp, lsl r4	; <UNPREDICTABLE>
    24dc:	00098900 	andeq	r8, r9, r0, lsl #18
    24e0:	51011c00 	tstpl	r1, r0, lsl #24
    24e4:	00007402 	andeq	r7, r0, r2, lsl #8
    24e8:	07571f00 	ldrbeq	r1, [r7, -r0, lsl #30]
    24ec:	f2010000 	vhadd.s8	d0, d1, d0
    24f0:	00002505 	andeq	r2, r0, r5, lsl #10
    24f4:	008e9400 	addeq	r9, lr, r0, lsl #8
    24f8:	00003c00 	andeq	r3, r0, r0, lsl #24
    24fc:	bf9c0100 	svclt	0x009c0100
    2500:	20000007 	andcs	r0, r0, r7
    2504:	f4010076 	vst4.16	{d0-d3}, [r1 :256], r6
    2508:	00002c0e 	andeq	r2, r0, lr, lsl #24
    250c:	74910200 	ldrvc	r0, [r1], #512	; 0x200
    2510:	00069b21 	andeq	r9, r6, r1, lsr #22
    2514:	0ff50100 	svceq	0x00f50100
    2518:	000007bf 			; <UNDEFINED> instruction: 0x000007bf
    251c:	00000c32 	andeq	r0, r0, r2, lsr ip
    2520:	00000c30 	andeq	r0, r0, r0, lsr ip
    2524:	008eb01b 	addeq	fp, lr, fp, lsl r0
    2528:	00097d00 	andeq	r7, r9, r0, lsl #26
    252c:	50011c00 	andpl	r1, r1, r0, lsl #24
    2530:	50540c05 	subspl	r0, r4, r5, lsl #24
    2534:	00002021 	andeq	r2, r0, r1, lsr #32
    2538:	02ed0409 	rsceq	r0, sp, #150994944	; 0x9000000
    253c:	e11f0000 	tst	pc, r0
    2540:	01000007 	tsteq	r0, r7
    2544:	002505e8 	eoreq	r0, r5, r8, ror #11
    2548:	8e580000 	cdphi	0, 5, cr0, cr8, cr0, {0}
    254c:	003c0000 	eorseq	r0, ip, r0
    2550:	9c010000 	stcls	0, cr0, [r1], {-0}
    2554:	00000810 	andeq	r0, r0, r0, lsl r8
    2558:	01007622 	tsteq	r0, r2, lsr #12
    255c:	002c0eec 	eoreq	r0, ip, ip, ror #29
    2560:	6d210000 	stcvs	0, cr0, [r1, #-0]
    2564:	01000009 	tsteq	r0, r9
    2568:	08100eed 	ldmdaeq	r0, {r0, r2, r3, r5, r6, r7, r9, sl, fp}
    256c:	0c490000 	mareq	acc0, r0, r9
    2570:	0c470000 	mareq	acc0, r0, r7
    2574:	6c170000 	ldcvs	0, cr0, [r7], {-0}
    2578:	1600008e 	strne	r0, [r0], -lr, lsl #1
    257c:	17000008 	strne	r0, [r0, -r8]
    2580:	00008e84 	andeq	r8, r0, r4, lsl #29
    2584:	0000097d 	andeq	r0, r0, sp, ror r9
    2588:	a9040900 	stmdbge	r4, {r8, fp}
    258c:	23000001 	movwcs	r0, #1
    2590:	0000093a 	andeq	r0, r0, sl, lsr r9
    2594:	250cdf01 	strcs	sp, [ip, #-3841]	; 0xfffff0ff
    2598:	bc000000 	stclt	0, cr0, [r0], {-0}
    259c:	3400008c 	strcc	r0, [r0], #-140	; 0xffffff74
    25a0:	01000000 	mrseq	r0, (UNDEF: 0)
    25a4:	0008659c 	muleq	r8, ip, r5
    25a8:	00762000 	rsbseq	r2, r6, r0
    25ac:	2c0ee101 	stfcsd	f6, [lr], {1}
    25b0:	02000000 	andeq	r0, r0, #0, 0
    25b4:	9b217491 	blls	85f800 <__bss_end__+0x855ef8>
    25b8:	01000006 	tsteq	r0, r6
    25bc:	07bf0fe2 	ldreq	r0, [pc, r2, ror #31]!
    25c0:	0c630000 	stcleq	0, cr0, [r3], #-0
    25c4:	0c610000 	stcleq	0, cr0, [r1], #-0
    25c8:	d81b0000 	ldmdale	fp, {}	; <UNPREDICTABLE>
    25cc:	7d00008c 	stcvc	0, cr0, [r0, #-560]	; 0xfffffdd0
    25d0:	1c000009 	stcne	0, cr0, [r0], {9}
    25d4:	0c055001 	stceq	0, cr5, [r5], {1}
    25d8:	20215054 	eorcs	r5, r1, r4, asr r0
    25dc:	2e1d0000 	cdpcs	0, 1, cr0, cr13, cr0, {0}
    25e0:	01000000 	mrseq	r0, (UNDEF: 0)
    25e4:	8cf006ad 	ldclhi	6, cr0, [r0], #692	; 0x2b4
    25e8:	01680000 	cmneq	r8, r0
    25ec:	9c010000 	stcls	0, cr0, [r1], {-0}
    25f0:	0000097d 	andeq	r0, r0, sp, ror r9
    25f4:	008d0c24 	addeq	r0, sp, r4, lsr #24
    25f8:	00099500 	andeq	r9, r9, r0, lsl #10
    25fc:	00089300 	andeq	r9, r8, r0, lsl #6
    2600:	50011c00 	andpl	r1, r1, r0, lsl #24
    2604:	011c3e01 	tsteq	ip, r1, lsl #28
    2608:	00320151 	eorseq	r0, r2, r1, asr r1
    260c:	008d1824 	addeq	r1, sp, r4, lsr #16
    2610:	00099500 	andeq	r9, r9, r0, lsl #10
    2614:	0008ab00 	andeq	sl, r8, r0, lsl #22
    2618:	50011c00 	andpl	r1, r1, r0, lsl #24
    261c:	011c3f01 	tsteq	ip, r1, lsl #30
    2620:	00320151 	eorseq	r0, r2, r1, asr r1
    2624:	008d2424 	addeq	r2, sp, r4, lsr #8
    2628:	00097d00 	andeq	r7, r9, r0, lsl #26
    262c:	0008bf00 	andeq	fp, r8, r0, lsl #30
    2630:	50011c00 	andpl	r1, r1, r0, lsl #24
    2634:	00047502 	andeq	r7, r4, r2, lsl #10
    2638:	008d4417 	addeq	r4, sp, r7, lsl r4
    263c:	00098900 	andeq	r8, r9, r0, lsl #18
    2640:	8d502400 	cfldrdhi	mvd2, [r0, #-0]
    2644:	097d0000 	ldmdbeq	sp!, {}^	; <UNPREDICTABLE>
    2648:	08dd0000 	ldmeq	sp, {}^	; <UNPREDICTABLE>
    264c:	011c0000 	tsteq	ip, r0
    2650:	e0750350 	rsbs	r0, r5, r0, asr r3
    2654:	70170000 	andsvc	r0, r7, r0
    2658:	8900008d 	stmdbhi	r0, {r0, r2, r3, r7}
    265c:	24000009 	strcs	r0, [r0], #-9
    2660:	00008d7c 	andeq	r8, r0, ip, ror sp
    2664:	0000097d 	andeq	r0, r0, sp, ror r9
    2668:	000008fb 	strdeq	r0, [r0], -fp
    266c:	0350011c 	cmpeq	r0, #7
    2670:	0000c475 	andeq	ip, r0, r5, ror r4
    2674:	008d9c17 	addeq	r9, sp, r7, lsl ip
    2678:	00098900 	andeq	r8, r9, r0, lsl #18
    267c:	8da82400 	cfstrshi	mvf2, [r8]
    2680:	097d0000 	ldmdbeq	sp!, {}^	; <UNPREDICTABLE>
    2684:	09190000 	ldmdbeq	r9, {}	; <UNPREDICTABLE>
    2688:	011c0000 	tsteq	ip, r0
    268c:	c8750350 	ldmdagt	r5!, {r4, r6, r8, r9}^
    2690:	c8170000 	ldmdagt	r7, {}	; <UNPREDICTABLE>
    2694:	8900008d 	stmdbhi	r0, {r0, r2, r3, r7}
    2698:	24000009 	strcs	r0, [r0], #-9
    269c:	00008dd4 	ldrdeq	r8, [r0], -r4
    26a0:	0000097d 	andeq	r0, r0, sp, ror r9
    26a4:	00000937 	andeq	r0, r0, r7, lsr r9
    26a8:	0350011c 	cmpeq	r0, #7
    26ac:	0000e875 	andeq	lr, r0, r5, ror r8
    26b0:	008df017 	addeq	pc, sp, r7, lsl r0	; <UNPREDICTABLE>
    26b4:	00098900 	andeq	r8, r9, r0, lsl #18
    26b8:	8dfc2400 	cfldrdhi	mvd2, [ip]
    26bc:	097d0000 	ldmdbeq	sp!, {}^	; <UNPREDICTABLE>
    26c0:	09550000 	ldmdbeq	r5, {}^	; <UNPREDICTABLE>
    26c4:	011c0000 	tsteq	ip, r0
    26c8:	cc750350 	ldclgt	3, cr0, [r5], #-320	; 0xfffffec0
    26cc:	1c170000 	ldcne	0, cr0, [r7], {-0}
    26d0:	8900008e 	stmdbhi	r0, {r1, r2, r3, r7}
    26d4:	24000009 	strcs	r0, [r0], #-9
    26d8:	00008e28 	andeq	r8, r0, r8, lsr #28
    26dc:	0000097d 	andeq	r0, r0, sp, ror r9
    26e0:	00000973 	andeq	r0, r0, r3, ror r9
    26e4:	0350011c 	cmpeq	r0, #7
    26e8:	0000e075 	andeq	lr, r0, r5, ror r0
    26ec:	008e4817 	addeq	r4, lr, r7, lsl r8
    26f0:	00098900 	andeq	r8, r9, r0, lsl #18
    26f4:	ce250000 	cdpgt	0, 2, cr0, cr5, cr0, {0}
    26f8:	ce000005 	cdpgt	0, 0, cr0, cr0, cr5, {0}
    26fc:	02000005 	andeq	r0, r0, #5, 0
    2700:	03250aad 			; <UNDEFINED> instruction: 0x03250aad
    2704:	03000003 	movweq	r0, #3
    2708:	02000003 	andeq	r0, r0, #3, 0
    270c:	ef2506a1 	svc	0x002506a1
    2710:	ef000008 	svc	0x00000008
    2714:	04000008 	streq	r0, [r0], #-8
    2718:	bb000619 	bllt	3f84 <__code_start__-0x407c>
    271c:	04000003 	streq	r0, [r0], #-3
    2720:	000d1500 	andeq	r1, sp, r0, lsl #10
    2724:	1c010400 	cfstrsne	mvf0, [r1], {-0}
    2728:	0c000001 	stceq	0, cr0, [r0], {1}
    272c:	00000ae6 	andeq	r0, r0, r6, ror #21
    2730:	00000381 	andeq	r0, r0, r1, lsl #7
    2734:	00008f88 	andeq	r8, r0, r8, lsl #31
    2738:	000000e8 	andeq	r0, r0, r8, ror #1
    273c:	00001145 	andeq	r1, r0, r5, asr #2
    2740:	69050402 	stmdbvs	r5, {r1, sl}
    2744:	0300746e 	movweq	r7, #1134	; 0x46e
    2748:	008a0704 	addeq	r0, sl, r4, lsl #14
    274c:	2c040000 	stccs	0, cr0, [r4], {-0}
    2750:	03000000 	movweq	r0, #0
    2754:	003a0601 	eorseq	r0, sl, r1, lsl #12
    2758:	02030000 	andeq	r0, r3, #0, 0
    275c:	00010905 	andeq	r0, r1, r5, lsl #18
    2760:	05040300 	streq	r0, [r4, #-768]	; 0xfffffd00
    2764:	000000f4 	strdeq	r0, [r0], -r4
    2768:	ef050803 	svc	0x00050803
    276c:	03000000 	movweq	r0, #0
    2770:	00380801 	eorseq	r0, r8, r1, lsl #16
    2774:	02030000 	andeq	r0, r3, #0, 0
    2778:	00005307 	andeq	r5, r0, r7, lsl #6
    277c:	01130500 	tsteq	r3, r0, lsl #10
    2780:	34030000 	strcc	r0, [r3], #-0
    2784:	00006e19 	andeq	r6, r0, r9, lsl lr
    2788:	07040300 	streq	r0, [r4, -r0, lsl #6]
    278c:	00000085 	andeq	r0, r0, r5, lsl #1
    2790:	80070803 	andhi	r0, r7, r3, lsl #16
    2794:	06000000 	streq	r0, [r0], -r0
    2798:	00000025 	andeq	r0, r0, r5, lsr #32
    279c:	0000008b 	andeq	r0, r0, fp, lsl #1
    27a0:	00002507 	andeq	r2, r0, r7, lsl #10
    27a4:	fd080000 	stc2	0, cr0, [r8, #-0]
    27a8:	02000000 	andeq	r0, r0, #0, 0
    27ac:	00970e1c 	addseq	r0, r7, ip, lsl lr
    27b0:	04090000 	streq	r0, [r9], #-0
    27b4:	0000007c 	andeq	r0, r0, ip, ror r0
    27b8:	00002506 	andeq	r2, r0, r6, lsl #10
    27bc:	0000ac00 	andeq	sl, r0, r0, lsl #24
    27c0:	00ac0700 	adceq	r0, ip, r0, lsl #14
    27c4:	09000000 	stmdbeq	r0, {}	; <UNPREDICTABLE>
    27c8:	0000b904 	andeq	fp, r0, r4, lsl #18
    27cc:	08010300 	stmdaeq	r1, {r8, r9}
    27d0:	00000041 	andeq	r0, r0, r1, asr #32
    27d4:	0000b204 	andeq	fp, r0, r4, lsl #4
    27d8:	03bc0800 			; <UNDEFINED> instruction: 0x03bc0800
    27dc:	21020000 	mrscs	r0, (UNDEF: 2)
    27e0:	0000ca0e 	andeq	ip, r0, lr, lsl #20
    27e4:	9d040900 	vstrls.16	s0, [r4, #-0]	; <UNPREDICTABLE>
    27e8:	0a000000 	beq	27f0 <__code_start__-0x5810>
    27ec:	00540107 	subseq	r0, r4, r7, lsl #2
    27f0:	0c040000 	stceq	0, cr0, [r4], {-0}
    27f4:	00010f0e 	andeq	r0, r1, lr, lsl #30
    27f8:	084f0b00 	stmdaeq	pc, {r8, r9, fp}^	; <UNPREDICTABLE>
    27fc:	0b000000 	bleq	2804 <__code_start__-0x57fc>
    2800:	000006a2 	andeq	r0, r0, r2, lsr #13
    2804:	06fd0b01 	ldrbteq	r0, [sp], r1, lsl #22
    2808:	0b040000 	bleq	102810 <__bss_end__+0xf8f08>
    280c:	0000070c 	andeq	r0, r0, ip, lsl #14
    2810:	071b0b05 	ldreq	r0, [fp, -r5, lsl #22]
    2814:	0b060000 	bleq	18281c <__bss_end__+0x178f14>
    2818:	0000072a 	andeq	r0, r0, sl, lsr #14
    281c:	07390b07 	ldreq	r0, [r9, -r7, lsl #22]!
    2820:	0b030000 	bleq	c2828 <__bss_end__+0xb8f20>
    2824:	00000748 	andeq	r0, r0, r8, asr #14
    2828:	be050002 	cdplt	0, 0, cr0, cr5, cr2, {0}
    282c:	0400000a 	streq	r0, [r0], #-10
    2830:	00d00315 	sbcseq	r0, r0, r5, lsl r3
    2834:	dc0c0000 	stcle	0, cr0, [ip], {-0}
    2838:	0100000a 	tsteq	r0, sl
    283c:	0033170e 	eorseq	r1, r3, lr, lsl #14
    2840:	00000000 	andeq	r0, r0, r0
    2844:	6b0c2020 	blvs	30a8cc <__bss_end__+0x300fc4>
    2848:	0100000a 	tsteq	r0, sl
    284c:	0033170f 	eorseq	r1, r3, pc, lsl #14
    2850:	001c0000 	andseq	r0, ip, r0
    2854:	5b0c2020 	blpl	30a8dc <__bss_end__+0x300fd4>
    2858:	0100000a 	tsteq	r0, sl
    285c:	00331710 	eorseq	r1, r3, r0, lsl r7
    2860:	00280000 	eoreq	r0, r8, r0
    2864:	d20c2020 	andle	r2, ip, #32, 0
    2868:	0100000a 	tsteq	r0, sl
    286c:	00331711 	eorseq	r1, r3, r1, lsl r7
    2870:	00340000 	eorseq	r0, r4, r0
    2874:	880d2020 	stmdahi	sp, {r5, sp}
    2878:	0100000a 	tsteq	r0, sl
    287c:	00250543 	eoreq	r0, r5, r3, asr #10
    2880:	90500000 	subsls	r0, r0, r0
    2884:	00200000 	eoreq	r0, r0, r0
    2888:	9c010000 	stcls	0, cr0, [r1], {-0}
    288c:	0000019d 	muleq	r0, sp, r1
    2890:	6e69700e 	cdpvs	0, 6, cr7, cr9, cr14, {0}
    2894:	18430100 	stmdane	r3, {r8}^
    2898:	0000002c 	andeq	r0, r0, ip, lsr #32
    289c:	00000c7c 	andeq	r0, r0, ip, ror ip
    28a0:	00000c78 	andeq	r0, r0, r8, ror ip
    28a4:	0090600f 	addseq	r6, r0, pc
    28a8:	0003a600 	andeq	sl, r3, r0, lsl #12
    28ac:	50011000 	andpl	r1, r1, r0
    28b0:	00340c05 	eorseq	r0, r4, r5, lsl #24
    28b4:	00002020 	andeq	r2, r0, r0, lsr #32
    28b8:	000a9211 	andeq	r9, sl, r1, lsl r2
    28bc:	063e0100 	ldrteq	r0, [lr], -r0, lsl #2
    28c0:	00009040 	andeq	r9, r0, r0, asr #32
    28c4:	00000010 	andeq	r0, r0, r0, lsl r0
    28c8:	01de9c01 	bicseq	r9, lr, r1, lsl #24
    28cc:	700e0000 	andvc	r0, lr, r0
    28d0:	01006e69 	tsteq	r0, r9, ror #28
    28d4:	002c1e3e 	eoreq	r1, ip, lr, lsr lr
    28d8:	0c9e0000 	ldceq	0, cr0, [lr], {0}
    28dc:	0c9a0000 	ldceq	0, cr0, [sl], {0}
    28e0:	4c0f0000 	stcmi	0, cr0, [pc], {-0}
    28e4:	08000090 	stmdaeq	r0, {r4, r7}
    28e8:	10000003 	andne	r0, r0, r3
    28ec:	f3035001 	vhadd.u8	d5, d3, d1
    28f0:	01105001 	tsteq	r0, r1
    28f4:	00300151 	eorseq	r0, r0, r1, asr r1
    28f8:	0a7d1100 	beq	1f46d00 <__bss_end__+0x1f3d3f8>
    28fc:	32010000 	andcc	r0, r1, #0, 0
    2900:	00902406 	addseq	r2, r0, r6, lsl #8
    2904:	00001c00 	andeq	r1, r0, r0, lsl #24
    2908:	399c0100 	ldmibcc	ip, {r8}
    290c:	0e000002 	cdpeq	0, 0, cr0, cr0, cr2, {0}
    2910:	006e6970 	rsbeq	r6, lr, r0, ror r9
    2914:	2c1a3201 	lfmcs	f3, 4, [sl], {1}
    2918:	c7000000 	strgt	r0, [r0, -r0]
    291c:	bf00000c 	svclt	0x0000000c
    2920:	0e00000c 	cdpeq	0, 0, cr0, cr0, cr12, {0}
    2924:	32010076 	andcc	r0, r1, #118, 0	; 0x76
    2928:	00002c28 	andeq	r2, r0, r8, lsr #24
    292c:	000d0900 	andeq	r0, sp, r0, lsl #18
    2930:	000d0100 	andeq	r0, sp, r0, lsl #2
    2934:	90341200 	eorsls	r1, r4, r0, lsl #4
    2938:	02800000 	addeq	r0, r0, #0, 0
    293c:	022f0000 	eoreq	r0, pc, #0, 0
    2940:	01100000 	tsteq	r0, r0
    2944:	01f30350 	mvnseq	r0, r0, asr r3
    2948:	3c130050 	ldccc	0, cr0, [r3], {80}	; 0x50
    294c:	39000090 	stmdbcc	r0, {r4, r7}
    2950:	00000002 	andeq	r0, r0, r2
    2954:	000aa111 	andeq	sl, sl, r1, lsl r1
    2958:	062d0100 	strteq	r0, [sp], -r0, lsl #2
    295c:	00009008 	andeq	r9, r0, r8
    2960:	0000001c 	andeq	r0, r0, ip, lsl r0
    2964:	02809c01 	addeq	r9, r0, #256	; 0x100
    2968:	700e0000 	andvc	r0, lr, r0
    296c:	01006e69 	tsteq	r0, r9, ror #28
    2970:	002c1c2d 	eoreq	r1, ip, sp, lsr #24
    2974:	0d470000 	stcleq	0, cr0, [r7, #-0]
    2978:	0d430000 	stcleq	0, cr0, [r3, #-0]
    297c:	1c0f0000 	stcne	0, cr0, [pc], {-0}
    2980:	b2000090 	andlt	r0, r0, #144, 0	; 0x90
    2984:	10000003 	andne	r0, r0, r3
    2988:	0c055001 	stceq	0, cr5, [r5], {1}
    298c:	20200028 	eorcs	r0, r0, r8, lsr #32
    2990:	05510110 	ldrbeq	r0, [r1, #-272]	; 0xfffffef0
    2994:	5001f331 	andpl	pc, r1, r1, lsr r3	; <UNPREDICTABLE>
    2998:	11000024 	tstne	r0, r4, lsr #32
    299c:	00000af1 	strdeq	r0, [r0], -r1
    29a0:	ec062801 	stc	8, cr2, [r6], {1}
    29a4:	1c00008f 	stcne	0, cr0, [r0], {143}	; 0x8f
    29a8:	01000000 	mrseq	r0, (UNDEF: 0)
    29ac:	0002c79c 	muleq	r2, ip, r7
    29b0:	69700e00 	ldmdbvs	r0!, {r9, sl, fp}^
    29b4:	2801006e 	stmdacs	r1, {r1, r2, r3, r5, r6}
    29b8:	00002c1b 	andeq	r2, r0, fp, lsl ip
    29bc:	000d6c00 	andeq	r6, sp, r0, lsl #24
    29c0:	000d6800 	andeq	r6, sp, r0, lsl #16
    29c4:	90000f00 	andls	r0, r0, r0, lsl #30
    29c8:	03b20000 			; <UNDEFINED> instruction: 0x03b20000
    29cc:	01100000 	tsteq	r0, r0
    29d0:	1c0c0550 	cfstr32ne	mvfx0, [ip], {80}	; 0x50
    29d4:	10202000 	eorne	r2, r0, r0
    29d8:	31055101 	tstcc	r5, r1, lsl #2
    29dc:	245001f3 	ldrbcs	r0, [r0], #-499	; 0xfffffe0d
    29e0:	ae110000 	cdpge	0, 1, cr0, cr1, cr0, {0}
    29e4:	0100000a 	tsteq	r0, sl
    29e8:	8fdc0623 	svchi	0x00dc0623
    29ec:	00100000 	andseq	r0, r0, r0
    29f0:	9c010000 	stcls	0, cr0, [r1], {-0}
    29f4:	00000308 	andeq	r0, r0, r8, lsl #6
    29f8:	6e69700e 	cdpvs	0, 6, cr7, cr9, cr14, {0}
    29fc:	1f230100 	svcne	0x00230100
    2a00:	0000002c 	andeq	r0, r0, ip, lsr #32
    2a04:	00000d91 	muleq	r0, r1, sp
    2a08:	00000d8d 	andeq	r0, r0, sp, lsl #27
    2a0c:	008fe80f 	addeq	lr, pc, pc, lsl #16
    2a10:	00030800 	andeq	r0, r3, r0, lsl #16
    2a14:	50011000 	andpl	r1, r1, r0
    2a18:	5001f303 	andpl	pc, r1, r3, lsl #6
    2a1c:	01510110 	cmpeq	r1, r0, lsl r1
    2a20:	11000031 	tstne	r0, r1, lsr r0
    2a24:	000008ef 	andeq	r0, r0, pc, ror #17
    2a28:	88061401 	stmdahi	r6, {r0, sl, ip}
    2a2c:	5400008f 	strpl	r0, [r0], #-143	; 0xffffff71
    2a30:	01000000 	mrseq	r0, (UNDEF: 0)
    2a34:	0003a69c 	muleq	r3, ip, r6
    2a38:	69700e00 	ldmdbvs	r0!, {r9, sl, fp}^
    2a3c:	1401006e 	strne	r0, [r1], #-110	; 0xffffff92
    2a40:	00002c21 	andeq	r2, r0, r1, lsr #24
    2a44:	000db600 	andeq	fp, sp, r0, lsl #12
    2a48:	000db200 	andeq	fp, sp, r0, lsl #4
    2a4c:	76660e00 	strbtvc	r0, [r6], -r0, lsl #28
    2a50:	32140100 	andscc	r0, r4, #0
    2a54:	0000010f 	andeq	r0, r0, pc, lsl #2
    2a58:	00000dd8 	ldrdeq	r0, [r0], -r8
    2a5c:	00000dd4 	ldrdeq	r0, [r0], -r4
    2a60:	000aca14 	andeq	ip, sl, r4, lsl sl
    2a64:	0e150100 	mufeqs	f0, f5, f0
    2a68:	00000062 	andeq	r0, r0, r2, rrx
    2a6c:	00000dfb 	strdeq	r0, [r0], -fp
    2a70:	00000df9 	strdeq	r0, [r0], -r9
    2a74:	000a7514 	andeq	r7, sl, r4, lsl r5
    2a78:	0e160100 	mufeqs	f0, f6, f0
    2a7c:	00000062 	andeq	r0, r0, r2, rrx
    2a80:	00000e10 	andeq	r0, r0, r0, lsl lr
    2a84:	00000e0e 	andeq	r0, r0, lr, lsl #28
    2a88:	000a6514 	andeq	r6, sl, r4, lsl r5
    2a8c:	0e170100 	mufeqs	f0, f7, f0
    2a90:	00000062 	andeq	r0, r0, r2, rrx
    2a94:	00000e25 	andeq	r0, r0, r5, lsr #28
    2a98:	00000e23 	andeq	r0, r0, r3, lsr #28
    2a9c:	008fb412 	addeq	fp, pc, r2, lsl r4	; <UNPREDICTABLE>
    2aa0:	0003a600 	andeq	sl, r3, r0, lsl #12
    2aa4:	00039500 	andeq	r9, r3, r0, lsl #10
    2aa8:	50011000 	andpl	r1, r1, r0
    2aac:	00007702 	andeq	r7, r0, r2, lsl #14
    2ab0:	008fd40f 	addeq	sp, pc, pc, lsl #8
    2ab4:	0003b200 	andeq	fp, r3, r0, lsl #4
    2ab8:	50011000 	andpl	r1, r1, r0
    2abc:	00007702 	andeq	r7, r0, r2, lsl #14
    2ac0:	05ce1500 	strbeq	r1, [lr, #1280]	; 0x500
    2ac4:	05ce0000 	strbeq	r0, [lr]
    2ac8:	ad020000 	stcge	0, cr0, [r2, #-0]
    2acc:	0303150a 	movweq	r1, #13578	; 0x350a
    2ad0:	03030000 	movweq	r0, #12288	; 0x3000
    2ad4:	a1020000 	mrsge	r0, (UNDEF: 2)
    2ad8:	01490006 	cmpeq	r9, r6
    2adc:	00040000 	andeq	r0, r4, r0
    2ae0:	00000e54 	andeq	r0, r0, r4, asr lr
    2ae4:	011c0104 	tsteq	ip, r4, lsl #2
    2ae8:	1b0c0000 	blne	302af0 <__bss_end__+0x2f91e8>
    2aec:	8100000b 	tsthi	r0, fp
    2af0:	70000003 	andvc	r0, r0, r3
    2af4:	3c000090 	stccc	0, cr0, [r0], {144}	; 0x90
    2af8:	d2000000 	andle	r0, r0, #0, 0
    2afc:	02000012 	andeq	r0, r0, #18, 0
    2b00:	6e690504 	cdpvs	5, 6, cr0, cr9, cr4, {0}
    2b04:	04030074 	streq	r0, [r3], #-116	; 0xffffff8c
    2b08:	00008a07 	andeq	r8, r0, r7, lsl #20
    2b0c:	06010300 	streq	r0, [r1], -r0, lsl #6
    2b10:	0000003a 	andeq	r0, r0, sl, lsr r0
    2b14:	09050203 	stmdbeq	r5, {r0, r1, r9}
    2b18:	03000001 	movweq	r0, #1
    2b1c:	00f40504 	rscseq	r0, r4, r4, lsl #10
    2b20:	08030000 	stmdaeq	r3, {}	; <UNPREDICTABLE>
    2b24:	0000ef05 	andeq	lr, r0, r5, lsl #30
    2b28:	08010300 	stmdaeq	r1, {r8, r9}
    2b2c:	00000038 	andeq	r0, r0, r8, lsr r0
    2b30:	53070203 	movwpl	r0, #29187	; 0x7203
    2b34:	03000000 	movweq	r0, #0
    2b38:	00850704 	addeq	r0, r5, r4, lsl #14
    2b3c:	08030000 	stmdaeq	r3, {}	; <UNPREDICTABLE>
    2b40:	00008007 	andeq	r8, r0, r7
    2b44:	00250400 	eoreq	r0, r5, r0, lsl #8
    2b48:	007a0000 	rsbseq	r0, sl, r0
    2b4c:	25050000 	strcs	r0, [r5, #-0]
    2b50:	00000000 	andeq	r0, r0, r0
    2b54:	0000fd06 	andeq	pc, r0, r6, lsl #26
    2b58:	0e1c0200 	cdpeq	2, 1, cr0, cr12, cr0, {0}
    2b5c:	00000086 	andeq	r0, r0, r6, lsl #1
    2b60:	006b0407 	rsbeq	r0, fp, r7, lsl #8
    2b64:	25040000 	strcs	r0, [r4, #-0]
    2b68:	9b000000 	blls	2b70 <__code_start__-0x5490>
    2b6c:	05000000 	streq	r0, [r0, #-0]
    2b70:	0000009b 	muleq	r0, fp, r0
    2b74:	a8040700 	stmdage	r4, {r8, r9, sl}
    2b78:	03000000 	movweq	r0, #0
    2b7c:	00410801 	subeq	r0, r1, r1, lsl #16
    2b80:	a1080000 	mrsge	r0, (UNDEF: 8)
    2b84:	06000000 	streq	r0, [r0], -r0
    2b88:	000003bc 			; <UNDEFINED> instruction: 0x000003bc
    2b8c:	b90e2102 	stmdblt	lr, {r1, r8, sp}
    2b90:	07000000 	streq	r0, [r0, -r0]
    2b94:	00008c04 	andeq	r8, r0, r4, lsl #24
    2b98:	007a0900 	rsbseq	r0, sl, r0, lsl #18
    2b9c:	06010000 	streq	r0, [r1], -r0
    2ba0:	00030507 	andeq	r0, r3, r7, lsl #10
    2ba4:	0a000095 	beq	2e00 <__code_start__-0x5200>
    2ba8:	00000b0e 	andeq	r0, r0, lr, lsl #22
    2bac:	9c060b01 			; <UNDEFINED> instruction: 0x9c060b01
    2bb0:	10000090 	mulne	r0, r0, r0
    2bb4:	01000000 	mrseq	r0, (UNDEF: 0)
    2bb8:	0000f19c 	muleq	r0, ip, r1
    2bbc:	70660b00 	rsbvc	r0, r6, r0, lsl #22
    2bc0:	190b0100 	stmdbne	fp, {r8}
    2bc4:	00000086 	andeq	r0, r0, r6, lsl #1
    2bc8:	0c005001 	stceq	0, cr5, [r0], {1}
    2bcc:	00000b2a 	andeq	r0, r0, sl, lsr #22
    2bd0:	84060801 	strhi	r0, [r6], #-2049	; 0xfffff7ff
    2bd4:	18000090 	stmdane	r0, {r4, r7}
    2bd8:	01000000 	mrseq	r0, (UNDEF: 0)
    2bdc:	0afd0d9c 	beq	fff46254 <__bss_end__+0xfff3c94c>
    2be0:	03010000 	movweq	r0, #4096	; 0x1000
    2be4:	0000250c 	andeq	r2, r0, ip, lsl #10
    2be8:	00907000 	addseq	r7, r0, r0
    2bec:	00001400 	andeq	r1, r0, r0, lsl #8
    2bf0:	409c0100 	addsmi	r0, ip, r0, lsl #2
    2bf4:	0e000001 	cdpeq	0, 0, cr0, cr0, cr1, {0}
    2bf8:	03010063 	movweq	r0, #4195	; 0x1063
    2bfc:	00002521 	andeq	r2, r0, r1, lsr #10
    2c00:	000e3c00 	andeq	r3, lr, r0, lsl #24
    2c04:	000e3800 	andeq	r3, lr, r0, lsl #16
    2c08:	907c0f00 	rsbsls	r0, ip, r0, lsl #30
    2c0c:	01400000 	mrseq	r0, (UNDEF: 64)
    2c10:	01100000 	tsteq	r0, r0
    2c14:	00740250 	rsbseq	r0, r4, r0, asr r2
    2c18:	cd110000 	ldcgt	0, cr0, [r1, #-0]
    2c1c:	cd000009 	stcgt	0, cr0, [r0, #-36]	; 0xffffffdc
    2c20:	02000009 	andeq	r0, r0, #9, 0
    2c24:	3700063b 	smladxcc	r0, fp, r6, r0
    2c28:	04000001 	streq	r0, [r0], #-1
    2c2c:	000f6300 	andeq	r6, pc, r0, lsl #6
    2c30:	1c010400 	cfstrsne	mvf0, [r1], {-0}
    2c34:	0c000001 	stceq	0, cr0, [r0], {1}
    2c38:	00000b39 	andeq	r0, r0, r9, lsr fp
    2c3c:	00000381 	andeq	r0, r0, r1, lsl #7
    2c40:	000090ac 	andeq	r9, r0, ip, lsr #1
    2c44:	00000034 	andeq	r0, r0, r4, lsr r0
    2c48:	0000137c 	andeq	r1, r0, ip, ror r3
    2c4c:	69050402 	stmdbvs	r5, {r1, sl}
    2c50:	0300746e 	movweq	r7, #1134	; 0x46e
    2c54:	008a0704 	addeq	r0, sl, r4, lsl #14
    2c58:	01030000 	mrseq	r0, (UNDEF: 3)
    2c5c:	00003a06 	andeq	r3, r0, r6, lsl #20
    2c60:	05020300 	streq	r0, [r2, #-768]	; 0xfffffd00
    2c64:	00000109 	andeq	r0, r0, r9, lsl #2
    2c68:	f4050403 	vst3.8	{d0-d2}, [r5], r3
    2c6c:	03000000 	movweq	r0, #0
    2c70:	00ef0508 	rsceq	r0, pc, r8, lsl #10
    2c74:	01030000 	mrseq	r0, (UNDEF: 3)
    2c78:	00003808 	andeq	r3, r0, r8, lsl #16
    2c7c:	07020300 	streq	r0, [r2, -r0, lsl #6]
    2c80:	00000053 	andeq	r0, r0, r3, asr r0
    2c84:	85070403 	strhi	r0, [r7, #-1027]	; 0xfffffbfd
    2c88:	03000000 	movweq	r0, #0
    2c8c:	00800708 	addeq	r0, r0, r8, lsl #14
    2c90:	25040000 	strcs	r0, [r4, #-0]
    2c94:	7a000000 	bvc	2c9c <__code_start__-0x5364>
    2c98:	05000000 	streq	r0, [r0, #-0]
    2c9c:	00000025 	andeq	r0, r0, r5, lsr #32
    2ca0:	00fd0600 	rscseq	r0, sp, r0, lsl #12
    2ca4:	1c020000 	stcne	0, cr0, [r2], {-0}
    2ca8:	0000860e 	andeq	r8, r0, lr, lsl #12
    2cac:	6b040700 	blvs	1048b4 <__bss_end__+0xfafac>
    2cb0:	04000000 	streq	r0, [r0], #-0
    2cb4:	00000025 	andeq	r0, r0, r5, lsr #32
    2cb8:	0000009b 	muleq	r0, fp, r0
    2cbc:	00009b05 	andeq	r9, r0, r5, lsl #22
    2cc0:	04070000 	streq	r0, [r7], #-0
    2cc4:	000000a8 	andeq	r0, r0, r8, lsr #1
    2cc8:	41080103 	tstmi	r8, r3, lsl #2
    2ccc:	08000000 	stmdaeq	r0, {}	; <UNPREDICTABLE>
    2cd0:	000000a1 	andeq	r0, r0, r1, lsr #1
    2cd4:	0003bc06 	andeq	fp, r3, r6, lsl #24
    2cd8:	0e210200 	cdpeq	2, 2, cr0, cr1, cr0, {0}
    2cdc:	000000b9 	strheq	r0, [r0], -r9
    2ce0:	008c0407 	addeq	r0, ip, r7, lsl #8
    2ce4:	5b090000 	blpl	242cec <__bss_end__+0x2393e4>
    2ce8:	01000004 	tsteq	r0, r4
    2cec:	01340704 	teqeq	r4, r4, lsl #14
    2cf0:	90ac0000 	adcls	r0, ip, r0
    2cf4:	00340000 	eorseq	r0, r4, r0
    2cf8:	9c010000 	stcls	0, cr0, [r1], {-0}
    2cfc:	00000134 	andeq	r0, r0, r4, lsr r1
    2d00:	000b470a 	andeq	r4, fp, sl, lsl #14
    2d04:	15040100 	strne	r0, [r4, #-256]	; 0xffffff00
    2d08:	00000134 	andeq	r0, r0, r4, lsr r1
    2d0c:	730b5001 	movwvc	r5, #45057	; 0xb001
    2d10:	01006372 	tsteq	r0, r2, ror r3
    2d14:	009b2704 	addseq	r2, fp, r4, lsl #14
    2d18:	0e5e0000 	cdpeq	0, 5, cr0, cr14, cr0, {0}
    2d1c:	0e5a0000 	cdpeq	0, 5, cr0, cr10, cr0, {0}
    2d20:	730c0000 	movwvc	r0, #49152	; 0xc000
    2d24:	05010031 	streq	r0, [r1, #-49]	; 0xffffffcf
    2d28:	0001340b 	andeq	r3, r1, fp, lsl #8
    2d2c:	000e8900 	andeq	r8, lr, r0, lsl #18
    2d30:	000e7f00 	andeq	r7, lr, r0, lsl #30
    2d34:	32730c00 	rsbscc	r0, r3, #0, 24
    2d38:	11060100 	mrsne	r0, (UNDEF: 22)
    2d3c:	0000009b 	muleq	r0, fp, r0
    2d40:	00000ece 	andeq	r0, r0, lr, asr #29
    2d44:	00000eca 	andeq	r0, r0, sl, asr #29
    2d48:	0100630c 	tsteq	r0, ip, lsl #6
    2d4c:	00a10a07 	adceq	r0, r1, r7, lsl #20
    2d50:	0ef20000 	cdpeq	0, 15, cr0, cr2, cr0, {0}
    2d54:	0eee0000 	cdpeq	0, 14, cr0, cr14, cr0, {0}
    2d58:	07000000 	streq	r0, [r0, -r0]
    2d5c:	0000a104 	andeq	sl, r0, r4, lsl #2
    2d60:	014e0000 	mrseq	r0, (UNDEF: 78)
    2d64:	00040000 	andeq	r0, r4, r0
    2d68:	00001019 	andeq	r1, r0, r9, lsl r0
    2d6c:	011c0104 	tsteq	ip, r4, lsl #2
    2d70:	530c0000 	movwpl	r0, #49152	; 0xc000
    2d74:	8100000b 	tsthi	r0, fp
    2d78:	28000003 	stmdacs	r0, {r0, r1}
    2d7c:	00000000 	andeq	r0, r0, r0
    2d80:	72000000 	andvc	r0, r0, #0, 0
    2d84:	02000014 	andeq	r0, r0, #20, 0
    2d88:	6e690504 	cdpvs	5, 6, cr0, cr9, cr4, {0}
    2d8c:	4c030074 	stcmi	0, cr0, [r3], {116}	; 0x74
    2d90:	0300000b 	movweq	r0, #11
    2d94:	003817d1 	ldrsbteq	r1, [r8], -r1
    2d98:	04040000 	streq	r0, [r4], #-0
    2d9c:	00008a07 	andeq	r8, r0, r7, lsl #20
    2da0:	06010400 	streq	r0, [r1], -r0, lsl #8
    2da4:	0000003a 	andeq	r0, r0, sl, lsr r0
    2da8:	09050204 	stmdbeq	r5, {r2, r9}
    2dac:	04000001 	streq	r0, [r0], #-1
    2db0:	00f40504 	rscseq	r0, r4, r4, lsl #10
    2db4:	08040000 	stmdaeq	r4, {}	; <UNPREDICTABLE>
    2db8:	0000ef05 	andeq	lr, r0, r5, lsl #30
    2dbc:	08010400 	stmdaeq	r1, {sl}
    2dc0:	00000038 	andeq	r0, r0, r8, lsr r0
    2dc4:	00005b05 	andeq	r5, r0, r5, lsl #22
    2dc8:	07020400 	streq	r0, [r2, -r0, lsl #8]
    2dcc:	00000053 	andeq	r0, r0, r3, asr r0
    2dd0:	85070404 	strhi	r0, [r7, #-1028]	; 0xfffffbfc
    2dd4:	04000000 	streq	r0, [r0], #-0
    2dd8:	00800708 	addeq	r0, r0, r8, lsl #14
    2ddc:	25060000 	strcs	r0, [r6, #-0]
    2de0:	8b000000 	blhi	2de8 <__code_start__-0x5218>
    2de4:	07000000 	streq	r0, [r0, -r0]
    2de8:	00000025 	andeq	r0, r0, r5, lsr #32
    2dec:	00fd0800 	rscseq	r0, sp, r0, lsl #16
    2df0:	1c020000 	stcne	0, cr0, [r2], {-0}
    2df4:	0000970e 	andeq	r9, r0, lr, lsl #14
    2df8:	7c040900 			; <UNDEFINED> instruction: 0x7c040900
    2dfc:	06000000 	streq	r0, [r0], -r0
    2e00:	00000025 	andeq	r0, r0, r5, lsr #32
    2e04:	000000ac 	andeq	r0, r0, ip, lsr #1
    2e08:	0000ac07 	andeq	sl, r0, r7, lsl #24
    2e0c:	04090000 	streq	r0, [r9], #-0
    2e10:	000000b9 	strheq	r0, [r0], -r9
    2e14:	41080104 	tstmi	r8, r4, lsl #2
    2e18:	05000000 	streq	r0, [r0, #-0]
    2e1c:	000000b2 	strheq	r0, [r0], -r2
    2e20:	0003bc08 	andeq	fp, r3, r8, lsl #24
    2e24:	0e210200 	cdpeq	2, 2, cr0, cr1, cr0, {0}
    2e28:	000000ca 	andeq	r0, r0, sl, asr #1
    2e2c:	009d0409 	addseq	r0, sp, r9, lsl #8
    2e30:	ab0a0000 	blge	282e38 <__bss_end__+0x279530>
    2e34:	01000004 	tsteq	r0, r4
    2e38:	00250504 	eoreq	r0, r5, r4, lsl #10
    2e3c:	90e00000 	rscls	r0, r0, r0
    2e40:	002c0000 	eoreq	r0, ip, r0
    2e44:	9c010000 	stcls	0, cr0, [r1], {-0}
    2e48:	0000014b 	andeq	r0, r0, fp, asr #2
    2e4c:	31735f0b 	cmncc	r3, fp, lsl #30
    2e50:	19040100 	stmdbne	r4, {r8}
    2e54:	000000ac 	andeq	r0, r0, ip, lsr #1
    2e58:	00000f14 	andeq	r0, r0, r4, lsl pc
    2e5c:	00000f10 	andeq	r0, r0, r0, lsl pc
    2e60:	32735f0b 	rsbscc	r5, r3, #11, 30	; 0x2c
    2e64:	2a040100 	bcs	10326c <__bss_end__+0xf9964>
    2e68:	000000ac 	andeq	r0, r0, ip, lsr #1
    2e6c:	00000f39 	andeq	r0, r0, r9, lsr pc
    2e70:	00000f35 	andeq	r0, r0, r5, lsr pc
    2e74:	01006e0b 	tsteq	r0, fp, lsl #28
    2e78:	002c3604 	eoreq	r3, ip, r4, lsl #12
    2e7c:	0f600000 	svceq	0x00600000
    2e80:	0f5a0000 	svceq	0x005a0000
    2e84:	730c0000 	movwvc	r0, #49152	; 0xc000
    2e88:	05010031 	streq	r0, [r1, #-49]	; 0xffffffcf
    2e8c:	00014b1a 	andeq	r4, r1, sl, lsl fp
    2e90:	000f9300 	andeq	r9, pc, r0, lsl #6
    2e94:	000f8b00 	andeq	r8, pc, r0, lsl #22
    2e98:	32730c00 	rsbscc	r0, r3, #0, 24
    2e9c:	2c050100 	stfcss	f0, [r5], {-0}
    2ea0:	0000014b 	andeq	r0, r0, fp, asr #2
    2ea4:	00000fcf 	andeq	r0, r0, pc, asr #31
    2ea8:	00000fc9 	andeq	r0, r0, r9, asr #31
    2eac:	62040900 	andvs	r0, r4, #0, 18
    2eb0:	00000000 	andeq	r0, r0, r0

Disassembly of section .debug_abbrev:

00000000 <.debug_abbrev>:
       0:	25011101 	strcs	r1, [r1, #-257]	; 0xfffffeff
       4:	030b130e 	movweq	r1, #45838	; 0xb30e
       8:	110e1b0e 	tstne	lr, lr, lsl #22
       c:	10061201 	andne	r1, r6, r1, lsl #4
      10:	02000017 	andeq	r0, r0, #23, 0
      14:	0b0b0024 	bleq	2c00ac <__bss_end__+0x2b67a4>
      18:	08030b3e 	stmdaeq	r3, {r1, r2, r3, r4, r5, r8, r9, fp}
      1c:	24030000 	strcs	r0, [r3], #-0
      20:	3e0b0b00 	vmlacc.f64	d0, d11, d0
      24:	000e030b 	andeq	r0, lr, fp, lsl #6
      28:	00160400 	andseq	r0, r6, r0, lsl #8
      2c:	0b3a0e03 	bleq	e83840 <__bss_end__+0xe79f38>
      30:	0b390b3b 	bleq	e42d24 <__bss_end__+0xe3941c>
      34:	00001349 	andeq	r1, r0, r9, asr #6
      38:	27011505 	strcs	r1, [r1, -r5, lsl #10]
      3c:	01134919 	tsteq	r3, r9, lsl r9
      40:	06000013 			; <UNDEFINED> instruction: 0x06000013
      44:	13490005 	movtne	r0, #36869	; 0x9005
      48:	34070000 	strcc	r0, [r7], #-0
      4c:	3a0e0300 	bcc	380c54 <__bss_end__+0x37734c>
      50:	390b3b0b 	stmdbcc	fp, {r0, r1, r3, r8, r9, fp, ip, sp}
      54:	3f13490b 	svccc	0x0013490b
      58:	00193c19 	andseq	r3, r9, r9, lsl ip
      5c:	000f0800 	andeq	r0, pc, r0, lsl #16
      60:	13490b0b 	movtne	r0, #39691	; 0x9b0b
      64:	26090000 	strcs	r0, [r9], -r0
      68:	00134900 	andseq	r4, r3, r0, lsl #18
      6c:	012e0a00 			; <UNDEFINED> instruction: 0x012e0a00
      70:	0e03193f 			; <UNDEFINED> instruction: 0x0e03193f
      74:	0b3b0b3a 	bleq	ec2d64 <__bss_end__+0xeb945c>
      78:	19270b39 	stmdbne	r7!, {r0, r3, r4, r5, r8, r9, fp}
      7c:	06120111 			; <UNDEFINED> instruction: 0x06120111
      80:	42971840 	addsmi	r1, r7, #64, 16	; 0x400000
      84:	00130119 	andseq	r0, r3, r9, lsl r1
      88:	00340b00 	eorseq	r0, r4, r0, lsl #22
      8c:	0b3a0803 	bleq	e820a0 <__bss_end__+0xe78798>
      90:	0b390b3b 	bleq	e42d84 <__bss_end__+0xe3947c>
      94:	17021349 	strne	r1, [r2, -r9, asr #6]
      98:	001742b7 			; <UNDEFINED> instruction: 0x001742b7
      9c:	00340c00 	eorseq	r0, r4, r0, lsl #24
      a0:	13490e03 	movtne	r0, #40451	; 0x9e03
      a4:	18021934 	stmdane	r2, {r2, r4, r5, r8, fp, ip}
      a8:	890d0000 	stmdbhi	sp, {}	; <UNPREDICTABLE>
      ac:	11000182 	smlabbne	r0, r2, r1, r0
      b0:	00133101 	andseq	r3, r3, r1, lsl #2
      b4:	82890e00 	addhi	r0, r9, #0, 28
      b8:	01110101 	tsteq	r1, r1, lsl #2
      bc:	13011331 	movwne	r1, #4913	; 0x1331
      c0:	8a0f0000 	bhi	3c00c8 <__bss_end__+0x3b67c0>
      c4:	02000182 	andeq	r0, r0, #-2147483616	; 0x80000020
      c8:	18429118 	stmdane	r2, {r3, r4, r8, ip, pc}^
      cc:	01100000 	tsteq	r0, r0
      d0:	01134901 	tsteq	r3, r1, lsl #18
      d4:	11000013 	tstne	r0, r3, lsl r0
      d8:	13490021 	movtne	r0, #36897	; 0x9021
      dc:	00000b2f 	andeq	r0, r0, pc, lsr #22
      e0:	3f012e12 	svccc	0x00012e12
      e4:	3a0e0319 	bcc	380d50 <__bss_end__+0x377448>
      e8:	390b3b0b 	stmdbcc	fp, {r0, r1, r3, r8, r9, fp, ip, sp}
      ec:	4919270b 	ldmdbmi	r9, {r0, r1, r3, r8, r9, sl, sp}
      f0:	12011113 	andne	r1, r1, #-1073741820	; 0xc0000004
      f4:	97184006 	ldrls	r4, [r8, -r6]
      f8:	13011942 	movwne	r1, #6466	; 0x1942
      fc:	05130000 	ldreq	r0, [r3, #-0]
     100:	3a080300 	bcc	200d08 <__bss_end__+0x1f7400>
     104:	390b3b0b 	stmdbcc	fp, {r0, r1, r3, r8, r9, fp, ip, sp}
     108:	0213490b 	andseq	r4, r3, #180224	; 0x2c000
     10c:	1742b717 	smlaldne	fp, r2, r7, r7
     110:	34140000 	ldrcc	r0, [r4], #-0
     114:	3a0e0300 	bcc	380d1c <__bss_end__+0x377414>
     118:	390b3b0b 	stmdbcc	fp, {r0, r1, r3, r8, r9, fp, ip, sp}
     11c:	0213490b 	andseq	r4, r3, #180224	; 0x2c000
     120:	1742b717 	smlaldne	fp, r2, r7, r7
     124:	89150000 	ldmdbhi	r5, {}	; <UNPREDICTABLE>
     128:	11010182 	smlabbne	r1, r2, r1, r0
     12c:	00133101 	andseq	r3, r3, r1, lsl #2
     130:	002e1600 	eoreq	r1, lr, r0, lsl #12
     134:	193c193f 	ldmdbne	ip!, {r0, r1, r2, r3, r4, r5, r8, fp, ip}
     138:	0e030e6e 	cdpeq	14, 0, cr0, cr3, cr14, {3}
     13c:	0b3b0b3a 	bleq	ec2e2c <__bss_end__+0xeb9524>
     140:	00000b39 	andeq	r0, r0, r9, lsr fp
     144:	01110100 	tsteq	r1, r0, lsl #2
     148:	0b130e25 	bleq	4c39e4 <__bss_end__+0x4ba0dc>
     14c:	0e1b0e03 	cdpeq	14, 1, cr0, cr11, cr3, {0}
     150:	06120111 			; <UNDEFINED> instruction: 0x06120111
     154:	00001710 	andeq	r1, r0, r0, lsl r7
     158:	0b002402 	bleq	9168 <__code_end__+0x5c>
     15c:	030b3e0b 	movweq	r3, #48651	; 0xbe0b
     160:	03000008 	movweq	r0, #8
     164:	0b0b0024 	bleq	2c01fc <__bss_end__+0x2b68f4>
     168:	0e030b3e 	vmoveq.16	d3[0], r0
     16c:	15040000 	strne	r0, [r4, #-0]
     170:	49192701 	ldmdbmi	r9, {r0, r8, r9, sl, sp}
     174:	00130113 	andseq	r0, r3, r3, lsl r1
     178:	00050500 	andeq	r0, r5, r0, lsl #10
     17c:	00001349 	andeq	r1, r0, r9, asr #6
     180:	03003406 	movweq	r3, #1030	; 0x406
     184:	3b0b3a0e 	blcc	2ce9c4 <__bss_end__+0x2c50bc>
     188:	490b390b 	stmdbmi	fp, {r0, r1, r3, r8, fp, ip, sp}
     18c:	3c193f13 	ldccc	15, cr3, [r9], {19}
     190:	07000019 	smladeq	r0, r9, r0, r0
     194:	0b0b000f 	bleq	2c01d8 <__bss_end__+0x2b68d0>
     198:	00001349 	andeq	r1, r0, r9, asr #6
     19c:	49002608 	stmdbmi	r0, {r3, r9, sl, sp}
     1a0:	09000013 	stmdbeq	r0, {r0, r1, r4}
     1a4:	0b3e0104 	bleq	f805bc <__bss_end__+0xf76cb4>
     1a8:	13490b0b 	movtne	r0, #39691	; 0x9b0b
     1ac:	0b3b0b3a 	bleq	ec2e9c <__bss_end__+0xeb9594>
     1b0:	13010b39 	movwne	r0, #6969	; 0x1b39
     1b4:	280a0000 	stmdacs	sl, {}	; <UNPREDICTABLE>
     1b8:	1c0e0300 	stcne	3, cr0, [lr], {-0}
     1bc:	0b000006 	bleq	1dc <__code_start__-0x7e24>
     1c0:	193f012e 	ldmdbne	pc!, {r1, r2, r3, r5, r8}	; <UNPREDICTABLE>
     1c4:	0b3a0e03 	bleq	e839d8 <__bss_end__+0xe7a0d0>
     1c8:	0b390b3b 	bleq	e42ebc <__bss_end__+0xe395b4>
     1cc:	01111927 	tsteq	r1, r7, lsr #18
     1d0:	18400612 	stmdane	r0, {r1, r4, r9, sl}^
     1d4:	01194297 			; <UNDEFINED> instruction: 0x01194297
     1d8:	0c000013 	stceq	0, cr0, [r0], {19}
     1dc:	08030005 	stmdaeq	r3, {r0, r2}
     1e0:	0b3b0b3a 	bleq	ec2ed0 <__bss_end__+0xeb95c8>
     1e4:	13490b39 	movtne	r0, #39737	; 0x9b39
     1e8:	42b71702 	adcsmi	r1, r7, #524288	; 0x80000
     1ec:	0d000017 	stceq	0, cr0, [r0, #-92]	; 0xffffffa4
     1f0:	0e030034 	mcreq	0, 0, r0, cr3, cr4, {1}
     1f4:	19341349 	ldmdbne	r4!, {r0, r3, r6, r8, r9, ip}
     1f8:	00001802 	andeq	r1, r0, r2, lsl #16
     1fc:	0182890e 	orreq	r8, r2, lr, lsl #18
     200:	31011101 	tstcc	r1, r1, lsl #2
     204:	00130113 	andseq	r0, r3, r3, lsl r1
     208:	828a0f00 	addhi	r0, sl, #0, 30
     20c:	18020001 	stmdane	r2, {r0}
     210:	00184291 	mulseq	r8, r1, r2
     214:	82891000 	addhi	r1, r9, #0, 0
     218:	01110001 	tsteq	r1, r1
     21c:	00001331 	andeq	r1, r0, r1, lsr r3
     220:	49010111 	stmdbmi	r1, {r0, r4, r8}
     224:	00130113 	andseq	r0, r3, r3, lsl r1
     228:	00211200 	eoreq	r1, r1, r0, lsl #4
     22c:	0b2f1349 	bleq	bc4f58 <__bss_end__+0xbbb650>
     230:	34130000 	ldrcc	r0, [r3], #-0
     234:	3a080300 	bcc	200e3c <__bss_end__+0x1f7534>
     238:	390b3b0b 	stmdbcc	fp, {r0, r1, r3, r8, r9, fp, ip, sp}
     23c:	1c13490b 			; <UNDEFINED> instruction: 0x1c13490b
     240:	1400000b 	strne	r0, [r0], #-11
     244:	08030034 	stmdaeq	r3, {r2, r4, r5}
     248:	0b3b0b3a 	bleq	ec2f38 <__bss_end__+0xeb9630>
     24c:	13490b39 	movtne	r0, #39737	; 0x9b39
     250:	34150000 	ldrcc	r0, [r5], #-0
     254:	3a080300 	bcc	200e5c <__bss_end__+0x1f7554>
     258:	390b3b0b 	stmdbcc	fp, {r0, r1, r3, r8, r9, fp, ip, sp}
     25c:	0213490b 	andseq	r4, r3, #180224	; 0x2c000
     260:	1742b717 	smlaldne	fp, r2, r7, r7
     264:	0b160000 	bleq	58026c <__bss_end__+0x576964>
     268:	12011101 	andne	r1, r1, #1073741824	; 0x40000000
     26c:	00130106 	andseq	r0, r3, r6, lsl #2
     270:	002e1700 	eoreq	r1, lr, r0, lsl #14
     274:	193c193f 	ldmdbne	ip!, {r0, r1, r2, r3, r4, r5, r8, fp, ip}
     278:	0e030e6e 	cdpeq	14, 0, cr0, cr3, cr14, {3}
     27c:	0b3b0b3a 	bleq	ec2f6c <__bss_end__+0xeb9664>
     280:	00000b39 	andeq	r0, r0, r9, lsr fp
     284:	01110100 	tsteq	r1, r0, lsl #2
     288:	0b130e25 	bleq	4c3b24 <__bss_end__+0x4ba21c>
     28c:	0e1b0e03 	cdpeq	14, 1, cr0, cr11, cr3, {0}
     290:	06120111 			; <UNDEFINED> instruction: 0x06120111
     294:	00001710 	andeq	r1, r0, r0, lsl r7
     298:	03001602 	movweq	r1, #1538	; 0x602
     29c:	3b0b3a0e 	blcc	2ceadc <__bss_end__+0x2c51d4>
     2a0:	490b390b 	stmdbmi	fp, {r0, r1, r3, r8, fp, ip, sp}
     2a4:	03000013 	movweq	r0, #19
     2a8:	0e030113 	mcreq	1, 0, r0, cr3, cr3, {0}
     2ac:	0b3a0b0b 	bleq	e82ee0 <__bss_end__+0xe795d8>
     2b0:	13010b3b 	movwne	r0, #6971	; 0x1b3b
     2b4:	0d040000 	stceq	0, cr0, [r4, #-0]
     2b8:	490e0300 	stmdbmi	lr, {r8, r9}
     2bc:	340b3813 	strcc	r3, [fp], #-2067	; 0xfffff7ed
     2c0:	05000019 	streq	r0, [r0, #-25]	; 0xffffffe7
     2c4:	0b0b000f 	bleq	2c0308 <__bss_end__+0x2b6a00>
     2c8:	24060000 	strcs	r0, [r6], #-0
     2cc:	3e0b0b00 	vmlacc.f64	d0, d11, d0
     2d0:	0008030b 	andeq	r0, r8, fp, lsl #6
     2d4:	00240700 	eoreq	r0, r4, r0, lsl #14
     2d8:	0b3e0b0b 	bleq	f82f0c <__bss_end__+0xf79604>
     2dc:	00000e03 	andeq	r0, r0, r3, lsl #28
     2e0:	27011508 	strcs	r1, [r1, -r8, lsl #10]
     2e4:	01134919 	tsteq	r3, r9, lsl r9
     2e8:	09000013 	stmdbeq	r0, {r0, r1, r4}
     2ec:	13490005 	movtne	r0, #36869	; 0x9005
     2f0:	340a0000 	strcc	r0, [sl], #-0
     2f4:	3a0e0300 	bcc	380efc <__bss_end__+0x3775f4>
     2f8:	390b3b0b 	stmdbcc	fp, {r0, r1, r3, r8, r9, fp, ip, sp}
     2fc:	3f13490b 	svccc	0x0013490b
     300:	00193c19 	andseq	r3, r9, r9, lsl ip
     304:	000f0b00 	andeq	r0, pc, r0, lsl #22
     308:	13490b0b 	movtne	r0, #39691	; 0x9b0b
     30c:	260c0000 	strcs	r0, [ip], -r0
     310:	00134900 	andseq	r4, r3, r0, lsl #18
     314:	012e0d00 			; <UNDEFINED> instruction: 0x012e0d00
     318:	0e03193f 			; <UNDEFINED> instruction: 0x0e03193f
     31c:	0b3b0b3a 	bleq	ec300c <__bss_end__+0xeb9704>
     320:	19270b39 	stmdbne	r7!, {r0, r3, r4, r5, r8, r9, fp}
     324:	01111349 	tsteq	r1, r9, asr #6
     328:	18400612 	stmdane	r0, {r1, r4, r9, sl}^
     32c:	01194297 			; <UNDEFINED> instruction: 0x01194297
     330:	0e000013 	mcreq	0, 0, r0, cr0, cr3, {0}
     334:	08030005 	stmdaeq	r3, {r0, r2}
     338:	0b3b0b3a 	bleq	ec3028 <__bss_end__+0xeb9720>
     33c:	13490b39 	movtne	r0, #39737	; 0x9b39
     340:	00001802 	andeq	r1, r0, r2, lsl #16
     344:	0000180f 	andeq	r1, r0, pc, lsl #16
     348:	00341000 	eorseq	r1, r4, r0
     34c:	0b3a0803 	bleq	e82360 <__bss_end__+0xe78a58>
     350:	0b390b3b 	bleq	e43044 <__bss_end__+0xe3973c>
     354:	18021349 	stmdane	r2, {r0, r3, r6, r8, r9, ip}
     358:	34110000 	ldrcc	r0, [r1], #-0
     35c:	3a0e0300 	bcc	380f64 <__bss_end__+0x37765c>
     360:	390b3b0b 	stmdbcc	fp, {r0, r1, r3, r8, r9, fp, ip, sp}
     364:	0213490b 	andseq	r4, r3, #180224	; 0x2c000
     368:	12000018 	andne	r0, r0, #24, 0
     36c:	08030034 	stmdaeq	r3, {r2, r4, r5}
     370:	0b3b0b3a 	bleq	ec3060 <__bss_end__+0xeb9758>
     374:	13490b39 	movtne	r0, #39737	; 0x9b39
     378:	42b71702 	adcsmi	r1, r7, #524288	; 0x80000
     37c:	13000017 	movwne	r0, #23
     380:	01018289 	smlabbeq	r1, r9, r2, r8
     384:	13310111 	teqne	r1, #1073741828	; 0x40000004
     388:	00001301 	andeq	r1, r0, r1, lsl #6
     38c:	01828a14 	orreq	r8, r2, r4, lsl sl
     390:	91180200 	tstls	r8, r0, lsl #4
     394:	00001842 	andeq	r1, r0, r2, asr #16
     398:	01828915 	orreq	r8, r2, r5, lsl r9
     39c:	00011101 	andeq	r1, r1, r1, lsl #2
     3a0:	01011600 	tsteq	r1, r0, lsl #12
     3a4:	13011349 	movwne	r1, #4937	; 0x1349
     3a8:	21170000 	tstcs	r7, r0
     3ac:	2f134900 	svccs	0x00134900
     3b0:	18000005 	stmdane	r0, {r0, r2}
     3b4:	193f002e 	ldmdbne	pc!, {r1, r2, r3, r5}	; <UNPREDICTABLE>
     3b8:	0e6e193c 			; <UNDEFINED> instruction: 0x0e6e193c
     3bc:	0b3a0e03 	bleq	e83bd0 <__bss_end__+0xe7a2c8>
     3c0:	0b390b3b 	bleq	e430b4 <__bss_end__+0xe397ac>
     3c4:	01000000 	mrseq	r0, (UNDEF: 0)
     3c8:	0e250111 	mcreq	1, 1, r0, cr5, cr1, {0}
     3cc:	0e030b13 	vmoveq.32	d3[0], r0
     3d0:	01110e1b 	tsteq	r1, fp, lsl lr
     3d4:	17100612 			; <UNDEFINED> instruction: 0x17100612
     3d8:	24020000 	strcs	r0, [r2], #-0
     3dc:	3e0b0b00 	vmlacc.f64	d0, d11, d0
     3e0:	0008030b 	andeq	r0, r8, fp, lsl #6
     3e4:	00240300 	eoreq	r0, r4, r0, lsl #6
     3e8:	0b3e0b0b 	bleq	f8301c <__bss_end__+0xf79714>
     3ec:	00000e03 	andeq	r0, r0, r3, lsl #28
     3f0:	27011504 	strcs	r1, [r1, -r4, lsl #10]
     3f4:	01134919 	tsteq	r3, r9, lsl r9
     3f8:	05000013 	streq	r0, [r0, #-19]	; 0xffffffed
     3fc:	13490005 	movtne	r0, #36869	; 0x9005
     400:	34060000 	strcc	r0, [r6], #-0
     404:	3a0e0300 	bcc	38100c <__bss_end__+0x377704>
     408:	390b3b0b 	stmdbcc	fp, {r0, r1, r3, r8, r9, fp, ip, sp}
     40c:	3f13490b 	svccc	0x0013490b
     410:	00193c19 	andseq	r3, r9, r9, lsl ip
     414:	000f0700 	andeq	r0, pc, r0, lsl #14
     418:	13490b0b 	movtne	r0, #39691	; 0x9b0b
     41c:	26080000 	strcs	r0, [r8], -r0
     420:	00134900 	andseq	r4, r3, r0, lsl #18
     424:	00340900 	eorseq	r0, r4, r0, lsl #18
     428:	0b3a1347 	bleq	e8514c <__bss_end__+0xe7b844>
     42c:	0b390b3b 	bleq	e43120 <__bss_end__+0xe39818>
     430:	00001802 	andeq	r1, r0, r2, lsl #16
     434:	3f012e0a 	svccc	0x00012e0a
     438:	3a0e0319 	bcc	3810a4 <__bss_end__+0x37779c>
     43c:	390b3b0b 	stmdbcc	fp, {r0, r1, r3, r8, r9, fp, ip, sp}
     440:	4919270b 	ldmdbmi	r9, {r0, r1, r3, r8, r9, sl, sp}
     444:	12011113 	andne	r1, r1, #-1073741820	; 0xc0000004
     448:	96184006 	ldrls	r4, [r8], -r6
     44c:	00001942 	andeq	r1, r0, r2, asr #18
     450:	0300050b 	movweq	r0, #1291	; 0x50b
     454:	3b0b3a08 	blcc	2cec7c <__bss_end__+0x2c5374>
     458:	490b390b 	stmdbmi	fp, {r0, r1, r3, r8, fp, ip, sp}
     45c:	b7170213 			; <UNDEFINED> instruction: 0xb7170213
     460:	00001742 	andeq	r1, r0, r2, asr #14
     464:	01110100 	tsteq	r1, r0, lsl #2
     468:	0b130e25 	bleq	4c3d04 <__bss_end__+0x4ba3fc>
     46c:	0e1b0e03 	cdpeq	14, 1, cr0, cr11, cr3, {0}
     470:	06120111 			; <UNDEFINED> instruction: 0x06120111
     474:	00001710 	andeq	r1, r0, r0, lsl r7
     478:	0b002402 	bleq	9488 <__FUNCTION__.3985+0xb8>
     47c:	030b3e0b 	movweq	r3, #48651	; 0xbe0b
     480:	03000008 	movweq	r0, #8
     484:	0b0b0024 	bleq	2c051c <__bss_end__+0x2b6c14>
     488:	0e030b3e 	vmoveq.16	d3[0], r0
     48c:	16040000 	strne	r0, [r4], -r0
     490:	3a0e0300 	bcc	381098 <__bss_end__+0x377790>
     494:	390b3b0b 	stmdbcc	fp, {r0, r1, r3, r8, r9, fp, ip, sp}
     498:	0013490b 	andseq	r4, r3, fp, lsl #18
     49c:	01150500 	tsteq	r5, r0, lsl #10
     4a0:	13491927 	movtne	r1, #39207	; 0x9927
     4a4:	00001301 	andeq	r1, r0, r1, lsl #6
     4a8:	49000506 	stmdbmi	r0, {r1, r2, r8, sl}
     4ac:	07000013 	smladeq	r0, r3, r0, r0
     4b0:	0e030034 	mcreq	0, 0, r0, cr3, cr4, {1}
     4b4:	0b3b0b3a 	bleq	ec31a4 <__bss_end__+0xeb989c>
     4b8:	13490b39 	movtne	r0, #39737	; 0x9b39
     4bc:	193c193f 	ldmdbne	ip!, {r0, r1, r2, r3, r4, r5, r8, fp, ip}
     4c0:	0f080000 	svceq	0x00080000
     4c4:	490b0b00 	stmdbmi	fp, {r8, r9, fp}
     4c8:	09000013 	stmdbeq	r0, {r0, r1, r4}
     4cc:	13490026 	movtne	r0, #36902	; 0x9026
     4d0:	130a0000 	movwne	r0, #40960	; 0xa000
     4d4:	0b0e0301 	bleq	3810e0 <__bss_end__+0x3777d8>
     4d8:	3b0b3a0b 	blcc	2ced0c <__bss_end__+0x2c5404>
     4dc:	0013010b 	andseq	r0, r3, fp, lsl #2
     4e0:	000d0b00 	andeq	r0, sp, r0, lsl #22
     4e4:	13490e03 	movtne	r0, #40451	; 0x9e03
     4e8:	19340b38 	ldmdbne	r4!, {r3, r4, r5, r8, r9, fp}
     4ec:	0f0c0000 	svceq	0x000c0000
     4f0:	000b0b00 	andeq	r0, fp, r0, lsl #22
     4f4:	012e0d00 			; <UNDEFINED> instruction: 0x012e0d00
     4f8:	0e03193f 			; <UNDEFINED> instruction: 0x0e03193f
     4fc:	0b3b0b3a 	bleq	ec31ec <__bss_end__+0xeb98e4>
     500:	19270b39 	stmdbne	r7!, {r0, r3, r4, r5, r8, r9, fp}
     504:	01111349 	tsteq	r1, r9, asr #6
     508:	18400612 	stmdane	r0, {r1, r4, r9, sl}^
     50c:	01194297 			; <UNDEFINED> instruction: 0x01194297
     510:	0e000013 	mcreq	0, 0, r0, cr0, cr3, {0}
     514:	08030005 	stmdaeq	r3, {r0, r2}
     518:	0b3b0b3a 	bleq	ec3208 <__bss_end__+0xeb9900>
     51c:	13490b39 	movtne	r0, #39737	; 0x9b39
     520:	42b71702 	adcsmi	r1, r7, #524288	; 0x80000
     524:	0f000017 	svceq	0x00000017
     528:	0e030005 	cdpeq	0, 0, cr0, cr3, cr5, {0}
     52c:	0b3b0b3a 	bleq	ec321c <__bss_end__+0xeb9914>
     530:	13490b39 	movtne	r0, #39737	; 0x9b39
     534:	00001802 	andeq	r1, r0, r2, lsl #16
     538:	03003410 	movweq	r3, #1040	; 0x410
     53c:	3b0b3a08 	blcc	2ced64 <__bss_end__+0x2c545c>
     540:	490b390b 	stmdbmi	fp, {r0, r1, r3, r8, fp, ip, sp}
     544:	b7170213 			; <UNDEFINED> instruction: 0xb7170213
     548:	00001742 	andeq	r1, r0, r2, asr #14
     54c:	03003411 	movweq	r3, #1041	; 0x411
     550:	3b0b3a08 	blcc	2ced78 <__bss_end__+0x2c5470>
     554:	490b390b 	stmdbmi	fp, {r0, r1, r3, r8, fp, ip, sp}
     558:	12000013 	andne	r0, r0, #19, 0
     55c:	0e030034 	mcreq	0, 0, r0, cr3, cr4, {1}
     560:	0b3b0b3a 	bleq	ec3250 <__bss_end__+0xeb9948>
     564:	13490b39 	movtne	r0, #39737	; 0x9b39
     568:	42b71702 	adcsmi	r1, r7, #524288	; 0x80000
     56c:	13000017 	movwne	r0, #23
     570:	0e030034 	mcreq	0, 0, r0, cr3, cr4, {1}
     574:	19341349 	ldmdbne	r4!, {r0, r3, r6, r8, r9, ip}
     578:	00001802 	andeq	r1, r0, r2, lsl #16
     57c:	11010b14 	tstne	r1, r4, lsl fp
     580:	00061201 	andeq	r1, r6, r1, lsl #4
     584:	00341500 	eorseq	r1, r4, r0, lsl #10
     588:	0b3a0803 	bleq	e8259c <__bss_end__+0xe78c94>
     58c:	0b390b3b 	bleq	e43280 <__bss_end__+0xe39978>
     590:	18021349 	stmdane	r2, {r0, r3, r6, r8, r9, ip}
     594:	34160000 	ldrcc	r0, [r6], #-0
     598:	3a0e0300 	bcc	3811a0 <__bss_end__+0x377898>
     59c:	390b3b0b 	stmdbcc	fp, {r0, r1, r3, r8, r9, fp, ip, sp}
     5a0:	0213490b 	andseq	r4, r3, #180224	; 0x2c000
     5a4:	17000018 	smladne	r0, r8, r0, r0
     5a8:	1755010b 	ldrbne	r0, [r5, -fp, lsl #2]
     5ac:	00001301 	andeq	r1, r0, r1, lsl #6
     5b0:	01828918 	orreq	r8, r2, r8, lsl r9
     5b4:	31011101 	tstcc	r1, r1, lsl #2
     5b8:	00130113 	andseq	r0, r3, r3, lsl r1
     5bc:	828a1900 	addhi	r1, sl, #0, 18
     5c0:	18020001 	stmdane	r2, {r0}
     5c4:	00184291 	mulseq	r8, r1, r2
     5c8:	82891a00 	addhi	r1, r9, #0, 20
     5cc:	01110001 	tsteq	r1, r1
     5d0:	00001331 	andeq	r1, r0, r1, lsr r3
     5d4:	0182891b 	orreq	r8, r2, fp, lsl r9
     5d8:	01011101 	tsteq	r1, r1, lsl #2
     5dc:	1c000013 	stcne	0, cr0, [r0], {19}
     5e0:	13490101 	movtne	r0, #37121	; 0x9101
     5e4:	00001301 	andeq	r1, r0, r1, lsl #6
     5e8:	4900211d 	stmdbmi	r0, {r0, r2, r3, r4, r8, sp}
     5ec:	000b2f13 	andeq	r2, fp, r3, lsl pc
     5f0:	012e1e00 			; <UNDEFINED> instruction: 0x012e1e00
     5f4:	0b3a0e03 	bleq	e83e08 <__bss_end__+0xe7a500>
     5f8:	0b390b3b 	bleq	e432ec <__bss_end__+0xe399e4>
     5fc:	13491927 	movtne	r1, #39207	; 0x9927
     600:	06120111 			; <UNDEFINED> instruction: 0x06120111
     604:	42971840 	addsmi	r1, r7, #64, 16	; 0x400000
     608:	00130119 	andseq	r0, r3, r9, lsl r1
     60c:	00051f00 	andeq	r1, r5, r0, lsl #30
     610:	0b3a0e03 	bleq	e83e24 <__bss_end__+0xe7a51c>
     614:	0b390b3b 	bleq	e43308 <__bss_end__+0xe39a00>
     618:	17021349 	strne	r1, [r2, -r9, asr #6]
     61c:	001742b7 			; <UNDEFINED> instruction: 0x001742b7
     620:	010b2000 	mrseq	r2, (UNDEF: 11)
     624:	06120111 			; <UNDEFINED> instruction: 0x06120111
     628:	00001301 	andeq	r1, r0, r1, lsl #6
     62c:	03012e21 	movweq	r2, #7713	; 0x1e21
     630:	3b0b3a08 	blcc	2cee58 <__bss_end__+0x2c5550>
     634:	270b390b 	strcs	r3, [fp, -fp, lsl #18]
     638:	11134919 	tstne	r3, r9, lsl r9
     63c:	40061201 	andmi	r1, r6, r1, lsl #4
     640:	19429718 	stmdbne	r2, {r3, r4, r8, r9, sl, ip, pc}^
     644:	00001301 	andeq	r1, r0, r1, lsl #6
     648:	3f012e22 	svccc	0x00012e22
     64c:	3a0e0319 	bcc	3812b8 <__bss_end__+0x3779b0>
     650:	390b3b0b 	stmdbcc	fp, {r0, r1, r3, r8, r9, fp, ip, sp}
     654:	1119270b 	tstne	r9, fp, lsl #14
     658:	40061201 	andmi	r1, r6, r1, lsl #4
     65c:	19429718 	stmdbne	r2, {r3, r4, r8, r9, sl, ip, pc}^
     660:	00001301 	andeq	r1, r0, r1, lsl #6
     664:	3f002e23 	svccc	0x00002e23
     668:	6e193c19 	mrcvs	12, 0, r3, cr9, cr9, {0}
     66c:	3a0e030e 	bcc	3812ac <__bss_end__+0x3779a4>
     670:	390b3b0b 	stmdbcc	fp, {r0, r1, r3, r8, r9, fp, ip, sp}
     674:	0000000b 	andeq	r0, r0, fp
     678:	25011101 	strcs	r1, [r1, #-257]	; 0xfffffeff
     67c:	030b130e 	movweq	r1, #45838	; 0xb30e
     680:	110e1b0e 	tstne	lr, lr, lsl #22
     684:	10061201 	andne	r1, r6, r1, lsl #4
     688:	02000017 	andeq	r0, r0, #23, 0
     68c:	0b0b0024 	bleq	2c0724 <__bss_end__+0x2b6e1c>
     690:	08030b3e 	stmdaeq	r3, {r1, r2, r3, r4, r5, r8, r9, fp}
     694:	24030000 	strcs	r0, [r3], #-0
     698:	3e0b0b00 	vmlacc.f64	d0, d11, d0
     69c:	000e030b 	andeq	r0, lr, fp, lsl #6
     6a0:	01150400 	tsteq	r5, r0, lsl #8
     6a4:	13491927 	movtne	r1, #39207	; 0x9927
     6a8:	00001301 	andeq	r1, r0, r1, lsl #6
     6ac:	49000505 	stmdbmi	r0, {r0, r2, r8, sl}
     6b0:	06000013 			; <UNDEFINED> instruction: 0x06000013
     6b4:	0e030034 	mcreq	0, 0, r0, cr3, cr4, {1}
     6b8:	0b3b0b3a 	bleq	ec33a8 <__bss_end__+0xeb9aa0>
     6bc:	13490b39 	movtne	r0, #39737	; 0x9b39
     6c0:	193c193f 	ldmdbne	ip!, {r0, r1, r2, r3, r4, r5, r8, fp, ip}
     6c4:	0f070000 	svceq	0x00070000
     6c8:	490b0b00 	stmdbmi	fp, {r8, r9, fp}
     6cc:	08000013 	stmdaeq	r0, {r0, r1, r4}
     6d0:	13490026 	movtne	r0, #36902	; 0x9026
     6d4:	2e090000 	cdpcs	0, 0, cr0, cr9, cr0, {0}
     6d8:	03193f01 	tsteq	r9, #1, 30
     6dc:	3b0b3a0e 	blcc	2cef1c <__bss_end__+0x2c5614>
     6e0:	270b390b 	strcs	r3, [fp, -fp, lsl #18]
     6e4:	19018719 	stmdbne	r1, {r0, r3, r4, r8, r9, sl, pc}
     6e8:	06120111 			; <UNDEFINED> instruction: 0x06120111
     6ec:	42971840 	addsmi	r1, r7, #64, 16	; 0x400000
     6f0:	00130119 	andseq	r0, r3, r9, lsl r1
     6f4:	82890a00 	addhi	r0, r9, #0, 20
     6f8:	01110101 	tsteq	r1, r1, lsl #2
     6fc:	00001301 	andeq	r1, r0, r1, lsl #6
     700:	01828a0b 	orreq	r8, r2, fp, lsl #20
     704:	91180200 	tstls	r8, r0, lsl #4
     708:	00001842 	andeq	r1, r0, r2, asr #16
     70c:	0182890c 	orreq	r8, r2, ip, lsl #18
     710:	31011100 	mrscc	r1, (UNDEF: 17)
     714:	0d000013 	stceq	0, cr0, [r0, #-76]	; 0xffffffb4
     718:	01018289 	smlabbeq	r1, r9, r2, r8
     71c:	13310111 	teqne	r1, #1073741828	; 0x40000004
     720:	00001301 	andeq	r1, r0, r1, lsl #6
     724:	3f002e0e 	svccc	0x00002e0e
     728:	6e193c19 	mrcvs	12, 0, r3, cr9, cr9, {0}
     72c:	3a0e030e 	bcc	38136c <__bss_end__+0x377a64>
     730:	390b3b0b 	stmdbcc	fp, {r0, r1, r3, r8, r9, fp, ip, sp}
     734:	0000000b 	andeq	r0, r0, fp
     738:	25011101 	strcs	r1, [r1, #-257]	; 0xfffffeff
     73c:	030b130e 	movweq	r1, #45838	; 0xb30e
     740:	110e1b0e 	tstne	lr, lr, lsl #22
     744:	10061201 	andne	r1, r6, r1, lsl #4
     748:	02000017 	andeq	r0, r0, #23, 0
     74c:	0b0b0024 	bleq	2c07e4 <__bss_end__+0x2b6edc>
     750:	08030b3e 	stmdaeq	r3, {r1, r2, r3, r4, r5, r8, r9, fp}
     754:	24030000 	strcs	r0, [r3], #-0
     758:	3e0b0b00 	vmlacc.f64	d0, d11, d0
     75c:	000e030b 	andeq	r0, lr, fp, lsl #6
     760:	01150400 	tsteq	r5, r0, lsl #8
     764:	13491927 	movtne	r1, #39207	; 0x9927
     768:	00001301 	andeq	r1, r0, r1, lsl #6
     76c:	49000505 	stmdbmi	r0, {r0, r2, r8, sl}
     770:	06000013 			; <UNDEFINED> instruction: 0x06000013
     774:	0e030034 	mcreq	0, 0, r0, cr3, cr4, {1}
     778:	0b3b0b3a 	bleq	ec3468 <__bss_end__+0xeb9b60>
     77c:	13490b39 	movtne	r0, #39737	; 0x9b39
     780:	193c193f 	ldmdbne	ip!, {r0, r1, r2, r3, r4, r5, r8, fp, ip}
     784:	0f070000 	svceq	0x00070000
     788:	490b0b00 	stmdbmi	fp, {r8, r9, fp}
     78c:	08000013 	stmdaeq	r0, {r0, r1, r4}
     790:	13490026 	movtne	r0, #36902	; 0x9026
     794:	2e090000 	cdpcs	0, 0, cr0, cr9, cr0, {0}
     798:	03193f01 	tsteq	r9, #1, 30
     79c:	3b0b3a0e 	blcc	2cefdc <__bss_end__+0x2c56d4>
     7a0:	110b390b 	tstne	fp, fp, lsl #18
     7a4:	40061201 	andmi	r1, r6, r1, lsl #4
     7a8:	19429718 	stmdbne	r2, {r3, r4, r8, r9, sl, ip, pc}^
     7ac:	00001301 	andeq	r1, r0, r1, lsl #6
     7b0:	3f002e0a 	svccc	0x00002e0a
     7b4:	3a0e0319 	bcc	381420 <__bss_end__+0x377b18>
     7b8:	390b3b0b 	stmdbcc	fp, {r0, r1, r3, r8, r9, fp, ip, sp}
     7bc:	3c19270b 	ldccc	7, cr2, [r9], {11}
     7c0:	0b000019 	bleq	82c <__code_start__-0x77d4>
     7c4:	08030034 	stmdaeq	r3, {r2, r4, r5}
     7c8:	0b3b0b3a 	bleq	ec34b8 <__bss_end__+0xeb9bb0>
     7cc:	13490b39 	movtne	r0, #39737	; 0x9b39
     7d0:	42b71702 	adcsmi	r1, r7, #524288	; 0x80000
     7d4:	0c000017 	stceq	0, cr0, [r0], {23}
     7d8:	0e030034 	mcreq	0, 0, r0, cr3, cr4, {1}
     7dc:	0b3b0b3a 	bleq	ec34cc <__bss_end__+0xeb9bc4>
     7e0:	13490b39 	movtne	r0, #39737	; 0x9b39
     7e4:	890d0000 	stmdbhi	sp, {}	; <UNPREDICTABLE>
     7e8:	11000182 	smlabbne	r0, r2, r1, r0
     7ec:	00133101 	andseq	r3, r3, r1, lsl #2
     7f0:	002e0e00 	eoreq	r0, lr, r0, lsl #28
     7f4:	193c193f 	ldmdbne	ip!, {r0, r1, r2, r3, r4, r5, r8, fp, ip}
     7f8:	0e030e6e 	cdpeq	14, 0, cr0, cr3, cr14, {3}
     7fc:	053b0b3a 	ldreq	r0, [fp, #-2874]!	; 0xfffff4c6
     800:	00000b39 	andeq	r0, r0, r9, lsr fp
     804:	3f002e0f 	svccc	0x00002e0f
     808:	6e193c19 	mrcvs	12, 0, r3, cr9, cr9, {0}
     80c:	3a0e030e 	bcc	38144c <__bss_end__+0x377b44>
     810:	390b3b0b 	stmdbcc	fp, {r0, r1, r3, r8, r9, fp, ip, sp}
     814:	0000000b 	andeq	r0, r0, fp
     818:	25011101 	strcs	r1, [r1, #-257]	; 0xfffffeff
     81c:	030b130e 	movweq	r1, #45838	; 0xb30e
     820:	110e1b0e 	tstne	lr, lr, lsl #22
     824:	10061201 	andne	r1, r6, r1, lsl #4
     828:	02000017 	andeq	r0, r0, #23, 0
     82c:	0b0b0024 	bleq	2c08c4 <__bss_end__+0x2b6fbc>
     830:	08030b3e 	stmdaeq	r3, {r1, r2, r3, r4, r5, r8, r9, fp}
     834:	24030000 	strcs	r0, [r3], #-0
     838:	3e0b0b00 	vmlacc.f64	d0, d11, d0
     83c:	000e030b 	andeq	r0, lr, fp, lsl #6
     840:	01150400 	tsteq	r5, r0, lsl #8
     844:	13491927 	movtne	r1, #39207	; 0x9927
     848:	00001301 	andeq	r1, r0, r1, lsl #6
     84c:	49000505 	stmdbmi	r0, {r0, r2, r8, sl}
     850:	06000013 			; <UNDEFINED> instruction: 0x06000013
     854:	0e030034 	mcreq	0, 0, r0, cr3, cr4, {1}
     858:	0b3b0b3a 	bleq	ec3548 <__bss_end__+0xeb9c40>
     85c:	13490b39 	movtne	r0, #39737	; 0x9b39
     860:	193c193f 	ldmdbne	ip!, {r0, r1, r2, r3, r4, r5, r8, fp, ip}
     864:	0f070000 	svceq	0x00070000
     868:	490b0b00 	stmdbmi	fp, {r8, r9, fp}
     86c:	08000013 	stmdaeq	r0, {r0, r1, r4}
     870:	13490026 	movtne	r0, #36902	; 0x9026
     874:	2e090000 	cdpcs	0, 0, cr0, cr9, cr0, {0}
     878:	03193f00 	tsteq	r9, #0, 30
     87c:	3b0b3a0e 	blcc	2cf0bc <__bss_end__+0x2c57b4>
     880:	270b390b 	strcs	r3, [fp, -fp, lsl #18]
     884:	12011119 	andne	r1, r1, #1073741830	; 0x40000006
     888:	97184006 	ldrls	r4, [r8, -r6]
     88c:	00001942 	andeq	r1, r0, r2, asr #18
     890:	01110100 	tsteq	r1, r0, lsl #2
     894:	0b130e25 	bleq	4c4130 <__bss_end__+0x4ba828>
     898:	0e1b0e03 	cdpeq	14, 1, cr0, cr11, cr3, {0}
     89c:	01111755 	tsteq	r1, r5, asr r7
     8a0:	00001710 	andeq	r1, r0, r0, lsl r7
     8a4:	0b002402 	bleq	98b4 <__data_end__+0x3b0>
     8a8:	030b3e0b 	movweq	r3, #48651	; 0xbe0b
     8ac:	03000008 	movweq	r0, #8
     8b0:	13490026 	movtne	r0, #36902	; 0x9026
     8b4:	24040000 	strcs	r0, [r4], #-0
     8b8:	3e0b0b00 	vmlacc.f64	d0, d11, d0
     8bc:	000e030b 	andeq	r0, lr, fp, lsl #6
     8c0:	01150500 	tsteq	r5, r0, lsl #10
     8c4:	13491927 	movtne	r1, #39207	; 0x9927
     8c8:	00001301 	andeq	r1, r0, r1, lsl #6
     8cc:	49000506 	stmdbmi	r0, {r1, r2, r8, sl}
     8d0:	07000013 	smladeq	r0, r3, r0, r0
     8d4:	0e030034 	mcreq	0, 0, r0, cr3, cr4, {1}
     8d8:	0b3b0b3a 	bleq	ec35c8 <__bss_end__+0xeb9cc0>
     8dc:	13490b39 	movtne	r0, #39737	; 0x9b39
     8e0:	193c193f 	ldmdbne	ip!, {r0, r1, r2, r3, r4, r5, r8, fp, ip}
     8e4:	0f080000 	svceq	0x00080000
     8e8:	490b0b00 	stmdbmi	fp, {r8, r9, fp}
     8ec:	09000013 	stmdbeq	r0, {r0, r1, r4}
     8f0:	0e030034 	mcreq	0, 0, r0, cr3, cr4, {1}
     8f4:	0b3b0b3a 	bleq	ec35e4 <__bss_end__+0xeb9cdc>
     8f8:	13490b39 	movtne	r0, #39737	; 0x9b39
     8fc:	2e0a0000 	cdpcs	0, 0, cr0, cr10, cr0, {0}
     900:	03193f01 	tsteq	r9, #1, 30
     904:	3b0b3a0e 	blcc	2cf144 <__bss_end__+0x2c583c>
     908:	270b390b 	strcs	r3, [fp, -fp, lsl #18]
     90c:	19018719 	stmdbne	r1, {r0, r3, r4, r8, r9, sl, pc}
     910:	06120111 			; <UNDEFINED> instruction: 0x06120111
     914:	42971840 	addsmi	r1, r7, #64, 16	; 0x400000
     918:	00130119 	andseq	r0, r3, r9, lsl r1
     91c:	00340b00 	eorseq	r0, r4, r0, lsl #22
     920:	0b3a0e03 	bleq	e84134 <__bss_end__+0xe7a82c>
     924:	0b390b3b 	bleq	e43618 <__bss_end__+0xe39d10>
     928:	17021349 	strne	r1, [r2, -r9, asr #6]
     92c:	001742b7 			; <UNDEFINED> instruction: 0x001742b7
     930:	82890c00 	addhi	r0, r9, #0, 24
     934:	01110001 	tsteq	r1, r1
     938:	00001331 	andeq	r1, r0, r1, lsr r3
     93c:	0182890d 	orreq	r8, r2, sp, lsl #18
     940:	31011101 	tstcc	r1, r1, lsl #2
     944:	00130113 	andseq	r0, r3, r3, lsl r1
     948:	828a0e00 	addhi	r0, sl, #0, 28
     94c:	18020001 	stmdane	r2, {r0}
     950:	00184291 	mulseq	r8, r1, r2
     954:	012e0f00 			; <UNDEFINED> instruction: 0x012e0f00
     958:	0e03193f 			; <UNDEFINED> instruction: 0x0e03193f
     95c:	0b3b0b3a 	bleq	ec364c <__bss_end__+0xeb9d44>
     960:	19270b39 	stmdbne	r7!, {r0, r3, r4, r5, r8, r9, fp}
     964:	06120111 			; <UNDEFINED> instruction: 0x06120111
     968:	42971840 	addsmi	r1, r7, #64, 16	; 0x400000
     96c:	00130119 	andseq	r0, r3, r9, lsl r1
     970:	012e1000 			; <UNDEFINED> instruction: 0x012e1000
     974:	0e03193f 			; <UNDEFINED> instruction: 0x0e03193f
     978:	0b3b0b3a 	bleq	ec3668 <__bss_end__+0xeb9d60>
     97c:	19270b39 	stmdbne	r7!, {r0, r3, r4, r5, r8, r9, fp}
     980:	01111349 	tsteq	r1, r9, asr #6
     984:	18400612 	stmdane	r0, {r1, r4, r9, sl}^
     988:	01194297 			; <UNDEFINED> instruction: 0x01194297
     98c:	11000013 	tstne	r0, r3, lsl r0
     990:	193f002e 	ldmdbne	pc!, {r1, r2, r3, r5}	; <UNPREDICTABLE>
     994:	0e6e193c 			; <UNDEFINED> instruction: 0x0e6e193c
     998:	0b3a0e03 	bleq	e841ac <__bss_end__+0xe7a8a4>
     99c:	0b390b3b 	bleq	e43690 <__bss_end__+0xe39d88>
     9a0:	01000000 	mrseq	r0, (UNDEF: 0)
     9a4:	0e250111 	mcreq	1, 1, r0, cr5, cr1, {0}
     9a8:	0e030b13 	vmoveq.32	d3[0], r0
     9ac:	01110e1b 	tsteq	r1, fp, lsl lr
     9b0:	17100612 			; <UNDEFINED> instruction: 0x17100612
     9b4:	24020000 	strcs	r0, [r2], #-0
     9b8:	3e0b0b00 	vmlacc.f64	d0, d11, d0
     9bc:	0008030b 	andeq	r0, r8, fp, lsl #6
     9c0:	00240300 	eoreq	r0, r4, r0, lsl #6
     9c4:	0b3e0b0b 	bleq	f835f8 <__bss_end__+0xf79cf0>
     9c8:	00000e03 	andeq	r0, r0, r3, lsl #28
     9cc:	27011504 	strcs	r1, [r1, -r4, lsl #10]
     9d0:	01134919 	tsteq	r3, r9, lsl r9
     9d4:	05000013 	streq	r0, [r0, #-19]	; 0xffffffed
     9d8:	13490005 	movtne	r0, #36869	; 0x9005
     9dc:	34060000 	strcc	r0, [r6], #-0
     9e0:	3a0e0300 	bcc	3815e8 <__bss_end__+0x377ce0>
     9e4:	390b3b0b 	stmdbcc	fp, {r0, r1, r3, r8, r9, fp, ip, sp}
     9e8:	3f13490b 	svccc	0x0013490b
     9ec:	00193c19 	andseq	r3, r9, r9, lsl ip
     9f0:	000f0700 	andeq	r0, pc, r0, lsl #14
     9f4:	13490b0b 	movtne	r0, #39691	; 0x9b0b
     9f8:	26080000 	strcs	r0, [r8], -r0
     9fc:	00134900 	andseq	r4, r3, r0, lsl #18
     a00:	012e0900 			; <UNDEFINED> instruction: 0x012e0900
     a04:	0e03193f 			; <UNDEFINED> instruction: 0x0e03193f
     a08:	0b3b0b3a 	bleq	ec36f8 <__bss_end__+0xeb9df0>
     a0c:	19270b39 	stmdbne	r7!, {r0, r3, r4, r5, r8, r9, fp}
     a10:	06120111 			; <UNDEFINED> instruction: 0x06120111
     a14:	42971840 	addsmi	r1, r7, #64, 16	; 0x400000
     a18:	00130119 	andseq	r0, r3, r9, lsl r1
     a1c:	00050a00 	andeq	r0, r5, r0, lsl #20
     a20:	0b3a0803 	bleq	e82a34 <__bss_end__+0xe7912c>
     a24:	0b390b3b 	bleq	e43718 <__bss_end__+0xe39e10>
     a28:	17021349 	strne	r1, [r2, -r9, asr #6]
     a2c:	001742b7 			; <UNDEFINED> instruction: 0x001742b7
     a30:	82890b00 	addhi	r0, r9, #0, 22
     a34:	01110101 	tsteq	r1, r1, lsl #2
     a38:	00001331 	andeq	r1, r0, r1, lsr r3
     a3c:	01828a0c 	orreq	r8, r2, ip, lsl #20
     a40:	91180200 	tstls	r8, r0, lsl #4
     a44:	00001842 	andeq	r1, r0, r2, asr #16
     a48:	0300340d 	movweq	r3, #1037	; 0x40d
     a4c:	3b0b3a08 	blcc	2cf274 <__bss_end__+0x2c596c>
     a50:	490b390b 	stmdbmi	fp, {r0, r1, r3, r8, fp, ip, sp}
     a54:	b7170213 			; <UNDEFINED> instruction: 0xb7170213
     a58:	00001742 	andeq	r1, r0, r2, asr #14
     a5c:	11010b0e 	tstne	r1, lr, lsl #22
     a60:	01061201 	tsteq	r6, r1, lsl #4
     a64:	0f000013 	svceq	0x00000013
     a68:	00018289 	andeq	r8, r1, r9, lsl #5
     a6c:	13310111 	teqne	r1, #1073741828	; 0x40000004
     a70:	2e100000 	cdpcs	0, 1, cr0, cr0, cr0, {0}
     a74:	03193f01 	tsteq	r9, #1, 30
     a78:	3b0b3a0e 	blcc	2cf2b8 <__bss_end__+0x2c59b0>
     a7c:	270b390b 	strcs	r3, [fp, -fp, lsl #18]
     a80:	11134919 	tstne	r3, r9, lsl r9
     a84:	40061201 	andmi	r1, r6, r1, lsl #4
     a88:	19429718 	stmdbne	r2, {r3, r4, r8, r9, sl, ip, pc}^
     a8c:	00001301 	andeq	r1, r0, r1, lsl #6
     a90:	03000511 	movweq	r0, #1297	; 0x511
     a94:	3b0b3a0e 	blcc	2cf2d4 <__bss_end__+0x2c59cc>
     a98:	490b390b 	stmdbmi	fp, {r0, r1, r3, r8, fp, ip, sp}
     a9c:	b7170213 			; <UNDEFINED> instruction: 0xb7170213
     aa0:	00001742 	andeq	r1, r0, r2, asr #14
     aa4:	3f002e12 	svccc	0x00002e12
     aa8:	6e193c19 	mrcvs	12, 0, r3, cr9, cr9, {0}
     aac:	3a0e030e 	bcc	3816ec <__bss_end__+0x377de4>
     ab0:	390b3b0b 	stmdbcc	fp, {r0, r1, r3, r8, r9, fp, ip, sp}
     ab4:	0000000b 	andeq	r0, r0, fp
     ab8:	25011101 	strcs	r1, [r1, #-257]	; 0xfffffeff
     abc:	030b130e 	movweq	r1, #45838	; 0xb30e
     ac0:	110e1b0e 	tstne	lr, lr, lsl #22
     ac4:	10061201 	andne	r1, r6, r1, lsl #4
     ac8:	02000017 	andeq	r0, r0, #23, 0
     acc:	0b0b0024 	bleq	2c0b64 <__bss_end__+0x2b725c>
     ad0:	08030b3e 	stmdaeq	r3, {r1, r2, r3, r4, r5, r8, r9, fp}
     ad4:	24030000 	strcs	r0, [r3], #-0
     ad8:	3e0b0b00 	vmlacc.f64	d0, d11, d0
     adc:	000e030b 	andeq	r0, lr, fp, lsl #6
     ae0:	00260400 	eoreq	r0, r6, r0, lsl #8
     ae4:	00001349 	andeq	r1, r0, r9, asr #6
     ae8:	03001605 	movweq	r1, #1541	; 0x605
     aec:	3b0b3a0e 	blcc	2cf32c <__bss_end__+0x2c5a24>
     af0:	490b390b 	stmdbmi	fp, {r0, r1, r3, r8, fp, ip, sp}
     af4:	06000013 			; <UNDEFINED> instruction: 0x06000013
     af8:	19270115 	stmdbne	r7!, {r0, r2, r4, r8}
     afc:	13011349 	movwne	r1, #4937	; 0x1349
     b00:	05070000 	streq	r0, [r7, #-0]
     b04:	00134900 	andseq	r4, r3, r0, lsl #18
     b08:	00340800 	eorseq	r0, r4, r0, lsl #16
     b0c:	0b3a0e03 	bleq	e84320 <__bss_end__+0xe7aa18>
     b10:	0b390b3b 	bleq	e43804 <__bss_end__+0xe39efc>
     b14:	193f1349 	ldmdbne	pc!, {r0, r3, r6, r8, r9, ip}	; <UNPREDICTABLE>
     b18:	0000193c 	andeq	r1, r0, ip, lsr r9
     b1c:	0b000f09 	bleq	4748 <__code_start__-0x38b8>
     b20:	0013490b 	andseq	r4, r3, fp, lsl #18
     b24:	01040a00 	tsteq	r4, r0, lsl #20
     b28:	0b0b0b3e 	bleq	2c3828 <__bss_end__+0x2b9f20>
     b2c:	0b3a1349 	bleq	e85858 <__bss_end__+0xe7bf50>
     b30:	0b390b3b 	bleq	e43824 <__bss_end__+0xe39f1c>
     b34:	00001301 	andeq	r1, r0, r1, lsl #6
     b38:	0300280b 	movweq	r2, #2059	; 0x80b
     b3c:	000b1c0e 	andeq	r1, fp, lr, lsl #24
     b40:	00340c00 	eorseq	r0, r4, r0, lsl #24
     b44:	0b3a0e03 	bleq	e84358 <__bss_end__+0xe7aa50>
     b48:	0b390b3b 	bleq	e4383c <__bss_end__+0xe39f34>
     b4c:	061c1349 	ldreq	r1, [ip], -r9, asr #6
     b50:	130d0000 	movwne	r0, #53248	; 0xd000
     b54:	0b0e0301 	bleq	381760 <__bss_end__+0x377e58>
     b58:	3b0b3a0b 	blcc	2cf38c <__bss_end__+0x2c5a84>
     b5c:	010b390b 	tsteq	fp, fp, lsl #18
     b60:	0e000013 	mcreq	0, 0, r0, cr0, cr3, {0}
     b64:	0e03000d 	cdpeq	0, 0, cr0, cr3, cr13, {0}
     b68:	0b3b0b3a 	bleq	ec3858 <__bss_end__+0xeb9f50>
     b6c:	13490b39 	movtne	r0, #39737	; 0x9b39
     b70:	0b0d0b0b 	bleq	3437a4 <__bss_end__+0x339e9c>
     b74:	0b380b0c 	bleq	e037ac <__bss_end__+0xdf9ea4>
     b78:	170f0000 	strne	r0, [pc, -r0]
     b7c:	3a0b0b01 	bcc	2c3788 <__bss_end__+0x2b9e80>
     b80:	390b3b0b 	stmdbcc	fp, {r0, r1, r3, r8, r9, fp, ip, sp}
     b84:	0013010b 	andseq	r0, r3, fp, lsl #2
     b88:	000d1000 	andeq	r1, sp, r0
     b8c:	0b3a0e03 	bleq	e843a0 <__bss_end__+0xe7aa98>
     b90:	0b390b3b 	bleq	e43884 <__bss_end__+0xe39f7c>
     b94:	00001349 	andeq	r1, r0, r9, asr #6
     b98:	49000d11 	stmdbmi	r0, {r0, r4, r8, sl, fp}
     b9c:	000b3813 	andeq	r3, fp, r3, lsl r8
     ba0:	000d1200 	andeq	r1, sp, r0, lsl #4
     ba4:	0b3a0803 	bleq	e82bb8 <__bss_end__+0xe792b0>
     ba8:	0b390b3b 	bleq	e4389c <__bss_end__+0xe39f94>
     bac:	0b381349 	bleq	e058d8 <__bss_end__+0xdfbfd0>
     bb0:	01130000 	tsteq	r3, r0
     bb4:	01134901 	tsteq	r3, r1, lsl #18
     bb8:	14000013 	strne	r0, [r0], #-19	; 0xffffffed
     bbc:	13490021 	movtne	r0, #36897	; 0x9021
     bc0:	00000b2f 	andeq	r0, r0, pc, lsr #22
     bc4:	03003415 	movweq	r3, #1045	; 0x415
     bc8:	3b0b3a0e 	blcc	2cf408 <__bss_end__+0x2c5b00>
     bcc:	490b390b 	stmdbmi	fp, {r0, r1, r3, r8, fp, ip, sp}
     bd0:	00180213 	andseq	r0, r8, r3, lsl r2
     bd4:	012e1600 			; <UNDEFINED> instruction: 0x012e1600
     bd8:	0e03193f 			; <UNDEFINED> instruction: 0x0e03193f
     bdc:	053b0b3a 	ldreq	r0, [fp, #-2874]!	; 0xfffff4c6
     be0:	19270b39 	stmdbne	r7!, {r0, r3, r4, r5, r8, r9, fp}
     be4:	06120111 			; <UNDEFINED> instruction: 0x06120111
     be8:	42971840 	addsmi	r1, r7, #64, 16	; 0x400000
     bec:	00130119 	andseq	r0, r3, r9, lsl r1
     bf0:	82891700 	addhi	r1, r9, #0, 14
     bf4:	01110001 	tsteq	r1, r1
     bf8:	00001331 	andeq	r1, r0, r1, lsr r3
     bfc:	3f012e18 	svccc	0x00012e18
     c00:	3a0e0319 	bcc	38186c <__bss_end__+0x377f64>
     c04:	39053b0b 	stmdbcc	r5, {r0, r1, r3, r8, r9, fp, ip, sp}
     c08:	4919270b 	ldmdbmi	r9, {r0, r1, r3, r8, r9, sl, sp}
     c0c:	12011113 	andne	r1, r1, #-1073741820	; 0xc0000004
     c10:	97184006 	ldrls	r4, [r8, -r6]
     c14:	13011942 	movwne	r1, #6466	; 0x1942
     c18:	34190000 	ldrcc	r0, [r9], #-0
     c1c:	3a080300 	bcc	201824 <__bss_end__+0x1f7f1c>
     c20:	39053b0b 	stmdbcc	r5, {r0, r1, r3, r8, r9, fp, ip, sp}
     c24:	0213490b 	andseq	r4, r3, #180224	; 0x2c000
     c28:	1a000018 	bne	c90 <__code_start__-0x7370>
     c2c:	0e030034 	mcreq	0, 0, r0, cr3, cr4, {1}
     c30:	053b0b3a 	ldreq	r0, [fp, #-2874]!	; 0xfffff4c6
     c34:	13490b39 	movtne	r0, #39737	; 0x9b39
     c38:	42b71702 	adcsmi	r1, r7, #524288	; 0x80000
     c3c:	1b000017 	blne	ca0 <__code_start__-0x7360>
     c40:	01018289 	smlabbeq	r1, r9, r2, r8
     c44:	13310111 	teqne	r1, #1073741828	; 0x40000004
     c48:	8a1c0000 	bhi	700c50 <__bss_end__+0x6f7348>
     c4c:	02000182 	andeq	r0, r0, #-2147483616	; 0x80000020
     c50:	18429118 	stmdane	r2, {r3, r4, r8, ip, pc}^
     c54:	2e1d0000 	cdpcs	0, 1, cr0, cr13, cr0, {0}
     c58:	03193f01 	tsteq	r9, #1, 30
     c5c:	3b0b3a0e 	blcc	2cf49c <__bss_end__+0x2c5b94>
     c60:	270b390b 	strcs	r3, [fp, -fp, lsl #18]
     c64:	12011119 	andne	r1, r1, #1073741830	; 0x40000006
     c68:	97184006 	ldrls	r4, [r8, -r6]
     c6c:	13011942 	movwne	r1, #6466	; 0x1942
     c70:	051e0000 	ldreq	r0, [lr, #-0]
     c74:	3a080300 	bcc	20187c <__bss_end__+0x1f7f74>
     c78:	390b3b0b 	stmdbcc	fp, {r0, r1, r3, r8, r9, fp, ip, sp}
     c7c:	0213490b 	andseq	r4, r3, #180224	; 0x2c000
     c80:	1742b717 	smlaldne	fp, r2, r7, r7
     c84:	2e1f0000 	cdpcs	0, 1, cr0, cr15, cr0, {0}
     c88:	03193f01 	tsteq	r9, #1, 30
     c8c:	3b0b3a0e 	blcc	2cf4cc <__bss_end__+0x2c5bc4>
     c90:	270b390b 	strcs	r3, [fp, -fp, lsl #18]
     c94:	11134919 	tstne	r3, r9, lsl r9
     c98:	40061201 	andmi	r1, r6, r1, lsl #4
     c9c:	19429718 	stmdbne	r2, {r3, r4, r8, r9, sl, ip, pc}^
     ca0:	00001301 	andeq	r1, r0, r1, lsl #6
     ca4:	03003420 	movweq	r3, #1056	; 0x420
     ca8:	3b0b3a08 	blcc	2cf4d0 <__bss_end__+0x2c5bc8>
     cac:	490b390b 	stmdbmi	fp, {r0, r1, r3, r8, fp, ip, sp}
     cb0:	00180213 	andseq	r0, r8, r3, lsl r2
     cb4:	00342100 	eorseq	r2, r4, r0, lsl #2
     cb8:	0b3a0e03 	bleq	e844cc <__bss_end__+0xe7abc4>
     cbc:	0b390b3b 	bleq	e439b0 <__bss_end__+0xe3a0a8>
     cc0:	17021349 	strne	r1, [r2, -r9, asr #6]
     cc4:	001742b7 			; <UNDEFINED> instruction: 0x001742b7
     cc8:	00342200 	eorseq	r2, r4, r0, lsl #4
     ccc:	0b3a0803 	bleq	e82ce0 <__bss_end__+0xe793d8>
     cd0:	0b390b3b 	bleq	e439c4 <__bss_end__+0xe3a0bc>
     cd4:	00001349 	andeq	r1, r0, r9, asr #6
     cd8:	03012e23 	movweq	r2, #7715	; 0x1e23
     cdc:	3b0b3a0e 	blcc	2cf51c <__bss_end__+0x2c5c14>
     ce0:	270b390b 	strcs	r3, [fp, -fp, lsl #18]
     ce4:	11134919 	tstne	r3, r9, lsl r9
     ce8:	40061201 	andmi	r1, r6, r1, lsl #4
     cec:	19429718 	stmdbne	r2, {r3, r4, r8, r9, sl, ip, pc}^
     cf0:	00001301 	andeq	r1, r0, r1, lsl #6
     cf4:	01828924 	orreq	r8, r2, r4, lsr #18
     cf8:	31011101 	tstcc	r1, r1, lsl #2
     cfc:	00130113 	andseq	r0, r3, r3, lsl r1
     d00:	002e2500 	eoreq	r2, lr, r0, lsl #10
     d04:	193c193f 	ldmdbne	ip!, {r0, r1, r2, r3, r4, r5, r8, fp, ip}
     d08:	0e030e6e 	cdpeq	14, 0, cr0, cr3, cr14, {3}
     d0c:	0b3b0b3a 	bleq	ec39fc <__bss_end__+0xeba0f4>
     d10:	00000b39 	andeq	r0, r0, r9, lsr fp
     d14:	01110100 	tsteq	r1, r0, lsl #2
     d18:	0b130e25 	bleq	4c45b4 <__bss_end__+0x4bacac>
     d1c:	0e1b0e03 	cdpeq	14, 1, cr0, cr11, cr3, {0}
     d20:	06120111 			; <UNDEFINED> instruction: 0x06120111
     d24:	00001710 	andeq	r1, r0, r0, lsl r7
     d28:	0b002402 	bleq	9d38 <__bss_end__+0x430>
     d2c:	030b3e0b 	movweq	r3, #48651	; 0xbe0b
     d30:	03000008 	movweq	r0, #8
     d34:	0b0b0024 	bleq	2c0dcc <__bss_end__+0x2b74c4>
     d38:	0e030b3e 	vmoveq.16	d3[0], r0
     d3c:	26040000 	strcs	r0, [r4], -r0
     d40:	00134900 	andseq	r4, r3, r0, lsl #18
     d44:	00160500 	andseq	r0, r6, r0, lsl #10
     d48:	0b3a0e03 	bleq	e8455c <__bss_end__+0xe7ac54>
     d4c:	0b390b3b 	bleq	e43a40 <__bss_end__+0xe3a138>
     d50:	00001349 	andeq	r1, r0, r9, asr #6
     d54:	27011506 	strcs	r1, [r1, -r6, lsl #10]
     d58:	01134919 	tsteq	r3, r9, lsl r9
     d5c:	07000013 	smladeq	r0, r3, r0, r0
     d60:	13490005 	movtne	r0, #36869	; 0x9005
     d64:	34080000 	strcc	r0, [r8], #-0
     d68:	3a0e0300 	bcc	381970 <__bss_end__+0x378068>
     d6c:	390b3b0b 	stmdbcc	fp, {r0, r1, r3, r8, r9, fp, ip, sp}
     d70:	3f13490b 	svccc	0x0013490b
     d74:	00193c19 	andseq	r3, r9, r9, lsl ip
     d78:	000f0900 	andeq	r0, pc, r0, lsl #18
     d7c:	13490b0b 	movtne	r0, #39691	; 0x9b0b
     d80:	040a0000 	streq	r0, [sl], #-0
     d84:	0b0b3e01 	bleq	2d0590 <__bss_end__+0x2c6c88>
     d88:	3a13490b 	bcc	4d31bc <__bss_end__+0x4c98b4>
     d8c:	390b3b0b 	stmdbcc	fp, {r0, r1, r3, r8, r9, fp, ip, sp}
     d90:	0013010b 	andseq	r0, r3, fp, lsl #2
     d94:	00280b00 	eoreq	r0, r8, r0, lsl #22
     d98:	0b1c0e03 	bleq	7045ac <__bss_end__+0x6faca4>
     d9c:	340c0000 	strcc	r0, [ip], #-0
     da0:	3a0e0300 	bcc	3819a8 <__bss_end__+0x3780a0>
     da4:	390b3b0b 	stmdbcc	fp, {r0, r1, r3, r8, r9, fp, ip, sp}
     da8:	1c13490b 			; <UNDEFINED> instruction: 0x1c13490b
     dac:	0d000006 	stceq	0, cr0, [r0, #-24]	; 0xffffffe8
     db0:	193f012e 	ldmdbne	pc!, {r1, r2, r3, r5, r8}	; <UNPREDICTABLE>
     db4:	0b3a0e03 	bleq	e845c8 <__bss_end__+0xe7acc0>
     db8:	0b390b3b 	bleq	e43aac <__bss_end__+0xe3a1a4>
     dbc:	13491927 	movtne	r1, #39207	; 0x9927
     dc0:	06120111 			; <UNDEFINED> instruction: 0x06120111
     dc4:	42971840 	addsmi	r1, r7, #64, 16	; 0x400000
     dc8:	00130119 	andseq	r0, r3, r9, lsl r1
     dcc:	00050e00 	andeq	r0, r5, r0, lsl #28
     dd0:	0b3a0803 	bleq	e82de4 <__bss_end__+0xe794dc>
     dd4:	0b390b3b 	bleq	e43ac8 <__bss_end__+0xe3a1c0>
     dd8:	17021349 	strne	r1, [r2, -r9, asr #6]
     ddc:	001742b7 			; <UNDEFINED> instruction: 0x001742b7
     de0:	82890f00 	addhi	r0, r9, #0, 30
     de4:	01110101 	tsteq	r1, r1, lsl #2
     de8:	00001331 	andeq	r1, r0, r1, lsr r3
     dec:	01828a10 	orreq	r8, r2, r0, lsl sl
     df0:	91180200 	tstls	r8, r0, lsl #4
     df4:	00001842 	andeq	r1, r0, r2, asr #16
     df8:	3f012e11 	svccc	0x00012e11
     dfc:	3a0e0319 	bcc	381a68 <__bss_end__+0x378160>
     e00:	390b3b0b 	stmdbcc	fp, {r0, r1, r3, r8, r9, fp, ip, sp}
     e04:	1119270b 	tstne	r9, fp, lsl #14
     e08:	40061201 	andmi	r1, r6, r1, lsl #4
     e0c:	19429718 	stmdbne	r2, {r3, r4, r8, r9, sl, ip, pc}^
     e10:	00001301 	andeq	r1, r0, r1, lsl #6
     e14:	01828912 	orreq	r8, r2, r2, lsl r9
     e18:	31011101 	tstcc	r1, r1, lsl #2
     e1c:	00130113 	andseq	r0, r3, r3, lsl r1
     e20:	82891300 	addhi	r1, r9, #0, 6
     e24:	01110001 	tsteq	r1, r1
     e28:	00001331 	andeq	r1, r0, r1, lsr r3
     e2c:	03003414 	movweq	r3, #1044	; 0x414
     e30:	3b0b3a0e 	blcc	2cf670 <__bss_end__+0x2c5d68>
     e34:	490b390b 	stmdbmi	fp, {r0, r1, r3, r8, fp, ip, sp}
     e38:	b7170213 			; <UNDEFINED> instruction: 0xb7170213
     e3c:	00001742 	andeq	r1, r0, r2, asr #14
     e40:	3f002e15 	svccc	0x00002e15
     e44:	6e193c19 	mrcvs	12, 0, r3, cr9, cr9, {0}
     e48:	3a0e030e 	bcc	381a88 <__bss_end__+0x378180>
     e4c:	390b3b0b 	stmdbcc	fp, {r0, r1, r3, r8, r9, fp, ip, sp}
     e50:	0000000b 	andeq	r0, r0, fp
     e54:	25011101 	strcs	r1, [r1, #-257]	; 0xfffffeff
     e58:	030b130e 	movweq	r1, #45838	; 0xb30e
     e5c:	110e1b0e 	tstne	lr, lr, lsl #22
     e60:	10061201 	andne	r1, r6, r1, lsl #4
     e64:	02000017 	andeq	r0, r0, #23, 0
     e68:	0b0b0024 	bleq	2c0f00 <__bss_end__+0x2b75f8>
     e6c:	08030b3e 	stmdaeq	r3, {r1, r2, r3, r4, r5, r8, r9, fp}
     e70:	24030000 	strcs	r0, [r3], #-0
     e74:	3e0b0b00 	vmlacc.f64	d0, d11, d0
     e78:	000e030b 	andeq	r0, lr, fp, lsl #6
     e7c:	01150400 	tsteq	r5, r0, lsl #8
     e80:	13491927 	movtne	r1, #39207	; 0x9927
     e84:	00001301 	andeq	r1, r0, r1, lsl #6
     e88:	49000505 	stmdbmi	r0, {r0, r2, r8, sl}
     e8c:	06000013 			; <UNDEFINED> instruction: 0x06000013
     e90:	0e030034 	mcreq	0, 0, r0, cr3, cr4, {1}
     e94:	0b3b0b3a 	bleq	ec3b84 <__bss_end__+0xeba27c>
     e98:	13490b39 	movtne	r0, #39737	; 0x9b39
     e9c:	193c193f 	ldmdbne	ip!, {r0, r1, r2, r3, r4, r5, r8, fp, ip}
     ea0:	0f070000 	svceq	0x00070000
     ea4:	490b0b00 	stmdbmi	fp, {r8, r9, fp}
     ea8:	08000013 	stmdaeq	r0, {r0, r1, r4}
     eac:	13490026 	movtne	r0, #36902	; 0x9026
     eb0:	34090000 	strcc	r0, [r9], #-0
     eb4:	3a134700 	bcc	4d2abc <__bss_end__+0x4c91b4>
     eb8:	390b3b0b 	stmdbcc	fp, {r0, r1, r3, r8, r9, fp, ip, sp}
     ebc:	0018020b 	andseq	r0, r8, fp, lsl #4
     ec0:	012e0a00 			; <UNDEFINED> instruction: 0x012e0a00
     ec4:	0e03193f 			; <UNDEFINED> instruction: 0x0e03193f
     ec8:	0b3b0b3a 	bleq	ec3bb8 <__bss_end__+0xeba2b0>
     ecc:	19270b39 	stmdbne	r7!, {r0, r3, r4, r5, r8, r9, fp}
     ed0:	06120111 			; <UNDEFINED> instruction: 0x06120111
     ed4:	42971840 	addsmi	r1, r7, #64, 16	; 0x400000
     ed8:	00130119 	andseq	r0, r3, r9, lsl r1
     edc:	00050b00 	andeq	r0, r5, r0, lsl #22
     ee0:	0b3a0803 	bleq	e82ef4 <__bss_end__+0xe795ec>
     ee4:	0b390b3b 	bleq	e43bd8 <__bss_end__+0xe3a2d0>
     ee8:	18021349 	stmdane	r2, {r0, r3, r6, r8, r9, ip}
     eec:	2e0c0000 	cdpcs	0, 0, cr0, cr12, cr0, {0}
     ef0:	03193f00 	tsteq	r9, #0, 30
     ef4:	3b0b3a0e 	blcc	2cf734 <__bss_end__+0x2c5e2c>
     ef8:	270b390b 	strcs	r3, [fp, -fp, lsl #18]
     efc:	12011119 	andne	r1, r1, #1073741830	; 0x40000006
     f00:	97184006 	ldrls	r4, [r8, -r6]
     f04:	00001942 	andeq	r1, r0, r2, asr #18
     f08:	03012e0d 	movweq	r2, #7693	; 0x1e0d
     f0c:	3b0b3a0e 	blcc	2cf74c <__bss_end__+0x2c5e44>
     f10:	270b390b 	strcs	r3, [fp, -fp, lsl #18]
     f14:	11134919 	tstne	r3, r9, lsl r9
     f18:	40061201 	andmi	r1, r6, r1, lsl #4
     f1c:	19429718 	stmdbne	r2, {r3, r4, r8, r9, sl, ip, pc}^
     f20:	00001301 	andeq	r1, r0, r1, lsl #6
     f24:	0300050e 	movweq	r0, #1294	; 0x50e
     f28:	3b0b3a08 	blcc	2cf750 <__bss_end__+0x2c5e48>
     f2c:	490b390b 	stmdbmi	fp, {r0, r1, r3, r8, fp, ip, sp}
     f30:	b7170213 			; <UNDEFINED> instruction: 0xb7170213
     f34:	00001742 	andeq	r1, r0, r2, asr #14
     f38:	0182890f 	orreq	r8, r2, pc, lsl #18
     f3c:	31011101 	tstcc	r1, r1, lsl #2
     f40:	10000013 	andne	r0, r0, r3, lsl r0
     f44:	0001828a 	andeq	r8, r1, sl, lsl #5
     f48:	42911802 	addsmi	r1, r1, #131072	; 0x20000
     f4c:	11000018 	tstne	r0, r8, lsl r0
     f50:	193f002e 	ldmdbne	pc!, {r1, r2, r3, r5}	; <UNPREDICTABLE>
     f54:	0e6e193c 			; <UNDEFINED> instruction: 0x0e6e193c
     f58:	0b3a0e03 	bleq	e8476c <__bss_end__+0xe7ae64>
     f5c:	0b390b3b 	bleq	e43c50 <__bss_end__+0xe3a348>
     f60:	01000000 	mrseq	r0, (UNDEF: 0)
     f64:	0e250111 	mcreq	1, 1, r0, cr5, cr1, {0}
     f68:	0e030b13 	vmoveq.32	d3[0], r0
     f6c:	01110e1b 	tsteq	r1, fp, lsl lr
     f70:	17100612 			; <UNDEFINED> instruction: 0x17100612
     f74:	24020000 	strcs	r0, [r2], #-0
     f78:	3e0b0b00 	vmlacc.f64	d0, d11, d0
     f7c:	0008030b 	andeq	r0, r8, fp, lsl #6
     f80:	00240300 	eoreq	r0, r4, r0, lsl #6
     f84:	0b3e0b0b 	bleq	f83bb8 <__bss_end__+0xf7a2b0>
     f88:	00000e03 	andeq	r0, r0, r3, lsl #28
     f8c:	27011504 	strcs	r1, [r1, -r4, lsl #10]
     f90:	01134919 	tsteq	r3, r9, lsl r9
     f94:	05000013 	streq	r0, [r0, #-19]	; 0xffffffed
     f98:	13490005 	movtne	r0, #36869	; 0x9005
     f9c:	34060000 	strcc	r0, [r6], #-0
     fa0:	3a0e0300 	bcc	381ba8 <__bss_end__+0x3782a0>
     fa4:	390b3b0b 	stmdbcc	fp, {r0, r1, r3, r8, r9, fp, ip, sp}
     fa8:	3f13490b 	svccc	0x0013490b
     fac:	00193c19 	andseq	r3, r9, r9, lsl ip
     fb0:	000f0700 	andeq	r0, pc, r0, lsl #14
     fb4:	13490b0b 	movtne	r0, #39691	; 0x9b0b
     fb8:	26080000 	strcs	r0, [r8], -r0
     fbc:	00134900 	andseq	r4, r3, r0, lsl #18
     fc0:	012e0900 			; <UNDEFINED> instruction: 0x012e0900
     fc4:	0e03193f 			; <UNDEFINED> instruction: 0x0e03193f
     fc8:	0b3b0b3a 	bleq	ec3cb8 <__bss_end__+0xeba3b0>
     fcc:	19270b39 	stmdbne	r7!, {r0, r3, r4, r5, r8, r9, fp}
     fd0:	01111349 	tsteq	r1, r9, asr #6
     fd4:	18400612 	stmdane	r0, {r1, r4, r9, sl}^
     fd8:	01194297 			; <UNDEFINED> instruction: 0x01194297
     fdc:	0a000013 	beq	1030 <__code_start__-0x6fd0>
     fe0:	0e030005 	cdpeq	0, 0, cr0, cr3, cr5, {0}
     fe4:	0b3b0b3a 	bleq	ec3cd4 <__bss_end__+0xeba3cc>
     fe8:	13490b39 	movtne	r0, #39737	; 0x9b39
     fec:	00001802 	andeq	r1, r0, r2, lsl #16
     ff0:	0300050b 	movweq	r0, #1291	; 0x50b
     ff4:	3b0b3a08 	blcc	2cf81c <__bss_end__+0x2c5f14>
     ff8:	490b390b 	stmdbmi	fp, {r0, r1, r3, r8, fp, ip, sp}
     ffc:	b7170213 			; <UNDEFINED> instruction: 0xb7170213
    1000:	00001742 	andeq	r1, r0, r2, asr #14
    1004:	0300340c 	movweq	r3, #1036	; 0x40c
    1008:	3b0b3a08 	blcc	2cf830 <__bss_end__+0x2c5f28>
    100c:	490b390b 	stmdbmi	fp, {r0, r1, r3, r8, fp, ip, sp}
    1010:	b7170213 			; <UNDEFINED> instruction: 0xb7170213
    1014:	00001742 	andeq	r1, r0, r2, asr #14
    1018:	01110100 	tsteq	r1, r0, lsl #2
    101c:	0b130e25 	bleq	4c48b8 <__bss_end__+0x4bafb0>
    1020:	0e1b0e03 	cdpeq	14, 1, cr0, cr11, cr3, {0}
    1024:	01111755 	tsteq	r1, r5, asr r7
    1028:	00001710 	andeq	r1, r0, r0, lsl r7
    102c:	0b002402 	bleq	a03c <__bss_end__+0x734>
    1030:	030b3e0b 	movweq	r3, #48651	; 0xbe0b
    1034:	03000008 	movweq	r0, #8
    1038:	0e030016 	mcreq	0, 0, r0, cr3, cr6, {0}
    103c:	0b3b0b3a 	bleq	ec3d2c <__bss_end__+0xeba424>
    1040:	13490b39 	movtne	r0, #39737	; 0x9b39
    1044:	24040000 	strcs	r0, [r4], #-0
    1048:	3e0b0b00 	vmlacc.f64	d0, d11, d0
    104c:	000e030b 	andeq	r0, lr, fp, lsl #6
    1050:	00260500 	eoreq	r0, r6, r0, lsl #10
    1054:	00001349 	andeq	r1, r0, r9, asr #6
    1058:	27011506 	strcs	r1, [r1, -r6, lsl #10]
    105c:	01134919 	tsteq	r3, r9, lsl r9
    1060:	07000013 	smladeq	r0, r3, r0, r0
    1064:	13490005 	movtne	r0, #36869	; 0x9005
    1068:	34080000 	strcc	r0, [r8], #-0
    106c:	3a0e0300 	bcc	381c74 <__bss_end__+0x37836c>
    1070:	390b3b0b 	stmdbcc	fp, {r0, r1, r3, r8, r9, fp, ip, sp}
    1074:	3f13490b 	svccc	0x0013490b
    1078:	00193c19 	andseq	r3, r9, r9, lsl ip
    107c:	000f0900 	andeq	r0, pc, r0, lsl #18
    1080:	13490b0b 	movtne	r0, #39691	; 0x9b0b
    1084:	2e0a0000 	cdpcs	0, 0, cr0, cr10, cr0, {0}
    1088:	03193f01 	tsteq	r9, #1, 30
    108c:	3b0b3a0e 	blcc	2cf8cc <__bss_end__+0x2c5fc4>
    1090:	270b390b 	strcs	r3, [fp, -fp, lsl #18]
    1094:	11134919 	tstne	r3, r9, lsl r9
    1098:	40061201 	andmi	r1, r6, r1, lsl #4
    109c:	19429718 	stmdbne	r2, {r3, r4, r8, r9, sl, ip, pc}^
    10a0:	00001301 	andeq	r1, r0, r1, lsl #6
    10a4:	0300050b 	movweq	r0, #1291	; 0x50b
    10a8:	3b0b3a08 	blcc	2cf8d0 <__bss_end__+0x2c5fc8>
    10ac:	490b390b 	stmdbmi	fp, {r0, r1, r3, r8, fp, ip, sp}
    10b0:	b7170213 			; <UNDEFINED> instruction: 0xb7170213
    10b4:	00001742 	andeq	r1, r0, r2, asr #14
    10b8:	0300340c 	movweq	r3, #1036	; 0x40c
    10bc:	3b0b3a08 	blcc	2cf8e4 <__bss_end__+0x2c5fdc>
    10c0:	490b390b 	stmdbmi	fp, {r0, r1, r3, r8, fp, ip, sp}
    10c4:	b7170213 			; <UNDEFINED> instruction: 0xb7170213
    10c8:	00001742 	andeq	r1, r0, r2, asr #14
	...

Disassembly of section .debug_loc:

00000000 <.debug_loc>:
   0:	00000000 	andeq	r0, r0, r0
   4:	00940000 	addseq	r0, r4, r0
   8:	009f0000 	addseq	r0, pc, r0
   c:	00010000 	andeq	r0, r1, r0
  10:	0000a851 	andeq	sl, r0, r1, asr r8
  14:	0000af00 	andeq	sl, r0, r0, lsl #30
  18:	51000100 	mrspl	r0, (UNDEF: 16)
  1c:	000000b8 	strheq	r0, [r0], -r8
  20:	000000bf 	strheq	r0, [r0], -pc	; <UNPREDICTABLE>
  24:	00510001 	subseq	r0, r1, r1
	...
  38:	e0000000 	and	r0, r0, r0
  3c:	e8000000 	stmda	r0, {}	; <UNPREDICTABLE>
  40:	01000000 	mrseq	r0, (UNDEF: 0)
  44:	00e85000 	rsceq	r5, r8, r0
  48:	00eb0000 	rsceq	r0, fp, r0
  4c:	00010000 	andeq	r0, r1, r0
  50:	0000eb51 	andeq	lr, r0, r1, asr fp
  54:	00012400 	andeq	r2, r1, r0, lsl #8
  58:	54000100 	strpl	r0, [r0], #-256	; 0xffffff00
  5c:	00000124 	andeq	r0, r0, r4, lsr #2
  60:	0000012c 	andeq	r0, r0, ip, lsr #2
  64:	2c500001 	mrrccs	0, 0, r0, r0, cr1	; <UNPREDICTABLE>
  68:	2f000001 	svccs	0x00000001
  6c:	01000001 	tsteq	r0, r1
  70:	012f5100 			; <UNDEFINED> instruction: 0x012f5100
  74:	018c0000 	orreq	r0, ip, r0
  78:	00010000 	andeq	r0, r1, r0
  7c:	00000054 	andeq	r0, r0, r4, asr r0
	...
  88:	00002800 	andeq	r2, r0, r0, lsl #16
  8c:	00004400 	andeq	r4, r0, r0, lsl #8
  90:	50000100 	andpl	r0, r0, r0, lsl #2
  94:	00000044 	andeq	r0, r0, r4, asr #32
  98:	00000084 	andeq	r0, r0, r4, lsl #1
  9c:	01f30004 	mvnseq	r0, r4
  a0:	00009f50 	andeq	r9, r0, r0, asr pc
	...
  ac:	00280000 	eoreq	r0, r8, r0
  b0:	00340000 	eorseq	r0, r4, r0
  b4:	00010000 	andeq	r0, r1, r0
  b8:	00003451 	andeq	r3, r0, r1, asr r4
  bc:	00008400 	andeq	r8, r0, r0, lsl #8
  c0:	54000100 	strpl	r0, [r0], #-256	; 0xffffff00
	...
  cc:	00340000 	eorseq	r0, r4, r0
  d0:	00470000 	subeq	r0, r7, r0
  d4:	00010000 	andeq	r0, r1, r0
  d8:	00000051 	andeq	r0, r0, r1, asr r0
  dc:	00000000 	andeq	r0, r0, r0
  e0:	38000000 	stmdacc	r0, {}	; <UNPREDICTABLE>
  e4:	84000000 	strhi	r0, [r0], #-0
  e8:	01000000 	mrseq	r0, (UNDEF: 0)
  ec:	00005500 	andeq	r5, r0, r0, lsl #10
	...
  fc:	00140000 	andseq	r0, r4, r0
 100:	00010000 	andeq	r0, r1, r0
 104:	00001450 	andeq	r1, r0, r0, asr r4
 108:	00002800 	andeq	r2, r0, r0, lsl #16
 10c:	f3000400 	vshl.u8	d0, d0, d0
 110:	009f5001 	addseq	r5, pc, r1
	...
 120:	00019000 	andeq	r9, r1, r0
 124:	0001b400 	andeq	fp, r1, r0, lsl #8
 128:	50000100 	andpl	r0, r0, r0, lsl #2
 12c:	000001b4 			; <UNDEFINED> instruction: 0x000001b4
 130:	000001b7 			; <UNDEFINED> instruction: 0x000001b7
 134:	6c910002 	ldcvs	0, cr0, [r1], {2}
 138:	000001b7 			; <UNDEFINED> instruction: 0x000001b7
 13c:	000001cc 	andeq	r0, r0, ip, asr #3
 140:	01f30004 	mvnseq	r0, r4
 144:	00009f50 	andeq	r9, r0, r0, asr pc
	...
 154:	00000154 	andeq	r0, r0, r4, asr r1
 158:	00000178 	andeq	r0, r0, r8, ror r1
 15c:	78500001 	ldmdavc	r0, {r0}^
 160:	7b000001 	blvc	16c <__code_start__-0x7e94>
 164:	02000001 	andeq	r0, r0, #1, 0
 168:	7b6c9100 	blvc	1b24570 <__bss_end__+0x1b1ac68>
 16c:	90000001 	andls	r0, r0, r1
 170:	04000001 	streq	r0, [r0], #-1
 174:	5001f300 	andpl	pc, r1, r0, lsl #6
 178:	0000009f 	muleq	r0, pc, r0	; <UNPREDICTABLE>
	...
 184:	18000000 	stmdane	r0, {}	; <UNPREDICTABLE>
 188:	3c000001 	stccc	0, cr0, [r0], {1}
 18c:	01000001 	tsteq	r0, r1
 190:	013c5000 	teqeq	ip, r0
 194:	013f0000 	teqeq	pc, r0
 198:	00020000 	andeq	r0, r2, r0
 19c:	013f6c91 	teqeq	pc, r1	; <illegal shifter operand>	; <UNPREDICTABLE>
 1a0:	01540000 	cmpeq	r4, r0
 1a4:	00040000 	andeq	r0, r4, r0
 1a8:	9f5001f3 	svcls	0x005001f3
	...
 1b8:	00dc0000 	sbcseq	r0, ip, r0
 1bc:	01000000 	mrseq	r0, (UNDEF: 0)
 1c0:	00010000 	andeq	r0, r1, r0
 1c4:	00010050 	andeq	r0, r1, r0, asr r0
 1c8:	00010300 	andeq	r0, r1, r0, lsl #6
 1cc:	91000200 	mrsls	r0, R8_usr
 1d0:	0001036c 	andeq	r0, r1, ip, ror #6
 1d4:	00011800 	andeq	r1, r1, r0, lsl #16
 1d8:	f3000400 	vshl.u8	d0, d0, d0
 1dc:	009f5001 	addseq	r5, pc, r1
	...
 1ec:	0000a000 	andeq	sl, r0, r0
 1f0:	0000c400 	andeq	ip, r0, r0, lsl #8
 1f4:	50000100 	andpl	r0, r0, r0, lsl #2
 1f8:	000000c4 	andeq	r0, r0, r4, asr #1
 1fc:	000000c7 	andeq	r0, r0, r7, asr #1
 200:	6c910002 	ldcvs	0, cr0, [r1], {2}
 204:	000000c7 	andeq	r0, r0, r7, asr #1
 208:	000000dc 	ldrdeq	r0, [r0], -ip
 20c:	01f30004 	mvnseq	r0, r4
 210:	00009f50 	andeq	r9, r0, r0, asr pc
	...
 220:	00000064 	andeq	r0, r0, r4, rrx
 224:	00000088 	andeq	r0, r0, r8, lsl #1
 228:	88500001 	ldmdahi	r0, {r0}^
 22c:	8b000000 	blhi	234 <__code_start__-0x7dcc>
 230:	02000000 	andeq	r0, r0, #0, 0
 234:	8b6c9100 	blhi	1b2463c <__bss_end__+0x1b1ad34>
 238:	a0000000 	andge	r0, r0, r0
 23c:	04000000 	streq	r0, [r0], #-0
 240:	5001f300 	andpl	pc, r1, r0, lsl #6
 244:	0000009f 	muleq	r0, pc, r0	; <UNPREDICTABLE>
 248:	00000000 	andeq	r0, r0, r0
 24c:	30000000 	andcc	r0, r0, r0
 250:	64000000 	strvs	r0, [r0], #-0
 254:	01000000 	mrseq	r0, (UNDEF: 0)
 258:	00005000 	andeq	r5, r0, r0
 25c:	00000000 	andeq	r0, r0, r0
 260:	00020000 	andeq	r0, r2, r0
 264:	00300000 	eorseq	r0, r0, r0
 268:	00340000 	eorseq	r0, r4, r0
 26c:	00020000 	andeq	r0, r2, r0
 270:	00349f30 	eorseq	r9, r4, r0, lsr pc
 274:	00640000 	rsbeq	r0, r4, r0
 278:	00010000 	andeq	r0, r1, r0
 27c:	00000053 	andeq	r0, r0, r3, asr r0
	...
 288:	2c000000 	stccs	0, cr0, [r0], {-0}
 28c:	38000000 	stmdacc	r0, {}	; <UNPREDICTABLE>
 290:	01000000 	mrseq	r0, (UNDEF: 0)
 294:	00385000 	eorseq	r5, r8, r0
 298:	00480000 	subeq	r0, r8, r0
 29c:	00010000 	andeq	r0, r1, r0
 2a0:	00004854 	andeq	r4, r0, r4, asr r8
 2a4:	00005800 	andeq	r5, r0, r0, lsl #16
 2a8:	50000100 	andpl	r0, r0, r0, lsl #2
	...
 2b4:	00010100 	andeq	r0, r1, r0, lsl #2
 2b8:	00000000 	andeq	r0, r0, r0
 2bc:	00000008 	andeq	r0, r0, r8
 2c0:	08500001 	ldmdaeq	r0, {r0}^
 2c4:	34000000 	strcc	r0, [r0], #-0
 2c8:	01000000 	mrseq	r0, (UNDEF: 0)
 2cc:	00005400 	andeq	r5, r0, r0, lsl #8
	...
 2dc:	00000288 	andeq	r0, r0, r8, lsl #5
 2e0:	000002b8 			; <UNDEFINED> instruction: 0x000002b8
 2e4:	b8500001 	ldmdalt	r0, {r0}^
 2e8:	04000002 	streq	r0, [r0], #-2
 2ec:	01000006 	tsteq	r0, r6
 2f0:	06045900 	streq	r5, [r4], -r0, lsl #18
 2f4:	062c0000 	strteq	r0, [ip], -r0
 2f8:	00040000 	andeq	r0, r4, r0
 2fc:	9f5001f3 	svcls	0x005001f3
	...
 30c:	02880000 	addeq	r0, r8, #0, 0
 310:	02a00000 	adceq	r0, r0, #0, 0
 314:	00010000 	andeq	r0, r1, r0
 318:	0002a051 	andeq	sl, r2, r1, asr r0
 31c:	0002b800 	andeq	fp, r2, r0, lsl #16
 320:	71000300 	mrsvc	r0, LR_irq
 324:	02b89f01 	adcseq	r9, r8, #1, 30
 328:	062c0000 	strteq	r0, [ip], -r0
 32c:	00040000 	andeq	r0, r4, r0
 330:	9f5101f3 	svcls	0x005101f3
	...
 340:	00000288 	andeq	r0, r0, r8, lsl #5
 344:	000002b8 			; <UNDEFINED> instruction: 0x000002b8
 348:	b8520001 	ldmdalt	r2, {r0}^
 34c:	04000002 	streq	r0, [r0], #-2
 350:	01000006 	tsteq	r0, r6
 354:	00005600 	andeq	r5, r0, r0, lsl #12
 358:	00000000 	andeq	r0, r0, r0
 35c:	00010000 	andeq	r0, r1, r0
 360:	00000000 	andeq	r0, r0, r0
 364:	00010100 	andeq	r0, r1, r0, lsl #2
 368:	00000000 	andeq	r0, r0, r0
 36c:	00020200 	andeq	r0, r2, r0, lsl #4
 370:	029c0000 	addseq	r0, ip, #0, 0
 374:	02b80000 	adcseq	r0, r8, #0, 0
 378:	00010000 	andeq	r0, r1, r0
 37c:	0002b850 	andeq	fp, r2, r0, asr r8
 380:	0002bc00 	andeq	fp, r2, r0, lsl #24
 384:	54000100 	strpl	r0, [r0], #-256	; 0xffffff00
 388:	000002bc 			; <UNDEFINED> instruction: 0x000002bc
 38c:	000002c0 	andeq	r0, r0, r0, asr #5
 390:	01740003 	cmneq	r4, r3
 394:	0002c09f 	muleq	r2, pc, r0	; <UNPREDICTABLE>
 398:	0002e400 	andeq	lr, r2, r0, lsl #8
 39c:	54000100 	strpl	r0, [r0], #-256	; 0xffffff00
 3a0:	000002e4 	andeq	r0, r0, r4, ror #5
 3a4:	000002e8 	andeq	r0, r0, r8, ror #5
 3a8:	01740003 	cmneq	r4, r3
 3ac:	0002e89f 	muleq	r2, pc, r8	; <UNPREDICTABLE>
 3b0:	0005d400 	andeq	sp, r5, r0, lsl #8
 3b4:	54000100 	strpl	r0, [r0], #-256	; 0xffffff00
 3b8:	000005d4 	ldrdeq	r0, [r0], -r4
 3bc:	000005d8 	ldrdeq	r0, [r0], -r8
 3c0:	01740003 	cmneq	r4, r3
 3c4:	0005d89f 	muleq	r5, pc, r8	; <UNPREDICTABLE>
 3c8:	0005f000 	andeq	pc, r5, r0
 3cc:	54000100 	strpl	r0, [r0], #-256	; 0xffffff00
 3d0:	000005f0 	strdeq	r0, [r0], -r0	; <UNPREDICTABLE>
 3d4:	000005f8 	strdeq	r0, [r0], -r8
 3d8:	01740003 	cmneq	r4, r3
 3dc:	0005f89f 	muleq	r5, pc, r8	; <UNPREDICTABLE>
 3e0:	00060400 	andeq	r0, r6, r0, lsl #8
 3e4:	54000100 	strpl	r0, [r0], #-256	; 0xffffff00
	...
 3f4:	000002a4 	andeq	r0, r0, r4, lsr #5
 3f8:	00000604 	andeq	r0, r0, r4, lsl #12
 3fc:	04580001 	ldrbeq	r0, [r8], #-1
 400:	2c000006 	stccs	0, cr0, [r0], {6}
 404:	0a000006 	beq	424 <__code_start__-0x7bdc>
 408:	5101f300 	mrspl	pc, SP_irq	; <UNPREDICTABLE>
 40c:	225001f3 	subscs	r0, r0, #-1073741764	; 0xc000003c
 410:	009f1c31 	addseq	r1, pc, r1, lsr ip	; <UNPREDICTABLE>
 414:	00000000 	andeq	r0, r0, r0
 418:	01000000 	mrseq	r0, (UNDEF: 0)
 41c:	0003f000 	andeq	pc, r3, r0
 420:	00040b00 	andeq	r0, r4, r0, lsl #22
 424:	53000100 	movwpl	r0, #256	; 0x100
	...
 430:	00000001 	andeq	r0, r0, r1
 434:	000002ac 	andeq	r0, r0, ip, lsr #5
 438:	000002b8 			; <UNDEFINED> instruction: 0x000002b8
 43c:	b8520001 	ldmdalt	r2, {r0}^
 440:	2c000002 	stccs	0, cr0, [r0], {2}
 444:	03000006 	movweq	r0, #6
 448:	7dc89100 	stfvcp	f1, [r8]
	...
 458:	00010100 	andeq	r0, r1, r0, lsl #2
	...
 464:	04100000 	ldreq	r0, [r0], #-0
 468:	04280000 	strteq	r0, [r8], #-0
 46c:	00010000 	andeq	r0, r1, r0
 470:	00042850 	andeq	r2, r4, r0, asr r8
 474:	00043c00 	andeq	r3, r4, r0, lsl #24
 478:	57000100 	strpl	r0, [r0, -r0, lsl #2]
 47c:	000004a4 	andeq	r0, r0, r4, lsr #9
 480:	000004a4 	andeq	r0, r0, r4, lsr #9
 484:	a4500001 	ldrbge	r0, [r0], #-1
 488:	ac000004 	stcge	0, cr0, [r0], {4}
 48c:	01000004 	tsteq	r0, r4
 490:	04dc5700 	ldrbeq	r5, [ip], #1792	; 0x700
 494:	04e00000 	strbteq	r0, [r0], #0
 498:	00010000 	andeq	r0, r1, r0
 49c:	00051050 	andeq	r1, r5, r0, asr r0
 4a0:	00051400 	andeq	r1, r5, r0, lsl #8
 4a4:	50000100 	andpl	r0, r0, r0, lsl #2
 4a8:	00000544 	andeq	r0, r0, r4, asr #10
 4ac:	00000548 	andeq	r0, r0, r8, asr #10
 4b0:	8c500001 	mrrchi	0, 0, r0, r0, cr1	; <UNPREDICTABLE>
 4b4:	90000005 	andls	r0, r0, r5
 4b8:	01000005 	tsteq	r0, r5
 4bc:	05d05000 	ldrbeq	r5, [r0]
 4c0:	05f00000 	ldrbeq	r0, [r0, #0]!
 4c4:	00010000 	andeq	r0, r1, r0
 4c8:	00000057 	andeq	r0, r0, r7, asr r0
 4cc:	00000000 	andeq	r0, r0, r0
 4d0:	00000200 	andeq	r0, r0, r0, lsl #4
 4d4:	f4000000 	vst4.8	{d0-d3}, [r0], r0
 4d8:	f8000002 			; <UNDEFINED> instruction: 0xf8000002
 4dc:	02000002 	andeq	r0, r0, #2, 0
 4e0:	f89f3000 			; <UNDEFINED> instruction: 0xf89f3000
 4e4:	14000002 	strne	r0, [r0], #-2
 4e8:	01000003 	tsteq	r0, r3
 4ec:	031c5500 	tsteq	ip, #0, 10
 4f0:	05f00000 	ldrbeq	r0, [r0, #0]!
 4f4:	00010000 	andeq	r0, r1, r0
 4f8:	00000055 	andeq	r0, r0, r5, asr r0
	...
 504:	70000000 	andvc	r0, r0, r0
 508:	94000000 	strls	r0, [r0], #-0
 50c:	01000000 	mrseq	r0, (UNDEF: 0)
 510:	00945000 	addseq	r5, r4, r0
 514:	00fc0000 	rscseq	r0, ip, r0
 518:	00030000 	andeq	r0, r3, r0
 51c:	fc9f0270 	ldc2	2, cr0, [pc], {112}	; 0x70
 520:	24000000 	strcs	r0, [r0], #-0
 524:	04000002 	streq	r0, [r0], #-2
 528:	5001f300 	andpl	pc, r1, r0, lsl #6
 52c:	0000009f 	muleq	r0, pc, r0	; <UNPREDICTABLE>
	...
 544:	00007000 	andeq	r7, r0, r0
 548:	0000e000 	andeq	lr, r0, r0
 54c:	51000100 	mrspl	r0, (UNDEF: 16)
 550:	000000e0 	andeq	r0, r0, r0, ror #1
 554:	00000154 	andeq	r0, r0, r4, asr r1
 558:	54550001 	ldrbpl	r0, [r5], #-1
 55c:	58000001 	stmdapl	r0, {r0}
 560:	01000001 	tsteq	r0, r1
 564:	01585100 	cmpeq	r8, r0, lsl #2
 568:	01b00000 	movseq	r0, r0
 56c:	00010000 	andeq	r0, r1, r0
 570:	0001b055 	andeq	fp, r1, r5, asr r0
 574:	0001c000 	andeq	ip, r1, r0
 578:	51000100 	mrspl	r0, (UNDEF: 16)
 57c:	000001c0 	andeq	r0, r0, r0, asr #3
 580:	000001e4 	andeq	r0, r0, r4, ror #3
 584:	e4550001 	ldrb	r0, [r5], #-1
 588:	f8000001 			; <UNDEFINED> instruction: 0xf8000001
 58c:	01000001 	tsteq	r0, r1
 590:	01f85100 	mvnseq	r5, r0, lsl #2
 594:	02240000 	eoreq	r0, r4, #0, 0
 598:	00010000 	andeq	r0, r1, r0
 59c:	00000055 	andeq	r0, r0, r5, asr r0
	...
 5a8:	00007000 	andeq	r7, r0, r0
 5ac:	00008400 	andeq	r8, r0, r0, lsl #8
 5b0:	52000100 	andpl	r0, r0, #0
 5b4:	00000084 	andeq	r0, r0, r4, lsl #1
 5b8:	00000224 	andeq	r0, r0, r4, lsr #4
 5bc:	00540001 	subseq	r0, r4, r1
	...
 5cc:	00000001 	andeq	r0, r0, r1
 5d0:	70000000 	andvc	r0, r0, r0
 5d4:	f4000000 	vst4.8	{d0-d3}, [r0], r0
 5d8:	01000000 	mrseq	r0, (UNDEF: 0)
 5dc:	014c5300 	mrseq	r5, SPSR_mon
 5e0:	01800000 	orreq	r0, r0, r0
 5e4:	00010000 	andeq	r0, r1, r0
 5e8:	00018053 	andeq	r8, r1, r3, asr r0
 5ec:	00018c00 	andeq	r8, r1, r0, lsl #24
 5f0:	f3000400 	vshl.u8	d0, d0, d0
 5f4:	b09f5301 	addslt	r5, pc, r1, lsl #6
 5f8:	e8000001 	stmda	r0, {r0}
 5fc:	01000001 	tsteq	r0, r1
 600:	01e85300 	mvneq	r5, r0, lsl #6
 604:	01ff0000 	mvnseq	r0, r0
 608:	00010000 	andeq	r0, r1, r0
 60c:	0001ff5c 	andeq	pc, r1, ip, asr pc	; <UNPREDICTABLE>
 610:	00022400 	andeq	r2, r2, r0, lsl #8
 614:	f3000400 	vshl.u8	d0, d0, d0
 618:	009f5301 	addseq	r5, pc, r1, lsl #6
	...
 628:	00007000 	andeq	r7, r0, r0
 62c:	00008c00 	andeq	r8, r0, r0, lsl #24
 630:	91000200 	mrsls	r0, R8_usr
 634:	00008c00 	andeq	r8, r0, r0, lsl #24
 638:	00019300 	andeq	r9, r1, r0, lsl #6
 63c:	52000100 	andpl	r0, r0, #0
 640:	000001b0 			; <UNDEFINED> instruction: 0x000001b0
 644:	000001f4 	strdeq	r0, [r0], -r4
 648:	00520001 	subseq	r0, r2, r1
 64c:	00000000 	andeq	r0, r0, r0
 650:	01000000 	mrseq	r0, (UNDEF: 0)
 654:	01010000 	mrseq	r0, (UNDEF: 1)
	...
 660:	01010101 	tsteq	r1, r1, lsl #2
 664:	01010000 	mrseq	r0, (UNDEF: 1)
	...
 670:	8c000000 	stchi	0, cr0, [r0], {-0}
 674:	fc000000 	stc2	0, cr0, [r0], {-0}
 678:	04000000 	streq	r0, [r0], #-0
 67c:	7fa09100 	svcvc	0x00a09100
 680:	0000fc9f 	muleq	r0, pc, ip	; <UNPREDICTABLE>
 684:	00013c00 	andeq	r3, r1, r0, lsl #24
 688:	50000100 	andpl	r0, r0, r0, lsl #2
 68c:	0000013c 	andeq	r0, r0, ip, lsr r1
 690:	00000148 	andeq	r0, r0, r8, asr #2
 694:	02710003 	rsbseq	r0, r1, #3, 0
 698:	0001489f 	muleq	r1, pc, r8	; <UNPREDICTABLE>
 69c:	00014c00 	andeq	r4, r1, r0, lsl #24
 6a0:	50000100 	andpl	r0, r0, r0, lsl #2
 6a4:	0000014c 	andeq	r0, r0, ip, asr #2
 6a8:	00000158 	andeq	r0, r0, r8, asr r1
 6ac:	a0910004 	addsge	r0, r1, r4
 6b0:	01589f7f 	cmpeq	r8, pc, ror pc
 6b4:	016c0000 	cmneq	ip, r0
 6b8:	00010000 	andeq	r0, r1, r0
 6bc:	00016c51 	andeq	r6, r1, r1, asr ip
 6c0:	00017800 	andeq	r7, r1, r0, lsl #16
 6c4:	71000300 	mrsvc	r0, LR_irq
 6c8:	01789f7f 	cmneq	r8, pc, ror pc
 6cc:	01840000 	orreq	r0, r4, r0
 6d0:	00030000 	andeq	r0, r3, r0
 6d4:	849f0171 	ldrhi	r0, [pc], #369	; 6dc <__code_start__-0x7924>
 6d8:	93000001 	movwls	r0, #1
 6dc:	01000001 	tsteq	r0, r1
 6e0:	01b05000 	movseq	r5, r0
 6e4:	01b00000 	movseq	r0, r0
 6e8:	00040000 	andeq	r0, r4, r0
 6ec:	9f7fa091 	svcls	0x007fa091
 6f0:	000001b0 			; <UNDEFINED> instruction: 0x000001b0
 6f4:	000001b8 			; <UNDEFINED> instruction: 0x000001b8
 6f8:	a1910004 	orrsge	r0, r1, r4
 6fc:	01b89f7f 			; <UNDEFINED> instruction: 0x01b89f7f
 700:	01bc0000 			; <UNDEFINED> instruction: 0x01bc0000
 704:	00010000 	andeq	r0, r1, r0
 708:	0001bc50 	andeq	fp, r1, r0, asr ip
 70c:	0001c000 	andeq	ip, r1, r0
 710:	91000400 	tstls	r0, r0, lsl #8
 714:	c09f7fa0 	addsgt	r7, pc, r0, lsr #31
 718:	d4000001 	strle	r0, [r0], #-1
 71c:	01000001 	tsteq	r0, r1
 720:	01d45000 	bicseq	r5, r4, r0
 724:	01e40000 	mvneq	r0, r0
 728:	00030000 	andeq	r0, r3, r0
 72c:	e49f7f70 	ldr	r7, [pc], #3952	; 734 <__code_start__-0x78cc>
 730:	24000001 	strcs	r0, [r0], #-1
 734:	04000002 	streq	r0, [r0], #-2
 738:	7fa09100 	svcvc	0x00a09100
 73c:	0000009f 	muleq	r0, pc, r0	; <UNPREDICTABLE>
	...
 748:	00000101 	andeq	r0, r0, r1, lsl #2
	...
 758:	00009000 	andeq	r9, r0, r0
 75c:	0000dc00 	andeq	sp, r0, r0, lsl #24
 760:	5c000100 	stfpls	f0, [r0], {-0}
 764:	000000dc 	ldrdeq	r0, [r0], -ip
 768:	000000f4 	strdeq	r0, [r0], -r4
 76c:	f4530001 			; <UNDEFINED> instruction: 0xf4530001
 770:	4c000000 	stcmi	0, cr0, [r0], {-0}
 774:	01000001 	tsteq	r0, r1
 778:	014c5c00 	cmpeq	ip, r0, lsl #24
 77c:	01580000 	cmpeq	r8, r0
 780:	00010000 	andeq	r0, r1, r0
 784:	00015853 	andeq	r5, r1, r3, asr r8
 788:	00017400 	andeq	r7, r1, r0, lsl #8
 78c:	5c000100 	stfpls	f0, [r0], {-0}
 790:	000001b0 			; <UNDEFINED> instruction: 0x000001b0
 794:	000001c0 	andeq	r0, r0, r0, asr #3
 798:	c0530001 	subsgt	r0, r3, r1
 79c:	dc000001 	stcle	0, cr0, [r0], {1}
 7a0:	01000001 	tsteq	r0, r1
 7a4:	01e45c00 	mvneq	r5, r0, lsl #24
 7a8:	01e80000 	mvneq	r0, r0
 7ac:	00010000 	andeq	r0, r1, r0
 7b0:	0001e853 	andeq	lr, r1, r3, asr r8
 7b4:	0001ff00 	andeq	pc, r1, r0, lsl #30
 7b8:	5c000100 	stfpls	f0, [r0], {-0}
 7bc:	000001ff 	strdeq	r0, [r0], -pc	; <UNPREDICTABLE>
 7c0:	00000224 	andeq	r0, r0, r4, lsr #4
 7c4:	01f30004 	mvnseq	r0, r4
 7c8:	00009f53 	andeq	r9, r0, r3, asr pc
 7cc:	00000000 	andeq	r0, r0, r0
 7d0:	01010000 	mrseq	r0, (UNDEF: 1)
 7d4:	00000001 	andeq	r0, r0, r1
 7d8:	00dc0000 	sbcseq	r0, ip, r0
 7dc:	00f00000 	rscseq	r0, r0, r0
 7e0:	00020000 	andeq	r0, r2, r0
 7e4:	00f09f30 	rscseq	r9, r0, r0, lsr pc
 7e8:	00f80000 	rscseq	r0, r8, r0
 7ec:	00020000 	andeq	r0, r2, r0
 7f0:	00fc9f31 	rscseq	r9, ip, r1, lsr pc
 7f4:	014c0000 	mrseq	r0, (UNDEF: 76)
 7f8:	00010000 	andeq	r0, r1, r0
 7fc:	00014c56 	andeq	r4, r1, r6, asr ip
 800:	00015400 	andeq	r5, r1, r0, lsl #8
 804:	30000200 	andcc	r0, r0, r0, lsl #4
 808:	0000009f 	muleq	r0, pc, r0	; <UNPREDICTABLE>
	...
 814:	00000101 	andeq	r0, r0, r1, lsl #2
 818:	38000101 	stmdacc	r0, {r0, r8}
 81c:	54000000 	strpl	r0, [r0], #-0
 820:	01000000 	mrseq	r0, (UNDEF: 0)
 824:	00545000 	subseq	r5, r4, r0
 828:	00580000 	subseq	r0, r8, r0
 82c:	00010000 	andeq	r0, r1, r0
 830:	00005852 	andeq	r5, r0, r2, asr r8
 834:	00006000 	andeq	r6, r0, r0
 838:	72000300 	andvc	r0, r0, #0, 6
 83c:	00609f01 	rsbeq	r9, r0, r1, lsl #30
 840:	00640000 	rsbeq	r0, r4, r0
 844:	00010000 	andeq	r0, r1, r0
 848:	00006452 	andeq	r6, r0, r2, asr r4
 84c:	00007000 	andeq	r7, r0, r0
 850:	72000300 	andvc	r0, r0, #0, 6
 854:	00009f01 	andeq	r9, r0, r1, lsl #30
	...
 860:	00380000 	eorseq	r0, r8, r0
 864:	00500000 	subseq	r0, r0, r0
 868:	00010000 	andeq	r0, r1, r0
 86c:	00005051 	andeq	r5, r0, r1, asr r0
 870:	00007000 	andeq	r7, r0, r0
 874:	f3000400 	vshl.u8	d0, d0, d0
 878:	009f5101 	addseq	r5, pc, r1, lsl #2
	...
 888:	38000101 	stmdacc	r0, {r0, r8}
 88c:	50000000 	andpl	r0, r0, r0
 890:	01000000 	mrseq	r0, (UNDEF: 0)
 894:	00505200 	subseq	r5, r0, r0, lsl #4
 898:	005c0000 	subseq	r0, ip, r0
 89c:	00010000 	andeq	r0, r1, r0
 8a0:	00005c51 	andeq	r5, r0, r1, asr ip
 8a4:	00006000 	andeq	r6, r0, r0
 8a8:	71000300 	mrsvc	r0, LR_irq
 8ac:	00609f01 	rsbeq	r9, r0, r1, lsl #30
 8b0:	00700000 	rsbseq	r0, r0, r0
 8b4:	00010000 	andeq	r0, r1, r0
 8b8:	00000051 	andeq	r0, r0, r1, asr r0
	...
 8c4:	00003800 	andeq	r3, r0, r0, lsl #16
 8c8:	00004c00 	andeq	r4, r0, r0, lsl #24
 8cc:	53000100 	movwpl	r0, #256	; 0x100
 8d0:	0000004c 	andeq	r0, r0, ip, asr #32
 8d4:	00000068 	andeq	r0, r0, r8, rrx
 8d8:	00530001 	subseq	r0, r3, r1
	...
 8e8:	40000000 	andmi	r0, r0, r0
 8ec:	48000000 	stmdami	r0, {}	; <UNPREDICTABLE>
 8f0:	01000000 	mrseq	r0, (UNDEF: 0)
 8f4:	00485c00 	subeq	r5, r8, r0, lsl #24
 8f8:	004c0000 	subeq	r0, ip, r0
 8fc:	00080000 	andeq	r0, r8, r0
 900:	00730072 	rsbseq	r0, r3, r2, ror r0
 904:	9f01231c 	svcls	0x0001231c
 908:	0000004c 	andeq	r0, r0, ip, asr #32
 90c:	00000054 	andeq	r0, r0, r4, asr r0
 910:	00720009 	rsbseq	r0, r2, r9
 914:	1c5301f3 	ldfnee	f0, [r3], {243}	; 0xf3
 918:	549f0123 	ldrpl	r0, [pc], #291	; 920 <__code_start__-0x76e0>
 91c:	70000000 	andvc	r0, r0, r0
 920:	0a000000 	beq	928 <__code_start__-0x76d8>
 924:	5201f300 	andpl	pc, r1, #0, 6
 928:	1c5301f3 	ldfnee	f0, [r3], {243}	; 0xf3
 92c:	009f0123 	addseq	r0, pc, r3, lsr #2
 930:	00000000 	andeq	r0, r0, r0
 934:	01000000 	mrseq	r0, (UNDEF: 0)
 938:	00004c00 	andeq	r4, r0, r0, lsl #24
 93c:	00007000 	andeq	r7, r0, r0
 940:	50000100 	andpl	r0, r0, r0, lsl #2
	...
 94c:	00010100 	andeq	r0, r1, r0, lsl #2
 950:	00140000 	andseq	r0, r4, r0
 954:	001c0000 	andseq	r0, ip, r0
 958:	00010000 	andeq	r0, r1, r0
 95c:	00001c50 	andeq	r1, r0, r0, asr ip
 960:	00002400 	andeq	r2, r0, r0, lsl #8
 964:	70000300 	andvc	r0, r0, r0, lsl #6
 968:	00249f01 	eoreq	r9, r4, r1, lsl #30
 96c:	00380000 	eorseq	r0, r8, r0
 970:	00010000 	andeq	r0, r1, r0
 974:	00000050 	andeq	r0, r0, r0, asr r0
	...
 980:	00001400 	andeq	r1, r0, r0, lsl #8
 984:	00001800 	andeq	r1, r0, r0, lsl #16
 988:	51000100 	mrspl	r0, (UNDEF: 16)
 98c:	00000018 	andeq	r0, r0, r8, lsl r0
 990:	00000038 	andeq	r0, r0, r8, lsr r0
 994:	01f30004 	mvnseq	r0, r4
 998:	00009f51 	andeq	r9, r0, r1, asr pc
	...
 9a4:	00000018 	andeq	r0, r0, r8, lsl r0
 9a8:	00000038 	andeq	r0, r0, r8, lsr r0
 9ac:	00510001 	subseq	r0, r1, r1
	...
 9c0:	00000400 	andeq	r0, r0, r0, lsl #8
 9c4:	50000100 	andpl	r0, r0, r0, lsl #2
 9c8:	00000004 	andeq	r0, r0, r4
 9cc:	0000000c 	andeq	r0, r0, ip
 9d0:	30700003 	rsbscc	r0, r0, r3
 9d4:	00000c9f 	muleq	r0, pc, ip	; <UNPREDICTABLE>
 9d8:	00001400 	andeq	r1, r0, r0, lsl #8
 9dc:	f3000400 	vshl.u8	d0, d0, d0
 9e0:	009f5001 	addseq	r5, pc, r1
	...
 9ec:	24000000 	strcs	r0, [r0], #-0
 9f0:	68000002 	stmdavs	r0, {r1}
 9f4:	01000002 	tsteq	r0, r2
 9f8:	02685000 	rsbeq	r5, r8, #0, 0
 9fc:	02880000 	addeq	r0, r8, #0, 0
 a00:	00040000 	andeq	r0, r4, r0
 a04:	9f5001f3 	svcls	0x005001f3
	...
 a14:	00000224 	andeq	r0, r0, r4, lsr #4
 a18:	00000264 	andeq	r0, r0, r4, ror #4
 a1c:	64510001 	ldrbvs	r0, [r1], #-1
 a20:	88000002 	stmdahi	r0, {r1}
 a24:	04000002 	streq	r0, [r0], #-2
 a28:	5101f300 	mrspl	pc, SP_irq	; <UNPREDICTABLE>
 a2c:	0000009f 	muleq	r0, pc, r0	; <UNPREDICTABLE>
 a30:	00000000 	andeq	r0, r0, r0
 a34:	01010000 	mrseq	r0, (UNDEF: 1)
 a38:	0c000000 	stceq	0, cr0, [r0], {-0}
 a3c:	14000000 	strne	r0, [r0], #-0
 a40:	01000000 	mrseq	r0, (UNDEF: 0)
 a44:	00145300 	andseq	r5, r4, r0, lsl #6
 a48:	001c0000 	andseq	r0, ip, r0
 a4c:	00030000 	andeq	r0, r3, r0
 a50:	1c9f0473 	cfldrsne	mvf0, [pc], {115}	; 0x73
 a54:	23000000 	movwcs	r0, #0
 a58:	01000000 	mrseq	r0, (UNDEF: 0)
 a5c:	00005300 	andeq	r5, r0, r0, lsl #6
 a60:	00000000 	andeq	r0, r0, r0
 a64:	00010000 	andeq	r0, r1, r0
 a68:	00008bd4 	ldrdeq	r8, [r0], -r4
 a6c:	00008bf0 	strdeq	r8, [r0], -r0
 a70:	1c0c0006 	stcne	0, cr0, [ip], {6}
 a74:	9f201000 	svcls	0x00201000
	...
 a80:	8bd40002 	blhi	ff500a90 <__bss_end__+0xff4f7188>
 a84:	8bf00000 	blhi	ffc00a8c <__bss_end__+0xffbf7184>
 a88:	00060000 	andeq	r0, r6, r0
 a8c:	1000240c 	andne	r2, r0, ip, lsl #8
 a90:	00009f20 	andeq	r9, r0, r0, lsr #30
 a94:	00000000 	andeq	r0, r0, r0
 a98:	00030000 	andeq	r0, r3, r0
 a9c:	00008bd4 	ldrdeq	r8, [r0], -r4
 aa0:	00008bf0 	strdeq	r8, [r0], -r0
 aa4:	b4080005 	strlt	r0, [r8], #-5
 aa8:	009f2447 	addseq	r2, pc, r7, asr #8
 aac:	00000000 	andeq	r0, r0, r0
 ab0:	04000000 	streq	r0, [r0], #-0
 ab4:	008bd400 	addeq	sp, fp, r0, lsl #8
 ab8:	008bf000 	addeq	pc, fp, r0
 abc:	08000300 	stmdaeq	r0, {r8, r9}
 ac0:	00009f20 	andeq	r9, r0, r0, lsr #30
 ac4:	00000000 	andeq	r0, r0, r0
 ac8:	00020000 	andeq	r0, r2, r0
 acc:	00000000 	andeq	r0, r0, r0
 ad0:	00008ba4 	andeq	r8, r0, r4, lsr #23
 ad4:	00008ba8 	andeq	r8, r0, r8, lsr #23
 ad8:	9f300002 	svcls	0x00300002
 adc:	00008ba8 	andeq	r8, r0, r8, lsr #23
 ae0:	00008bac 	andeq	r8, r0, ip, lsr #23
 ae4:	b0530001 	subslt	r0, r3, r1
 ae8:	b800008b 	stmdalt	r0, {r0, r1, r3, r7}
 aec:	0100008b 	smlabbeq	r0, fp, r0, r0
 af0:	00005300 	andeq	r5, r0, r0, lsl #6
 af4:	00000000 	andeq	r0, r0, r0
 af8:	00020000 	andeq	r0, r2, r0
 afc:	8b8c0000 	blhi	fe300b04 <__bss_end__+0xfe2f71fc>
 b00:	8b900000 	blhi	fe400b08 <__bss_end__+0xfe3f7200>
 b04:	00020000 	andeq	r0, r2, r0
 b08:	8b909f30 	blhi	fe4287d0 <__bss_end__+0xfe41eec8>
 b0c:	8b940000 	blhi	fe500b14 <__bss_end__+0xfe4f720c>
 b10:	00010000 	andeq	r0, r1, r0
 b14:	00000050 	andeq	r0, r0, r0, asr r0
	...
 b20:	00008400 	andeq	r8, r0, r0, lsl #8
 b24:	00009000 	andeq	r9, r0, r0
 b28:	50000100 	andpl	r0, r0, r0, lsl #2
 b2c:	00000090 	muleq	r0, r0, r0
 b30:	0000009c 	muleq	r0, ip, r0
 b34:	01f30004 	mvnseq	r0, r4
 b38:	00009f50 	andeq	r9, r0, r0, asr pc
	...
 b44:	006c0000 	rsbeq	r0, ip, r0
 b48:	00780000 	rsbseq	r0, r8, r0
 b4c:	00010000 	andeq	r0, r1, r0
 b50:	00007850 	andeq	r7, r0, r0, asr r8
 b54:	00008400 	andeq	r8, r0, r0, lsl #8
 b58:	f3000400 	vshl.u8	d0, d0, d0
 b5c:	009f5001 	addseq	r5, pc, r1
	...
 b68:	48000000 	stmdami	r0, {}	; <UNPREDICTABLE>
 b6c:	53000000 	movwpl	r0, #0
 b70:	01000000 	mrseq	r0, (UNDEF: 0)
 b74:	00535000 	subseq	r5, r3, r0
 b78:	006c0000 	rsbeq	r0, ip, r0
 b7c:	00010000 	andeq	r0, r1, r0
 b80:	00000055 	andeq	r0, r0, r5, asr r0
 b84:	00000000 	andeq	r0, r0, r0
 b88:	58000000 	stmdapl	r0, {}	; <UNPREDICTABLE>
 b8c:	6c000000 	stcvs	0, cr0, [r0], {-0}
 b90:	01000000 	mrseq	r0, (UNDEF: 0)
 b94:	00005400 	andeq	r5, r0, r0, lsl #8
	...
 ba0:	0000005c 	andeq	r0, r0, ip, asr r0
 ba4:	00000060 	andeq	r0, r0, r0, rrx
 ba8:	00500001 	subseq	r0, r0, r1
	...
 bb4:	3c000000 	stccc	0, cr0, [r0], {-0}
 bb8:	3f000000 	svccc	0x00000000
 bbc:	01000000 	mrseq	r0, (UNDEF: 0)
 bc0:	003f5000 	eorseq	r5, pc, r0
 bc4:	00480000 	subeq	r0, r8, r0
 bc8:	00010000 	andeq	r0, r1, r0
 bcc:	00000054 	andeq	r0, r0, r4, asr r0
	...
 bdc:	00000400 	andeq	r0, r0, r0, lsl #8
 be0:	50000100 	andpl	r0, r0, r0, lsl #2
 be4:	00000004 	andeq	r0, r0, r4
 be8:	00000018 	andeq	r0, r0, r8, lsl r0
 bec:	00530001 	subseq	r0, r3, r1
 bf0:	00000000 	andeq	r0, r0, r0
 bf4:	01000000 	mrseq	r0, (UNDEF: 0)
 bf8:	0002a000 	andeq	sl, r2, r0
 bfc:	0002b800 	andeq	fp, r2, r0, lsl #16
 c00:	91000300 	mrsls	r0, LR_irq
 c04:	00009f6c 	andeq	r9, r0, ip, ror #30
 c08:	00000000 	andeq	r0, r0, r0
 c0c:	01000000 	mrseq	r0, (UNDEF: 0)
 c10:	02140001 	andseq	r0, r4, #1, 0
 c14:	02280000 	eoreq	r0, r8, #0, 0
 c18:	00010000 	andeq	r0, r1, r0
 c1c:	00022850 	andeq	r2, r2, r0, asr r8
 c20:	00025400 	andeq	r5, r2, r0, lsl #8
 c24:	54000100 	strpl	r0, [r0], #-256	; 0xffffff00
	...
 c30:	01f40001 	mvnseq	r0, r1
 c34:	02140000 	andseq	r0, r4, #0, 0
 c38:	00030000 	andeq	r0, r3, r0
 c3c:	009f6c91 	umullseq	r6, pc, r1, ip	; <UNPREDICTABLE>
 c40:	00000000 	andeq	r0, r0, r0
 c44:	01000000 	mrseq	r0, (UNDEF: 0)
 c48:	0001c800 	andeq	ip, r1, r0, lsl #16
 c4c:	0001d800 	andeq	sp, r1, r0, lsl #16
 c50:	f2000600 	vmax.s8	d0, d0, d0
 c54:	00002558 	andeq	r2, r0, r8, asr r5
	...
 c60:	1c000100 	stfnes	f0, [r0], {-0}
 c64:	34000000 	strcc	r0, [r0], #-0
 c68:	03000000 	movweq	r0, #0
 c6c:	9f6c9100 	svcls	0x006c9100
	...
 c7c:	000000c8 	andeq	r0, r0, r8, asr #1
 c80:	000000d4 	ldrdeq	r0, [r0], -r4
 c84:	d4500001 	ldrble	r0, [r0], #-1
 c88:	e8000000 	stmda	r0, {}	; <UNPREDICTABLE>
 c8c:	01000000 	mrseq	r0, (UNDEF: 0)
 c90:	00005400 	andeq	r5, r0, r0, lsl #8
	...
 c9c:	00b80000 	adcseq	r0, r8, r0
 ca0:	00c30000 	sbceq	r0, r3, r0
 ca4:	00010000 	andeq	r0, r1, r0
 ca8:	0000c350 	andeq	ip, r0, r0, asr r3
 cac:	0000c800 	andeq	ip, r0, r0, lsl #16
 cb0:	f3000400 	vshl.u8	d0, d0, d0
 cb4:	009f5001 	addseq	r5, pc, r1
	...
 cc4:	9c000000 	stcls	0, cr0, [r0], {-0}
 cc8:	ab000000 	blge	cd0 <__code_start__-0x7330>
 ccc:	01000000 	mrseq	r0, (UNDEF: 0)
 cd0:	00ab5000 	adceq	r5, fp, r0
 cd4:	00b00000 	adcseq	r0, r0, r0
 cd8:	00040000 	andeq	r0, r4, r0
 cdc:	9f5001f3 	svcls	0x005001f3
 ce0:	000000b0 	strheq	r0, [r0], -r0	; <UNPREDICTABLE>
 ce4:	000000b3 	strheq	r0, [r0], -r3
 ce8:	b3500001 	cmplt	r0, #1, 0
 cec:	b8000000 	stmdalt	r0, {}	; <UNPREDICTABLE>
 cf0:	04000000 	streq	r0, [r0], #-0
 cf4:	5001f300 	andpl	pc, r1, r0, lsl #6
 cf8:	0000009f 	muleq	r0, pc, r0	; <UNPREDICTABLE>
	...
 d08:	00009c00 	andeq	r9, r0, r0, lsl #24
 d0c:	0000ab00 	andeq	sl, r0, r0, lsl #22
 d10:	51000100 	mrspl	r0, (UNDEF: 16)
 d14:	000000ab 	andeq	r0, r0, fp, lsr #1
 d18:	000000b0 	strheq	r0, [r0], -r0	; <UNPREDICTABLE>
 d1c:	01f30004 	mvnseq	r0, r4
 d20:	00b09f51 	adcseq	r9, r0, r1, asr pc
 d24:	00b30000 	adcseq	r0, r3, r0
 d28:	00010000 	andeq	r0, r1, r0
 d2c:	0000b351 	andeq	fp, r0, r1, asr r3
 d30:	0000b800 	andeq	fp, r0, r0, lsl #16
 d34:	f3000400 	vshl.u8	d0, d0, d0
 d38:	009f5101 	addseq	r5, pc, r1, lsl #2
	...
 d44:	80000000 	andhi	r0, r0, r0
 d48:	90000000 	andls	r0, r0, r0
 d4c:	01000000 	mrseq	r0, (UNDEF: 0)
 d50:	00905000 	addseq	r5, r0, r0
 d54:	009c0000 	addseq	r0, ip, r0
 d58:	00040000 	andeq	r0, r4, r0
 d5c:	9f5001f3 	svcls	0x005001f3
	...
 d6c:	00000064 	andeq	r0, r0, r4, rrx
 d70:	00000074 	andeq	r0, r0, r4, ror r0
 d74:	74500001 	ldrbvc	r0, [r0], #-1
 d78:	80000000 	andhi	r0, r0, r0
 d7c:	04000000 	streq	r0, [r0], #-0
 d80:	5001f300 	andpl	pc, r1, r0, lsl #6
 d84:	0000009f 	muleq	r0, pc, r0	; <UNPREDICTABLE>
	...
 d90:	00005400 	andeq	r5, r0, r0, lsl #8
 d94:	00005f00 	andeq	r5, r0, r0, lsl #30
 d98:	50000100 	andpl	r0, r0, r0, lsl #2
 d9c:	0000005f 	andeq	r0, r0, pc, asr r0
 da0:	00000064 	andeq	r0, r0, r4, rrx
 da4:	01f30004 	mvnseq	r0, r4
 da8:	00009f50 	andeq	r9, r0, r0, asr pc
	...
 db8:	00280000 	eoreq	r0, r8, r0
 dbc:	00010000 	andeq	r0, r1, r0
 dc0:	00002850 	andeq	r2, r0, r0, asr r8
 dc4:	00005400 	andeq	r5, r0, r0, lsl #8
 dc8:	54000100 	strpl	r0, [r0], #-256	; 0xffffff00
	...
 ddc:	0000002b 	andeq	r0, r0, fp, lsr #32
 de0:	2b510001 	blcs	1440dec <__bss_end__+0x14374e4>
 de4:	54000000 	strpl	r0, [r0], #-0
 de8:	04000000 	streq	r0, [r0], #-0
 dec:	5101f300 	mrspl	pc, SP_irq	; <UNPREDICTABLE>
 df0:	0000009f 	muleq	r0, pc, r0	; <UNPREDICTABLE>
 df4:	00000000 	andeq	r0, r0, r0
 df8:	24000000 	strcs	r0, [r0], #-0
 dfc:	54000000 	strpl	r0, [r0], #-0
 e00:	01000000 	mrseq	r0, (UNDEF: 0)
 e04:	00005700 	andeq	r5, r0, r0, lsl #14
	...
 e10:	0000002c 	andeq	r0, r0, ip, lsr #32
 e14:	00000048 	andeq	r0, r0, r8, asr #32
 e18:	00500001 	subseq	r0, r0, r1
	...
 e24:	00003800 	andeq	r3, r0, r0, lsl #16
 e28:	00005400 	andeq	r5, r0, r0, lsl #8
 e2c:	55000100 	strpl	r0, [r0, #-256]	; 0xffffff00
	...
 e40:	0000000b 	andeq	r0, r0, fp
 e44:	0b500001 	bleq	1400e50 <__bss_end__+0x13f7548>
 e48:	14000000 	strne	r0, [r0], #-0
 e4c:	01000000 	mrseq	r0, (UNDEF: 0)
 e50:	00005400 	andeq	r5, r0, r0, lsl #8
	...
 e60:	001c0000 	andseq	r0, ip, r0
 e64:	00010000 	andeq	r0, r1, r0
 e68:	00001c51 	andeq	r1, r0, r1, asr ip
 e6c:	00003400 	andeq	r3, r0, r0, lsl #8
 e70:	f3000400 	vshl.u8	d0, d0, d0
 e74:	009f5101 	addseq	r5, pc, r1, lsl #2
 e78:	00000000 	andeq	r0, r0, r0
 e7c:	02000000 	andeq	r0, r0, #0, 0
 e80:	00000000 	andeq	r0, r0, r0
 e84:	00000101 	andeq	r0, r0, r1, lsl #2
 e88:	00000000 	andeq	r0, r0, r0
 e8c:	00000400 	andeq	r0, r0, r0, lsl #8
 e90:	50000100 	andpl	r0, r0, r0, lsl #2
 e94:	00000004 	andeq	r0, r0, r4
 e98:	0000001c 	andeq	r0, r0, ip, lsl r0
 e9c:	1c520001 	mrrcne	0, 0, r0, r2, cr1
 ea0:	24000000 	strcs	r0, [r0], #-0
 ea4:	01000000 	mrseq	r0, (UNDEF: 0)
 ea8:	00245300 	eoreq	r5, r4, r0, lsl #6
 eac:	00280000 	eoreq	r0, r8, r0
 eb0:	00030000 	andeq	r0, r3, r0
 eb4:	289f0173 	ldmcs	pc, {r0, r1, r4, r5, r6, r8}	; <UNPREDICTABLE>
 eb8:	34000000 	strcc	r0, [r0], #-0
 ebc:	01000000 	mrseq	r0, (UNDEF: 0)
 ec0:	00005300 	andeq	r5, r0, r0, lsl #6
 ec4:	00000000 	andeq	r0, r0, r0
 ec8:	00030000 	andeq	r0, r3, r0
 ecc:	00000000 	andeq	r0, r0, r0
 ed0:	00240000 	eoreq	r0, r4, r0
 ed4:	00010000 	andeq	r0, r1, r0
 ed8:	00002451 	andeq	r2, r0, r1, asr r4
 edc:	00003400 	andeq	r3, r0, r0, lsl #8
 ee0:	71000300 	mrsvc	r0, LR_irq
 ee4:	00009f7f 	andeq	r9, r0, pc, ror pc
	...
 ef0:	00100000 	andseq	r0, r0, r0
 ef4:	001c0000 	andseq	r0, ip, r0
 ef8:	00010000 	andeq	r0, r1, r0
 efc:	0000245c 	andeq	r2, r0, ip, asr r4
 f00:	00003400 	andeq	r3, r0, r0, lsl #8
 f04:	52000100 	andpl	r0, r0, #0
	...
 f10:	00030300 	andeq	r0, r3, r0, lsl #6
 f14:	000090e0 	andeq	r9, r0, r0, ror #1
 f18:	000090e0 	andeq	r9, r0, r0, ror #1
 f1c:	e0500001 	subs	r0, r0, r1
 f20:	0c000090 	stceq	0, cr0, [r0], {144}	; 0x90
 f24:	04000091 	streq	r0, [r0], #-145	; 0xffffff6f
 f28:	5001f300 	andpl	pc, r1, r0, lsl #6
 f2c:	0000009f 	muleq	r0, pc, r0	; <UNPREDICTABLE>
 f30:	00000000 	andeq	r0, r0, r0
 f34:	03030000 	movweq	r0, #12288	; 0x3000
 f38:	0090e000 	addseq	lr, r0, r0
 f3c:	0090e000 	addseq	lr, r0, r0
 f40:	51000100 	mrspl	r0, (UNDEF: 16)
 f44:	000090e0 	andeq	r9, r0, r0, ror #1
 f48:	0000910c 	andeq	r9, r0, ip, lsl #2
 f4c:	01f30004 	mvnseq	r0, r4
 f50:	00009f51 	andeq	r9, r0, r1, asr pc
 f54:	00000000 	andeq	r0, r0, r0
 f58:	03000000 	movweq	r0, #0
 f5c:	00000003 	andeq	r0, r0, r3
 f60:	000090e0 	andeq	r9, r0, r0, ror #1
 f64:	000090e0 	andeq	r9, r0, r0, ror #1
 f68:	e0520001 	subs	r0, r2, r1
 f6c:	e8000090 	stmda	r0, {r4, r7}
 f70:	01000090 	swpeq	r0, r0, [r0]	; <UNPREDICTABLE>
 f74:	90e85200 	rscls	r5, r8, r0, lsl #4
 f78:	910c0000 	mrsls	r0, (UNDEF: 12)
 f7c:	00030000 	andeq	r0, r3, r0
 f80:	009f0172 	addseq	r0, pc, r2, ror r1	; <UNPREDICTABLE>
 f84:	00000000 	andeq	r0, r0, r0
 f88:	02000000 	andeq	r0, r0, #0, 0
 f8c:	00000101 	andeq	r0, r0, r1, lsl #2
 f90:	e0000000 	and	r0, r0, r0
 f94:	ec000090 	stc	0, cr0, [r0], {144}	; 0x90
 f98:	01000090 	swpeq	r0, r0, [r0]	; <UNPREDICTABLE>
 f9c:	90ec5000 	rscls	r5, ip, r0
 fa0:	90f00000 	rscsls	r0, r0, r0
 fa4:	00030000 	andeq	r0, r3, r0
 fa8:	f09f0170 			; <UNDEFINED> instruction: 0xf09f0170
 fac:	00000090 	muleq	r0, r0, r0
 fb0:	01000091 	swpeq	r0, r1, [r0]	; <UNPREDICTABLE>
 fb4:	91045000 	mrsls	r5, (UNDEF: 4)
 fb8:	91080000 	mrsls	r0, (UNDEF: 8)
 fbc:	00010000 	andeq	r0, r1, r0
 fc0:	00000050 	andeq	r0, r0, r0, asr r0
 fc4:	00000000 	andeq	r0, r0, r0
 fc8:	00000200 	andeq	r0, r0, r0, lsl #4
 fcc:	e0000000 	and	r0, r0, r0
 fd0:	f0000090 			; <UNDEFINED> instruction: 0xf0000090
 fd4:	01000090 	swpeq	r0, r0, [r0]	; <UNPREDICTABLE>
 fd8:	90f05100 	rscsls	r5, r0, r0, lsl #2
 fdc:	90f40000 	rscsls	r0, r4, r0
 fe0:	00030000 	andeq	r0, r3, r0
 fe4:	f49f0171 			; <UNDEFINED> instruction: 0xf49f0171
 fe8:	0c000090 	stceq	0, cr0, [r0], {144}	; 0x90
 fec:	01000091 	swpeq	r0, r1, [r0]	; <UNPREDICTABLE>
 ff0:	00005100 	andeq	r5, r0, r0, lsl #2
 ff4:	00000000 	andeq	r0, r0, r0
	...

Disassembly of section .debug_aranges:

00000000 <.debug_aranges>:
   0:	0000001c 	andeq	r0, r0, ip, lsl r0
   4:	00000002 	andeq	r0, r0, r2
   8:	00040000 	andeq	r0, r4, r0
   c:	00000000 	andeq	r0, r0, r0
  10:	00008034 	andeq	r8, r0, r4, lsr r0
  14:	0000018c 	andeq	r0, r0, ip, lsl #3
	...
  20:	0000001c 	andeq	r0, r0, ip, lsl r0
  24:	04370002 	ldrteq	r0, [r7], #-2
  28:	00040000 	andeq	r0, r4, r0
  2c:	00000000 	andeq	r0, r0, r0
  30:	000082a8 	andeq	r8, r0, r8, lsr #5
  34:	000001cc 	andeq	r0, r0, ip, asr #3
	...
  40:	0000001c 	andeq	r0, r0, ip, lsl r0
  44:	09d70002 	ldmibeq	r7, {r1}^
  48:	00040000 	andeq	r0, r4, r0
  4c:	00000000 	andeq	r0, r0, r0
  50:	00008474 	andeq	r8, r0, r4, ror r4
  54:	00000058 	andeq	r0, r0, r8, asr r0
	...
  60:	0000001c 	andeq	r0, r0, ip, lsl r0
  64:	0b780002 	bleq	1e00074 <__bss_end__+0x1df676c>
  68:	00040000 	andeq	r0, r4, r0
  6c:	00000000 	andeq	r0, r0, r0
  70:	000084cc 	andeq	r8, r0, ip, asr #9
  74:	00000034 	andeq	r0, r0, r4, lsr r0
	...
  80:	0000001c 	andeq	r0, r0, ip, lsl r0
  84:	0c6f0002 	stcleq	0, cr0, [pc], #-8	; 84 <__code_start__-0x7f7c>
  88:	00040000 	andeq	r0, r4, r0
  8c:	00000000 	andeq	r0, r0, r0
  90:	00008500 	andeq	r8, r0, r0, lsl #10
  94:	0000062c 	andeq	r0, r0, ip, lsr #12
	...
  a0:	0000001c 	andeq	r0, r0, ip, lsl r0
  a4:	15770002 	ldrbne	r0, [r7, #-2]!
  a8:	00040000 	andeq	r0, r4, r0
  ac:	00000000 	andeq	r0, r0, r0
  b0:	00008b2c 	andeq	r8, r0, ip, lsr #22
  b4:	0000002c 	andeq	r0, r0, ip, lsr #32
	...
  c0:	0000001c 	andeq	r0, r0, ip, lsl r0
  c4:	16aa0002 	strtne	r0, [sl], r2
  c8:	00040000 	andeq	r0, r4, r0
  cc:	00000000 	andeq	r0, r0, r0
  d0:	00008b58 	andeq	r8, r0, r8, asr fp
  d4:	00000030 	andeq	r0, r0, r0, lsr r0
	...
  e0:	0000001c 	andeq	r0, r0, ip, lsl r0
  e4:	18070002 	stmdane	r7, {r1}
  e8:	00040000 	andeq	r0, r4, r0
  ec:	00000000 	andeq	r0, r0, r0
  f0:	00008b88 	andeq	r8, r0, r8, lsl #23
  f4:	00000004 	andeq	r0, r0, r4
	...
 100:	0000001c 	andeq	r0, r0, ip, lsl r0
 104:	18d90002 	ldmne	r9, {r1}^
 108:	00040000 	andeq	r0, r4, r0
 10c:	00000000 	andeq	r0, r0, r0
 110:	00008b8c 	andeq	r8, r0, ip, lsl #23
 114:	0000007c 	andeq	r0, r0, ip, ror r0
	...
 120:	0000001c 	andeq	r0, r0, ip, lsl r0
 124:	1afd0002 	bne	fff40134 <__bss_end__+0xfff3682c>
 128:	00040000 	andeq	r0, r4, r0
 12c:	00000000 	andeq	r0, r0, r0
 130:	00008c08 	andeq	r8, r0, r8, lsl #24
 134:	0000009c 	muleq	r0, ip, r0
	...
 140:	0000001c 	andeq	r0, r0, ip, lsl r0
 144:	1d790002 	ldclne	0, cr0, [r9, #-8]!
 148:	00040000 	andeq	r0, r4, r0
 14c:	00000000 	andeq	r0, r0, r0
 150:	00008cbc 			; <UNDEFINED> instruction: 0x00008cbc
 154:	000002cc 	andeq	r0, r0, ip, asr #5
	...
 160:	0000001c 	andeq	r0, r0, ip, lsl r0
 164:	271b0002 	ldrcs	r0, [fp, -r2]
 168:	00040000 	andeq	r0, r4, r0
 16c:	00000000 	andeq	r0, r0, r0
 170:	00008f88 	andeq	r8, r0, r8, lsl #31
 174:	000000e8 	andeq	r0, r0, r8, ror #1
	...
 180:	0000001c 	andeq	r0, r0, ip, lsl r0
 184:	2ada0002 	bcs	ff680194 <__bss_end__+0xff67688c>
 188:	00040000 	andeq	r0, r4, r0
 18c:	00000000 	andeq	r0, r0, r0
 190:	00009070 	andeq	r9, r0, r0, ror r0
 194:	0000003c 	andeq	r0, r0, ip, lsr r0
	...
 1a0:	0000001c 	andeq	r0, r0, ip, lsl r0
 1a4:	2c270002 	stccs	0, cr0, [r7], #-8
 1a8:	00040000 	andeq	r0, r4, r0
 1ac:	00000000 	andeq	r0, r0, r0
 1b0:	000090ac 	andeq	r9, r0, ip, lsr #1
 1b4:	00000034 	andeq	r0, r0, r4, lsr r0
	...
 1c0:	0000001c 	andeq	r0, r0, ip, lsl r0
 1c4:	2d620002 	stclcs	0, cr0, [r2, #-8]!
 1c8:	00040000 	andeq	r0, r4, r0
 1cc:	00000000 	andeq	r0, r0, r0
 1d0:	000090e0 	andeq	r9, r0, r0, ror #1
 1d4:	0000002c 	andeq	r0, r0, ip, lsr #32
	...

Disassembly of section .debug_line:

00000000 <.debug_line>:
       0:	000001b7 			; <UNDEFINED> instruction: 0x000001b7
       4:	00e00003 	rsceq	r0, r0, r3
       8:	01020000 	mrseq	r0, (UNDEF: 2)
       c:	000d0efb 	strdeq	r0, [sp], -fp
      10:	01010101 	tsteq	r1, r1, lsl #2
      14:	01000000 	mrseq	r0, (UNDEF: 0)
      18:	2f010000 	svccs	0x00010000
      1c:	72657355 	rsbvc	r7, r5, #1409286145	; 0x54000001
      20:	64612f73 	strbtvs	r2, [r1], #-3955	; 0xfffff08d
      24:	6e616972 			; <UNDEFINED> instruction: 0x6e616972
      28:	7472616d 	ldrbtvc	r6, [r2], #-365	; 0xfffffe93
      2c:	7a656e69 	bvc	195b9d8 <__bss_end__+0x19520d0>
      30:	6f72702f 	svcvs	0x0072702f
      34:	7463656a 	strbtvc	r6, [r3], #-1386	; 0xfffffa96
      38:	73632f73 	cmnvc	r3, #460	; 0x1cc
      3c:	65303431 	ldrvs	r3, [r0, #-1073]!	; 0xfffffbcf
      40:	7331322d 	teqvc	r1, #-805306366	; 0xd0000002
      44:	6c2f7270 	sfmvs	f7, 4, [pc], #-448	; fffffe8c <__bss_end__+0xffff6584>
      48:	69706269 	ldmdbvs	r0!, {r0, r3, r5, r6, r9, sp, lr}^
      4c:	636e692f 	cmnvs	lr, #770048	; 0xbc000
      50:	6564756c 	strbvs	r7, [r4, #-1388]!	; 0xfffffa94
      54:	73752f00 	cmnvc	r5, #0, 30
      58:	6f6c2f72 	svcvs	0x006c2f72
      5c:	2f6c6163 	svccs	0x006c6163
      60:	6c6c6543 	cfstr64vs	mvdx6, [ip], #-268	; 0xfffffef4
      64:	612f7261 			; <UNDEFINED> instruction: 0x612f7261
      68:	6e2d6d72 	mcrvs	13, 1, r6, cr13, cr2, {3}
      6c:	2d656e6f 	stclcs	14, cr6, [r5, #-444]!	; 0xfffffe44
      70:	69626165 	stmdbvs	r2!, {r0, r2, r5, r6, r8, sp, lr}^
      74:	7365742d 	cmnvc	r5, #754974720	; 0x2d000000
      78:	2d392f74 	ldccs	15, cr2, [r9, #-464]!	; 0xfffffe30
      7c:	39313032 	ldmdbcc	r1!, {r1, r4, r5, ip, sp}
      80:	632d3471 			; <UNDEFINED> instruction: 0x632d3471
      84:	37303173 			; <UNDEFINED> instruction: 0x37303173
      88:	696c2f65 	stmdbvs	ip!, {r0, r2, r5, r6, r8, r9, sl, fp, sp}^
      8c:	63672f62 	cmnvs	r7, #392	; 0x188
      90:	72612f63 	rsbvc	r2, r1, #396	; 0x18c
      94:	6f6e2d6d 	svcvs	0x006e2d6d
      98:	652d656e 	strvs	r6, [sp, #-1390]!	; 0xfffffa92
      9c:	2f696261 	svccs	0x00696261
      a0:	2e322e39 	mrccs	14, 1, r2, cr2, cr9, {1}
      a4:	6e692f31 	mcrvs	15, 3, r2, cr9, cr1, {1}
      a8:	64756c63 	ldrbtvs	r6, [r5], #-3171	; 0xfffff39d
      ac:	73000065 	movwvc	r0, #101	; 0x65
      b0:	61637379 	smcvs	14137	; 0x3739
      b4:	632e6c6c 			; <UNDEFINED> instruction: 0x632e6c6c
      b8:	00000000 	andeq	r0, r0, r0
      bc:	2e697072 	mcrcs	0, 3, r7, cr9, cr2, {3}
      c0:	00010068 	andeq	r0, r1, r8, rrx
      c4:	69707200 	ldmdbvs	r0!, {r9, ip, sp, lr}^
      c8:	746e692d 	strbtvc	r6, [lr], #-2349	; 0xfffff6d3
      cc:	75727265 	ldrbvc	r7, [r2, #-613]!	; 0xfffffd9b
      d0:	2e737470 	mrccs	4, 3, r7, cr3, cr0, {3}
      d4:	00010068 	andeq	r0, r1, r8, rrx
      d8:	64747300 	ldrbtvs	r7, [r4], #-768	; 0xfffffd00
      dc:	2d746e69 	ldclcs	14, cr6, [r4, #-420]!	; 0xfffffe5c
      e0:	2e636367 	cdpcs	3, 6, cr6, cr3, cr7, {3}
      e4:	00020068 	andeq	r0, r2, r8, rrx
      e8:	24050000 	strcs	r0, [r5], #-0
      ec:	34020500 	strcc	r0, [r2], #-1280	; 0xfffffb00
      f0:	03000080 	movweq	r0, #128	; 0x80
      f4:	0106010a 	tsteq	r6, sl, lsl #2
      f8:	2f060505 	svccs	0x00060505
      fc:	06820601 	streq	r0, [r2], r1, lsl #12
     100:	892e052e 	stmdbhi	lr!, {r1, r2, r3, r5, r8, sl}
     104:	05050106 	streq	r0, [r5, #-262]	; 0xfffffefa
     108:	05154b06 	ldreq	r4, [r5, #-2822]	; 0xfffff4fa
     10c:	0501060a 	streq	r0, [r1, #-1546]	; 0xfffff9f6
     110:	052f0605 	streq	r0, [pc, #-1541]!	; fffffb13 <__bss_end__+0xffff620b>
     114:	0501060d 	streq	r0, [r1, #-1549]	; 0xfffff9f3
     118:	062f0605 	strteq	r0, [pc], -r5, lsl #12
     11c:	052f0666 	streq	r0, [pc, #-1638]!	; fffffabe <__bss_end__+0xffff61b6>
     120:	05674c0d 	strbeq	r4, [r7, #-3085]!	; 0xfffff3f3
     124:	05010614 	streq	r0, [r1, #-1556]	; 0xfffff9ec
     128:	674c060d 	strbvs	r0, [ip, -sp, lsl #12]
     12c:	01061405 	tsteq	r6, r5, lsl #8
     130:	05300105 	ldreq	r0, [r0, #-261]!	; 0xfffffefb
     134:	05850610 	streq	r0, [r5, #1552]	; 0x610
     138:	13304b05 	teqne	r0, #5120	; 0x1400
     13c:	2f2f682f 	svccs	0x002f682f
     140:	4f2f2f4c 	svcmi	0x002f2f4c
     144:	054b304b 	strbeq	r3, [fp, #-75]	; 0xffffffb5
     148:	0501060f 	streq	r0, [r1, #-1551]	; 0xfffff9f1
     14c:	06670605 	strbteq	r0, [r7], -r5, lsl #12
     150:	012f064a 			; <UNDEFINED> instruction: 0x012f064a
     154:	01040200 	mrseq	r0, R12_usr
     158:	0402004a 	streq	r0, [r2], #-74	; 0xffffffb6
     15c:	02000101 	andeq	r0, r0, #1073741824	; 0x40000000
     160:	00d60104 	sbcseq	r0, r6, r4, lsl #2
     164:	2e020402 	cdpcs	4, 0, cr0, cr2, cr2, {0}
     168:	02040200 	andeq	r0, r4, #0, 4
     16c:	04020001 	streq	r0, [r2], #-1
     170:	02001402 	andeq	r1, r0, #33554432	; 0x2000000
     174:	054b0204 	strbeq	r0, [fp, #-516]	; 0xfffffdfc
     178:	0402000b 	streq	r0, [r2], #-11
     17c:	05010602 	streq	r0, [r1, #-1538]	; 0xfffff9fe
     180:	04020005 	streq	r0, [r2], #-5
     184:	004b0602 	subeq	r0, fp, r2, lsl #12
     188:	06020402 	streq	r0, [r2], -r2, lsl #8
     18c:	0402004a 	streq	r0, [r2], #-74	; 0xffffffb6
     190:	002f0602 	eoreq	r0, pc, r2, lsl #12
     194:	01020402 	tsteq	r2, r2, lsl #8
     198:	01040200 	mrseq	r0, R12_usr
     19c:	0402004a 	streq	r0, [r2], #-74	; 0xffffffb6
     1a0:	02000101 	andeq	r0, r0, #1073741824	; 0x40000000
     1a4:	00d60104 	sbcseq	r0, r6, r4, lsl #2
     1a8:	2e020402 	cdpcs	4, 0, cr0, cr2, cr2, {0}
     1ac:	02040200 	andeq	r0, r4, #0, 4
     1b0:	04020001 	streq	r0, [r2], #-1
     1b4:	1a021402 	bne	851c4 <__bss_end__+0x7b8bc>
     1b8:	39010100 	stmdbcc	r1, {r8}
     1bc:	03000001 	movweq	r0, #1
     1c0:	00007c00 	andeq	r7, r0, r0, lsl #24
     1c4:	fb010200 	blx	409ce <__bss_end__+0x370c6>
     1c8:	01000d0e 	tsteq	r0, lr, lsl #26
     1cc:	00010101 	andeq	r0, r1, r1, lsl #2
     1d0:	00010000 	andeq	r0, r1, r0
     1d4:	552f0100 	strpl	r0, [pc, #-256]!	; dc <__code_start__-0x7f24>
     1d8:	73726573 	cmnvc	r2, #482344960	; 0x1cc00000
     1dc:	7264612f 	rsbvc	r6, r4, #-1073741813	; 0xc000000b
     1e0:	6d6e6169 	stfvse	f6, [lr, #-420]!	; 0xfffffe5c
     1e4:	69747261 	ldmdbvs	r4!, {r0, r5, r6, r9, ip, sp, lr}^
     1e8:	2f7a656e 	svccs	0x007a656e
     1ec:	6a6f7270 	bvs	1bdcbb4 <__bss_end__+0x1bd32ac>
     1f0:	73746365 	cmnvc	r4, #-1811939327	; 0x94000001
     1f4:	3173632f 	cmncc	r3, pc, lsr #6
     1f8:	2d653034 	stclcs	0, cr3, [r5, #-208]!	; 0xffffff30
     1fc:	70733132 	rsbsvc	r3, r3, r2, lsr r1
     200:	696c2f72 	stmdbvs	ip!, {r1, r4, r5, r6, r8, r9, sl, fp, sp}^
     204:	2f697062 	svccs	0x00697062
     208:	6c636e69 	stclvs	14, cr6, [r3], #-420	; 0xfffffe5c
     20c:	00656475 	rsbeq	r6, r5, r5, ror r4
     210:	746e6900 	strbtvc	r6, [lr], #-2304	; 0xfffff700
     214:	75727265 	ldrbvc	r7, [r2, #-613]!	; 0xfffffd9b
     218:	2d737470 	cfldrdcs	mvd7, [r3, #-448]!	; 0xfffffe40
     21c:	00632e63 	rsbeq	r2, r3, r3, ror #28
     220:	72000000 	andvc	r0, r0, #0, 0
     224:	682e6970 	stmdavs	lr!, {r4, r5, r6, r8, fp, sp, lr}
     228:	00000100 	andeq	r0, r0, r0, lsl #2
     22c:	2d697072 	stclcs	0, cr7, [r9, #-456]!	; 0xfffffe38
     230:	65746e69 	ldrbvs	r6, [r4, #-3689]!	; 0xfffff197
     234:	70757272 	rsbsvc	r7, r5, r2, ror r2
     238:	682e7374 	stmdavs	lr!, {r2, r4, r5, r6, r8, r9, ip, sp, lr}
     23c:	00000100 	andeq	r0, r0, r0, lsl #2
     240:	00150500 	andseq	r0, r5, r0, lsl #10
     244:	82a80205 	adchi	r0, r8, #1342177280	; 0x50000000
     248:	05160000 	ldreq	r0, [r6, #-0]
     24c:	67673105 	strbvs	r3, [r7, -r5, lsl #2]!
     250:	05161335 	ldreq	r1, [r6, #-821]	; 0xfffffccb
     254:	05140612 	ldreq	r0, [r4, #-1554]	; 0xfffff9ee
     258:	05830605 	streq	r0, [r3, #1541]	; 0x605
     25c:	0d050109 	stfeqs	f0, [r5, #-36]	; 0xffffffdc
     260:	14050106 	strne	r0, [r5], #-262	; 0xfffffefa
     264:	01040200 	mrseq	r0, R12_usr
     268:	05052e06 	streq	r2, [r5, #-3590]	; 0xfffff1fa
     26c:	01040200 	mrseq	r0, R12_usr
     270:	09050106 	stmdbeq	r5, {r1, r2, r8}
     274:	03040200 	movweq	r0, #16896	; 0x4200
     278:	15054b06 	strne	r4, [r5, #-2822]	; 0xfffff4fa
     27c:	03040200 	movweq	r0, #16896	; 0x4200
     280:	10050106 	andne	r0, r5, r6, lsl #2
     284:	03040200 	movweq	r0, #16896	; 0x4200
     288:	001b0566 	andseq	r0, fp, r6, ror #10
     28c:	06030402 	streq	r0, [r3], -r2, lsl #8
     290:	001c052d 	andseq	r0, ip, sp, lsr #10
     294:	06030402 	streq	r0, [r3], -r2, lsl #8
     298:	04020001 	streq	r0, [r2], #-1
     29c:	29052e03 	stmdbcs	r5, {r0, r1, r9, sl, fp, sp}
     2a0:	0106a406 	tsteq	r6, r6, lsl #8
     2a4:	4b060205 	blmi	180ac0 <__bss_end__+0x1771b8>
     2a8:	06d60601 	ldrbeq	r0, [r6], r1, lsl #12
     2ac:	a22d052e 	eorge	r0, sp, #192937984	; 0xb800000
     2b0:	02050106 	andeq	r0, r5, #-2147483647	; 0x80000001
     2b4:	06014b06 	streq	r4, [r1], -r6, lsl #22
     2b8:	052e06d6 	streq	r0, [lr, #-1750]!	; 0xfffff92a
     2bc:	0106a020 	tsteq	r6, r0, lsr #32
     2c0:	4b060205 	blmi	180adc <__bss_end__+0x1771d4>
     2c4:	06d60601 	ldrbeq	r0, [r6], r1, lsl #12
     2c8:	a030052e 	eorsge	r0, r0, lr, lsr #10
     2cc:	02050106 	andeq	r0, r5, #-2147483647	; 0x80000001
     2d0:	06014b06 	streq	r4, [r1], -r6, lsl #22
     2d4:	052e06d6 	streq	r0, [lr, #-1750]!	; 0xfffff92a
     2d8:	0106a029 	tsteq	r6, r9, lsr #32
     2dc:	4b060205 	blmi	180af8 <__bss_end__+0x1771f0>
     2e0:	06d60601 	ldrbeq	r0, [r6], r1, lsl #12
     2e4:	a025052e 	eorge	r0, r5, lr, lsr #10
     2e8:	02050106 	andeq	r0, r5, #-2147483647	; 0x80000001
     2ec:	06014b06 	streq	r4, [r1], -r6, lsl #22
     2f0:	022e06d6 	eoreq	r0, lr, #224395264	; 0xd600000
     2f4:	0101000a 	tsteq	r1, sl
     2f8:	0000011b 	andeq	r0, r0, fp, lsl r1
     2fc:	00e90003 	rsceq	r0, r9, r3
     300:	01020000 	mrseq	r0, (UNDEF: 2)
     304:	000d0efb 	strdeq	r0, [sp], -fp
     308:	01010101 	tsteq	r1, r1, lsl #2
     30c:	01000000 	mrseq	r0, (UNDEF: 0)
     310:	6c010000 	stcvs	0, cr0, [r1], {-0}
     314:	00636269 	rsbeq	r6, r3, r9, ror #4
     318:	7273752f 	rsbsvc	r7, r3, #197132288	; 0xbc00000
     31c:	636f6c2f 	cmnvs	pc, #12032	; 0x2f00
     320:	432f6c61 			; <UNDEFINED> instruction: 0x432f6c61
     324:	616c6c65 	cmnvs	ip, r5, ror #24
     328:	72612f72 	rsbvc	r2, r1, #456	; 0x1c8
     32c:	6f6e2d6d 	svcvs	0x006e2d6d
     330:	652d656e 	strvs	r6, [sp, #-1390]!	; 0xfffffa92
     334:	2d696261 	sfmcs	f6, 2, [r9, #-388]!	; 0xfffffe7c
     338:	74736574 	ldrbtvc	r6, [r3], #-1396	; 0xfffffa8c
     33c:	322d392f 	eorcc	r3, sp, #770048	; 0xbc000
     340:	71393130 	teqvc	r9, r0, lsr r1
     344:	73632d34 	cmnvc	r3, #52, 26	; 0xd00
     348:	65373031 	ldrvs	r3, [r7, #-49]!	; 0xffffffcf
     34c:	62696c2f 	rsbvs	r6, r9, #12032	; 0x2f00
     350:	6363672f 	cmnvs	r3, #12320768	; 0xbc0000
     354:	6d72612f 	ldfvse	f6, [r2, #-188]!	; 0xffffff44
     358:	6e6f6e2d 	cdpvs	14, 6, cr6, cr15, cr13, {1}
     35c:	61652d65 	cmnvs	r5, r5, ror #26
     360:	392f6962 	stmdbcc	pc!, {r1, r5, r6, r8, fp, sp, lr}	; <UNPREDICTABLE>
     364:	312e322e 			; <UNDEFINED> instruction: 0x312e322e
     368:	636e692f 	cmnvs	lr, #770048	; 0xbc000
     36c:	6564756c 	strbvs	r7, [r4, #-1388]!	; 0xfffffa94
     370:	73552f00 	cmpvc	r5, #0, 30
     374:	2f737265 	svccs	0x00737265
     378:	69726461 	ldmdbvs	r2!, {r0, r5, r6, sl, sp, lr}^
     37c:	616d6e61 	cmnvs	sp, r1, ror #28
     380:	6e697472 	mcrvs	4, 3, r7, cr9, cr2, {3}
     384:	702f7a65 	eorvc	r7, pc, r5, ror #20
     388:	656a6f72 	strbvs	r6, [sl, #-3954]!	; 0xfffff08e
     38c:	2f737463 	svccs	0x00737463
     390:	34317363 	ldrtcc	r7, [r1], #-867	; 0xfffffc9d
     394:	322d6530 	eorcc	r6, sp, #48, 10	; 0xc000000
     398:	72707331 	rsbsvc	r7, r0, #-1006632960	; 0xc4000000
     39c:	62696c2f 	rsbvs	r6, r9, #12032	; 0x2f00
     3a0:	692f6970 	stmdbvs	pc!, {r4, r5, r6, r8, fp, sp, lr}	; <UNPREDICTABLE>
     3a4:	756c636e 	strbvc	r6, [ip, #-878]!	; 0xfffffc92
     3a8:	00006564 	andeq	r6, r0, r4, ror #10
     3ac:	6e697270 	mcrvs	2, 3, r7, cr9, cr0, {3}
     3b0:	632e6b74 			; <UNDEFINED> instruction: 0x632e6b74
     3b4:	00000100 	andeq	r0, r0, r0, lsl #2
     3b8:	61647473 	smcvs	18243	; 0x4743
     3bc:	682e6772 	stmdavs	lr!, {r1, r4, r5, r6, r8, r9, sl, sp, lr}
     3c0:	00000200 	andeq	r0, r0, r0, lsl #4
     3c4:	2e697072 	mcrcs	0, 3, r7, cr9, cr2, {3}
     3c8:	00030068 	andeq	r0, r3, r8, rrx
     3cc:	75623c00 	strbvc	r3, [r2, #-3072]!	; 0xfffff400
     3d0:	2d746c69 	ldclcs	12, cr6, [r4, #-420]!	; 0xfffffe5c
     3d4:	003e6e69 	eorseq	r6, lr, r9, ror #28
     3d8:	76000000 	strvc	r0, [r0], -r0
     3dc:	72702d61 	rsbsvc	r2, r0, #6208	; 0x1840
     3e0:	6b746e69 	blvs	1d1bd8c <__bss_end__+0x1d12484>
     3e4:	0100682e 	tsteq	r0, lr, lsr #16
     3e8:	05000000 	streq	r0, [r0, #-0]
     3ec:	02050022 	andeq	r0, r5, #34, 0	; 0x22
     3f0:	00008474 	andeq	r8, r0, r4, ror r4
     3f4:	05010617 	streq	r0, [r1, #-1559]	; 0xfffff9e9
     3f8:	13680605 	cmnne	r8, #5242880	; 0x500000
     3fc:	4b090514 	blmi	241854 <__bss_end__+0x237f4c>
     400:	01061205 	tsteq	r6, r5, lsl #4
     404:	bb060505 	bllt	181820 <__bss_end__+0x177f18>
     408:	06660616 			; <UNDEFINED> instruction: 0x06660616
     40c:	06010534 			; <UNDEFINED> instruction: 0x06010534
     410:	08026613 	stmdaeq	r2, {r0, r1, r4, r9, sl, sp, lr}
     414:	b3010100 	movwlt	r0, #4352	; 0x1100
     418:	03000000 	movweq	r0, #0
     41c:	00006500 	andeq	r6, r0, r0, lsl #10
     420:	fb010200 	blx	40c2a <__bss_end__+0x37322>
     424:	01000d0e 	tsteq	r0, lr, lsl #26
     428:	00010101 	andeq	r0, r1, r1, lsl #2
     42c:	00010000 	andeq	r0, r1, r0
     430:	696c0100 	stmdbvs	ip!, {r8}^
     434:	2f006362 	svccs	0x00006362
     438:	72657355 	rsbvc	r7, r5, #1409286145	; 0x54000001
     43c:	64612f73 	strbtvs	r2, [r1], #-3955	; 0xfffff08d
     440:	6e616972 			; <UNDEFINED> instruction: 0x6e616972
     444:	7472616d 	ldrbtvc	r6, [r2], #-365	; 0xfffffe93
     448:	7a656e69 	bvc	195bdf4 <__bss_end__+0x19524ec>
     44c:	6f72702f 	svcvs	0x0072702f
     450:	7463656a 	strbtvc	r6, [r3], #-1386	; 0xfffffa96
     454:	73632f73 	cmnvc	r3, #460	; 0x1cc
     458:	65303431 	ldrvs	r3, [r0, #-1073]!	; 0xfffffbcf
     45c:	7331322d 	teqvc	r1, #-805306366	; 0xd0000002
     460:	6c2f7270 	sfmvs	f7, 4, [pc], #-448	; 2a8 <__code_start__-0x7d58>
     464:	69706269 	ldmdbvs	r0!, {r0, r3, r5, r6, r9, sp, lr}^
     468:	636e692f 	cmnvs	lr, #770048	; 0xbc000
     46c:	6564756c 	strbvs	r7, [r4, #-1388]!	; 0xfffffa94
     470:	75700000 	ldrbvc	r0, [r0, #-0]!
     474:	632e6b74 			; <UNDEFINED> instruction: 0x632e6b74
     478:	00000100 	andeq	r0, r0, r0, lsl #2
     47c:	2e697072 	mcrcs	0, 3, r7, cr9, cr2, {3}
     480:	00020068 	andeq	r0, r2, r8, rrx
     484:	22050000 	andcs	r0, r5, #0, 0
     488:	cc020500 	cfstr32gt	mvfx0, [r2], {-0}
     48c:	15000084 	strne	r0, [r0, #-132]	; 0xffffff7c
     490:	05050106 	streq	r0, [r5, #-262]	; 0xfffffefa
     494:	0b054b06 	bleq	1530b4 <__bss_end__+0x1497ac>
     498:	01040200 	mrseq	r0, R12_usr
     49c:	00050501 	andeq	r0, r5, r1, lsl #10
     4a0:	06010402 	streq	r0, [r1], -r2, lsl #8
     4a4:	0009052e 	andeq	r0, r9, lr, lsr #10
     4a8:	06020402 	streq	r0, [r2], -r2, lsl #8
     4ac:	000f054b 	andeq	r0, pc, fp, asr #10
     4b0:	65020402 	strvs	r0, [r2, #-1026]	; 0xfffffbfe
     4b4:	02001005 	andeq	r1, r0, #5, 0
     4b8:	01060204 	tsteq	r6, r4, lsl #4
     4bc:	02040200 	andeq	r0, r4, #0, 4
     4c0:	0605052e 	streq	r0, [r5], -lr, lsr #10
     4c4:	06010532 			; <UNDEFINED> instruction: 0x06010532
     4c8:	00060213 	andeq	r0, r6, r3, lsl r2
     4cc:	05c50101 	strbeq	r0, [r5, #257]	; 0x101
     4d0:	00030000 	andeq	r0, r3, r0
     4d4:	000000ff 	strdeq	r0, [r0], -pc	; <UNPREDICTABLE>
     4d8:	0efb0102 	cdpeq	1, 15, cr0, cr11, cr2, {0}
     4dc:	0101000d 	tsteq	r1, sp
     4e0:	00000101 	andeq	r0, r0, r1, lsl #2
     4e4:	00000100 	andeq	r0, r0, r0, lsl #2
     4e8:	62696c01 	rsbvs	r6, r9, #256	; 0x100
     4ec:	752f0063 	strvc	r0, [pc, #-99]!	; 491 <__code_start__-0x7b6f>
     4f0:	6c2f7273 	sfmvs	f7, 4, [pc], #-460	; 32c <__code_start__-0x7cd4>
     4f4:	6c61636f 	stclvs	3, cr6, [r1], #-444	; 0xfffffe44
     4f8:	6c65432f 	stclvs	3, cr4, [r5], #-188	; 0xffffff44
     4fc:	2f72616c 	svccs	0x0072616c
     500:	2d6d7261 	sfmcs	f7, 2, [sp, #-388]!	; 0xfffffe7c
     504:	656e6f6e 	strbvs	r6, [lr, #-3950]!	; 0xfffff092
     508:	6261652d 	rsbvs	r6, r1, #188743680	; 0xb400000
     50c:	65742d69 	ldrbvs	r2, [r4, #-3433]!	; 0xfffff297
     510:	392f7473 	stmdbcc	pc!, {r0, r1, r4, r5, r6, sl, ip, sp, lr}	; <UNPREDICTABLE>
     514:	3130322d 	teqcc	r0, sp, lsr #4
     518:	2d347139 	ldfcss	f7, [r4, #-228]!	; 0xffffff1c
     51c:	30317363 	eorscc	r7, r1, r3, ror #6
     520:	6c2f6537 	cfstr32vs	mvfx6, [pc], #-220	; 44c <__code_start__-0x7bb4>
     524:	672f6269 	strvs	r6, [pc, -r9, ror #4]!
     528:	612f6363 			; <UNDEFINED> instruction: 0x612f6363
     52c:	6e2d6d72 	mcrvs	13, 1, r6, cr13, cr2, {3}
     530:	2d656e6f 	stclcs	14, cr6, [r5, #-444]!	; 0xfffffe44
     534:	69626165 	stmdbvs	r2!, {r0, r2, r5, r6, r8, sp, lr}^
     538:	322e392f 	eorcc	r3, lr, #770048	; 0xbc000
     53c:	692f312e 	stmdbvs	pc!, {r1, r2, r3, r5, r8, ip, sp}	; <UNPREDICTABLE>
     540:	756c636e 	strbvc	r6, [ip, #-878]!	; 0xfffffc92
     544:	2f006564 	svccs	0x00006564
     548:	72657355 	rsbvc	r7, r5, #1409286145	; 0x54000001
     54c:	64612f73 	strbtvs	r2, [r1], #-3955	; 0xfffff08d
     550:	6e616972 			; <UNDEFINED> instruction: 0x6e616972
     554:	7472616d 	ldrbtvc	r6, [r2], #-365	; 0xfffffe93
     558:	7a656e69 	bvc	195bf04 <__bss_end__+0x19525fc>
     55c:	6f72702f 	svcvs	0x0072702f
     560:	7463656a 	strbtvc	r6, [r3], #-1386	; 0xfffffa96
     564:	73632f73 	cmnvc	r3, #460	; 0x1cc
     568:	65303431 	ldrvs	r3, [r0, #-1073]!	; 0xfffffbcf
     56c:	7331322d 	teqvc	r1, #-805306366	; 0xd0000002
     570:	6c2f7270 	sfmvs	f7, 4, [pc], #-448	; 3b8 <__code_start__-0x7c48>
     574:	69706269 	ldmdbvs	r0!, {r0, r3, r5, r6, r9, sp, lr}^
     578:	636e692f 	cmnvs	lr, #770048	; 0xbc000
     57c:	6564756c 	strbvs	r7, [r4, #-1388]!	; 0xfffffa94
     580:	61760000 	cmnvs	r6, r0
     584:	6972702d 	ldmdbvs	r2!, {r0, r2, r3, r5, ip, sp, lr}^
     588:	2e6b746e 	cdpcs	4, 6, cr7, cr11, cr14, {3}
     58c:	00010063 	andeq	r0, r1, r3, rrx
     590:	64747300 	ldrbtvs	r7, [r4], #-768	; 0xfffffd00
     594:	2d746e69 	ldclcs	14, cr6, [r4, #-420]!	; 0xfffffe5c
     598:	2e636367 	cdpcs	3, 6, cr6, cr3, cr7, {3}
     59c:	00020068 	andeq	r0, r2, r8, rrx
     5a0:	69707200 	ldmdbvs	r0!, {r9, ip, sp, lr}^
     5a4:	0300682e 	movweq	r6, #2094	; 0x82e
     5a8:	70720000 	rsbsvc	r0, r2, r0
     5ac:	6e692d69 	cdpvs	13, 6, cr2, cr9, cr9, {3}
     5b0:	6e726574 	mrcvs	5, 3, r6, cr2, cr4, {3}
     5b4:	682e6c61 	stmdavs	lr!, {r0, r5, r6, sl, fp, sp, lr}
     5b8:	00000300 	andeq	r0, r0, r0, lsl #6
     5bc:	61647473 	smcvs	18243	; 0x4743
     5c0:	682e6772 	stmdavs	lr!, {r1, r4, r5, r6, r8, r9, sl, sp, lr}
     5c4:	00000200 	andeq	r0, r0, r0, lsl #4
     5c8:	6975623c 	ldmdbvs	r5!, {r2, r3, r4, r5, r9, sp, lr}^
     5cc:	692d746c 	pushvs	{r2, r3, r5, r6, sl, ip, sp, lr}
     5d0:	00003e6e 	andeq	r3, r0, lr, ror #28
     5d4:	05000000 	streq	r0, [r0, #-0]
     5d8:	0205001b 	andeq	r0, r5, #27, 0
     5dc:	00008500 	andeq	r8, r0, r0, lsl #10
     5e0:	05012603 	streq	r2, [r1, #-1539]	; 0xfffff9fd
     5e4:	2d05011d 	stfcss	f0, [r5, #-116]	; 0xffffff8c
     5e8:	01050106 	tsteq	r5, r6, lsl #2
     5ec:	33054a2e 	movwcc	r4, #23086	; 0x5a2e
     5f0:	02055106 	andeq	r5, r5, #-2147483647	; 0x80000001
     5f4:	06060513 			; <UNDEFINED> instruction: 0x06060513
     5f8:	06020501 	streq	r0, [r2], -r1, lsl #10
     5fc:	00080530 	andeq	r0, r8, r0, lsr r5
     600:	01010402 	tsteq	r1, r2, lsl #8
     604:	02000205 	andeq	r0, r0, #1342177280	; 0x50000000
     608:	01060104 	tsteq	r6, r4, lsl #2
     60c:	02000305 	andeq	r0, r0, #335544320	; 0x14000000
     610:	2f060204 	svccs	0x00060204
     614:	02000805 	andeq	r0, r0, #327680	; 0x50000
     618:	01060204 	tsteq	r6, r4, lsl #4
     61c:	02001505 	andeq	r1, r0, #20971520	; 0x1400000
     620:	49060204 	stmdbmi	r6, {r2, r9}
     624:	02001805 	andeq	r1, r0, #327680	; 0x50000
     628:	01060204 	tsteq	r6, r4, lsl #4
     62c:	02040200 	andeq	r0, r4, #0, 4
     630:	0602052e 	streq	r0, [r2], -lr, lsr #10
     634:	06050530 			; <UNDEFINED> instruction: 0x06050530
     638:	06020501 	streq	r0, [r2], -r1, lsl #10
     63c:	0601054b 	streq	r0, [r1], -fp, asr #10
     640:	063e0513 			; <UNDEFINED> instruction: 0x063e0513
     644:	14020531 	strne	r0, [r2], #-1329	; 0xfffffacf
     648:	01060e05 	tsteq	r6, r5, lsl #28
     64c:	052e0605 	streq	r0, [lr, #-1541]!	; 0xfffff9fb
     650:	052f0602 	streq	r0, [pc, #-1538]!	; 56 <__code_start__-0x7faa>
     654:	05010604 	streq	r0, [r1, #-1540]	; 0xfffff9fc
     658:	052f0603 	streq	r0, [pc, #-1539]!	; 5d <__code_start__-0x7fa3>
     65c:	05010611 	streq	r0, [r1, #-1553]	; 0xfffff9ef
     660:	02052e09 	andeq	r2, r5, #144	; 0x90
     664:	05153006 	ldreq	r3, [r5, #-6]
     668:	05010607 	streq	r0, [r1, #-1543]	; 0xfffff9f9
     66c:	0b052e02 	bleq	14be7c <__bss_end__+0x142574>
     670:	01040200 	mrseq	r0, R12_usr
     674:	02052e06 	andeq	r2, r5, #96	; 0x60
     678:	01040200 	mrseq	r0, R12_usr
     67c:	03050106 	movweq	r0, #20742	; 0x5106
     680:	03040200 	movweq	r0, #16896	; 0x4200
     684:	0c052f06 	stceq	15, cr2, [r5], {6}
     688:	03040200 	movweq	r0, #16896	; 0x4200
     68c:	0a050106 	beq	140aac <__bss_end__+0x1371a4>
     690:	03040200 	movweq	r0, #16896	; 0x4200
     694:	0017052e 	andseq	r0, r7, lr, lsr #10
     698:	06030402 	streq	r0, [r3], -r2, lsl #8
     69c:	0402002d 	streq	r0, [r2], #-45	; 0xffffffd3
     6a0:	05010603 	streq	r0, [r1, #-1539]	; 0xfffff9fd
     6a4:	05300602 	ldreq	r0, [r0, #-1538]!	; 0xfffff9fe
     6a8:	2e010609 	cfmadd32cs	mvax0, mvfx0, mvfx1, mvfx9
     6ac:	30060205 	andcc	r0, r6, r5, lsl #4
     6b0:	13060105 	movwne	r0, #24837	; 0x6105
     6b4:	31064905 	tstcc	r6, r5, lsl #18
     6b8:	02050106 	andeq	r0, r5, #-2147483647	; 0x80000001
     6bc:	0405a006 	streq	sl, [r5], #-6
     6c0:	03050106 	movweq	r0, #20742	; 0x5106
     6c4:	09052f06 	stmdbeq	r5, {r1, r2, r8, r9, sl, fp, sp}
     6c8:	02050106 	andeq	r0, r5, #-2147483647	; 0x80000001
     6cc:	05133006 	ldreq	r3, [r3, #-6]
     6d0:	0501060b 	streq	r0, [r1, #-1547]	; 0xfffff9f5
     6d4:	06300602 	ldrteq	r0, [r0], -r2, lsl #12
     6d8:	0604052e 	streq	r0, [r4], -lr, lsr #10
     6dc:	13152402 	tstne	r5, #33554432	; 0x2000000
     6e0:	01060f05 	tsteq	r6, r5, lsl #30
     6e4:	4a06052e 	bmi	181ba4 <__bss_end__+0x17829c>
     6e8:	4b060505 	blmi	181b04 <__bss_end__+0x1781fc>
     6ec:	06090513 			; <UNDEFINED> instruction: 0x06090513
     6f0:	06050501 	streq	r0, [r5], -r1, lsl #10
     6f4:	060b052f 	streq	r0, [fp], -pc, lsr #10
     6f8:	000d0510 	andeq	r0, sp, r0, lsl r5
     6fc:	2c010402 	cfstrscs	mvf0, [r1], {2}
     700:	02000405 	andeq	r0, r0, #83886080	; 0x5000000
     704:	34060104 	strcc	r0, [r6], #-260	; 0xfffffefc
     708:	02000505 	andeq	r0, r0, #20971520	; 0x1400000
     70c:	05130104 	ldreq	r0, [r3, #-260]	; 0xfffffefc
     710:	0402001b 	streq	r0, [r2], #-27	; 0xffffffe5
     714:	05010601 	streq	r0, [r1, #-1537]	; 0xfffff9ff
     718:	04020007 	streq	r0, [r2], #-7
     71c:	1805d601 	stmdane	r5, {r0, r9, sl, ip, lr, pc}
     720:	01040200 	mrseq	r0, R12_usr
     724:	000a052e 	andeq	r0, sl, lr, lsr #10
     728:	4a010402 	bmi	41738 <__bss_end__+0x37e30>
     72c:	02000b05 	andeq	r0, r0, #5120	; 0x1400
     730:	2f060104 	svccs	0x00060104
     734:	02000e05 	andeq	r0, r0, #80	; 0x50
     738:	2e060104 	adfcss	f0, f6, f4
     73c:	02000405 	andeq	r0, r0, #83886080	; 0x5000000
     740:	062e0104 	strteq	r0, [lr], -r4, lsl #2
     744:	0606054b 	streq	r0, [r6], -fp, asr #10
     748:	06050501 	streq	r0, [r5], -r1, lsl #10
     74c:	060a052f 	streq	r0, [sl], -pc, lsr #10
     750:	4a070501 	bmi	1c1b5c <__bss_end__+0x1b8254>
     754:	030d052e 	movweq	r0, #54574	; 0xd52e
     758:	054a2e76 	strbeq	r2, [sl, #-3702]	; 0xfffff18a
     75c:	0d050d0b 	stceq	13, cr0, [r5, #-44]	; 0xffffffd4
     760:	01040200 	mrseq	r0, R12_usr
     764:	2e140306 	cdpcs	3, 1, cr0, cr4, cr6, {0}
     768:	02001105 	andeq	r1, r0, #1073741825	; 0x40000001
     76c:	05130104 	ldreq	r0, [r3, #-260]	; 0xfffffefc
     770:	0402002d 	streq	r0, [r2], #-45	; 0xffffffd3
     774:	05010601 	streq	r0, [r1, #-1537]	; 0xfffff9ff
     778:	0402002a 	streq	r0, [r2], #-42	; 0xffffffd6
     77c:	16052e01 	strne	r2, [r5], -r1, lsl #28
     780:	01040200 	mrseq	r0, R12_usr
     784:	0014054a 	andseq	r0, r4, sl, asr #10
     788:	06010402 	streq	r0, [r1], -r2, lsl #8
     78c:	000d054b 	andeq	r0, sp, fp, asr #10
     790:	06010402 	streq	r0, [r1], -r2, lsl #8
     794:	04020001 	streq	r0, [r2], #-1
     798:	2f064a01 	svccs	0x00064a01
     79c:	01061205 	tsteq	r6, r5, lsl #4
     7a0:	060d054a 	streq	r0, [sp], -sl, asr #10
     7a4:	0612052f 	ldreq	r0, [r2], -pc, lsr #10
     7a8:	06190501 	ldreq	r0, [r9], -r1, lsl #10
     7ac:	0004054b 	andeq	r0, r4, fp, asr #10
     7b0:	03020402 	movweq	r0, #9218	; 0x2402
     7b4:	02000111 	andeq	r0, r0, #1073741828	; 0x40000004
     7b8:	05010204 	streq	r0, [r1, #-516]	; 0xfffffdfc
     7bc:	04020002 	streq	r0, [r2], #-2
     7c0:	09051502 	stmdbeq	r5, {r1, r8, sl, ip}
     7c4:	02040200 	andeq	r0, r4, #0, 4
     7c8:	02000106 	andeq	r0, r0, #-2147483647	; 0x80000001
     7cc:	054a0204 	strbeq	r0, [sl, #-516]	; 0xfffffdfc
     7d0:	04020001 	streq	r0, [r2], #-1
     7d4:	04059f02 	streq	r9, [r5], #-3842	; 0xfffff0fe
     7d8:	4a6e0306 	bmi	1b813f8 <__bss_end__+0x1b77af0>
     7dc:	01060905 	tsteq	r6, r5, lsl #18
     7e0:	2f060405 	svccs	0x00060405
     7e4:	11060605 	tstne	r6, r5, lsl #12
     7e8:	052f0405 	streq	r0, [pc, #-1029]!	; 3eb <__code_start__-0x7c15>
     7ec:	2e63030b 	cdpcs	3, 6, cr0, cr3, cr11, {0}
     7f0:	02001905 	andeq	r1, r0, #81920	; 0x14000
     7f4:	03060104 	movweq	r0, #24836	; 0x6104
     7f8:	1a052e24 	bne	14c090 <__bss_end__+0x142788>
     7fc:	01040200 	mrseq	r0, R12_usr
     800:	00280513 	eoreq	r0, r8, r3, lsl r5
     804:	06010402 	streq	r0, [r1], -r2, lsl #8
     808:	00250501 	eoreq	r0, r5, r1, lsl #10
     80c:	2e010402 	cdpcs	4, 0, cr0, cr1, cr2, {0}
     810:	02001f05 	andeq	r1, r0, #5, 30
     814:	054a0104 	strbeq	r0, [sl, #-260]	; 0xfffffefc
     818:	0402000b 	streq	r0, [r2], #-11
     81c:	054b0601 	strbeq	r0, [fp, #-1537]	; 0xfffff9ff
     820:	04020004 	streq	r0, [r2], #-4
     824:	00010601 	andeq	r0, r1, r1, lsl #12
     828:	4a010402 	bmi	41838 <__bss_end__+0x37f30>
     82c:	01040200 	mrseq	r0, R12_usr
     830:	02004e06 	andeq	r4, r0, #96	; 0x60
     834:	00010104 	andeq	r0, r1, r4, lsl #2
     838:	01010402 	tsteq	r1, r2, lsl #8
     83c:	01040200 	mrseq	r0, R12_usr
     840:	04020001 	streq	r0, [r2], #-1
     844:	002e0601 	eoreq	r0, lr, r1, lsl #12
     848:	66010402 	strvs	r0, [r1], -r2, lsl #8
     84c:	01040200 	mrseq	r0, R12_usr
     850:	0402002e 	streq	r0, [r2], #-46	; 0xffffffd2
     854:	054a0601 	strbeq	r0, [sl, #-1537]	; 0xfffff9ff
     858:	7fa60348 	svcvc	0x00a60348
     85c:	05052008 	streq	r2, [r5, #-8]
     860:	2e060113 	mcrcs	1, 0, r0, cr6, cr3, {0}
     864:	02040200 	andeq	r0, r4, #0, 4
     868:	02002e06 	andeq	r2, r0, #96	; 0x60
     86c:	00010204 	andeq	r0, r1, r4, lsl #4
     870:	13020402 	movwne	r0, #9218	; 0x2402
     874:	02001105 	andeq	r1, r0, #1073741825	; 0x40000001
     878:	01060204 	tsteq	r6, r4, lsl #4
     87c:	02000505 	andeq	r0, r0, #20971520	; 0x1400000
     880:	4b060204 	blmi	181098 <__bss_end__+0x177790>
     884:	02000705 	andeq	r0, r0, #1310720	; 0x140000
     888:	01060204 	tsteq	r6, r4, lsl #4
     88c:	4b060905 	blmi	182ca8 <__bss_end__+0x1793a0>
     890:	01060e05 	tsteq	r6, r5, lsl #28
     894:	02004805 	andeq	r4, r0, #327680	; 0x50000
     898:	05620104 	strbeq	r0, [r2, #-260]!	; 0xfffffefc
     89c:	04020005 	streq	r0, [r2], #-5
     8a0:	004b0601 	subeq	r0, fp, r1, lsl #12
     8a4:	01010402 	tsteq	r1, r2, lsl #8
     8a8:	01040200 	mrseq	r0, R12_usr
     8ac:	02009e06 	andeq	r9, r0, #96	; 0x60
     8b0:	002e0104 	eoreq	r0, lr, r4, lsl #2
     8b4:	06010402 	streq	r0, [r1], -r2, lsl #8
     8b8:	0340052e 	movteq	r0, #1326	; 0x52e
     8bc:	06d600e1 	ldrbeq	r0, [r6], r1, ror #1
     8c0:	06020501 	streq	r0, [r2], -r1, lsl #10
     8c4:	061e059f 			; <UNDEFINED> instruction: 0x061e059f
     8c8:	2e120501 	cfmul32cs	mvfx0, mvfx2, mvfx1
     8cc:	2f060505 	svccs	0x00060505
     8d0:	05140205 	ldreq	r0, [r4, #-517]	; 0xfffffdfb
     8d4:	05010609 	streq	r0, [r1, #-1545]	; 0xfffff9f7
     8d8:	054b0605 	strbeq	r0, [fp, #-1541]	; 0xfffff9fb
     8dc:	08051302 	stmdaeq	r5, {r1, r8, r9, ip}
     8e0:	02050d06 	andeq	r0, r5, #384	; 0x180
     8e4:	06040533 			; <UNDEFINED> instruction: 0x06040533
     8e8:	060f054c 	streq	r0, [pc], -ip, asr #10
     8ec:	2e090501 	cfsh32cs	mvfx0, mvfx9, #1
     8f0:	2c060805 	stccs	8, cr0, [r6], {5}
     8f4:	2e060205 	cdpcs	2, 0, cr0, cr6, cr5, {0}
     8f8:	02000d05 	andeq	r0, r0, #320	; 0x140
     8fc:	054a0104 	strbeq	r0, [sl, #-260]	; 0xfffffefc
     900:	054b0603 	strbeq	r0, [fp, #-1539]	; 0xfffff9fd
     904:	05010605 	streq	r0, [r1, #-1541]	; 0xfffff9fb
     908:	054d0608 	strbeq	r0, [sp, #-1544]	; 0xfffff9f8
     90c:	0501060e 	streq	r0, [r1, #-1550]	; 0xfffff9f2
     910:	04052e0a 	streq	r2, [r5], #-3594	; 0xfffff1f6
     914:	09052f06 	stmdbeq	r5, {r1, r2, r8, r9, sl, fp, sp}
     918:	04050106 	streq	r0, [r5], #-262	; 0xfffffefa
     91c:	07052f06 	streq	r2, [r5, -r6, lsl #30]
     920:	052e0106 	streq	r0, [lr, #-262]!	; 0xfffffefa
     924:	05300604 	ldreq	r0, [r0, #-1540]!	; 0xfffff9fc
     928:	05010607 	streq	r0, [r1, #-1543]	; 0xfffff9f9
     92c:	13300604 	teqne	r0, #4, 12	; 0x400000
     930:	060d0514 			; <UNDEFINED> instruction: 0x060d0514
     934:	06090510 			; <UNDEFINED> instruction: 0x06090510
     938:	06120530 			; <UNDEFINED> instruction: 0x06120530
     93c:	2e0a0501 	cfsh32cs	mvfx0, mvfx10, #1
     940:	05660905 	strbeq	r0, [r6, #-2309]!	; 0xfffff6fb
     944:	054b0605 	strbeq	r0, [fp, #-1541]	; 0xfffff9fb
     948:	05010612 	streq	r0, [r1, #-1554]	; 0xfffff9ee
     94c:	0b052e16 	bleq	14c1ac <__bss_end__+0x1428a4>
     950:	0605052e 	streq	r0, [r5], -lr, lsr #10
     954:	0608052f 	streq	r0, [r8], -pc, lsr #10
     958:	04052e01 	streq	r2, [r5], #-3585	; 0xfffff1ff
     95c:	4a013006 	bmi	4c97c <__bss_end__+0x43074>
     960:	02001501 	andeq	r1, r0, #4194304	; 0x400000
     964:	36020104 	strcc	r0, [r2], -r4, lsl #2
     968:	0402000f 	streq	r0, [r2], #-15
     96c:	02000101 	andeq	r0, r0, #1073741824	; 0x40000000
     970:	05d60104 	ldrbeq	r0, [r6, #260]	; 0x104
     974:	00013311 	andeq	r3, r1, r1, lsl r3
     978:	ba020402 	blt	81988 <__bss_end__+0x78080>
     97c:	02040200 	andeq	r0, r4, #0, 4
     980:	04020001 	streq	r0, [r2], #-1
     984:	15051302 	strne	r1, [r5, #-770]	; 0xfffffcfe
     988:	02040200 	andeq	r0, r4, #0, 4
     98c:	11050106 	tstne	r5, r6, lsl #2
     990:	02040200 	andeq	r0, r4, #0, 4
     994:	1a052f06 	bne	14c5b4 <__bss_end__+0x142cac>
     998:	02040200 	andeq	r0, r4, #0, 4
     99c:	11050106 	tstne	r5, r6, lsl #2
     9a0:	02040200 	andeq	r0, r4, #0, 4
     9a4:	0200d706 	andeq	sp, r0, #1572864	; 0x180000
     9a8:	05130204 	ldreq	r0, [r3, #-516]	; 0xfffffdfc
     9ac:	04020005 	streq	r0, [r2], #-5
     9b0:	09051702 	stmdbeq	r5, {r1, r8, r9, sl, ip}
     9b4:	02040200 	andeq	r0, r4, #0, 4
     9b8:	02000106 	andeq	r0, r0, #-2147483647	; 0x80000001
     9bc:	05d60204 	ldrbeq	r0, [r6, #516]	; 0x204
     9c0:	04020005 	streq	r0, [r2], #-5
     9c4:	00300602 	eorseq	r0, r0, r2, lsl #12
     9c8:	06020402 	streq	r0, [r2], -r2, lsl #8
     9cc:	001105ba 			; <UNDEFINED> instruction: 0x001105ba
     9d0:	06020402 	streq	r0, [r2], -r2, lsl #8
     9d4:	0402002f 	streq	r0, [r2], #-47	; 0xffffffd1
     9d8:	02006702 	andeq	r6, r0, #524288	; 0x80000
     9dc:	73030104 	movwvc	r0, #12548	; 0x3104
     9e0:	0402002e 	streq	r0, [r2], #-46	; 0xffffffd2
     9e4:	02000101 	andeq	r0, r0, #1073741824	; 0x40000000
     9e8:	05d60104 	ldrbeq	r0, [r6, #260]	; 0x104
     9ec:	2e120305 	cdpcs	3, 1, cr0, cr2, cr5, {0}
     9f0:	032e9e01 			; <UNDEFINED> instruction: 0x032e9e01
     9f4:	0905010e 	stmdbeq	r5, {r1, r2, r3, r8}
     9f8:	05050106 	streq	r0, [r5, #-262]	; 0xfffffefa
     9fc:	06750806 	ldrbteq	r0, [r5], -r6, lsl #16
     a00:	06040501 	streq	r0, [r4], -r1, lsl #10
     a04:	05011803 	streq	r1, [r1, #-2051]	; 0xfffff7fd
     a08:	05010607 	streq	r0, [r1, #-1543]	; 0xfffff9f9
     a0c:	05310604 	ldreq	r0, [r1, #-1540]!	; 0xfffff9fc
     a10:	2e670305 	cdpcs	3, 6, cr0, cr7, cr5, {0}
     a14:	01061c05 	tsteq	r6, r5, lsl #24
     a18:	05820905 	streq	r0, [r2, #2309]	; 0x905
     a1c:	31f30605 	mvnscc	r0, r5, lsl #12
     a20:	01061c05 	tsteq	r6, r5, lsl #24
     a24:	05820905 	streq	r0, [r2, #2309]	; 0x905
     a28:	30f30605 	rscscc	r0, r3, r5, lsl #12
     a2c:	01061b05 	tsteq	r6, r5, lsl #22
     a30:	05820905 	streq	r0, [r2, #2309]	; 0x905
     a34:	30f30605 	rscscc	r0, r3, r5, lsl #12
     a38:	01060705 	tsteq	r6, r5, lsl #14
     a3c:	83060505 	movwhi	r0, #25861	; 0x6505
     a40:	06090530 			; <UNDEFINED> instruction: 0x06090530
     a44:	06050501 	streq	r0, [r5], -r1, lsl #10
     a48:	11057508 	tstne	r5, r8, lsl #10
     a4c:	06220530 			; <UNDEFINED> instruction: 0x06220530
     a50:	06050501 	streq	r0, [r5], -r1, lsl #10
     a54:	8311054b 	tsthi	r1, #314572800	; 0x12c00000
     a58:	01830505 	orreq	r0, r3, r5, lsl #10
     a5c:	062e069e 			; <UNDEFINED> instruction: 0x062e069e
     a60:	060e0519 			; <UNDEFINED> instruction: 0x060e0519
     a64:	2e0a0501 	cfsh32cs	mvfx0, mvfx10, #1
     a68:	04052d06 	streq	r2, [r5], #-3334	; 0xfffff2fa
     a6c:	13050106 	movwne	r0, #20742	; 0x5106
     a70:	01040200 	mrseq	r0, R12_usr
     a74:	0010054a 	andseq	r0, r0, sl, asr #10
     a78:	2e010402 	cdpcs	4, 0, cr0, cr1, cr2, {0}
     a7c:	01040200 	mrseq	r0, R12_usr
     a80:	06020566 	streq	r0, [r2], -r6, ror #10
     a84:	06070516 			; <UNDEFINED> instruction: 0x06070516
     a88:	06020501 	streq	r0, [r2], -r1, lsl #10
     a8c:	0601054b 	streq	r0, [r1], -fp, asr #10
     a90:	14026613 	strne	r6, [r2], #-1555	; 0xfffff9ed
     a94:	8d010100 	stfhis	f0, [r1, #-0]
     a98:	03000000 	movweq	r0, #0
     a9c:	00007200 	andeq	r7, r0, r0, lsl #4
     aa0:	fb010200 	blx	412aa <__bss_end__+0x379a2>
     aa4:	01000d0e 	tsteq	r0, lr, lsl #26
     aa8:	00010101 	andeq	r0, r1, r1, lsl #2
     aac:	00010000 	andeq	r0, r1, r0
     ab0:	74730100 	ldrbtvc	r0, [r3], #-256	; 0xffffff00
     ab4:	2d666661 	stclcs	6, cr6, [r6, #-388]!	; 0xfffffe7c
     ab8:	00637273 	rsbeq	r7, r3, r3, ror r2
     abc:	6573552f 	ldrbvs	r5, [r3, #-1327]!	; 0xfffffad1
     ac0:	612f7372 			; <UNDEFINED> instruction: 0x612f7372
     ac4:	61697264 	cmnvs	r9, r4, ror #4
     ac8:	72616d6e 	rsbvc	r6, r1, #7040	; 0x1b80
     acc:	656e6974 	strbvs	r6, [lr, #-2420]!	; 0xfffff68c
     ad0:	72702f7a 	rsbsvc	r2, r0, #488	; 0x1e8
     ad4:	63656a6f 	cmnvs	r5, #454656	; 0x6f000
     ad8:	632f7374 			; <UNDEFINED> instruction: 0x632f7374
     adc:	30343173 	eorscc	r3, r4, r3, ror r1
     ae0:	31322d65 	teqcc	r2, r5, ror #26
     ae4:	2f727073 	svccs	0x00727073
     ae8:	7062696c 	rsbvc	r6, r2, ip, ror #18
     aec:	6e692f69 	cdpvs	15, 6, cr2, cr9, cr9, {3}
     af0:	64756c63 	ldrbtvs	r6, [r5], #-3171	; 0xfffff39d
     af4:	63000065 	movwvs	r0, #101	; 0x65
     af8:	6e61656c 	cdpvs	5, 6, cr6, cr1, cr12, {3}
     afc:	6265722d 	rsbvs	r7, r5, #-805306366	; 0xd0000002
     b00:	2e746f6f 	cdpcs	15, 7, cr6, cr4, cr15, {3}
     b04:	00010063 	andeq	r0, r1, r3, rrx
     b08:	69707200 	ldmdbvs	r0!, {r9, ip, sp, lr}^
     b0c:	0200682e 	andeq	r6, r0, #3014656	; 0x2e0000
     b10:	05000000 	streq	r0, [r0, #-0]
     b14:	02050019 	andeq	r0, r5, #25, 0
     b18:	00008b2c 	andeq	r8, r0, ip, lsr #22
     b1c:	2f050515 	svccs	0x00050515
     b20:	024b2f83 	subeq	r2, fp, #524	; 0x20c
     b24:	01010006 	tsteq	r1, r6
     b28:	000000a2 	andeq	r0, r0, r2, lsr #1
     b2c:	006c0003 	rsbeq	r0, ip, r3
     b30:	01020000 	mrseq	r0, (UNDEF: 2)
     b34:	000d0efb 	strdeq	r0, [sp], -fp
     b38:	01010101 	tsteq	r1, r1, lsl #2
     b3c:	01000000 	mrseq	r0, (UNDEF: 0)
     b40:	73010000 	movwvc	r0, #4096	; 0x1000
     b44:	66666174 			; <UNDEFINED> instruction: 0x66666174
     b48:	6372732d 	cmnvs	r2, #-1275068416	; 0xb4000000
     b4c:	73552f00 	cmpvc	r5, #0, 30
     b50:	2f737265 	svccs	0x00737265
     b54:	69726461 	ldmdbvs	r2!, {r0, r5, r6, sl, sp, lr}^
     b58:	616d6e61 	cmnvs	sp, r1, ror #28
     b5c:	6e697472 	mcrvs	4, 3, r7, cr9, cr2, {3}
     b60:	702f7a65 	eorvc	r7, pc, r5, ror #20
     b64:	656a6f72 	strbvs	r6, [sl, #-3954]!	; 0xfffff08e
     b68:	2f737463 	svccs	0x00737463
     b6c:	34317363 	ldrtcc	r7, [r1], #-867	; 0xfffffc9d
     b70:	322d6530 	eorcc	r6, sp, #48, 10	; 0xc000000
     b74:	72707331 	rsbsvc	r7, r0, #-1006632960	; 0xc4000000
     b78:	62696c2f 	rsbvs	r6, r9, #12032	; 0x2f00
     b7c:	692f6970 	stmdbvs	pc!, {r4, r5, r6, r8, fp, sp, lr}	; <UNPREDICTABLE>
     b80:	756c636e 	strbvc	r6, [ip, #-878]!	; 0xfffffc92
     b84:	00006564 	andeq	r6, r0, r4, ror #10
     b88:	61747363 	cmnvs	r4, r3, ror #6
     b8c:	632e7472 			; <UNDEFINED> instruction: 0x632e7472
     b90:	00000100 	andeq	r0, r0, r0, lsl #2
     b94:	2e697072 	mcrcs	0, 3, r7, cr9, cr2, {3}
     b98:	00020068 	andeq	r0, r2, r8, rrx
     b9c:	10050000 	andne	r0, r5, r0
     ba0:	58020500 	stmdapl	r2, {r8, sl}
     ba4:	1400008b 	strne	r0, [r0], #-139	; 0xffffff75
     ba8:	052f0505 	streq	r0, [pc, #-1285]!	; 6ab <__code_start__-0x7955>
     bac:	05051302 	streq	r1, [r5, #-770]	; 0xfffffcfe
     bb0:	14133014 	ldrne	r3, [r3], #-20	; 0xffffffec
     bb4:	0f060a05 	svceq	0x00060a05
     bb8:	09053106 	stmdbeq	r5, {r1, r2, r8, ip, sp}
     bbc:	0610054b 	ldreq	r0, [r0], -fp, asr #10
     bc0:	05054a01 	streq	r4, [r5, #-2561]	; 0xfffff5ff
     bc4:	02053006 	andeq	r3, r5, #6, 0
     bc8:	0006022f 	andeq	r0, r6, pc, lsr #4
     bcc:	008b0101 	addeq	r0, fp, r1, lsl #2
     bd0:	00030000 	andeq	r0, r3, r0
     bd4:	00000073 	andeq	r0, r0, r3, ror r0
     bd8:	0efb0102 	cdpeq	1, 15, cr0, cr11, cr2, {0}
     bdc:	0101000d 	tsteq	r1, sp
     be0:	00000101 	andeq	r0, r0, r1, lsl #2
     be4:	00000100 	andeq	r0, r0, r0, lsl #2
     be8:	61747301 	cmnvs	r4, r1, lsl #6
     bec:	732d6666 			; <UNDEFINED> instruction: 0x732d6666
     bf0:	2f006372 	svccs	0x00006372
     bf4:	72657355 	rsbvc	r7, r5, #1409286145	; 0x54000001
     bf8:	64612f73 	strbtvs	r2, [r1], #-3955	; 0xfffff08d
     bfc:	6e616972 			; <UNDEFINED> instruction: 0x6e616972
     c00:	7472616d 	ldrbtvc	r6, [r2], #-365	; 0xfffffe93
     c04:	7a656e69 	bvc	195c5b0 <__bss_end__+0x1952ca8>
     c08:	6f72702f 	svcvs	0x0072702f
     c0c:	7463656a 	strbtvc	r6, [r3], #-1386	; 0xfffffa96
     c10:	73632f73 	cmnvc	r3, #460	; 0x1cc
     c14:	65303431 	ldrvs	r3, [r0, #-1073]!	; 0xfffffbcf
     c18:	7331322d 	teqvc	r1, #-805306366	; 0xd0000002
     c1c:	6c2f7270 	sfmvs	f7, 4, [pc], #-448	; a64 <__code_start__-0x759c>
     c20:	69706269 	ldmdbvs	r0!, {r0, r3, r5, r6, r9, sp, lr}^
     c24:	636e692f 	cmnvs	lr, #770048	; 0xbc000
     c28:	6564756c 	strbvs	r7, [r4, #-1388]!	; 0xfffffa94
     c2c:	75630000 	strbvc	r0, [r3, #-0]!
     c30:	6d6f7473 	cfstrdvs	mvd7, [pc, #-460]!	; a6c <__code_start__-0x7594>
     c34:	616f6c2d 	cmnvs	pc, sp, lsr #24
     c38:	2e726564 	cdpcs	5, 7, cr6, cr2, cr4, {3}
     c3c:	00010063 	andeq	r0, r1, r3, rrx
     c40:	69707200 	ldmdbvs	r0!, {r9, ip, sp, lr}^
     c44:	0200682e 	andeq	r6, r0, #3014656	; 0x2e0000
     c48:	05000000 	streq	r0, [r0, #-0]
     c4c:	0205001a 	andeq	r0, r5, #26, 0
     c50:	00008b88 	andeq	r8, r0, r8, lsl #23
     c54:	14010515 	strne	r0, [r1], #-1301	; 0xfffffaeb
     c58:	01000202 	tsteq	r0, r2, lsl #4
     c5c:	0000dc01 	andeq	sp, r0, r1, lsl #24
     c60:	6c000300 	stcvs	3, cr0, [r0], {-0}
     c64:	02000000 	andeq	r0, r0, #0, 0
     c68:	0d0efb01 	vstreq	d15, [lr, #-4]
     c6c:	01010100 	mrseq	r0, (UNDEF: 17)
     c70:	00000001 	andeq	r0, r0, r1
     c74:	01000001 	tsteq	r0, r1
     c78:	66617473 			; <UNDEFINED> instruction: 0x66617473
     c7c:	72732d66 	rsbsvc	r2, r3, #6528	; 0x1980
     c80:	552f0063 	strpl	r0, [pc, #-99]!	; c25 <__code_start__-0x73db>
     c84:	73726573 	cmnvc	r2, #482344960	; 0x1cc00000
     c88:	7264612f 	rsbvc	r6, r4, #-1073741813	; 0xc000000b
     c8c:	6d6e6169 	stfvse	f6, [lr, #-420]!	; 0xfffffe5c
     c90:	69747261 	ldmdbvs	r4!, {r0, r5, r6, r9, ip, sp, lr}^
     c94:	2f7a656e 	svccs	0x007a656e
     c98:	6a6f7270 	bvs	1bdd660 <__bss_end__+0x1bd3d58>
     c9c:	73746365 	cmnvc	r4, #-1811939327	; 0x94000001
     ca0:	3173632f 	cmncc	r3, pc, lsr #6
     ca4:	2d653034 	stclcs	0, cr3, [r5, #-208]!	; 0xffffff30
     ca8:	70733132 	rsbsvc	r3, r3, r2, lsr r1
     cac:	696c2f72 	stmdbvs	ip!, {r1, r4, r5, r6, r8, r9, sl, fp, sp}^
     cb0:	2f697062 	svccs	0x00697062
     cb4:	6c636e69 	stclvs	14, cr6, [r3], #-420	; 0xfffffe5c
     cb8:	00656475 	rsbeq	r6, r5, r5, ror r4
     cbc:	62657200 	rsbvs	r7, r5, #0, 4
     cc0:	2e746f6f 	cdpcs	15, 7, cr6, cr4, cr15, {3}
     cc4:	00010063 	andeq	r0, r1, r3, rrx
     cc8:	69707200 	ldmdbvs	r0!, {r9, ip, sp, lr}^
     ccc:	0200682e 	andeq	r6, r0, #3014656	; 0x2e0000
     cd0:	05000000 	streq	r0, [r0, #-0]
     cd4:	02050019 	andeq	r0, r5, #25, 0
     cd8:	00008b8c 	andeq	r8, r0, ip, lsl #23
     cdc:	05010d03 	streq	r0, [r1, #-3331]	; 0xfffff2fd
     ce0:	31131305 	tstcc	r3, r5, lsl #6
     ce4:	01061305 	tsteq	r6, r5, lsl #6
     ce8:	052f0105 	streq	r0, [pc, #-261]!	; beb <__code_start__-0x7415>
     cec:	0585061b 	streq	r0, [r5, #1563]	; 0x61b
     cf0:	05141305 	ldreq	r1, [r4, #-773]	; 0xfffffcfb
     cf4:	16052f09 	strne	r2, [r5], -r9, lsl #30
     cf8:	0e050106 	adfeqs	f0, f5, f6
     cfc:	0605052e 	streq	r0, [r5], -lr, lsr #10
     d00:	0601052f 	streq	r0, [r1], -pc, lsr #10
     d04:	0617052f 	ldreq	r0, [r7], -pc, lsr #10
     d08:	2f050530 	svccs	0x00050530
     d0c:	01060805 	tsteq	r6, r5, lsl #16
     d10:	052e0705 	streq	r0, [lr, #-1797]!	; 0xfffff8fb
     d14:	0b030605 	bleq	c2530 <__bss_end__+0xb8c28>
     d18:	134d2f4a 	movtne	r2, #57162	; 0xdf4a
     d1c:	67151313 			; <UNDEFINED> instruction: 0x67151313
     d20:	01040200 	mrseq	r0, R12_usr
     d24:	000d0567 	andeq	r0, sp, r7, ror #10
     d28:	01010402 	tsteq	r1, r2, lsl #8
     d2c:	02000a05 	andeq	r0, r0, #20480	; 0x5000
     d30:	05010104 	streq	r0, [r1, #-260]	; 0xfffffefc
     d34:	2e6a0309 	cdpcs	3, 6, cr0, cr10, cr9, {0}
     d38:	01000c02 	tsteq	r0, r2, lsl #24
     d3c:	0000fd01 	andeq	pc, r0, r1, lsl #26
     d40:	6b000300 	blvs	1948 <__code_start__-0x66b8>
     d44:	02000000 	andeq	r0, r0, #0, 0
     d48:	0d0efb01 	vstreq	d15, [lr, #-4]
     d4c:	01010100 	mrseq	r0, (UNDEF: 17)
     d50:	00000001 	andeq	r0, r0, r1
     d54:	01000001 	tsteq	r0, r1
     d58:	66617473 			; <UNDEFINED> instruction: 0x66617473
     d5c:	72732d66 	rsbsvc	r2, r3, #6528	; 0x1980
     d60:	552f0063 	strpl	r0, [pc, #-99]!	; d05 <__code_start__-0x72fb>
     d64:	73726573 	cmnvc	r2, #482344960	; 0x1cc00000
     d68:	7264612f 	rsbvc	r6, r4, #-1073741813	; 0xc000000b
     d6c:	6d6e6169 	stfvse	f6, [lr, #-420]!	; 0xfffffe5c
     d70:	69747261 	ldmdbvs	r4!, {r0, r5, r6, r9, ip, sp, lr}^
     d74:	2f7a656e 	svccs	0x007a656e
     d78:	6a6f7270 	bvs	1bdd740 <__bss_end__+0x1bd3e38>
     d7c:	73746365 	cmnvc	r4, #-1811939327	; 0x94000001
     d80:	3173632f 	cmncc	r3, pc, lsr #6
     d84:	2d653034 	stclcs	0, cr3, [r5, #-208]!	; 0xffffff30
     d88:	70733132 	rsbsvc	r3, r3, r2, lsr r1
     d8c:	696c2f72 	stmdbvs	ip!, {r1, r4, r5, r6, r8, r9, sl, fp, sp}^
     d90:	2f697062 	svccs	0x00697062
     d94:	6c636e69 	stclvs	14, cr6, [r3], #-420	; 0xfffffe5c
     d98:	00656475 	rsbeq	r6, r5, r5, ror r4
     d9c:	6d697400 	cfstrdvs	mvd7, [r9, #-0]
     da0:	632e7265 			; <UNDEFINED> instruction: 0x632e7265
     da4:	00000100 	andeq	r0, r0, r0, lsl #2
     da8:	2e697072 	mcrcs	0, 3, r7, cr9, cr2, {3}
     dac:	00020068 	andeq	r0, r2, r8, rrx
     db0:	23050000 	movwcs	r0, #20480	; 0x5000
     db4:	08020500 	stmdaeq	r2, {r8, sl}
     db8:	1600008c 	strne	r0, [r0], -ip, lsl #1
     dbc:	05140505 	ldreq	r0, [r4, #-1285]	; 0xfffffafb
     dc0:	1005010a 	andne	r0, r5, sl, lsl #2
     dc4:	0a050106 	beq	1411e4 <__bss_end__+0x1378dc>
     dc8:	0609052e 	streq	r0, [r9], -lr, lsr #10
     dcc:	0610054b 	ldreq	r0, [r0], -fp, asr #10
     dd0:	0623052d 	strteq	r0, [r3], -sp, lsr #10
     dd4:	054a0a03 	strbeq	r0, [sl, #-2563]	; 0xfffff5fd
     dd8:	0c052f05 	stceq	15, cr2, [r5], {5}
     ddc:	01050106 	tsteq	r5, r6, lsl #2
     de0:	061f054b 	ldreq	r0, [pc], -fp, asr #10
     de4:	3105054d 	tstcc	r5, sp, asr #10
     de8:	0612052f 	ldreq	r0, [r2], -pc, lsr #10
     dec:	06050501 	streq	r0, [r5], -r1, lsl #10
     df0:	01052f4b 	tsteq	r5, fp, asr #30
     df4:	1c051306 	stcne	3, cr1, [r5], {6}
     df8:	01064c06 	tsteq	r6, r6, lsl #24
     dfc:	4b060505 	blmi	182218 <__bss_end__+0x178910>
     e00:	01061305 	tsteq	r6, r5, lsl #6
     e04:	0605052e 	streq	r0, [r5], -lr, lsr #10
     e08:	1309052f 	movwne	r0, #38191	; 0x952f
     e0c:	01061705 	tsteq	r6, r5, lsl #14
     e10:	2f060905 	svccs	0x00060905
     e14:	01061105 	tsteq	r6, r5, lsl #2
     e18:	052e0c05 	streq	r0, [lr, #-3077]!	; 0xfffff3fb
     e1c:	066b061c 			; <UNDEFINED> instruction: 0x066b061c
     e20:	06050501 	streq	r0, [r5], -r1, lsl #10
     e24:	054a062f 	strbeq	r0, [sl, #-1583]	; 0xfffff9d1
     e28:	1e054b01 	vmlane.f64	d4, d5, d1
     e2c:	01062f06 	tsteq	r6, r6, lsl #30
     e30:	2f060505 	svccs	0x00060505
     e34:	01054a06 	tsteq	r5, r6, lsl #20
     e38:	0002024b 	andeq	r0, r2, fp, asr #4
     e3c:	03030101 	movweq	r0, #12545	; 0x3101
     e40:	00030000 	andeq	r0, r3, r0
     e44:	000000d7 	ldrdeq	r0, [r0], -r7
     e48:	0efb0102 	cdpeq	1, 15, cr0, cr11, cr2, {0}
     e4c:	0101000d 	tsteq	r1, sp
     e50:	00000101 	andeq	r0, r0, r1, lsl #2
     e54:	00000100 	andeq	r0, r0, r0, lsl #2
     e58:	63727301 	cmnvs	r2, #67108864	; 0x4000000
     e5c:	73552f00 	cmpvc	r5, #0, 30
     e60:	2f737265 	svccs	0x00737265
     e64:	69726461 	ldmdbvs	r2!, {r0, r5, r6, sl, sp, lr}^
     e68:	616d6e61 	cmnvs	sp, r1, ror #28
     e6c:	6e697472 	mcrvs	4, 3, r7, cr9, cr2, {3}
     e70:	702f7a65 	eorvc	r7, pc, r5, ror #20
     e74:	656a6f72 	strbvs	r6, [sl, #-3954]!	; 0xfffff08e
     e78:	2f737463 	svccs	0x00737463
     e7c:	34317363 	ldrtcc	r7, [r1], #-867	; 0xfffffc9d
     e80:	322d6530 	eorcc	r6, sp, #48, 10	; 0xc000000
     e84:	72707331 	rsbsvc	r7, r0, #-1006632960	; 0xc4000000
     e88:	62696c2f 	rsbvs	r6, r9, #12032	; 0x2f00
     e8c:	692f6970 	stmdbvs	pc!, {r4, r5, r6, r8, fp, sp, lr}	; <UNPREDICTABLE>
     e90:	756c636e 	strbvc	r6, [ip, #-878]!	; 0xfffffc92
     e94:	2f006564 	svccs	0x00006564
     e98:	2f727375 	svccs	0x00727375
     e9c:	61636f6c 	cmnvs	r3, ip, ror #30
     ea0:	65432f6c 	strbvs	r2, [r3, #-3948]	; 0xfffff094
     ea4:	72616c6c 	rsbvc	r6, r1, #108, 24	; 0x6c00
     ea8:	6d72612f 	ldfvse	f6, [r2, #-188]!	; 0xffffff44
     eac:	6e6f6e2d 	cdpvs	14, 6, cr6, cr15, cr13, {1}
     eb0:	61652d65 	cmnvs	r5, r5, ror #26
     eb4:	742d6962 	strtvc	r6, [sp], #-2402	; 0xfffff69e
     eb8:	2f747365 	svccs	0x00747365
     ebc:	30322d39 	eorscc	r2, r2, r9, lsr sp
     ec0:	34713931 	ldrbtcc	r3, [r1], #-2353	; 0xfffff6cf
     ec4:	3173632d 	cmncc	r3, sp, lsr #6
     ec8:	2f653730 	svccs	0x00653730
     ecc:	2f62696c 	svccs	0x0062696c
     ed0:	2f636367 	svccs	0x00636367
     ed4:	2d6d7261 	sfmcs	f7, 2, [sp, #-388]!	; 0xfffffe7c
     ed8:	656e6f6e 	strbvs	r6, [lr, #-3950]!	; 0xfffff092
     edc:	6261652d 	rsbvs	r6, r1, #188743680	; 0xb400000
     ee0:	2e392f69 	cdpcs	15, 3, cr2, cr9, cr9, {3}
     ee4:	2f312e32 	svccs	0x00312e32
     ee8:	6c636e69 	stclvs	14, cr6, [r3], #-420	; 0xfffffe5c
     eec:	00656475 	rsbeq	r6, r5, r5, ror r4
     ef0:	72617500 	rsbvc	r7, r1, #0, 10
     ef4:	00632e74 	rsbeq	r2, r3, r4, ror lr
     ef8:	72000001 	andvc	r0, r0, #1, 0
     efc:	682e6970 	stmdavs	lr!, {r4, r5, r6, r8, fp, sp, lr}
     f00:	00000200 	andeq	r0, r0, r0, lsl #4
     f04:	69647473 	stmdbvs	r4!, {r0, r1, r4, r5, r6, sl, ip, sp, lr}^
     f08:	672d746e 	strvs	r7, [sp, -lr, ror #8]!
     f0c:	682e6363 	stmdavs	lr!, {r0, r1, r5, r6, r8, r9, sp, lr}
     f10:	00000300 	andeq	r0, r0, r0, lsl #6
     f14:	6f697067 	svcvs	0x00697067
     f18:	0200682e 	andeq	r6, r0, #3014656	; 0x2e0000
     f1c:	05000000 	streq	r0, [r0, #-0]
     f20:	02050020 	andeq	r0, r5, #32, 0
     f24:	00008cbc 			; <UNDEFINED> instruction: 0x00008cbc
     f28:	0101de03 	tsteq	r1, r3, lsl #28
     f2c:	054b0505 	strbeq	r0, [fp, #-1285]	; 0xfffffafb
     f30:	05010614 	streq	r0, [r1, #-1556]	; 0xfffff9ec
     f34:	05670605 	strbeq	r0, [r7, #-1541]!	; 0xfffff9fb
     f38:	05010612 	streq	r0, [r1, #-1554]	; 0xfffff9ee
     f3c:	054b0605 	strbeq	r0, [fp, #-1541]	; 0xfffff9fb
     f40:	01051302 	tsteq	r5, r2, lsl #6
     f44:	16051306 	strne	r1, [r5], -r6, lsl #6
     f48:	ba490306 	blt	1241b68 <__bss_end__+0x1238260>
     f4c:	052f0505 	streq	r0, [pc, #-1285]!	; a4f <__code_start__-0x75b1>
     f50:	05010614 	streq	r0, [r1, #-1556]	; 0xfffff9ec
     f54:	67680605 	strbvs	r0, [r8, -r5, lsl #12]!
     f58:	063e0569 	ldrteq	r0, [lr], -r9, ror #10
     f5c:	2e1e0501 	cfmul32cs	mvfx0, mvfx14, mvfx1
     f60:	054a1c05 	strbeq	r1, [sl, #-3077]	; 0xfffff3fb
     f64:	052f0605 	streq	r0, [pc, #-1541]!	; 967 <__code_start__-0x7699>
     f68:	05010613 	streq	r0, [r1, #-1555]	; 0xfffff9ed
     f6c:	05052e2f 	streq	r2, [r5, #-3631]	; 0xfffff1d1
     f70:	054d8306 	strbeq	r8, [sp, #-774]	; 0xfffffcfa
     f74:	0501063f 	streq	r0, [r1, #-1599]	; 0xfffff9c1
     f78:	1d052e1f 	stcne	14, cr2, [r5, #-124]	; 0xffffff84
     f7c:	0605054a 	streq	r0, [r5], -sl, asr #10
     f80:	0613052f 	ldreq	r0, [r3], -pc, lsr #10
     f84:	2e330501 	cdpcs	5, 3, cr0, cr3, cr1, {0}
     f88:	2f060505 	svccs	0x00060505
     f8c:	01063305 	tsteq	r6, r5, lsl #6
     f90:	67060505 	strvs	r0, [r6, -r5, lsl #10]
     f94:	063e054d 	ldrteq	r0, [lr], -sp, asr #10
     f98:	2e1e0501 	cfmul32cs	mvfx0, mvfx14, mvfx1
     f9c:	054a1c05 	strbeq	r1, [sl, #-3077]	; 0xfffff3fb
     fa0:	052f0605 	streq	r0, [pc, #-1541]!	; 9a3 <__code_start__-0x765d>
     fa4:	05010613 	streq	r0, [r1, #-1555]	; 0xfffff9ed
     fa8:	05052e34 	streq	r2, [r5, #-3636]	; 0xfffff1cc
     fac:	34052f06 	strcc	r2, [r5], #-3846	; 0xfffff0fa
     fb0:	05050106 	streq	r0, [r5, #-262]	; 0xfffffefa
     fb4:	054d6706 	strbeq	r6, [sp, #-1798]	; 0xfffff8fa
     fb8:	0501063e 	streq	r0, [r1, #-1598]	; 0xfffff9c2
     fbc:	1c052e1e 	stcne	14, cr2, [r5], {30}
     fc0:	0605054a 	streq	r0, [r5], -sl, asr #10
     fc4:	0613052f 	ldreq	r0, [r3], -pc, lsr #10
     fc8:	2e350501 	cdpcs	5, 3, cr0, cr5, cr1, {0}
     fcc:	2f060505 	svccs	0x00060505
     fd0:	01063505 	tsteq	r6, r5, lsl #10
     fd4:	67060505 	strvs	r0, [r6, -r5, lsl #10]
     fd8:	063f0550 			; <UNDEFINED> instruction: 0x063f0550
     fdc:	2e1f0501 	cfmul32cs	mvfx0, mvfx15, mvfx1
     fe0:	054a1d05 	strbeq	r1, [sl, #-3333]	; 0xfffff2fb
     fe4:	052f0605 	streq	r0, [pc, #-1541]!	; 9e7 <__code_start__-0x7619>
     fe8:	05010613 	streq	r0, [r1, #-1555]	; 0xfffff9ed
     fec:	05052e2e 	streq	r2, [r5, #-3630]	; 0xfffff1d2
     ff0:	054d6706 	strbeq	r6, [sp, #-1798]	; 0xfffff8fa
     ff4:	0501063e 	streq	r0, [r1, #-1598]	; 0xfffff9c2
     ff8:	1c052e1e 	stcne	14, cr2, [r5], {30}
     ffc:	0605054a 	streq	r0, [r5], -sl, asr #10
    1000:	0613052f 	ldreq	r0, [r3], -pc, lsr #10
    1004:	2e310501 	cdpcs	5, 3, cr0, cr1, cr1, {0}
    1008:	83060505 	movwhi	r0, #25861	; 0x6505
    100c:	063f054d 	ldrteq	r0, [pc], -sp, asr #10
    1010:	2e1f0501 	cfmul32cs	mvfx0, mvfx15, mvfx1
    1014:	054a1d05 	strbeq	r1, [sl, #-3333]	; 0xfffff2fb
    1018:	052f0605 	streq	r0, [pc, #-1541]!	; a1b <__code_start__-0x75e5>
    101c:	05010613 	streq	r0, [r1, #-1555]	; 0xfffff9ed
    1020:	05052e33 	streq	r2, [r5, #-3635]	; 0xfffff1cd
    1024:	33052f06 	movwcc	r2, #24326	; 0x5f06
    1028:	05050106 	streq	r0, [r5, #-262]	; 0xfffffefa
    102c:	01056706 	tsteq	r5, r6, lsl #14
    1030:	15054b06 	strne	r4, [r5, #-2822]	; 0xfffff4fa
    1034:	820c0306 	andhi	r0, ip, #402653184	; 0x18000000
    1038:	052f0505 	streq	r0, [pc, #-1285]!	; b3b <__code_start__-0x74c5>
    103c:	05010614 	streq	r0, [r1, #-1556]	; 0xfffff9ec
    1040:	05670605 	strbeq	r0, [r7, #-1541]!	; 0xfffff9fb
    1044:	04020009 	streq	r0, [r2], #-9
    1048:	0b051301 	bleq	145c54 <__bss_end__+0x13c34c>
    104c:	01040200 	mrseq	r0, R12_usr
    1050:	000d0511 	andeq	r0, sp, r1, lsl r5
    1054:	06010402 	streq	r0, [r1], -r2, lsl #8
    1058:	000b0501 	andeq	r0, fp, r1, lsl #10
    105c:	2e010402 	cdpcs	4, 0, cr0, cr1, cr2, {0}
    1060:	4c060505 	cfstr32mi	mvfx0, [r6], {5}
    1064:	01063205 	tsteq	r6, r5, lsl #4
    1068:	054a1205 	strbeq	r1, [sl, #-517]	; 0xfffffdfb
    106c:	054b0605 	strbeq	r0, [fp, #-1541]	; 0xfffff9fb
    1070:	01051302 	tsteq	r5, r2, lsl #6
    1074:	19051306 	stmdbne	r5, {r1, r2, r8, r9, ip}
    1078:	05058506 	streq	r8, [r5, #-1286]	; 0xfffffafa
    107c:	0614054b 	ldreq	r0, [r4], -fp, asr #10
    1080:	06050501 	streq	r0, [r5], -r1, lsl #10
    1084:	06120567 	ldreq	r0, [r2], -r7, ror #10
    1088:	06050501 	streq	r0, [r5], -r1, lsl #10
    108c:	1302054b 	movwne	r0, #9547	; 0x254b
    1090:	01060f05 	tsteq	r6, r5, lsl #30
    1094:	054b0105 	strbeq	r0, [fp, #-261]	; 0xfffffefb
    1098:	06be061c 	ssateq	r0, #31, ip, lsl #12
    109c:	06050501 	streq	r0, [r5], -r1, lsl #10
    10a0:	0614054b 	ldreq	r0, [r4], -fp, asr #10
    10a4:	06050501 	streq	r0, [r5], -r1, lsl #10
    10a8:	00090567 	andeq	r0, r9, r7, ror #10
    10ac:	13010402 	movwne	r0, #5122	; 0x1402
    10b0:	02000b05 	andeq	r0, r0, #5120	; 0x1400
    10b4:	05110104 	ldreq	r0, [r1, #-260]	; 0xfffffefc
    10b8:	0402000d 	streq	r0, [r2], #-13
    10bc:	05010601 	streq	r0, [r1, #-1537]	; 0xfffff9ff
    10c0:	0402000b 	streq	r0, [r2], #-11
    10c4:	05052e01 	streq	r2, [r5, #-3585]	; 0xfffff1ff
    10c8:	25054c06 	strcs	r4, [r5, #-3078]	; 0xfffff3fa
    10cc:	05050106 	streq	r0, [r5, #-262]	; 0xfffffefa
    10d0:	6701054a 	strvs	r0, [r1, -sl, asr #10]
    10d4:	6b061905 	blvs	1874f0 <__bss_end__+0x17dbe8>
    10d8:	052f0505 	streq	r0, [pc, #-1285]!	; bdb <__code_start__-0x7425>
    10dc:	0501060c 	streq	r0, [r1, #-1548]	; 0xfffff9f4
    10e0:	1b052f01 	blne	14ccec <__bss_end__+0x1433e4>
    10e4:	05053106 	streq	r3, [r5, #-262]	; 0xfffffefa
    10e8:	0609052f 	streq	r0, [r9], -pc, lsr #10
    10ec:	2e070501 	cfsh32cs	mvfx0, mvfx7, #1
    10f0:	4c060505 	cfstr32mi	mvfx0, [r6], {5}
    10f4:	01060c05 	tsteq	r6, r5, lsl #24
    10f8:	05491005 	strbeq	r1, [r9, #-5]
    10fc:	1c053001 	stcne	0, cr3, [r5], {1}
    1100:	05053106 	streq	r3, [r5, #-262]	; 0xfffffefa
    1104:	0614054b 	ldreq	r0, [r4], -fp, asr #10
    1108:	06050501 	streq	r0, [r5], -r1, lsl #10
    110c:	06120567 	ldreq	r0, [r2], -r7, ror #10
    1110:	4a0e0501 	bmi	38251c <__bss_end__+0x378c14>
    1114:	2f060505 	svccs	0x00060505
    1118:	05130205 	ldreq	r0, [r3, #-517]	; 0xfffffdfb
    111c:	05130601 	ldreq	r0, [r3, #-1537]	; 0xfffff9ff
    1120:	05bc061a 	ldreq	r0, [ip, #1562]!	; 0x61a
    1124:	04020009 	streq	r0, [r2], #-9
    1128:	0a053001 	beq	14d134 <__bss_end__+0x14382c>
    112c:	01040200 	mrseq	r0, R12_usr
    1130:	000c0511 	andeq	r0, ip, r1, lsl r5
    1134:	06010402 	streq	r0, [r1], -r2, lsl #8
    1138:	000a0501 	andeq	r0, sl, r1, lsl #10
    113c:	2e010402 	cdpcs	4, 0, cr0, cr1, cr2, {0}
    1140:	01000602 	tsteq	r0, r2, lsl #12
    1144:	00018901 	andeq	r8, r1, r1, lsl #18
    1148:	d7000300 	strle	r0, [r0, -r0, lsl #6]
    114c:	02000000 	andeq	r0, r0, #0, 0
    1150:	0d0efb01 	vstreq	d15, [lr, #-4]
    1154:	01010100 	mrseq	r0, (UNDEF: 17)
    1158:	00000001 	andeq	r0, r0, r1
    115c:	01000001 	tsteq	r0, r1
    1160:	00637273 	rsbeq	r7, r3, r3, ror r2
    1164:	6573552f 	ldrbvs	r5, [r3, #-1327]!	; 0xfffffad1
    1168:	612f7372 			; <UNDEFINED> instruction: 0x612f7372
    116c:	61697264 	cmnvs	r9, r4, ror #4
    1170:	72616d6e 	rsbvc	r6, r1, #7040	; 0x1b80
    1174:	656e6974 	strbvs	r6, [lr, #-2420]!	; 0xfffff68c
    1178:	72702f7a 	rsbsvc	r2, r0, #488	; 0x1e8
    117c:	63656a6f 	cmnvs	r5, #454656	; 0x6f000
    1180:	632f7374 			; <UNDEFINED> instruction: 0x632f7374
    1184:	30343173 	eorscc	r3, r4, r3, ror r1
    1188:	31322d65 	teqcc	r2, r5, ror #26
    118c:	2f727073 	svccs	0x00727073
    1190:	7062696c 	rsbvc	r6, r2, ip, ror #18
    1194:	6e692f69 	cdpvs	15, 6, cr2, cr9, cr9, {3}
    1198:	64756c63 	ldrbtvs	r6, [r5], #-3171	; 0xfffff39d
    119c:	752f0065 	strvc	r0, [pc, #-101]!	; 113f <__code_start__-0x6ec1>
    11a0:	6c2f7273 	sfmvs	f7, 4, [pc], #-460	; fdc <__code_start__-0x7024>
    11a4:	6c61636f 	stclvs	3, cr6, [r1], #-444	; 0xfffffe44
    11a8:	6c65432f 	stclvs	3, cr4, [r5], #-188	; 0xffffff44
    11ac:	2f72616c 	svccs	0x0072616c
    11b0:	2d6d7261 	sfmcs	f7, 2, [sp, #-388]!	; 0xfffffe7c
    11b4:	656e6f6e 	strbvs	r6, [lr, #-3950]!	; 0xfffff092
    11b8:	6261652d 	rsbvs	r6, r1, #188743680	; 0xb400000
    11bc:	65742d69 	ldrbvs	r2, [r4, #-3433]!	; 0xfffff297
    11c0:	392f7473 	stmdbcc	pc!, {r0, r1, r4, r5, r6, sl, ip, sp, lr}	; <UNPREDICTABLE>
    11c4:	3130322d 	teqcc	r0, sp, lsr #4
    11c8:	2d347139 	ldfcss	f7, [r4, #-228]!	; 0xffffff1c
    11cc:	30317363 	eorscc	r7, r1, r3, ror #6
    11d0:	6c2f6537 	cfstr32vs	mvfx6, [pc], #-220	; 10fc <__code_start__-0x6f04>
    11d4:	672f6269 	strvs	r6, [pc, -r9, ror #4]!
    11d8:	612f6363 			; <UNDEFINED> instruction: 0x612f6363
    11dc:	6e2d6d72 	mcrvs	13, 1, r6, cr13, cr2, {3}
    11e0:	2d656e6f 	stclcs	14, cr6, [r5, #-444]!	; 0xfffffe44
    11e4:	69626165 	stmdbvs	r2!, {r0, r2, r5, r6, r8, sp, lr}^
    11e8:	322e392f 	eorcc	r3, lr, #770048	; 0xbc000
    11ec:	692f312e 	stmdbvs	pc!, {r1, r2, r3, r5, r8, ip, sp}	; <UNPREDICTABLE>
    11f0:	756c636e 	strbvc	r6, [ip, #-878]!	; 0xfffffc92
    11f4:	00006564 	andeq	r6, r0, r4, ror #10
    11f8:	6f697067 	svcvs	0x00697067
    11fc:	0100632e 	tsteq	r0, lr, lsr #6
    1200:	70720000 	rsbsvc	r0, r2, r0
    1204:	00682e69 	rsbeq	r2, r8, r9, ror #28
    1208:	73000002 	movwvc	r0, #2
    120c:	6e696474 	mcrvs	4, 3, r6, cr9, cr4, {3}
    1210:	63672d74 	cmnvs	r7, #116, 26	; 0x1d00
    1214:	00682e63 	rsbeq	r2, r8, r3, ror #28
    1218:	67000003 	strvs	r0, [r0, -r3]
    121c:	2e6f6970 			; <UNDEFINED> instruction: 0x2e6f6970
    1220:	00020068 	andeq	r0, r2, r8, rrx
    1224:	36050000 	strcc	r0, [r5], -r0
    1228:	88020500 	stmdahi	r2, {r8, sl}
    122c:	0300008f 	movweq	r0, #143	; 0x8f
    1230:	01060113 	tsteq	r6, r3, lsl r1
    1234:	67060505 	strvs	r0, [r6, -r5, lsl #10]
    1238:	01062805 	tsteq	r6, r5, lsl #16
    123c:	05662205 	strbeq	r2, [r6, #-517]!	; 0xfffffdfb
    1240:	05054a0e 	streq	r4, [r5, #-2574]	; 0xfffff5f2
    1244:	18052f06 	stmdane	r5, {r1, r2, r8, r9, sl, fp, sp}
    1248:	052e0106 	streq	r0, [lr, #-262]!	; 0xfffffefa
    124c:	052f0605 	streq	r0, [pc, #-1541]!	; c4f <__code_start__-0x73b1>
    1250:	0501061f 	streq	r0, [r1, #-1567]	; 0xfffff9e1
    1254:	05054a0e 	streq	r4, [r5, #-2574]	; 0xfffff5f2
    1258:	1d052f06 	stcne	15, cr2, [r5, #-24]	; 0xffffffe8
    125c:	05050106 	streq	r0, [r5, #-262]	; 0xfffffefa
    1260:	01054a4a 	tsteq	r5, sl, asr #20
    1264:	0624052f 	strteq	r0, [r4], -pc, lsr #10
    1268:	064a0a03 	strbeq	r0, [sl], -r3, lsl #20
    126c:	06050501 	streq	r0, [r5], -r1, lsl #10
    1270:	0601052f 	streq	r0, [r1], -pc, lsr #10
    1274:	0620054b 	strteq	r0, [r0], -fp, asr #10
    1278:	05010631 	streq	r0, [r1, #-1585]	; 0xfffff9cf
    127c:	062f0605 	strteq	r0, [pc], -r5, lsl #12
    1280:	2f010566 	svccs	0x00010566
    1284:	4d062105 	stfmis	f2, [r6, #-20]	; 0xffffffec
    1288:	05050106 	streq	r0, [r5, #-262]	; 0xfffffefa
    128c:	66062f06 	strvs	r2, [r6], -r6, lsl #30
    1290:	052f0105 	streq	r0, [pc, #-261]!	; 1193 <__code_start__-0x6e6d>
    1294:	064d062b 	strbeq	r0, [sp], -fp, lsr #12
    1298:	06050501 	streq	r0, [r5], -r1, lsl #10
    129c:	0607052f 	streq	r0, [r7], -pc, lsr #10
    12a0:	06080501 	streq	r0, [r8], -r1, lsl #10
    12a4:	062e064b 	strteq	r0, [lr], -fp, asr #12
    12a8:	06010530 			; <UNDEFINED> instruction: 0x06010530
    12ac:	0623052f 	strteq	r0, [r3], -pc, lsr #10
    12b0:	05010635 	streq	r0, [r1, #-1589]	; 0xfffff9cb
    12b4:	052f0605 	streq	r0, [pc, #-1541]!	; cb7 <__code_start__-0x7349>
    12b8:	054b0601 	strbeq	r0, [fp, #-1537]	; 0xfffff9ff
    12bc:	0631061d 			; <UNDEFINED> instruction: 0x0631061d
    12c0:	06050501 	streq	r0, [r5], -r1, lsl #10
    12c4:	060c054d 	streq	r0, [ip], -sp, asr #10
    12c8:	01052e01 	tsteq	r5, r1, lsl #28
    12cc:	0008022f 	andeq	r0, r8, pc, lsr #4
    12d0:	00a60101 	adceq	r0, r6, r1, lsl #2
    12d4:	00030000 	andeq	r0, r3, r0
    12d8:	00000068 	andeq	r0, r0, r8, rrx
    12dc:	0efb0102 	cdpeq	1, 15, cr0, cr11, cr2, {0}
    12e0:	0101000d 	tsteq	r1, sp
    12e4:	00000101 	andeq	r0, r0, r1, lsl #2
    12e8:	00000100 	andeq	r0, r0, r0, lsl #2
    12ec:	62696c01 	rsbvs	r6, r9, #256	; 0x100
    12f0:	552f0063 	strpl	r0, [pc, #-99]!	; 1295 <__code_start__-0x6d6b>
    12f4:	73726573 	cmnvc	r2, #482344960	; 0x1cc00000
    12f8:	7264612f 	rsbvc	r6, r4, #-1073741813	; 0xc000000b
    12fc:	6d6e6169 	stfvse	f6, [lr, #-420]!	; 0xfffffe5c
    1300:	69747261 	ldmdbvs	r4!, {r0, r5, r6, r9, ip, sp, lr}^
    1304:	2f7a656e 	svccs	0x007a656e
    1308:	6a6f7270 	bvs	1bddcd0 <__bss_end__+0x1bd43c8>
    130c:	73746365 	cmnvc	r4, #-1811939327	; 0x94000001
    1310:	3173632f 	cmncc	r3, pc, lsr #6
    1314:	2d653034 	stclcs	0, cr3, [r5, #-208]!	; 0xffffff30
    1318:	70733132 	rsbsvc	r3, r3, r2, lsr r1
    131c:	696c2f72 	stmdbvs	ip!, {r1, r4, r5, r6, r8, r9, sl, fp, sp}^
    1320:	2f697062 	svccs	0x00697062
    1324:	6c636e69 	stclvs	14, cr6, [r3], #-420	; 0xfffffe5c
    1328:	00656475 	rsbeq	r6, r5, r5, ror r4
    132c:	74757000 	ldrbtvc	r7, [r5], #-0
    1330:	72616863 	rsbvc	r6, r1, #6488064	; 0x630000
    1334:	0100632e 	tsteq	r0, lr, lsr #6
    1338:	70720000 	rsbsvc	r0, r2, r0
    133c:	00682e69 	rsbeq	r2, r8, r9, ror #28
    1340:	00000002 	andeq	r0, r0, r2
    1344:	05002405 	streq	r2, [r0, #-1029]	; 0xfffffbfb
    1348:	00907002 	addseq	r7, r0, r2
    134c:	01061400 	tsteq	r6, r0, lsl #8
    1350:	4a062605 	bmi	18ab6c <__bss_end__+0x181264>
    1354:	052e3405 	streq	r3, [lr, #-1029]!	; 0xfffffbfb
    1358:	05010601 	streq	r0, [r1, #-1537]	; 0xfffff9ff
    135c:	054f061b 	strbeq	r0, [pc, #-1563]	; d49 <__code_start__-0x72b7>
    1360:	11051305 	tstne	r5, r5, lsl #6
    1364:	01050106 	tsteq	r5, r6, lsl #2
    1368:	06230567 	strteq	r0, [r3], -r7, ror #10
    136c:	13050567 	movwne	r0, #21863	; 0x5567
    1370:	01061105 	tsteq	r6, r5, lsl #2
    1374:	024b0105 	subeq	r0, fp, #1073741825	; 0x40000001
    1378:	01010004 	tsteq	r1, r4
    137c:	000000f2 	strdeq	r0, [r0], -r2
    1380:	00670003 	rsbeq	r0, r7, r3
    1384:	01020000 	mrseq	r0, (UNDEF: 2)
    1388:	000d0efb 	strdeq	r0, [sp], -fp
    138c:	01010101 	tsteq	r1, r1, lsl #2
    1390:	01000000 	mrseq	r0, (UNDEF: 0)
    1394:	6c010000 	stcvs	0, cr0, [r1], {-0}
    1398:	00636269 	rsbeq	r6, r3, r9, ror #4
    139c:	6573552f 	ldrbvs	r5, [r3, #-1327]!	; 0xfffffad1
    13a0:	612f7372 			; <UNDEFINED> instruction: 0x612f7372
    13a4:	61697264 	cmnvs	r9, r4, ror #4
    13a8:	72616d6e 	rsbvc	r6, r1, #7040	; 0x1b80
    13ac:	656e6974 	strbvs	r6, [lr, #-2420]!	; 0xfffff68c
    13b0:	72702f7a 	rsbsvc	r2, r0, #488	; 0x1e8
    13b4:	63656a6f 	cmnvs	r5, #454656	; 0x6f000
    13b8:	632f7374 			; <UNDEFINED> instruction: 0x632f7374
    13bc:	30343173 	eorscc	r3, r4, r3, ror r1
    13c0:	31322d65 	teqcc	r2, r5, ror #26
    13c4:	2f727073 	svccs	0x00727073
    13c8:	7062696c 	rsbvc	r6, r2, ip, ror #18
    13cc:	6e692f69 	cdpvs	15, 6, cr2, cr9, cr9, {3}
    13d0:	64756c63 	ldrbtvs	r6, [r5], #-3171	; 0xfffff39d
    13d4:	73000065 	movwvc	r0, #101	; 0x65
    13d8:	61637274 	smcvs	14116	; 0x3724
    13dc:	00632e74 	rsbeq	r2, r3, r4, ror lr
    13e0:	72000001 	andvc	r0, r0, #1, 0
    13e4:	682e6970 	stmdavs	lr!, {r4, r5, r6, r8, fp, sp, lr}
    13e8:	00000200 	andeq	r0, r0, r0, lsl #4
    13ec:	002c0500 	eoreq	r0, ip, r0, lsl #10
    13f0:	90ac0205 	adcls	r0, ip, r5, lsl #4
    13f4:	05150000 	ldreq	r0, [r5, #-0]
    13f8:	05131305 	ldreq	r1, [r3, #-773]	; 0xfffffcfb
    13fc:	0511060b 	ldreq	r0, [r1, #-1547]	; 0xfffff9f5
    1400:	04020005 	streq	r0, [r2], #-5
    1404:	00300601 	eorseq	r0, r0, r1, lsl #12
    1408:	15010402 	strne	r0, [r1, #-1026]	; 0xfffffbfe
    140c:	02000905 	andeq	r0, r0, #81920	; 0x14000
    1410:	05130104 	ldreq	r0, [r3, #-260]	; 0xfffffefc
    1414:	04020010 	streq	r0, [r2], #-16
    1418:	052e0601 	streq	r0, [lr, #-1537]!	; 0xfffff9ff
    141c:	0402000b 	streq	r0, [r2], #-11
    1420:	02002e01 	andeq	r2, r0, #1, 28
    1424:	2f060104 	svccs	0x00060104
    1428:	02000505 	andeq	r0, r0, #20971520	; 0x1400000
    142c:	01060104 	tsteq	r6, r4, lsl #2
    1430:	08054e06 	stmdaeq	r5, {r1, r2, r9, sl, fp, lr}
    1434:	05050106 	streq	r0, [r5, #-262]	; 0xfffffefa
    1438:	01040200 	mrseq	r0, R12_usr
    143c:	09052f06 	stmdbeq	r5, {r1, r2, r8, r9, sl, fp, sp}
    1440:	01040200 	mrseq	r0, R12_usr
    1444:	000b0513 	andeq	r0, fp, r3, lsl r5
    1448:	06010402 	streq	r0, [r1], -r2, lsl #8
    144c:	00090501 	andeq	r0, r9, r1, lsl #10
    1450:	06010402 	streq	r0, [r1], -r2, lsl #8
    1454:	000f054b 	andeq	r0, pc, fp, asr #10
    1458:	06010402 	streq	r0, [r1], -r2, lsl #8
    145c:	000d0501 	andeq	r0, sp, r1, lsl #10
    1460:	06010402 	streq	r0, [r1], -r2, lsl #8
    1464:	0005052f 	andeq	r0, r5, pc, lsr #10
    1468:	06010402 	streq	r0, [r1], -r2, lsl #8
    146c:	00060201 	andeq	r0, r6, r1, lsl #4
    1470:	01090101 	tsteq	r9, r1, lsl #2
    1474:	00030000 	andeq	r0, r3, r0
    1478:	000000cd 	andeq	r0, r0, sp, asr #1
    147c:	0efb0102 	cdpeq	1, 15, cr0, cr11, cr2, {0}
    1480:	0101000d 	tsteq	r1, sp
    1484:	00000101 	andeq	r0, r0, r1, lsl #2
    1488:	00000100 	andeq	r0, r0, r0, lsl #2
    148c:	62696c01 	rsbvs	r6, r9, #256	; 0x100
    1490:	552f0063 	strpl	r0, [pc, #-99]!	; 1435 <__code_start__-0x6bcb>
    1494:	73726573 	cmnvc	r2, #482344960	; 0x1cc00000
    1498:	7264612f 	rsbvc	r6, r4, #-1073741813	; 0xc000000b
    149c:	6d6e6169 	stfvse	f6, [lr, #-420]!	; 0xfffffe5c
    14a0:	69747261 	ldmdbvs	r4!, {r0, r5, r6, r9, ip, sp, lr}^
    14a4:	2f7a656e 	svccs	0x007a656e
    14a8:	6a6f7270 	bvs	1bdde70 <__bss_end__+0x1bd4568>
    14ac:	73746365 	cmnvc	r4, #-1811939327	; 0x94000001
    14b0:	3173632f 	cmncc	r3, pc, lsr #6
    14b4:	2d653034 	stclcs	0, cr3, [r5, #-208]!	; 0xffffff30
    14b8:	70733132 	rsbsvc	r3, r3, r2, lsr r1
    14bc:	696c2f72 	stmdbvs	ip!, {r1, r4, r5, r6, r8, r9, sl, fp, sp}^
    14c0:	2f697062 	svccs	0x00697062
    14c4:	6c636e69 	stclvs	14, cr6, [r3], #-420	; 0xfffffe5c
    14c8:	00656475 	rsbeq	r6, r5, r5, ror r4
    14cc:	7273752f 	rsbsvc	r7, r3, #197132288	; 0xbc00000
    14d0:	636f6c2f 	cmnvs	pc, #12032	; 0x2f00
    14d4:	432f6c61 			; <UNDEFINED> instruction: 0x432f6c61
    14d8:	616c6c65 	cmnvs	ip, r5, ror #24
    14dc:	72612f72 	rsbvc	r2, r1, #456	; 0x1c8
    14e0:	6f6e2d6d 	svcvs	0x006e2d6d
    14e4:	652d656e 	strvs	r6, [sp, #-1390]!	; 0xfffffa92
    14e8:	2d696261 	sfmcs	f6, 2, [r9, #-388]!	; 0xfffffe7c
    14ec:	74736574 	ldrbtvc	r6, [r3], #-1396	; 0xfffffa8c
    14f0:	322d392f 	eorcc	r3, sp, #770048	; 0xbc000
    14f4:	71393130 	teqvc	r9, r0, lsr r1
    14f8:	73632d34 	cmnvc	r3, #52, 26	; 0xd00
    14fc:	65373031 	ldrvs	r3, [r7, #-49]!	; 0xffffffcf
    1500:	62696c2f 	rsbvs	r6, r9, #12032	; 0x2f00
    1504:	6363672f 	cmnvs	r3, #12320768	; 0xbc0000
    1508:	6d72612f 	ldfvse	f6, [r2, #-188]!	; 0xffffff44
    150c:	6e6f6e2d 	cdpvs	14, 6, cr6, cr15, cr13, {1}
    1510:	61652d65 	cmnvs	r5, r5, ror #26
    1514:	392f6962 	stmdbcc	pc!, {r1, r5, r6, r8, fp, sp, lr}	; <UNPREDICTABLE>
    1518:	312e322e 			; <UNDEFINED> instruction: 0x312e322e
    151c:	636e692f 	cmnvs	lr, #770048	; 0xbc000
    1520:	6564756c 	strbvs	r7, [r4, #-1388]!	; 0xfffffa94
    1524:	74730000 	ldrbtvc	r0, [r3], #-0
    1528:	6d636e72 	stclvs	14, cr6, [r3, #-456]!	; 0xfffffe38
    152c:	00632e70 	rsbeq	r2, r3, r0, ror lr
    1530:	72000001 	andvc	r0, r0, #1, 0
    1534:	682e6970 	stmdavs	lr!, {r4, r5, r6, r8, fp, sp, lr}
    1538:	00000200 	andeq	r0, r0, r0, lsl #4
    153c:	64647473 	strbtvs	r7, [r4], #-1139	; 0xfffffb8d
    1540:	682e6665 	stmdavs	lr!, {r0, r2, r5, r6, r9, sl, sp, lr}
    1544:	00000300 	andeq	r0, r0, r0, lsl #6
    1548:	00390500 	eorseq	r0, r9, r0, lsl #10
    154c:	90e00205 	rscls	r0, r0, r5, lsl #4
    1550:	05150000 	ldreq	r0, [r5, #-0]
    1554:	05131305 	ldreq	r1, [r3, #-773]	; 0xfffffcfb
    1558:	0106010a 	tsteq	r6, sl, lsl #2
    155c:	0609054a 	streq	r0, [r9], -sl, asr #10
    1560:	060c052f 	streq	r0, [ip], -pc, lsr #10
    1564:	2e130501 	cfmul32cs	mvfx0, mvfx3, mvfx1
    1568:	052e0b05 	streq	r0, [lr, #-2821]!	; 0xfffff4fb
    156c:	054b060d 	strbeq	r0, [fp, #-1549]	; 0xfffff9f3
    1570:	2e01061b 	mcrcs	6, 0, r0, cr1, cr11, {0}
    1574:	05300c05 	ldreq	r0, [r0, #-3077]!	; 0xfffff3fb
    1578:	02022f01 	andeq	r2, r2, #1, 30
    157c:	Address 0x000000000000157c is out of bounds.


Disassembly of section .debug_str:

00000000 <.debug_str>:
   0:	5f746e69 	svcpl	0x00746e69
   4:	74696e69 	strbtvc	r6, [r9], #-3689	; 0xfffff197
   8:	73797300 	cmnvc	r9, #0, 6
   c:	6c6c6163 	stfvse	f6, [ip], #-396	; 0xfffffe74
  10:	6365765f 	cmnvs	r5, #99614720	; 0x5f00000
  14:	00726f74 	rsbseq	r6, r2, r4, ror pc
  18:	63737973 	cmnvs	r3, #1884160	; 0x1cc000
  1c:	5f6c6c61 	svcpl	0x006c6c61
  20:	6c6c6568 	cfstr64vs	mvdx6, [ip], #-416	; 0xfffffe60
  24:	6f6e006f 	svcvs	0x006e006f
  28:	69616d74 	stmdbvs	r1!, {r2, r4, r5, r6, r8, sl, fp, sp, lr}^
  2c:	6175006e 	cmnvs	r5, lr, rrx
  30:	695f7472 	ldmdbvs	pc, {r1, r4, r5, r6, sl, ip, sp, lr}^	; <UNPREDICTABLE>
  34:	0074696e 	rsbseq	r6, r4, lr, ror #18
  38:	69736e75 	ldmdbvs	r3!, {r0, r2, r4, r5, r6, r9, sl, fp, sp, lr}^
  3c:	64656e67 	strbtvs	r6, [r5], #-3687	; 0xfffff199
  40:	61686320 	cmnvs	r8, r0, lsr #6
  44:	6c630072 	stclvs	0, cr0, [r3], #-456	; 0xfffffe38
  48:	5f6e6165 	svcpl	0x006e6165
  4c:	6f626572 	svcvs	0x00626572
  50:	7300746f 	movwvc	r7, #1135	; 0x46f
  54:	74726f68 	ldrbtvc	r6, [r2], #-3944	; 0xfffff098
  58:	736e7520 	cmnvc	lr, #32, 10	; 0x8000000
  5c:	656e6769 	strbvs	r6, [lr, #-1897]!	; 0xfffff897
  60:	6e692064 	cdpvs	0, 6, cr2, cr9, cr4, {3}
  64:	6e690074 	mcrvs	0, 3, r0, cr9, cr4, {3}
  68:	73007473 	movwvc	r7, #1139	; 0x473
  6c:	6e5f7379 	mrcvs	3, 2, r7, cr15, cr9, {3}
  70:	5f006d75 	svcpl	0x00006d75
  74:	4e55465f 	mrcmi	6, 2, r4, cr5, cr15, {2}
  78:	4f495443 	svcmi	0x00495443
  7c:	005f5f4e 	subseq	r5, pc, lr, asr #30
  80:	676e6f6c 	strbvs	r6, [lr, -ip, ror #30]!
  84:	6e6f6c20 	cdpvs	12, 6, cr6, cr15, cr0, {1}
  88:	6e752067 	cdpvs	0, 7, cr2, cr5, cr7, {3}
  8c:	6e676973 			; <UNDEFINED> instruction: 0x6e676973
  90:	69206465 	stmdbvs	r0!, {r0, r2, r5, r6, sl, sp, lr}
  94:	2f00746e 	svccs	0x0000746e
  98:	72657355 	rsbvc	r7, r5, #1409286145	; 0x54000001
  9c:	64612f73 	strbtvs	r2, [r1], #-3955	; 0xfffff08d
  a0:	6e616972 			; <UNDEFINED> instruction: 0x6e616972
  a4:	7472616d 	ldrbtvc	r6, [r2], #-365	; 0xfffffe93
  a8:	7a656e69 	bvc	195ba54 <__bss_end__+0x195214c>
  ac:	6f72702f 	svcvs	0x0072702f
  b0:	7463656a 	strbtvc	r6, [r3], #-1386	; 0xfffffa96
  b4:	73632f73 	cmnvc	r3, #460	; 0x1cc
  b8:	65303431 	ldrvs	r3, [r0, #-1073]!	; 0xfffffbcf
  bc:	7331322d 	teqvc	r1, #-805306366	; 0xd0000002
  c0:	6c2f7270 	sfmvs	f7, 4, [pc], #-448	; ffffff08 <__bss_end__+0xffff6600>
  c4:	2f736261 	svccs	0x00736261
  c8:	6e692d37 	mcrvs	13, 3, r2, cr9, cr7, {1}
  cc:	72726574 	rsbsvc	r6, r2, #116, 10	; 0x1d000000
  d0:	73747075 	cmnvc	r4, #117, 0	; 0x75
  d4:	732d312f 			; <UNDEFINED> instruction: 0x732d312f
  d8:	61637379 	smcvs	14137	; 0x3739
  dc:	73006c6c 	movwvc	r6, #3180	; 0xc6c
  e0:	61637379 	smcvs	14137	; 0x3739
  e4:	695f6c6c 	ldmdbvs	pc, {r2, r3, r5, r6, sl, fp, sp, lr}^	; <UNPREDICTABLE>
  e8:	67656c6c 	strbvs	r6, [r5, -ip, ror #24]!
  ec:	6c006c61 	stcvs	12, cr6, [r0], {97}	; 0x61
  f0:	20676e6f 	rsbcs	r6, r7, pc, ror #28
  f4:	676e6f6c 	strbvs	r6, [lr, -ip, ror #30]!
  f8:	746e6920 	strbtvc	r6, [lr], #-2336	; 0xfffff6e0
  fc:	69707200 	ldmdbvs	r0!, {r9, ip, sp, lr}^
 100:	7475705f 	ldrbtvc	r7, [r5], #-95	; 0xffffffa1
 104:	72616863 	rsbvc	r6, r1, #6488064	; 0x630000
 108:	6f687300 	svcvs	0x00687300
 10c:	69207472 	stmdbvs	r0!, {r1, r4, r5, r6, sl, ip, sp, lr}
 110:	7500746e 	strvc	r7, [r0, #-1134]	; 0xfffffb92
 114:	33746e69 	cmncc	r4, #1680	; 0x690
 118:	00745f32 	rsbseq	r5, r4, r2, lsr pc
 11c:	20554e47 	subscs	r4, r5, r7, asr #28
 120:	20393943 	eorscs	r3, r9, r3, asr #18
 124:	2e322e39 	mrccs	14, 1, r2, cr2, cr9, {1}
 128:	30322031 	eorscc	r2, r2, r1, lsr r0
 12c:	30313931 	eorscc	r3, r1, r1, lsr r9
 130:	28203532 	stmdacs	r0!, {r1, r4, r5, r8, sl, ip, sp}
 134:	656c6572 	strbvs	r6, [ip, #-1394]!	; 0xfffffa8e
 138:	29657361 	stmdbcs	r5!, {r0, r5, r6, r8, r9, ip, sp, lr}^
 13c:	52415b20 	subpl	r5, r1, #32, 22	; 0x8000
 140:	72612f4d 	rsbvc	r2, r1, #308	; 0x134
 144:	2d392d6d 	ldccs	13, cr2, [r9, #-436]!	; 0xfffffe4c
 148:	6e617262 	cdpvs	2, 6, cr7, cr1, cr2, {3}
 14c:	72206863 	eorvc	r6, r0, #6488064	; 0x630000
 150:	73697665 	cmnvc	r9, #105906176	; 0x6500000
 154:	206e6f69 	rsbcs	r6, lr, r9, ror #30
 158:	35373732 	ldrcc	r3, [r7, #-1842]!	; 0xfffff8ce
 15c:	205d3939 	subscs	r3, sp, r9, lsr r9
 160:	70636d2d 	rsbvc	r6, r3, sp, lsr #26
 164:	72613d75 	rsbvc	r3, r1, #7488	; 0x1d40
 168:	3731316d 	ldrcc	r3, [r1, -sp, ror #2]!
 16c:	667a6a36 			; <UNDEFINED> instruction: 0x667a6a36
 170:	2d20732d 	stccs	3, cr7, [r0, #-180]!	; 0xffffff4c
 174:	6e75746d 	cdpvs	4, 7, cr7, cr5, cr13, {3}
 178:	72613d65 	rsbvc	r3, r1, #6464	; 0x1940
 17c:	3731316d 	ldrcc	r3, [r1, -sp, ror #2]!
 180:	667a6a36 			; <UNDEFINED> instruction: 0x667a6a36
 184:	2d20732d 	stccs	3, cr7, [r0, #-180]!	; 0xffffff4c
 188:	6f6c666d 	svcvs	0x006c666d
 18c:	612d7461 			; <UNDEFINED> instruction: 0x612d7461
 190:	733d6962 	teqvc	sp, #1605632	; 0x188000
 194:	2074666f 	rsbscs	r6, r4, pc, ror #12
 198:	72616d2d 	rsbvc	r6, r1, #2880	; 0xb40
 19c:	6d2d206d 	stcvs	0, cr2, [sp, #-436]!	; 0xfffffe4c
 1a0:	68637261 	stmdavs	r3!, {r0, r5, r6, r9, ip, sp, lr}^
 1a4:	6d72613d 	ldfvse	f6, [r2, #-244]!	; 0xffffff0c
 1a8:	7a6b3676 	bvc	1acdb88 <__bss_end__+0x1ac4280>
 1ac:	67672d20 	strbvs	r2, [r7, -r0, lsr #26]!
 1b0:	2d206264 	sfmcs	f6, 4, [r0, #-400]!	; 0xfffffe70
 1b4:	2d20674f 	stccs	7, cr6, [r0, #-316]!	; 0xfffffec4
 1b8:	3d647473 	cfstrdcc	mvd7, [r4, #-460]!	; 0xfffffe34
 1bc:	39756e67 	ldmdbcc	r5!, {r0, r1, r2, r5, r6, r9, sl, fp, sp, lr}^
 1c0:	662d2039 			; <UNDEFINED> instruction: 0x662d2039
 1c4:	65657266 	strbvs	r7, [r5, #-614]!	; 0xfffffd9a
 1c8:	6e617473 	mcrvs	4, 3, r7, cr1, cr3, {3}
 1cc:	676e6964 	strbvs	r6, [lr, -r4, ror #18]!
 1d0:	73797300 	cmnvc	r9, #0, 6
 1d4:	6c6c6163 	stfvse	f6, [ip], #-396	; 0xfffffe74
 1d8:	4900632e 	stmdbmi	r0, {r1, r2, r3, r5, r8, r9, sp, lr}
 1dc:	625f5152 	subsvs	r5, pc, #-2147483628	; 0x80000014
 1e0:	63697361 	cmnvs	r9, #-2080374783	; 0x84000001
 1e4:	6e65705f 	mcrvs	0, 3, r7, cr5, cr15, {2}
 1e8:	676e6964 	strbvs	r6, [lr, -r4, ror #18]!
 1ec:	646e7500 	strbtvs	r7, [lr], #-1280	; 0xfffffb00
 1f0:	6e696665 	cdpvs	6, 6, cr6, cr9, cr5, {3}
 1f4:	695f6465 	ldmdbvs	pc, {r0, r2, r5, r6, sl, sp, lr}^	; <UNPREDICTABLE>
 1f8:	7274736e 	rsbsvc	r7, r4, #-1207959551	; 0xb8000001
 1fc:	69746375 	ldmdbvs	r4!, {r0, r2, r4, r5, r6, r8, r9, sp, lr}^
 200:	765f6e6f 	ldrbvc	r6, [pc], -pc, ror #28
 204:	6f746365 	svcvs	0x00746365
 208:	69440072 	stmdbvs	r4, {r1, r4, r5, r6}^
 20c:	6c626173 	stfvse	f6, [r2], #-460	; 0xfffffe34
 210:	61425f65 	cmpvs	r2, r5, ror #30
 214:	5f636973 	svcpl	0x00636973
 218:	73515249 	cmpvc	r1, #-1879048188	; 0x90000004
 21c:	51494600 	cmppl	r9, r0, lsl #12
 220:	6e6f635f 	mcrvs	3, 3, r6, cr15, cr15, {2}
 224:	6c6f7274 	sfmvs	f7, 2, [pc], #-464	; 5c <__code_start__-0x7fa4>
 228:	6e695f00 	cdpvs	15, 6, cr5, cr9, cr0, {0}
 22c:	72726574 	rsbsvc	r6, r2, #116, 10	; 0x1d000000
 230:	5f747075 	svcpl	0x00747075
 234:	6c626174 	stfvse	f6, [r2], #-464	; 0xfffffe30
 238:	6e450065 	cdpvs	0, 4, cr0, cr5, cr5, {3}
 23c:	656c6261 	strbvs	r6, [ip, #-609]!	; 0xfffffd9f
 240:	7361425f 	cmnvc	r1, #-268435451	; 0xf0000005
 244:	495f6369 	ldmdbmi	pc, {r0, r3, r5, r6, r8, r9, sp, lr}^	; <UNPREDICTABLE>
 248:	00735152 	rsbseq	r5, r3, r2, asr r1
 24c:	62616e45 	rsbvs	r6, r1, #1104	; 0x450
 250:	495f656c 	ldmdbmi	pc, {r2, r3, r5, r6, r8, sl, sp, lr}^	; <UNPREDICTABLE>
 254:	5f735152 	svcpl	0x00735152
 258:	6e450031 	mcrvs	0, 2, r0, cr5, cr1, {1}
 25c:	656c6261 	strbvs	r6, [ip, #-609]!	; 0xfffffd9f
 260:	5152495f 	cmppl	r2, pc, asr r9
 264:	00325f73 	eorseq	r5, r2, r3, ror pc
 268:	5f515249 	svcpl	0x00515249
 26c:	646e6570 	strbtvs	r6, [lr], #-1392	; 0xfffffa90
 270:	5f676e69 	svcpl	0x00676e69
 274:	695f0031 	ldmdbvs	pc, {r0, r4, r5}^	; <UNPREDICTABLE>
 278:	7265746e 	rsbvc	r7, r5, #1845493760	; 0x6e000000
 27c:	74707572 	ldrbtvc	r7, [r0], #-1394	; 0xfffffa8e
 280:	6261745f 	rsbvs	r7, r1, #1593835520	; 0x5f000000
 284:	655f656c 	ldrbvs	r6, [pc, #-1388]	; fffffd20 <__bss_end__+0xffff6418>
 288:	4900646e 	stmdbmi	r0, {r1, r2, r3, r5, r6, sl, sp, lr}
 28c:	705f5152 	subsvc	r5, pc, r2, asr r1	; <UNPREDICTABLE>
 290:	69646e65 	stmdbvs	r4!, {r0, r2, r5, r6, r9, sl, fp, sp, lr}^
 294:	325f676e 	subscc	r6, pc, #28835840	; 0x1b80000
 298:	76656400 	strbtvc	r6, [r5], -r0, lsl #8
 29c:	7261625f 	rsbvc	r6, r1, #-268435451	; 0xf0000005
 2a0:	72656972 	rsbvc	r6, r5, #1867776	; 0x1c8000
 2a4:	74616400 	strbtvc	r6, [r1], #-1024	; 0xfffffc00
 2a8:	62615f61 	rsbvs	r5, r1, #388	; 0x184
 2ac:	5f74726f 	svcpl	0x0074726f
 2b0:	74636576 	strbtvc	r6, [r3], #-1398	; 0xfffffa8a
 2b4:	7000726f 	andvc	r7, r0, pc, ror #4
 2b8:	65666572 	strbvs	r6, [r6, #-1394]!	; 0xfffffa8e
 2bc:	5f686374 	svcpl	0x00686374
 2c0:	726f6261 	rsbvc	r6, pc, #268435462	; 0x10000006
 2c4:	65765f74 	ldrbvs	r5, [r6, #-3956]!	; 0xfffff08c
 2c8:	726f7463 	rsbvc	r7, pc, #1660944384	; 0x63000000
 2cc:	746e6900 	strbtvc	r6, [lr], #-2304	; 0xfffff700
 2d0:	75727265 	ldrbvc	r7, [r2, #-613]!	; 0xfffffd9b
 2d4:	2d737470 	cfldrdcs	mvd7, [r3, #-448]!	; 0xfffffe40
 2d8:	00632e63 	rsbeq	r2, r3, r3, ror #28
 2dc:	65736572 	ldrbvs	r6, [r3, #-1394]!	; 0xfffffa8e
 2e0:	65765f74 	ldrbvs	r5, [r6, #-3956]!	; 0xfffff08c
 2e4:	726f7463 	rsbvc	r7, pc, #1660944384	; 0x63000000
 2e8:	666f7300 	strbtvs	r7, [pc], -r0, lsl #6
 2ec:	72617774 	rsbvc	r7, r1, #116, 14	; 0x1d00000
 2f0:	6e695f65 	cdpvs	15, 6, cr5, cr9, cr5, {3}
 2f4:	72726574 	rsbsvc	r6, r2, #116, 10	; 0x1d000000
 2f8:	5f747075 	svcpl	0x00747075
 2fc:	74636576 	strbtvc	r6, [r3], #-1398	; 0xfffffa8a
 300:	5000726f 	andpl	r7, r0, pc, ror #4
 304:	32335455 	eorscc	r5, r3, #1426063360	; 0x55000000
 308:	73694400 	cmnvc	r9, #0, 8
 30c:	656c6261 	strbvs	r6, [ip, #-609]!	; 0xfffffd9f
 310:	5152495f 	cmppl	r2, pc, asr r9
 314:	00315f73 	eorseq	r5, r1, r3, ror pc
 318:	61736944 	cmnvs	r3, r4, asr #18
 31c:	5f656c62 	svcpl	0x00656c62
 320:	73515249 	cmpvc	r1, #-1879048188	; 0x90000004
 324:	6600325f 			; <UNDEFINED> instruction: 0x6600325f
 328:	5f747361 	svcpl	0x00747361
 32c:	65746e69 	ldrbvs	r6, [r4, #-3689]!	; 0xfffff197
 330:	70757272 	rsbsvc	r7, r5, r2, ror r2
 334:	65765f74 	ldrbvs	r5, [r6, #-3956]!	; 0xfffff08c
 338:	726f7463 	rsbvc	r7, pc, #1660944384	; 0x63000000
 33c:	51524900 	cmppl	r2, r0, lsl #18
 340:	7361425f 	cmnvc	r1, #-268435451	; 0xf0000005
 344:	72610065 	rsbvc	r0, r1, #101, 0	; 0x65
 348:	76007367 	strvc	r7, [r0], -r7, ror #6
 34c:	72705f61 	rsbsvc	r5, r0, #388	; 0x184
 350:	6b746e69 	blvs	1d1bcfc <__bss_end__+0x1d123f4>
 354:	675f5f00 	ldrbvs	r5, [pc, -r0, lsl #30]
 358:	5f63756e 	svcpl	0x0063756e
 35c:	6c5f6176 	ldfvse	f6, [pc], {118}	; 0x76
 360:	00747369 	rsbseq	r7, r4, r9, ror #6
 364:	6362696c 	cmnvs	r2, #108, 18	; 0x1b0000
 368:	6972702f 	ldmdbvs	r2!, {r0, r1, r2, r3, r5, ip, sp, lr}^
 36c:	2e6b746e 	cdpcs	4, 6, cr7, cr11, cr14, {3}
 370:	5f5f0063 	svcpl	0x005f0063
 374:	5f007061 	svcpl	0x00007061
 378:	5f61765f 	svcpl	0x0061765f
 37c:	7473696c 	ldrbtvc	r6, [r3], #-2412	; 0xfffff694
 380:	73552f00 	cmpvc	r5, #0, 30
 384:	2f737265 	svccs	0x00737265
 388:	69726461 	ldmdbvs	r2!, {r0, r5, r6, sl, sp, lr}^
 38c:	616d6e61 	cmnvs	sp, r1, ror #28
 390:	6e697472 	mcrvs	4, 3, r7, cr9, cr2, {3}
 394:	702f7a65 	eorvc	r7, pc, r5, ror #20
 398:	656a6f72 	strbvs	r6, [sl, #-3954]!	; 0xfffff08e
 39c:	2f737463 	svccs	0x00737463
 3a0:	34317363 	ldrtcc	r7, [r1], #-867	; 0xfffffc9d
 3a4:	322d6530 	eorcc	r6, sp, #48, 10	; 0xc000000
 3a8:	72707331 	rsbsvc	r7, r0, #-1006632960	; 0xc4000000
 3ac:	62696c2f 	rsbvs	r6, r9, #12032	; 0x2f00
 3b0:	69006970 	stmdbvs	r0, {r4, r5, r6, r8, fp, sp, lr}
 3b4:	7265746e 	rsbvc	r7, r5, #1845493760	; 0x6e000000
 3b8:	5f6c616e 	svcpl	0x006c616e
 3bc:	6b747570 	blvs	1d1d984 <__bss_end__+0x1d1407c>
 3c0:	62696c00 	rsbvs	r6, r9, #0, 24
 3c4:	75702f63 	ldrbvc	r2, [r0, #-3939]!	; 0xfffff09d
 3c8:	632e6b74 			; <UNDEFINED> instruction: 0x632e6b74
 3cc:	64736900 	ldrbtvs	r6, [r3], #-2304	; 0xfffff700
 3d0:	74696769 	strbtvc	r6, [r9], #-1897	; 0xfffff897
 3d4:	6e697500 	cdpvs	5, 6, cr7, cr9, cr0, {0}
 3d8:	5f343674 	svcpl	0x00343674
 3dc:	5f5f0074 	svcpl	0x005f0074
 3e0:	65646f63 	strbvs	r6, [r4, #-3939]!	; 0xfffff09d
 3e4:	6174735f 	cmnvs	r4, pc, asr r3
 3e8:	5f5f7472 	svcpl	0x005f7472
 3ec:	625f5f00 	subsvs	r5, pc, #0, 30
 3f0:	735f7373 	cmpvc	pc, #-872415231	; 0xcc000001
 3f4:	74726174 	ldrbtvc	r6, [r2], #-372	; 0xfffffe8c
 3f8:	77005f5f 	smlsdvc	r0, pc, pc, r5	; <UNPREDICTABLE>
 3fc:	68746469 	ldmdavs	r4!, {r0, r3, r5, r6, sl, sp, lr}^
 400:	645f5f00 	ldrbvs	r5, [pc], #-3840	; 408 <__code_start__-0x7bf8>
 404:	5f617461 	svcpl	0x00617461
 408:	5f646e65 	svcpl	0x00646e65
 40c:	7570005f 	ldrbvc	r0, [r0, #-95]!	; 0xffffffa1
 410:	665f6374 			; <UNDEFINED> instruction: 0x665f6374
 414:	5f5f0070 	svcpl	0x005f0070
 418:	5f737362 	svcpl	0x00737362
 41c:	5f646e65 	svcpl	0x00646e65
 420:	5f5f005f 	svcpl	0x005f005f
 424:	70616568 	rsbvc	r6, r1, r8, ror #10
 428:	6174735f 	cmnvs	r4, pc, asr r3
 42c:	5f5f7472 	svcpl	0x005f7472
 430:	69707200 	ldmdbvs	r0!, {r9, ip, sp, lr}^
 434:	7465735f 	strbtvc	r7, [r5], #-863	; 0xfffffca1
 438:	74756f5f 	ldrbtvc	r6, [r5], #-3935	; 0xfffff0a1
 43c:	00747570 	rsbseq	r7, r4, r0, ror r5
 440:	5f746d66 	svcpl	0x00746d66
 444:	72617473 	rsbvc	r7, r1, #1929379840	; 0x73000000
 448:	696c0074 	stmdbvs	ip!, {r2, r4, r5, r6}^
 44c:	762f6362 	strtvc	r6, [pc], -r2, ror #6
 450:	72702d61 	rsbsvc	r2, r0, #6208	; 0x1840
 454:	6b746e69 	blvs	1d1be00 <__bss_end__+0x1d124f8>
 458:	7300632e 	movwvc	r6, #814	; 0x32e
 45c:	61637274 	smcvs	14116	; 0x3724
 460:	656e0074 	strbvs	r0, [lr, #-116]!	; 0xffffff8c
 464:	00705f67 	rsbseq	r5, r0, r7, ror #30
 468:	6f635f5f 	svcvs	0x00635f5f
 46c:	655f6564 	ldrbvs	r6, [pc, #-1380]	; ffffff10 <__bss_end__+0xffff6608>
 470:	5f5f646e 	svcpl	0x005f646e
 474:	696d6500 	stmdbvs	sp!, {r8, sl, sp, lr}^
 478:	75700074 	ldrbvc	r0, [r0, #-116]!	; 0xffffff8c
 47c:	665f7374 			; <UNDEFINED> instruction: 0x665f7374
 480:	65720070 	ldrbvs	r0, [r2, #-112]!	; 0xffffff90
 484:	73726576 	cmnvc	r2, #494927872	; 0x1d800000
 488:	5f5f0065 	svcpl	0x005f0065
 48c:	61746164 	cmnvs	r4, r4, ror #2
 490:	6174735f 	cmnvs	r4, pc, asr r3
 494:	5f5f7472 	svcpl	0x005f7472
 498:	705f5f00 	subsvc	r5, pc, r0, lsl #30
 49c:	5f676f72 	svcpl	0x00676f72
 4a0:	5f646e65 	svcpl	0x00646e65
 4a4:	756e005f 	strbvc	r0, [lr, #-95]!	; 0xffffffa1
 4a8:	7300316d 	movwvc	r3, #365	; 0x16d
 4ac:	636e7274 	cmnvs	lr, #116, 4	; 0x40000007
 4b0:	6200706d 	andvs	r7, r0, #109, 0	; 0x6d
 4b4:	00657361 	rsbeq	r7, r5, r1, ror #6
 4b8:	6e676973 			; <UNDEFINED> instruction: 0x6e676973
 4bc:	705f6465 	subsvc	r6, pc, r5, ror #8
 4c0:	69707200 	ldmdbvs	r0!, {r9, ip, sp, lr}^
 4c4:	6265725f 	rsbvs	r7, r5, #-268435451	; 0xf0000005
 4c8:	00746f6f 	rsbseq	r6, r4, pc, ror #30
 4cc:	616c6564 	cmnvs	ip, r4, ror #10
 4d0:	736d5f79 	cmnvc	sp, #484	; 0x1e4
 4d4:	61747300 	cmnvs	r4, r0, lsl #6
 4d8:	732d6666 			; <UNDEFINED> instruction: 0x732d6666
 4dc:	632f6372 			; <UNDEFINED> instruction: 0x632f6372
 4e0:	6e61656c 	cdpvs	5, 6, cr6, cr1, cr12, {3}
 4e4:	6265722d 	rsbvs	r7, r5, #-805306366	; 0xd0000002
 4e8:	2e746f6f 	cdpcs	15, 7, cr6, cr4, cr15, {3}
 4ec:	61750063 	cmnvs	r5, r3, rrx
 4f0:	665f7472 			; <UNDEFINED> instruction: 0x665f7472
 4f4:	6873756c 	ldmdavs	r3!, {r2, r3, r5, r6, r8, sl, ip, sp, lr}^
 4f8:	0078745f 	rsbseq	r7, r8, pc, asr r4
 4fc:	7473635f 	ldrbtvc	r6, [r3], #-863	; 0xfffffca1
 500:	00747261 	rsbseq	r7, r4, r1, ror #4
 504:	5f737362 	svcpl	0x00737362
 508:	00646e65 	rsbeq	r6, r4, r5, ror #28
 50c:	74737563 	ldrbtvc	r7, [r3], #-1379	; 0xfffffa9d
 510:	6c5f6d6f 	mrrcvs	13, 6, r6, pc, cr15	; <UNPREDICTABLE>
 514:	6564616f 	strbvs	r6, [r4, #-367]!	; 0xfffffe91
 518:	74730072 	ldrbtvc	r0, [r3], #-114	; 0xffffff8e
 51c:	2d666661 	stclcs	6, cr6, [r6, #-388]!	; 0xfffffe7c
 520:	2f637273 	svccs	0x00637273
 524:	61747363 	cmnvs	r4, r3, ror #6
 528:	632e7472 			; <UNDEFINED> instruction: 0x632e7472
 52c:	61747300 	cmnvs	r4, r0, lsl #6
 530:	732d6666 			; <UNDEFINED> instruction: 0x732d6666
 534:	632f6372 			; <UNDEFINED> instruction: 0x632f6372
 538:	6f747375 	svcvs	0x00747375
 53c:	6f6c2d6d 	svcvs	0x006c2d6d
 540:	72656461 	rsbvc	r6, r5, #1627389952	; 0x61000000
 544:	5000632e 	andpl	r6, r0, lr, lsr #6
 548:	44575f4d 	ldrbmi	r5, [r7], #-3917	; 0xfffff0b3
 54c:	7300474f 	movwvc	r4, #1871	; 0x74f
 550:	755f7465 	ldrbvc	r7, [pc, #-1125]	; f3 <__code_start__-0x7f0d>
 554:	5f726573 	svcpl	0x00726573
 558:	6576656c 	ldrbvs	r6, [r6, #-1388]!	; 0xfffffa94
 55c:	4d50006c 	ldclmi	0, cr0, [r0, #-432]	; 0xfffffe50
 560:	5341505f 	movtpl	r5, #4191	; 0x105f
 564:	524f5753 	subpl	r5, pc, #21757952	; 0x14c0000
 568:	74610044 	strbtvc	r0, [r1], #-68	; 0xffffffbc
 56c:	6573755f 	ldrbvs	r7, [r3, #-1375]!	; 0xfffffaa1
 570:	656c5f72 	strbvs	r5, [ip, #-3954]!	; 0xfffff08e
 574:	006c6576 	rsbeq	r6, ip, r6, ror r5
 578:	66617473 			; <UNDEFINED> instruction: 0x66617473
 57c:	72732d66 	rsbsvc	r2, r3, #6528	; 0x1980
 580:	65722f63 	ldrbvs	r2, [r2, #-3939]!	; 0xfffff09d
 584:	746f6f62 	strbtvc	r6, [pc], #-3938	; 58c <__code_start__-0x7a74>
 588:	5000632e 	andpl	r6, r0, lr, lsr #6
 58c:	53525f4d 	cmppl	r2, #308	; 0x134
 590:	63004354 	movwvs	r4, #852	; 0x354
 594:	00727370 	rsbseq	r7, r2, r0, ror r3
 598:	525f4d50 	subspl	r4, pc, #80, 26	; 0x1400
 59c:	5f435453 	svcpl	0x00435453
 5a0:	46435257 			; <UNDEFINED> instruction: 0x46435257
 5a4:	55465f47 	strbpl	r5, [r6, #-3911]	; 0xfffff0b9
 5a8:	525f4c4c 	subspl	r4, pc, #76, 24	; 0x4c00
 5ac:	54455345 	strbpl	r5, [r5], #-837	; 0xfffffcbb
 5b0:	6c656400 	cfstrdvs	mvd6, [r5], #-0
 5b4:	635f7961 	cmpvs	pc, #1589248	; 0x184000
 5b8:	656c6379 	strbvs	r6, [ip, #-889]!	; 0xfffffc87
 5bc:	69740073 	ldmdbvs	r4!, {r0, r1, r4, r5, r6}^
 5c0:	00736b63 	rsbseq	r6, r3, r3, ror #22
 5c4:	616c6564 	cmnvs	ip, r4, ror #10
 5c8:	65735f79 	ldrbvs	r5, [r3, #-3961]!	; 0xfffff087
 5cc:	45470063 	strbmi	r0, [r7, #-99]	; 0xffffff9d
 5d0:	00323354 	eorseq	r3, r2, r4, asr r3
 5d4:	656d6974 	strbvs	r6, [sp, #-2420]!	; 0xfffff68c
 5d8:	65675f72 	strbvs	r5, [r7, #-3954]!	; 0xfffff08e
 5dc:	73755f74 	cmnvc	r5, #116, 30	; 0x1d0
 5e0:	64006365 	strvs	r6, [r0], #-869	; 0xfffffc9b
 5e4:	79616c65 	stmdbvc	r1!, {r0, r2, r5, r6, sl, fp, sp, lr}^
 5e8:	0073755f 	rsbseq	r7, r3, pc, asr r5
 5ec:	656d6974 	strbvs	r6, [sp, #-2420]!	; 0xfffff68c
 5f0:	65675f72 	strbvs	r5, [r7, #-3954]!	; 0xfffff08e
 5f4:	73755f74 	cmnvc	r5, #116, 30	; 0x1d0
 5f8:	725f6365 	subsvc	r6, pc, #-1811939327	; 0x94000001
 5fc:	73007761 	movwvc	r7, #1889	; 0x761
 600:	66666174 			; <UNDEFINED> instruction: 0x66666174
 604:	6372732d 	cmnvs	r2, #-1275068416	; 0xb4000000
 608:	6d69742f 	cfstrdvs	mvd7, [r9, #-188]!	; 0xffffff44
 60c:	632e7265 			; <UNDEFINED> instruction: 0x632e7265
 610:	61747300 	cmnvs	r4, r0, lsl #6
 614:	74725f74 	ldrbtvc	r5, [r2], #-3956	; 0xfffff08c
 618:	6e630073 	mcrvs	0, 3, r0, cr3, cr3, {3}
 61c:	725f6c74 	subsvc	r6, pc, #116, 24	; 0x7400
 620:	6e655f78 	mcrvs	15, 3, r5, cr5, cr8, {3}
 624:	656c6261 	strbvs	r6, [ip, #-609]!	; 0xfffffd9f
 628:	61756d00 	cmnvs	r5, r0, lsl #26
 62c:	725f7472 	subsvc	r7, pc, #1912602624	; 0x72000000
 630:	73696765 	cmnvc	r9, #26476544	; 0x1940000
 634:	73726574 	cmnvc	r2, #116, 10	; 0x1d000000
 638:	61747300 	cmnvs	r4, r0, lsl #6
 63c:	78745f74 	ldmdavc	r4!, {r2, r4, r5, r6, r8, r9, sl, fp, ip, lr}^
 640:	6176615f 	cmnvs	r6, pc, asr r1
 644:	62616c69 	rsbvs	r6, r1, #26880	; 0x6900
 648:	7300656c 	movwvc	r6, #1388	; 0x56c
 64c:	752f6372 	strvc	r6, [pc, #-882]!	; 2e2 <__code_start__-0x7d1e>
 650:	2e747261 	cdpcs	2, 7, cr7, cr4, cr1, {3}
 654:	6e630063 	cdpvs	0, 6, cr0, cr3, cr3, {3}
 658:	745f6c74 	ldrbvc	r6, [pc], #-3188	; 660 <__code_start__-0x79a0>
 65c:	6e655f78 	mcrvs	15, 3, r5, cr5, cr8, {3}
 660:	656c6261 	strbvs	r6, [ip, #-609]!	; 0xfffffd9f
 664:	61747300 	cmnvs	r4, r0, lsl #6
 668:	78745f74 	ldmdavc	r4!, {r2, r4, r5, r6, r8, r9, sl, fp, ip, lr}^
 66c:	6c64695f 			; <UNDEFINED> instruction: 0x6c64695f
 670:	75610065 	strbvc	r0, [r1, #-101]!	; 0xffffff9b
 674:	626e6578 	rsbvs	r6, lr, #120, 10	; 0x1e000000
 678:	7261755f 	rsbvc	r7, r1, #398458880	; 0x17c00000
 67c:	736c0074 	cmnvc	ip, #116, 0	; 0x74
 680:	78725f72 	ldmdavc	r2!, {r1, r4, r5, r6, r8, r9, sl, fp, ip, lr}^
 684:	65766f5f 	ldrbvs	r6, [r6, #-3935]!	; 0xfffff0a1
 688:	6e757272 	mrcvs	2, 3, r7, cr5, cr2, {3}
 68c:	72636c00 	rsbvc	r6, r3, #0, 24
 690:	7461645f 	strbtvc	r6, [r1], #-1119	; 0xfffffba1
 694:	69735f61 	ldmdbvs	r3!, {r0, r5, r6, r8, r9, sl, fp, ip, lr}^
 698:	6c00657a 	cfstr32vs	mvfx6, [r0], {122}	; 0x7a
 69c:	65727273 	ldrbvs	r7, [r2, #-627]!	; 0xfffffd8d
 6a0:	50470067 	subpl	r0, r7, r7, rrx
 6a4:	465f4f49 	ldrbmi	r4, [pc], -r9, asr #30
 6a8:	5f434e55 	svcpl	0x00434e55
 6ac:	5054554f 	subspl	r5, r4, pc, asr #10
 6b0:	6c005455 	cfstrsvs	mvf5, [r0], {85}	; 0x55
 6b4:	65727263 	ldrbvs	r7, [r2, #-611]!	; 0xfffffd9d
 6b8:	69665f67 	stmdbvs	r6!, {r0, r1, r2, r5, r6, r8, r9, sl, fp, ip, lr}^
 6bc:	73646c65 	cmnvc	r4, #25856	; 0x6500
 6c0:	61747300 	cmnvs	r4, r0, lsl #6
 6c4:	78725f74 	ldmdavc	r2!, {r2, r4, r5, r6, r8, r9, sl, fp, ip, lr}^
 6c8:	6176615f 	cmnvs	r6, pc, asr r1
 6cc:	62616c69 	rsbvs	r6, r1, #26880	; 0x6900
 6d0:	7300656c 	movwvc	r6, #1388	; 0x56c
 6d4:	5f746174 	svcpl	0x00746174
 6d8:	73756e75 	cmnvc	r5, #1872	; 0x750
 6dc:	6c006465 	cfstrsvs	mvf6, [r0], {101}	; 0x65
 6e0:	65727273 	ldrbvs	r7, [r2, #-627]!	; 0xfffffd8d
 6e4:	69665f67 	stmdbvs	r6!, {r0, r1, r2, r5, r6, r8, r9, sl, fp, ip, lr}^
 6e8:	73646c65 	cmnvc	r4, #25856	; 0x6500
 6ec:	72617500 	rsbvc	r7, r1, #0, 10
 6f0:	65675f74 	strbvs	r5, [r7, #-3956]!	; 0xfffff08c
 6f4:	615f6374 	cmpvs	pc, r4, ror r3	; <UNPREDICTABLE>
 6f8:	636e7973 	cmnvs	lr, #1884160	; 0x1cc000
 6fc:	49504700 	ldmdbmi	r0, {r8, r9, sl, lr}^
 700:	55465f4f 	strbpl	r5, [r6, #-3919]	; 0xfffff0b1
 704:	415f434e 	cmpmi	pc, lr, asr #6
 708:	0030544c 	eorseq	r5, r0, ip, asr #8
 70c:	4f495047 	svcmi	0x00495047
 710:	4e55465f 	mrcmi	6, 2, r4, cr5, cr15, {2}
 714:	4c415f43 	mcrrmi	15, 4, r5, r1, cr3
 718:	47003154 	smlsdmi	r0, r4, r1, r3
 71c:	5f4f4950 	svcpl	0x004f4950
 720:	434e5546 	movtmi	r5, #58694	; 0xe546
 724:	544c415f 	strbpl	r4, [ip], #-351	; 0xfffffea1
 728:	50470032 	subpl	r0, r7, r2, lsr r0
 72c:	465f4f49 	ldrbmi	r4, [pc], -r9, asr #30
 730:	5f434e55 	svcpl	0x00434e55
 734:	33544c41 	cmpcc	r4, #16640	; 0x4100
 738:	49504700 	ldmdbmi	r0, {r8, r9, sl, lr}^
 73c:	55465f4f 	strbpl	r5, [r6, #-3919]	; 0xfffff0b1
 740:	415f434e 	cmpmi	pc, lr, asr #6
 744:	0034544c 	eorseq	r5, r4, ip, asr #8
 748:	4f495047 	svcmi	0x00495047
 74c:	4e55465f 	mrcmi	6, 2, r4, cr5, cr15, {2}
 750:	4c415f43 	mcrrmi	15, 4, r5, r1, cr3
 754:	75003554 	strvc	r3, [r0, #-1364]	; 0xfffffaac
 758:	5f747261 	svcpl	0x00747261
 75c:	5f6e6163 	svcpl	0x006e6163
 760:	63747570 	cmnvs	r4, #112, 10	; 0x1c000000
 764:	6e697500 	cdpvs	5, 6, cr7, cr9, cr0, {0}
 768:	745f3874 	ldrbvc	r3, [pc], #-2164	; 770 <__code_start__-0x7890>
 76c:	72656900 	rsbvc	r6, r5, #0, 18
 770:	00676572 	rsbeq	r6, r7, r2, ror r5
 774:	5f726569 	svcpl	0x00726569
 778:	695f7874 	ldmdbvs	pc, {r2, r4, r5, r6, fp, ip, sp, lr}^	; <UNPREDICTABLE>
 77c:	7265746e 	rsbvc	r7, r5, #1845493760	; 0x6e000000
 780:	74707572 	ldrbtvc	r7, [r0], #-1394	; 0xfffffa8e
 784:	75616200 	strbvc	r6, [r1, #-512]!	; 0xfffffe00
 788:	61725f64 	cmnvs	r2, r4, ror #30
 78c:	69006574 	stmdbvs	r0, {r2, r4, r5, r6, r8, sl, sp, lr}
 790:	6765726f 	strbvs	r7, [r5, -pc, ror #4]!
 794:	6900745f 	stmdbvs	r0, {r0, r1, r2, r3, r4, r6, sl, ip, sp, lr}
 798:	675f7269 	ldrbvs	r7, [pc, -r9, ror #4]
 79c:	73007061 	movwvc	r7, #97	; 0x61
 7a0:	5f746174 	svcpl	0x00746174
 7a4:	00737463 	rsbseq	r7, r3, r3, ror #8
 7a8:	65787561 	ldrbvs	r7, [r8, #-1377]!	; 0xfffffa9f
 7ac:	755f626e 	ldrbvc	r6, [pc, #-622]	; 546 <__code_start__-0x7aba>
 7b0:	6573756e 	ldrbvs	r7, [r3, #-1390]!	; 0xfffffa92
 7b4:	6e630064 	cdpvs	0, 6, cr0, cr3, cr4, {3}
 7b8:	65726c74 	ldrbvs	r6, [r2, #-3188]!	; 0xfffff38c
 7bc:	74730067 	ldrbtvc	r0, [r3], #-103	; 0xffffff99
 7c0:	65727461 	ldrbvs	r7, [r2, #-1121]!	; 0xfffffb9f
 7c4:	69690067 	stmdbvs	r9!, {r0, r1, r2, r5, r6}^
 7c8:	67657272 			; <UNDEFINED> instruction: 0x67657272
 7cc:	6569665f 	strbvs	r6, [r9, #-1631]!	; 0xfffff9a1
 7d0:	0073646c 	rsbseq	r6, r3, ip, ror #8
 7d4:	74617473 	strbtvc	r7, [r1], #-1139	; 0xfffffb8d
 7d8:	5f78745f 	svcpl	0x0078745f
 7dc:	6c6c7566 	cfstr64vs	mvdx7, [ip], #-408	; 0xfffffe68
 7e0:	72617500 	rsbvc	r7, r1, #0, 10
 7e4:	65675f74 	strbvs	r5, [r7, #-3956]!	; 0xfffff08c
 7e8:	69006374 	stmdbvs	r0, {r2, r4, r5, r6, r8, r9, sp, lr}
 7ec:	755f7265 	ldrbvc	r7, [pc, #-613]	; 58f <__code_start__-0x7a71>
 7f0:	6573756e 	ldrbvs	r7, [r3, #-1390]!	; 0xfffffa92
 7f4:	74730064 	ldrbtvc	r0, [r3], #-100	; 0xffffff9c
 7f8:	65727461 	ldrbvs	r7, [r2, #-1121]!	; 0xfffffb9f
 7fc:	00745f67 	rsbseq	r5, r4, r7, ror #30
 800:	64756162 	ldrbtvs	r6, [r5], #-354	; 0xfffffe9e
 804:	7365725f 	cmnvc	r5, #-268435451	; 0xf0000005
 808:	65767265 	ldrbvs	r7, [r6, #-613]!	; 0xfffffd9b
 80c:	736c0064 	cmnvc	ip, #100, 0	; 0x64
 810:	78745f72 	ldmdavc	r4!, {r1, r4, r5, r6, r8, r9, sl, fp, ip, lr}^
 814:	7461645f 	strbtvc	r6, [r1], #-1119	; 0xfffffba1
 818:	65725f61 	ldrbvs	r5, [r2, #-3937]!	; 0xfffff09f
 81c:	00796461 	rsbseq	r6, r9, r1, ror #8
 820:	65787561 	ldrbvs	r7, [r8, #-1377]!	; 0xfffffa9f
 824:	665f626e 	ldrbvs	r6, [pc], -lr, ror #4
 828:	646c6569 	strbtvs	r6, [ip], #-1385	; 0xfffffa97
 82c:	736c0073 	cmnvc	ip, #115, 0	; 0x73
 830:	61675f72 	smcvs	30194	; 0x75f2
 834:	69690070 	stmdbvs	r9!, {r4, r5, r6}^
 838:	78725f72 	ldmdavc	r2!, {r1, r4, r5, r6, r8, r9, sl, fp, ip, lr}^
 83c:	6669665f 			; <UNDEFINED> instruction: 0x6669665f
 840:	6c635f6f 	stclvs	15, cr5, [r3], #-444	; 0xfffffe44
 844:	00726165 	rsbseq	r6, r2, r5, ror #2
 848:	69787561 	ldmdbvs	r8!, {r0, r5, r6, r8, sl, ip, sp, lr}^
 84c:	47007172 	smlsdxmi	r0, r2, r1, r7
 850:	5f4f4950 	svcpl	0x004f4950
 854:	434e5546 	movtmi	r5, #58694	; 0xe546
 858:	504e495f 	subpl	r4, lr, pc, asr r9
 85c:	61005455 	tstvs	r0, r5, asr r4
 860:	72697875 	rsbvc	r7, r9, #7667712	; 0x750000
 864:	69665f71 	stmdbvs	r6!, {r0, r4, r5, r6, r8, r9, sl, fp, ip, lr}^
 868:	73646c65 	cmnvc	r4, #25856	; 0x6500
 86c:	72696900 	rsbvc	r6, r9, #0, 18
 870:	5f78745f 	svcpl	0x0078745f
 874:	6f666966 	svcvs	0x00666966
 878:	656c635f 	strbvs	r6, [ip, #-863]!	; 0xfffffca1
 87c:	69007261 	stmdbvs	r0, {r0, r5, r6, r9, ip, sp, lr}
 880:	61645f6f 	cmnvs	r4, pc, ror #30
 884:	6d006174 	stfvss	f6, [r0, #-464]	; 0xfffffe30
 888:	65727263 	ldrbvs	r7, [r2, #-611]!	; 0xfffffd9d
 88c:	6e755f67 	cdpvs	15, 7, cr5, cr5, cr7, {3}
 890:	64657375 	strbtvs	r7, [r5], #-885	; 0xfffffc8b
 894:	72617500 	rsbvc	r7, r1, #0, 10
 898:	61685f74 	smcvs	34292	; 0x85f4
 89c:	61645f73 	smcvs	17907	; 0x45f3
 8a0:	6d006174 	stfvss	f6, [r0, #-464]	; 0xfffffe30
 8a4:	65727273 	ldrbvs	r7, [r2, #-627]!	; 0xfffffd8d
 8a8:	6e755f67 	cdpvs	15, 7, cr5, cr5, cr7, {3}
 8ac:	64657375 	strbtvs	r7, [r5], #-885	; 0xfffffc8b
 8b0:	72696900 	rsbvc	r6, r9, #0, 18
 8b4:	00676572 	rsbeq	r6, r7, r2, ror r5
 8b8:	64756162 	ldrbtvs	r6, [r5], #-354	; 0xfffffe9e
 8bc:	00676572 	rsbeq	r6, r7, r2, ror r5
 8c0:	74617473 	strbtvc	r7, [r1], #-1139	; 0xfffffb8d
 8c4:	5f676572 	svcpl	0x00676572
 8c8:	6c656966 			; <UNDEFINED> instruction: 0x6c656966
 8cc:	6c007364 	stcvs	3, cr7, [r0], {100}	; 0x64
 8d0:	745f7273 	ldrbvc	r7, [pc], #-627	; 8d8 <__code_start__-0x7728>
 8d4:	766f5f78 	uqsub16vc	r5, pc, r8	; <UNPREDICTABLE>
 8d8:	75727265 	ldrbvc	r7, [r2, #-613]!	; 0xfffffd9b
 8dc:	6569006e 	strbvs	r0, [r9, #-110]!	; 0xffffff92
 8e0:	78725f72 	ldmdavc	r2!, {r1, r4, r5, r6, r8, r9, sl, fp, ip, lr}^
 8e4:	746e695f 	strbtvc	r6, [lr], #-2399	; 0xfffff6a1
 8e8:	75727265 	ldrbvc	r7, [r2, #-613]!	; 0xfffffd9b
 8ec:	67007470 	smlsdxvs	r0, r0, r4, r7
 8f0:	5f6f6970 	svcpl	0x006f6970
 8f4:	5f746573 	svcpl	0x00746573
 8f8:	636e7566 	cmnvs	lr, #427819008	; 0x19800000
 8fc:	6e6f6974 			; <UNDEFINED> instruction: 0x6e6f6974
 900:	61747300 	cmnvs	r4, r0, lsl #6
 904:	78725f74 	ldmdavc	r2!, {r2, r4, r5, r6, r8, r9, sl, fp, ip, lr}^
 908:	6c64695f 			; <UNDEFINED> instruction: 0x6c64695f
 90c:	756d0065 	strbvc	r0, [sp, #-101]!	; 0xffffff9b
 910:	5f747261 	svcpl	0x00747261
 914:	69676572 	stmdbvs	r7!, {r1, r4, r5, r6, r8, sl, sp, lr}^
 918:	72657473 	rsbvc	r7, r5, #1929379840	; 0x73000000
 91c:	00745f73 	rsbseq	r5, r4, r3, ror pc
 920:	69787561 	ldmdbvs	r8!, {r0, r5, r6, r8, sl, ip, sp, lr}^
 924:	755f7172 	ldrbvc	r7, [pc, #-370]	; 7ba <__code_start__-0x7846>
 928:	6573756e 	ldrbvs	r7, [r3, #-1390]!	; 0xfffffa92
 92c:	6e630064 	cdpvs	0, 6, cr0, cr3, cr4, {3}
 930:	755f6c74 	ldrbvc	r6, [pc, #-3188]	; fffffcc4 <__bss_end__+0xffff63bc>
 934:	6573756e 	ldrbvs	r7, [r3, #-1390]!	; 0xfffffa92
 938:	61750064 	cmnvs	r5, r4, rrx
 93c:	635f7472 	cmpvs	pc, #1912602624	; 0x72000000
 940:	675f6e61 	ldrbvs	r6, [pc, -r1, ror #28]
 944:	00637465 	rsbeq	r7, r3, r5, ror #8
 948:	74726175 	ldrbtvc	r6, [r2], #-373	; 0xfffffe8b
 94c:	5f78745f 	svcpl	0x0078745f
 950:	655f7369 	ldrbvs	r7, [pc, #-873]	; 5ef <__code_start__-0x7a11>
 954:	7974706d 	ldmdbvc	r4!, {r0, r2, r3, r5, r6, ip, sp, lr}^
 958:	72636c00 	rsbvc	r6, r3, #0, 24
 95c:	00676572 	rsbeq	r6, r7, r2, ror r5
 960:	5f726969 	svcpl	0x00726969
 964:	65736572 	ldrbvs	r6, [r3, #-1394]!	; 0xfffffa8e
 968:	64657672 	strbtvs	r7, [r5], #-1650	; 0xfffff98e
 96c:	726f6900 	rsbvc	r6, pc, #0, 18
 970:	73006765 	movwvc	r6, #1893	; 0x765
 974:	5f746174 	svcpl	0x00746174
 978:	645f7874 	ldrbvs	r7, [pc], #-2164	; 980 <__code_start__-0x7680>
 97c:	00656e6f 	rsbeq	r6, r5, pc, ror #28
 980:	5f787561 	svcpl	0x00787561
 984:	72617473 	rsbvc	r7, r1, #1929379840	; 0x73000000
 988:	63730074 	cmnvs	r3, #116, 0	; 0x74
 98c:	63746172 	cmnvs	r4, #-2147483620	; 0x8000001c
 990:	67657268 	strbvs	r7, [r5, -r8, ror #4]!
 994:	756e755f 	strbvc	r7, [lr, #-1375]!	; 0xfffffaa1
 998:	00646573 	rsbeq	r6, r4, r3, ror r5
 99c:	65787561 	ldrbvs	r7, [r8, #-1377]!	; 0xfffffa9f
 9a0:	6200626e 	andvs	r6, r0, #-536870906	; 0xe0000006
 9a4:	72647561 	rsbvc	r7, r4, #406847488	; 0x18400000
 9a8:	665f6765 	ldrbvs	r6, [pc], -r5, ror #14
 9ac:	646c6569 	strbtvs	r6, [ip], #-1385	; 0xfffffa97
 9b0:	6f690073 	svcvs	0x00690073
 9b4:	7365725f 	cmnvc	r5, #-268435451	; 0xf0000005
 9b8:	65767265 	ldrbvs	r7, [r6, #-613]!	; 0xfffffd9b
 9bc:	6e630064 	cdpvs	0, 6, cr0, cr3, cr4, {3}
 9c0:	65726c74 	ldrbvs	r6, [r2, #-3188]!	; 0xfffff38c
 9c4:	69665f67 	stmdbvs	r6!, {r0, r1, r2, r5, r6, r8, r9, sl, fp, ip, lr}^
 9c8:	73646c65 	cmnvc	r4, #25856	; 0x6500
 9cc:	72617500 	rsbvc	r7, r1, #0, 10
 9d0:	75705f74 	ldrbvc	r5, [r0, #-3956]!	; 0xfffff08c
 9d4:	73006374 	movwvc	r6, #884	; 0x374
 9d8:	5f746174 	svcpl	0x00746174
 9dc:	655f7874 	ldrbvs	r7, [pc, #-2164]	; 170 <__code_start__-0x7e90>
 9e0:	7974706d 	ldmdbvc	r4!, {r0, r2, r3, r5, r6, ip, sp, lr}^
 9e4:	72736c00 	rsbsvc	r6, r3, #0, 24
 9e8:	5f78725f 	svcpl	0x0078725f
 9ec:	61746164 	cmnvs	r4, r4, ror #2
 9f0:	6165725f 	cmnvs	r5, pc, asr r2
 9f4:	69007964 	stmdbvs	r0, {r2, r5, r6, r8, fp, ip, sp, lr}
 9f8:	65727265 	ldrbvs	r7, [r2, #-613]!	; 0xfffffd9b
 9fc:	69665f67 	stmdbvs	r6!, {r0, r1, r2, r5, r6, r8, r9, sl, fp, ip, lr}^
 a00:	73646c65 	cmnvc	r4, #25856	; 0x6500
 a04:	72736c00 	rsbsvc	r6, r3, #0, 24
 a08:	7365725f 	cmnvc	r5, #-268435451	; 0xf0000005
 a0c:	65767265 	ldrbvs	r7, [r6, #-613]!	; 0xfffffd9b
 a10:	736c0064 	cmnvc	ip, #100, 0	; 0x64
 a14:	67657272 			; <UNDEFINED> instruction: 0x67657272
 a18:	6900745f 	stmdbvs	r0, {r0, r1, r2, r3, r4, r6, sl, ip, sp, lr}
 a1c:	6765726f 	strbvs	r7, [r5, -pc, ror #4]!
 a20:	6569665f 	strbvs	r6, [r9, #-1631]!	; 0xfffff9a1
 a24:	0073646c 	rsbseq	r6, r3, ip, ror #8
 a28:	5f72636c 	svcpl	0x0072636c
 a2c:	65736572 	ldrbvs	r6, [r3, #-1394]!	; 0xfffffa8e
 a30:	64657672 	strbtvs	r7, [r5], #-1650	; 0xfffff98e
 a34:	61747300 	cmnvs	r4, r0, lsl #6
 a38:	78725f74 	ldmdavc	r2!, {r2, r4, r5, r6, r8, r9, sl, fp, ip, lr}^
 a3c:	65766f5f 	ldrbvs	r6, [r6, #-3935]!	; 0xfffff0a1
 a40:	6e757272 	mrcvs	2, 3, r7, cr5, cr2, {3}
 a44:	72696900 	rsbvc	r6, r9, #0, 18
 a48:	746e695f 	strbtvc	r6, [lr], #-2399	; 0xfffff6a1
 a4c:	75727265 	ldrbvc	r7, [r2, #-613]!	; 0xfffffd9b
 a50:	705f7470 	subsvc	r7, pc, r0, ror r4	; <UNPREDICTABLE>
 a54:	69646e65 	stmdbvs	r4!, {r0, r2, r5, r6, r9, sl, fp, sp, lr}^
 a58:	6700676e 	strvs	r6, [r0, -lr, ror #14]
 a5c:	5f6f6970 	svcpl	0x006f6970
 a60:	30726c63 	rsbscc	r6, r2, r3, ror #24
 a64:	69687300 	stmdbvs	r8!, {r8, r9, ip, sp, lr}^
 a68:	67007466 	strvs	r7, [r0, -r6, ror #8]
 a6c:	5f6f6970 	svcpl	0x006f6970
 a70:	30746573 	rsbscc	r6, r4, r3, ror r5
 a74:	72756300 	rsbsvc	r6, r5, #0, 6
 a78:	746e6572 	strbtvc	r6, [lr], #-1394	; 0xfffffa8e
 a7c:	69706700 	ldmdbvs	r0!, {r8, r9, sl, sp, lr}^
 a80:	72775f6f 	rsbsvc	r5, r7, #444	; 0x1bc
 a84:	00657469 	rsbeq	r7, r5, r9, ror #8
 a88:	6f697067 	svcvs	0x00697067
 a8c:	6165725f 	cmnvs	r5, pc, asr r2
 a90:	70670064 	rsbvc	r0, r7, r4, rrx
 a94:	735f6f69 	cmpvc	pc, #420	; 0x1a4
 a98:	695f7465 	ldmdbvs	pc, {r0, r2, r5, r6, sl, ip, sp, lr}^	; <UNPREDICTABLE>
 a9c:	7475706e 	ldrbtvc	r7, [r5], #-110	; 0xffffff92
 aa0:	69706700 	ldmdbvs	r0!, {r8, r9, sl, sp, lr}^
 aa4:	65735f6f 	ldrbvs	r5, [r3, #-3951]!	; 0xfffff091
 aa8:	666f5f74 	uqsub16vs	r5, pc, r4	; <UNPREDICTABLE>
 aac:	70670066 	rsbvc	r0, r7, r6, rrx
 ab0:	735f6f69 	cmpvc	pc, #420	; 0x1a4
 ab4:	6f5f7465 	svcvs	0x005f7465
 ab8:	75707475 	ldrbvc	r7, [r0, #-1141]!	; 0xfffffb8b
 abc:	70670074 	rsbvc	r0, r7, r4, ror r0
 ac0:	665f6f69 	ldrbvs	r6, [pc], -r9, ror #30
 ac4:	5f636e75 	svcpl	0x00636e75
 ac8:	64610074 	strbtvs	r0, [r1], #-116	; 0xffffff8c
 acc:	73657264 	cmnvc	r5, #100, 4	; 0x40000006
 ad0:	70670073 	rsbvc	r0, r7, r3, ror r0
 ad4:	6c5f6f69 	mrrcvs	15, 6, r6, pc, cr9	; <UNPREDICTABLE>
 ad8:	00307665 	eorseq	r7, r0, r5, ror #12
 adc:	6f697067 	svcvs	0x00697067
 ae0:	6c65735f 	stclvs	3, cr7, [r5], #-380	; 0xfffffe84
 ae4:	72730030 	rsbsvc	r0, r3, #48, 0	; 0x30
 ae8:	70672f63 	rsbvc	r2, r7, r3, ror #30
 aec:	632e6f69 			; <UNDEFINED> instruction: 0x632e6f69
 af0:	69706700 	ldmdbvs	r0!, {r8, r9, sl, sp, lr}^
 af4:	65735f6f 	ldrbvs	r5, [r3, #-3951]!	; 0xfffff091
 af8:	6e6f5f74 	mcrvs	15, 3, r5, cr15, cr4, {3}
 afc:	746e6900 	strbtvc	r6, [lr], #-2304	; 0xfffff700
 b00:	616e7265 	cmnvs	lr, r5, ror #4
 b04:	75705f6c 	ldrbvc	r5, [r0, #-3948]!	; 0xfffff094
 b08:	61686374 	smcvs	34356	; 0x8634
 b0c:	70720072 	rsbsvc	r0, r2, r2, ror r0
 b10:	65735f69 	ldrbvs	r5, [r3, #-3945]!	; 0xfffff097
 b14:	75705f74 	ldrbvc	r5, [r0, #-3956]!	; 0xfffff08c
 b18:	6c006374 	stcvs	3, cr6, [r0], {116}	; 0x74
 b1c:	2f636269 	svccs	0x00636269
 b20:	63747570 	cmnvs	r4, #112, 10	; 0x1c000000
 b24:	2e726168 	rpwcssz	f6, f2, #0.0
 b28:	70720063 	rsbsvc	r0, r2, r3, rrx
 b2c:	65725f69 	ldrbvs	r5, [r2, #-3945]!	; 0xfffff097
 b30:	5f746573 	svcpl	0x00746573
 b34:	63747570 	cmnvs	r4, #112, 10	; 0x1c000000
 b38:	62696c00 	rsbvs	r6, r9, #0, 24
 b3c:	74732f63 	ldrbtvc	r2, [r3], #-3939	; 0xfffff09d
 b40:	74616372 	strbtvc	r6, [r1], #-882	; 0xfffffc8e
 b44:	6400632e 	strvs	r6, [r0], #-814	; 0xfffffcd2
 b48:	00747365 	rsbseq	r7, r4, r5, ror #6
 b4c:	657a6973 	ldrbvs	r6, [sl, #-2419]!	; 0xfffff68d
 b50:	6c00745f 	cfstrsvs	mvf7, [r0], {95}	; 0x5f
 b54:	2f636269 	svccs	0x00636269
 b58:	6e727473 	mrcvs	4, 3, r7, cr2, cr3, {3}
 b5c:	2e706d63 	cdpcs	13, 7, cr6, cr0, cr3, {3}
 b60:	Address 0x0000000000000b60 is out of bounds.


Disassembly of section .debug_frame:

00000000 <.debug_frame>:
   0:	0000000c 	andeq	r0, r0, ip
   4:	ffffffff 			; <UNDEFINED> instruction: 0xffffffff
   8:	7c020001 	stcvc	0, cr0, [r2], {1}
   c:	000d0c0e 	andeq	r0, sp, lr, lsl #24
  10:	00000014 	andeq	r0, r0, r4, lsl r0
  14:	00000000 	andeq	r0, r0, r0
  18:	00008034 	andeq	r8, r0, r4, lsr r0
  1c:	00000028 	andeq	r0, r0, r8, lsr #32
  20:	84080e42 	strhi	r0, [r8], #-3650	; 0xfffff1be
  24:	00018e02 	andeq	r8, r1, r2, lsl #28
  28:	00000018 	andeq	r0, r0, r8, lsl r0
  2c:	00000000 	andeq	r0, r0, r0
  30:	0000805c 	andeq	r8, r0, ip, asr r0
  34:	0000005c 	andeq	r0, r0, ip, asr r0
  38:	84100e42 	ldrhi	r0, [r0], #-3650	; 0xfffff1be
  3c:	86038504 	strhi	r8, [r3], -r4, lsl #10
  40:	00018e02 	andeq	r8, r1, r2, lsl #28
  44:	00000018 	andeq	r0, r0, r8, lsl r0
  48:	00000000 	andeq	r0, r0, r0
  4c:	000080b8 	strheq	r8, [r0], -r8	; <UNPREDICTABLE>
  50:	00000108 	andeq	r0, r0, r8, lsl #2
  54:	84080e42 	strhi	r0, [r8], #-3650	; 0xfffff1be
  58:	42018e02 	andmi	r8, r1, #2, 28
  5c:	0000100e 	andeq	r1, r0, lr
  60:	0000000c 	andeq	r0, r0, ip
  64:	ffffffff 			; <UNDEFINED> instruction: 0xffffffff
  68:	7c020001 	stcvc	0, cr0, [r2], {1}
  6c:	000d0c0e 	andeq	r0, sp, lr, lsl #24
  70:	00000014 	andeq	r0, r0, r4, lsl r0
  74:	00000060 	andeq	r0, r0, r0, rrx
  78:	000082a8 	andeq	r8, r0, r8, lsr #5
  7c:	00000064 	andeq	r0, r0, r4, rrx
  80:	84080e42 	strhi	r0, [r8], #-3650	; 0xfffff1be
  84:	00018e02 	andeq	r8, r1, r2, lsl #28
  88:	00000014 	andeq	r0, r0, r4, lsl r0
  8c:	00000060 	andeq	r0, r0, r0, rrx
  90:	0000830c 	andeq	r8, r0, ip, lsl #6
  94:	0000003c 	andeq	r0, r0, ip, lsr r0
  98:	8e040e42 	cdphi	14, 0, cr0, cr4, cr2, {2}
  9c:	100e4201 	andne	r4, lr, r1, lsl #4
  a0:	00000014 	andeq	r0, r0, r4, lsl r0
  a4:	00000060 	andeq	r0, r0, r0, rrx
  a8:	00008348 	andeq	r8, r0, r8, asr #6
  ac:	0000003c 	andeq	r0, r0, ip, lsr r0
  b0:	8e040e42 	cdphi	14, 0, cr0, cr4, cr2, {2}
  b4:	100e4201 	andne	r4, lr, r1, lsl #4
  b8:	00000014 	andeq	r0, r0, r4, lsl r0
  bc:	00000060 	andeq	r0, r0, r0, rrx
  c0:	00008384 	andeq	r8, r0, r4, lsl #7
  c4:	0000003c 	andeq	r0, r0, ip, lsr r0
  c8:	8e040e42 	cdphi	14, 0, cr0, cr4, cr2, {2}
  cc:	100e4201 	andne	r4, lr, r1, lsl #4
  d0:	00000014 	andeq	r0, r0, r4, lsl r0
  d4:	00000060 	andeq	r0, r0, r0, rrx
  d8:	000083c0 	andeq	r8, r0, r0, asr #7
  dc:	0000003c 	andeq	r0, r0, ip, lsr r0
  e0:	8e040e42 	cdphi	14, 0, cr0, cr4, cr2, {2}
  e4:	100e4201 	andne	r4, lr, r1, lsl #4
  e8:	00000014 	andeq	r0, r0, r4, lsl r0
  ec:	00000060 	andeq	r0, r0, r0, rrx
  f0:	000083fc 	strdeq	r8, [r0], -ip
  f4:	0000003c 	andeq	r0, r0, ip, lsr r0
  f8:	8e040e42 	cdphi	14, 0, cr0, cr4, cr2, {2}
  fc:	100e4201 	andne	r4, lr, r1, lsl #4
 100:	00000014 	andeq	r0, r0, r4, lsl r0
 104:	00000060 	andeq	r0, r0, r0, rrx
 108:	00008438 	andeq	r8, r0, r8, lsr r4
 10c:	0000003c 	andeq	r0, r0, ip, lsr r0
 110:	8e040e42 	cdphi	14, 0, cr0, cr4, cr2, {2}
 114:	100e4201 	andne	r4, lr, r1, lsl #4
 118:	0000000c 	andeq	r0, r0, ip
 11c:	ffffffff 			; <UNDEFINED> instruction: 0xffffffff
 120:	7c020001 	stcvc	0, cr0, [r2], {1}
 124:	000d0c0e 	andeq	r0, sp, lr, lsl #24
 128:	00000034 	andeq	r0, r0, r4, lsr r0
 12c:	00000118 	andeq	r0, r0, r8, lsl r1
 130:	00008474 	andeq	r8, r0, r4, ror r4
 134:	00000058 	andeq	r0, r0, r8, asr r0
 138:	80100e42 	andshi	r0, r0, r2, asr #28
 13c:	82038104 	andhi	r8, r3, #1
 140:	42018302 	andmi	r8, r1, #134217728	; 0x8000000
 144:	07841c0e 	streq	r1, [r4, lr, lsl #24]
 148:	058e0685 	streq	r0, [lr, #1669]	; 0x685
 14c:	5c280e42 	stcpl	14, cr0, [r8], #-264	; 0xfffffef8
 150:	ce421c0e 	cdpgt	12, 4, cr1, cr2, cr14, {0}
 154:	100ec4c5 	andne	ip, lr, r5, asr #9
 158:	c1c2c342 	bicgt	ip, r2, r2, asr #6
 15c:	00000ec0 	andeq	r0, r0, r0, asr #29
 160:	0000000c 	andeq	r0, r0, ip
 164:	ffffffff 			; <UNDEFINED> instruction: 0xffffffff
 168:	7c020001 	stcvc	0, cr0, [r2], {1}
 16c:	000d0c0e 	andeq	r0, sp, lr, lsl #24
 170:	00000014 	andeq	r0, r0, r4, lsl r0
 174:	00000160 	andeq	r0, r0, r0, ror #2
 178:	000084cc 	andeq	r8, r0, ip, asr #9
 17c:	00000034 	andeq	r0, r0, r4, lsr r0
 180:	84080e42 	strhi	r0, [r8], #-3650	; 0xfffff1be
 184:	00018e02 	andeq	r8, r1, r2, lsl #28
 188:	0000000c 	andeq	r0, r0, ip
 18c:	ffffffff 			; <UNDEFINED> instruction: 0xffffffff
 190:	7c020001 	stcvc	0, cr0, [r2], {1}
 194:	000d0c0e 	andeq	r0, sp, lr, lsl #24
 198:	0000000c 	andeq	r0, r0, ip
 19c:	00000188 	andeq	r0, r0, r8, lsl #3
 1a0:	00008500 	andeq	r8, r0, r0, lsl #10
 1a4:	00000014 	andeq	r0, r0, r4, lsl r0
 1a8:	0000000c 	andeq	r0, r0, ip
 1ac:	00000188 	andeq	r0, r0, r8, lsl #3
 1b0:	00008514 	andeq	r8, r0, r4, lsl r5
 1b4:	00000024 	andeq	r0, r0, r4, lsr #32
 1b8:	0000000c 	andeq	r0, r0, ip
 1bc:	00000188 	andeq	r0, r0, r8, lsl #3
 1c0:	00008538 	andeq	r8, r0, r8, lsr r5
 1c4:	00000038 	andeq	r0, r0, r8, lsr r0
 1c8:	00000024 	andeq	r0, r0, r4, lsr #32
 1cc:	00000188 	andeq	r0, r0, r8, lsl #3
 1d0:	00008570 	andeq	r8, r0, r0, ror r5
 1d4:	000001b4 			; <UNDEFINED> instruction: 0x000001b4
 1d8:	84140e42 	ldrhi	r0, [r4], #-3650	; 0xfffff1be
 1dc:	86048505 	strhi	r8, [r4], -r5, lsl #10
 1e0:	8e028703 	cdphi	7, 0, cr8, cr2, cr3, {0}
 1e4:	600e4201 	andvs	r4, lr, r1, lsl #4
 1e8:	0e0a9a02 	vmlaeq.f32	s18, s20, s4
 1ec:	000b4214 	andeq	r4, fp, r4, lsl r2
 1f0:	00000014 	andeq	r0, r0, r4, lsl r0
 1f4:	00000188 	andeq	r0, r0, r8, lsl #3
 1f8:	00008724 	andeq	r8, r0, r4, lsr #14
 1fc:	00000064 	andeq	r0, r0, r4, rrx
 200:	8e040e54 	mcrhi	14, 0, r0, cr4, cr4, {2}
 204:	100e4201 	andne	r4, lr, r1, lsl #4
 208:	0000002c 	andeq	r0, r0, ip, lsr #32
 20c:	00000188 	andeq	r0, r0, r8, lsl #3
 210:	00008788 	andeq	r8, r0, r8, lsl #15
 214:	000003a4 	andeq	r0, r0, r4, lsr #7
 218:	84240e42 	strthi	r0, [r4], #-3650	; 0xfffff1be
 21c:	86088509 	strhi	r8, [r8], -r9, lsl #10
 220:	88068707 	stmdahi	r6, {r0, r1, r2, r8, r9, sl, pc}
 224:	8a048905 	bhi	122640 <__bss_end__+0x118d38>
 228:	8e028b03 	vmlahi.f64	d8, d2, d3
 22c:	b80e4201 	stmdalt	lr, {r0, r9, lr}
 230:	01b80302 			; <UNDEFINED> instruction: 0x01b80302
 234:	0000240e 	andeq	r2, r0, lr, lsl #8
 238:	0000000c 	andeq	r0, r0, ip
 23c:	ffffffff 			; <UNDEFINED> instruction: 0xffffffff
 240:	7c020001 	stcvc	0, cr0, [r2], {1}
 244:	000d0c0e 	andeq	r0, sp, lr, lsl #24
 248:	00000014 	andeq	r0, r0, r4, lsl r0
 24c:	00000238 	andeq	r0, r0, r8, lsr r2
 250:	00008b2c 	andeq	r8, r0, ip, lsr #22
 254:	0000002c 	andeq	r0, r0, ip, lsr #32
 258:	84080e42 	strhi	r0, [r8], #-3650	; 0xfffff1be
 25c:	00018e02 	andeq	r8, r1, r2, lsl #28
 260:	0000000c 	andeq	r0, r0, ip
 264:	ffffffff 			; <UNDEFINED> instruction: 0xffffffff
 268:	7c020001 	stcvc	0, cr0, [r2], {1}
 26c:	000d0c0e 	andeq	r0, sp, lr, lsl #24
 270:	00000014 	andeq	r0, r0, r4, lsl r0
 274:	00000260 	andeq	r0, r0, r0, ror #4
 278:	00008b58 	andeq	r8, r0, r8, asr fp
 27c:	00000030 	andeq	r0, r0, r0, lsr r0
 280:	84080e42 	strhi	r0, [r8], #-3650	; 0xfffff1be
 284:	00018e02 	andeq	r8, r1, r2, lsl #28
 288:	0000000c 	andeq	r0, r0, ip
 28c:	ffffffff 			; <UNDEFINED> instruction: 0xffffffff
 290:	7c020001 	stcvc	0, cr0, [r2], {1}
 294:	000d0c0e 	andeq	r0, sp, lr, lsl #24
 298:	0000000c 	andeq	r0, r0, ip
 29c:	00000288 	andeq	r0, r0, r8, lsl #5
 2a0:	00008b88 	andeq	r8, r0, r8, lsl #23
 2a4:	00000004 	andeq	r0, r0, r4
 2a8:	0000000c 	andeq	r0, r0, ip
 2ac:	ffffffff 			; <UNDEFINED> instruction: 0xffffffff
 2b0:	7c020001 	stcvc	0, cr0, [r2], {1}
 2b4:	000d0c0e 	andeq	r0, sp, lr, lsl #24
 2b8:	0000000c 	andeq	r0, r0, ip
 2bc:	000002a8 	andeq	r0, r0, r8, lsr #5
 2c0:	00008b8c 	andeq	r8, r0, ip, lsl #23
 2c4:	00000018 	andeq	r0, r0, r8, lsl r0
 2c8:	0000000c 	andeq	r0, r0, ip
 2cc:	000002a8 	andeq	r0, r0, r8, lsr #5
 2d0:	00008ba4 	andeq	r8, r0, r4, lsr #23
 2d4:	00000014 	andeq	r0, r0, r4, lsl r0
 2d8:	00000014 	andeq	r0, r0, r4, lsl r0
 2dc:	000002a8 	andeq	r0, r0, r8, lsr #5
 2e0:	00008bb8 			; <UNDEFINED> instruction: 0x00008bb8
 2e4:	00000050 	andeq	r0, r0, r0, asr r0
 2e8:	84080e42 	strhi	r0, [r8], #-3650	; 0xfffff1be
 2ec:	00018e02 	andeq	r8, r1, r2, lsl #28
 2f0:	0000000c 	andeq	r0, r0, ip
 2f4:	ffffffff 			; <UNDEFINED> instruction: 0xffffffff
 2f8:	7c020001 	stcvc	0, cr0, [r2], {1}
 2fc:	000d0c0e 	andeq	r0, sp, lr, lsl #24
 300:	0000000c 	andeq	r0, r0, ip
 304:	000002f0 	strdeq	r0, [r0], -r0	; <UNPREDICTABLE>
 308:	00008c08 	andeq	r8, r0, r8, lsl #24
 30c:	00000018 	andeq	r0, r0, r8, lsl r0
 310:	00000014 	andeq	r0, r0, r4, lsl r0
 314:	000002f0 	strdeq	r0, [r0], -r0	; <UNPREDICTABLE>
 318:	00008c20 	andeq	r8, r0, r0, lsr #24
 31c:	00000014 	andeq	r0, r0, r4, lsl r0
 320:	84080e42 	strhi	r0, [r8], #-3650	; 0xfffff1be
 324:	00018e02 	andeq	r8, r1, r2, lsl #28
 328:	00000014 	andeq	r0, r0, r4, lsl r0
 32c:	000002f0 	strdeq	r0, [r0], -r0	; <UNPREDICTABLE>
 330:	00008c34 	andeq	r8, r0, r4, lsr ip
 334:	0000001c 	andeq	r0, r0, ip, lsl r0
 338:	84080e42 	strhi	r0, [r8], #-3650	; 0xfffff1be
 33c:	00018e02 	andeq	r8, r1, r2, lsl #28
 340:	00000018 	andeq	r0, r0, r8, lsl r0
 344:	000002f0 	strdeq	r0, [r0], -r0	; <UNPREDICTABLE>
 348:	00008c50 	andeq	r8, r0, r0, asr ip
 34c:	00000024 	andeq	r0, r0, r4, lsr #32
 350:	84100e42 	ldrhi	r0, [r0], #-3650	; 0xfffff1be
 354:	86038504 	strhi	r8, [r3], -r4, lsl #10
 358:	00018e02 	andeq	r8, r1, r2, lsl #28
 35c:	00000014 	andeq	r0, r0, r4, lsl r0
 360:	000002f0 	strdeq	r0, [r0], -r0	; <UNPREDICTABLE>
 364:	00008c74 	andeq	r8, r0, r4, ror ip
 368:	00000018 	andeq	r0, r0, r8, lsl r0
 36c:	84080e42 	strhi	r0, [r8], #-3650	; 0xfffff1be
 370:	00018e02 	andeq	r8, r1, r2, lsl #28
 374:	00000014 	andeq	r0, r0, r4, lsl r0
 378:	000002f0 	strdeq	r0, [r0], -r0	; <UNPREDICTABLE>
 37c:	00008c8c 	andeq	r8, r0, ip, lsl #25
 380:	00000018 	andeq	r0, r0, r8, lsl r0
 384:	84080e42 	strhi	r0, [r8], #-3650	; 0xfffff1be
 388:	00018e02 	andeq	r8, r1, r2, lsl #28
 38c:	0000000c 	andeq	r0, r0, ip
 390:	ffffffff 			; <UNDEFINED> instruction: 0xffffffff
 394:	7c020001 	stcvc	0, cr0, [r2], {1}
 398:	000d0c0e 	andeq	r0, sp, lr, lsl #24
 39c:	00000018 	andeq	r0, r0, r8, lsl r0
 3a0:	0000038c 	andeq	r0, r0, ip, lsl #7
 3a4:	00008cbc 			; <UNDEFINED> instruction: 0x00008cbc
 3a8:	00000034 	andeq	r0, r0, r4, lsr r0
 3ac:	8e040e42 	cdphi	14, 0, cr0, cr4, cr2, {2}
 3b0:	100e4201 	andne	r4, lr, r1, lsl #4
 3b4:	00040e4e 	andeq	r0, r4, lr, asr #28
 3b8:	00000018 	andeq	r0, r0, r8, lsl r0
 3bc:	0000038c 	andeq	r0, r0, ip, lsl #7
 3c0:	00008cf0 	strdeq	r8, [r0], -r0
 3c4:	00000168 	andeq	r0, r0, r8, ror #2
 3c8:	84100e42 	ldrhi	r0, [r0], #-3650	; 0xfffff1be
 3cc:	86038504 	strhi	r8, [r3], -r4, lsl #10
 3d0:	00018e02 	andeq	r8, r1, r2, lsl #28
 3d4:	00000014 	andeq	r0, r0, r4, lsl r0
 3d8:	0000038c 	andeq	r0, r0, ip, lsl #7
 3dc:	00008e58 	andeq	r8, r0, r8, asr lr
 3e0:	0000003c 	andeq	r0, r0, ip, lsr r0
 3e4:	84080e42 	strhi	r0, [r8], #-3650	; 0xfffff1be
 3e8:	00018e02 	andeq	r8, r1, r2, lsl #28
 3ec:	00000018 	andeq	r0, r0, r8, lsl r0
 3f0:	0000038c 	andeq	r0, r0, ip, lsl #7
 3f4:	00008e94 	muleq	r0, r4, lr
 3f8:	0000003c 	andeq	r0, r0, ip, lsr r0
 3fc:	8e040e42 	cdphi	14, 0, cr0, cr4, cr2, {2}
 400:	100e4201 	andne	r4, lr, r1, lsl #4
 404:	00040e52 	andeq	r0, r4, r2, asr lr
 408:	00000014 	andeq	r0, r0, r4, lsl r0
 40c:	0000038c 	andeq	r0, r0, ip, lsl #7
 410:	00008ed0 	ldrdeq	r8, [r0], -r0
 414:	00000040 	andeq	r0, r0, r0, asr #32
 418:	84080e42 	strhi	r0, [r8], #-3650	; 0xfffff1be
 41c:	00018e02 	andeq	r8, r1, r2, lsl #28
 420:	00000014 	andeq	r0, r0, r4, lsl r0
 424:	0000038c 	andeq	r0, r0, ip, lsl #7
 428:	00008f10 	andeq	r8, r0, r0, lsl pc
 42c:	0000000c 	andeq	r0, r0, ip
 430:	84080e42 	strhi	r0, [r8], #-3650	; 0xfffff1be
 434:	00018e02 	andeq	r8, r1, r2, lsl #28
 438:	00000014 	andeq	r0, r0, r4, lsl r0
 43c:	0000038c 	andeq	r0, r0, ip, lsl #7
 440:	00008f1c 	andeq	r8, r0, ip, lsl pc
 444:	00000020 	andeq	r0, r0, r0, lsr #32
 448:	84080e42 	strhi	r0, [r8], #-3650	; 0xfffff1be
 44c:	00018e02 	andeq	r8, r1, r2, lsl #28
 450:	00000018 	andeq	r0, r0, r8, lsl r0
 454:	0000038c 	andeq	r0, r0, ip, lsl #7
 458:	00008f3c 	andeq	r8, r0, ip, lsr pc
 45c:	00000038 	andeq	r0, r0, r8, lsr r0
 460:	8e040e42 	cdphi	14, 0, cr0, cr4, cr2, {2}
 464:	100e4201 	andne	r4, lr, r1, lsl #4
 468:	00040e50 	andeq	r0, r4, r0, asr lr
 46c:	00000014 	andeq	r0, r0, r4, lsl r0
 470:	0000038c 	andeq	r0, r0, ip, lsl #7
 474:	00008f74 	andeq	r8, r0, r4, ror pc
 478:	00000014 	andeq	r0, r0, r4, lsl r0
 47c:	84080e42 	strhi	r0, [r8], #-3650	; 0xfffff1be
 480:	00018e02 	andeq	r8, r1, r2, lsl #28
 484:	0000000c 	andeq	r0, r0, ip
 488:	ffffffff 			; <UNDEFINED> instruction: 0xffffffff
 48c:	7c020001 	stcvc	0, cr0, [r2], {1}
 490:	000d0c0e 	andeq	r0, sp, lr, lsl #24
 494:	0000001c 	andeq	r0, r0, ip, lsl r0
 498:	00000484 	andeq	r0, r0, r4, lsl #9
 49c:	00008f88 	andeq	r8, r0, r8, lsl #31
 4a0:	00000054 	andeq	r0, r0, r4, asr r0
 4a4:	84180e42 	ldrhi	r0, [r8], #-3650	; 0xfffff1be
 4a8:	86058506 	strhi	r8, [r5], -r6, lsl #10
 4ac:	88038704 	stmdahi	r3, {r2, r8, r9, sl, pc}
 4b0:	00018e02 	andeq	r8, r1, r2, lsl #28
 4b4:	00000014 	andeq	r0, r0, r4, lsl r0
 4b8:	00000484 	andeq	r0, r0, r4, lsl #9
 4bc:	00008fdc 	ldrdeq	r8, [r0], -ip
 4c0:	00000010 	andeq	r0, r0, r0, lsl r0
 4c4:	84080e42 	strhi	r0, [r8], #-3650	; 0xfffff1be
 4c8:	00018e02 	andeq	r8, r1, r2, lsl #28
 4cc:	00000014 	andeq	r0, r0, r4, lsl r0
 4d0:	00000484 	andeq	r0, r0, r4, lsl #9
 4d4:	00008fec 	andeq	r8, r0, ip, ror #31
 4d8:	0000001c 	andeq	r0, r0, ip, lsl r0
 4dc:	84080e42 	strhi	r0, [r8], #-3650	; 0xfffff1be
 4e0:	00018e02 	andeq	r8, r1, r2, lsl #28
 4e4:	00000014 	andeq	r0, r0, r4, lsl r0
 4e8:	00000484 	andeq	r0, r0, r4, lsl #9
 4ec:	00009008 	andeq	r9, r0, r8
 4f0:	0000001c 	andeq	r0, r0, ip, lsl r0
 4f4:	84080e42 	strhi	r0, [r8], #-3650	; 0xfffff1be
 4f8:	00018e02 	andeq	r8, r1, r2, lsl #28
 4fc:	00000014 	andeq	r0, r0, r4, lsl r0
 500:	00000484 	andeq	r0, r0, r4, lsl #9
 504:	00009024 	andeq	r9, r0, r4, lsr #32
 508:	0000001c 	andeq	r0, r0, ip, lsl r0
 50c:	84080e42 	strhi	r0, [r8], #-3650	; 0xfffff1be
 510:	00018e02 	andeq	r8, r1, r2, lsl #28
 514:	00000014 	andeq	r0, r0, r4, lsl r0
 518:	00000484 	andeq	r0, r0, r4, lsl #9
 51c:	00009040 	andeq	r9, r0, r0, asr #32
 520:	00000010 	andeq	r0, r0, r0, lsl r0
 524:	84080e42 	strhi	r0, [r8], #-3650	; 0xfffff1be
 528:	00018e02 	andeq	r8, r1, r2, lsl #28
 52c:	00000014 	andeq	r0, r0, r4, lsl r0
 530:	00000484 	andeq	r0, r0, r4, lsl #9
 534:	00009050 	andeq	r9, r0, r0, asr r0
 538:	00000020 	andeq	r0, r0, r0, lsr #32
 53c:	84080e42 	strhi	r0, [r8], #-3650	; 0xfffff1be
 540:	00018e02 	andeq	r8, r1, r2, lsl #28
 544:	0000000c 	andeq	r0, r0, ip
 548:	ffffffff 			; <UNDEFINED> instruction: 0xffffffff
 54c:	7c020001 	stcvc	0, cr0, [r2], {1}
 550:	000d0c0e 	andeq	r0, sp, lr, lsl #24
 554:	00000014 	andeq	r0, r0, r4, lsl r0
 558:	00000544 	andeq	r0, r0, r4, asr #10
 55c:	00009070 	andeq	r9, r0, r0, ror r0
 560:	00000014 	andeq	r0, r0, r4, lsl r0
 564:	84080e42 	strhi	r0, [r8], #-3650	; 0xfffff1be
 568:	00018e02 	andeq	r8, r1, r2, lsl #28
 56c:	0000000c 	andeq	r0, r0, ip
 570:	00000544 	andeq	r0, r0, r4, asr #10
 574:	00009084 	andeq	r9, r0, r4, lsl #1
 578:	00000018 	andeq	r0, r0, r8, lsl r0
 57c:	0000000c 	andeq	r0, r0, ip
 580:	00000544 	andeq	r0, r0, r4, asr #10
 584:	0000909c 	muleq	r0, ip, r0
 588:	00000010 	andeq	r0, r0, r0, lsl r0
 58c:	0000000c 	andeq	r0, r0, ip
 590:	ffffffff 			; <UNDEFINED> instruction: 0xffffffff
 594:	7c020001 	stcvc	0, cr0, [r2], {1}
 598:	000d0c0e 	andeq	r0, sp, lr, lsl #24
 59c:	0000000c 	andeq	r0, r0, ip
 5a0:	0000058c 	andeq	r0, r0, ip, lsl #11
 5a4:	000090ac 	andeq	r9, r0, ip, lsr #1
 5a8:	00000034 	andeq	r0, r0, r4, lsr r0
 5ac:	0000000c 	andeq	r0, r0, ip
 5b0:	ffffffff 			; <UNDEFINED> instruction: 0xffffffff
 5b4:	7c020001 	stcvc	0, cr0, [r2], {1}
 5b8:	000d0c0e 	andeq	r0, sp, lr, lsl #24
 5bc:	0000000c 	andeq	r0, r0, ip
 5c0:	000005ac 	andeq	r0, r0, ip, lsr #11
 5c4:	000090e0 	andeq	r9, r0, r0, ror #1
 5c8:	0000002c 	andeq	r0, r0, ip, lsr #32

Disassembly of section .debug_ranges:

00000000 <.debug_ranges>:
   0:	000003b8 			; <UNDEFINED> instruction: 0x000003b8
   4:	000004a4 	andeq	r0, r0, r4, lsr #9
   8:	000004ac 	andeq	r0, r0, ip, lsr #9
   c:	000005d0 	ldrdeq	r0, [r0], -r0	; <UNPREDICTABLE>
	...
  18:	00008b8c 	andeq	r8, r0, ip, lsl #23
  1c:	00008c08 	andeq	r8, r0, r8, lsl #24
	...
  28:	000090e0 	andeq	r9, r0, r0, ror #1
  2c:	0000910c 	andeq	r9, r0, ip, lsl #2
	...
